

Microchip MPLAB XC8 Assembler V2.31 build 20201012212115 
                                                                                               Fri Feb 19 00:20:21 2021

Microchip MPLAB XC8 C Compiler v2.31 (Free license) build 20201012212115 Og1 
     1                           	processor	16F887
     2                           	pagewidth 120
     3                           	opt	flic
     4                           	psect	cinit,global,class=CODE,merge=1,delta=2
     5                           	psect	bssCOMMON,global,class=COMMON,space=1,delta=1,noexec
     6                           	psect	cstackCOMMON,global,class=COMMON,space=1,delta=1,noexec
     7                           	psect	cstackBANK0,global,class=BANK0,space=1,delta=1,noexec
     8                           	psect	maintext,global,class=CODE,split=1,delta=2
     9                           	psect	text1,local,class=CODE,merge=1,delta=2
    10                           	psect	text2,local,class=CODE,merge=1,delta=2
    11                           	psect	text3,local,class=CODE,merge=1,delta=2
    12                           	psect	text4,local,class=CODE,merge=1,delta=2
    13                           	psect	text5,local,class=CODE,merge=1,delta=2
    14                           	psect	text6,local,class=CODE,merge=1,delta=2
    15                           	psect	text7,local,class=CODE,merge=1,delta=2
    16                           	psect	text8,local,class=CODE,merge=1,delta=2
    17                           	psect	text9,local,class=CODE,merge=1,delta=2
    18                           	psect	text10,local,class=CODE,merge=1,delta=2
    19                           	psect	text11,local,class=CODE,merge=1,delta=2
    20                           	psect	intentry,global,class=CODE,delta=2
    21                           	psect	text12,local,class=CODE,merge=1,delta=2
    22                           	psect	config,global,abs,ovrld,class=CONFIG,space=4,delta=2,noexec
    23                           	dabs	1,0x7E,2
    24  0000                     
    25                           ; Version 2.20
    26                           ; Generated 12/02/2020 GMT
    27                           ; 
    28                           ; Copyright © 2020, Microchip Technology Inc. and its subsidiaries ("Microchip")
    29                           ; All rights reserved.
    30                           ; 
    31                           ; This software is developed by Microchip Technology Inc. and its subsidiaries ("Microch
      +                          ip").
    32                           ; 
    33                           ; Redistribution and use in source and binary forms, with or without modification, are
    34                           ; permitted provided that the following conditions are met:
    35                           ; 
    36                           ;     1. Redistributions of source code must retain the above copyright notice, this lis
      +                          t of
    37                           ;        conditions and the following disclaimer.
    38                           ; 
    39                           ;     2. Redistributions in binary form must reproduce the above copyright notice, this 
      +                          list
    40                           ;        of conditions and the following disclaimer in the documentation and/or other
    41                           ;        materials provided with the distribution.
    42                           ; 
    43                           ;     3. Microchip's name may not be used to endorse or promote products derived from th
      +                          is
    44                           ;        software without specific prior written permission.
    45                           ; 
    46                           ; THIS SOFTWARE IS PROVIDED BY MICROCHIP "AS IS" AND ANY EXPRESS OR IMPLIED WARRANTIES,
    47                           ; INCLUDING, BUT NOT LIMITED TO, THE IMPLIED WARRANTIES OF MERCHANTABILITY AND FITNESS F
      +                          OR
    48                           ; PURPOSE ARE DISCLAIMED.  IN NO EVENT SHALL MICROCHIP BE LIABLE FOR ANY DIRECT, INDIREC
      +                          T,
    49                           ; INCIDENTAL, SPECIAL, EXEMPLARY, OR CONSEQUENTIAL DAMAGES (INCLUDING BUT NOT LIMITED TO
    50                           ; PROCUREMENT OF SUBSTITUTE GOODS OR SERVICES; LOSS OF USE, DATA OR PROFITS; OR BUSINESS
    51                           ; INTERRUPTION) HOWSOEVER CAUSED AND ON ANY THEORY OF LIABILITY, WHETHER IN CONTRACT, ST
      +                          RICT
    52                           ; LIABILITY, OR TORT (INCLUDING NEGLIGENCE OR OTHERWISE) ARISING IN ANY WAY OUT OF THE U
      +                          SE OF
    53                           ; THIS SOFTWARE, EVEN IF ADVISED OF THE POSSIBILITY OF SUCH DAMAGE.
    54                           ; 
    55                           ; 
    56                           ; Code-generator required, PIC16F887 Definitions
    57                           ; 
    58                           ; SFR Addresses
    59  0000                     	;# 
    60  0001                     	;# 
    61  0002                     	;# 
    62  0003                     	;# 
    63  0004                     	;# 
    64  0005                     	;# 
    65  0006                     	;# 
    66  0007                     	;# 
    67  0008                     	;# 
    68  0009                     	;# 
    69  000A                     	;# 
    70  000B                     	;# 
    71  000C                     	;# 
    72  000D                     	;# 
    73  000E                     	;# 
    74  000E                     	;# 
    75  000F                     	;# 
    76  0010                     	;# 
    77  0011                     	;# 
    78  0012                     	;# 
    79  0013                     	;# 
    80  0014                     	;# 
    81  0015                     	;# 
    82  0015                     	;# 
    83  0016                     	;# 
    84  0017                     	;# 
    85  0018                     	;# 
    86  0019                     	;# 
    87  001A                     	;# 
    88  001B                     	;# 
    89  001B                     	;# 
    90  001C                     	;# 
    91  001D                     	;# 
    92  001E                     	;# 
    93  001F                     	;# 
    94  0081                     	;# 
    95  0085                     	;# 
    96  0086                     	;# 
    97  0087                     	;# 
    98  0088                     	;# 
    99  0089                     	;# 
   100  008C                     	;# 
   101  008D                     	;# 
   102  008E                     	;# 
   103  008F                     	;# 
   104  0090                     	;# 
   105  0091                     	;# 
   106  0092                     	;# 
   107  0093                     	;# 
   108  0093                     	;# 
   109  0093                     	;# 
   110  0094                     	;# 
   111  0095                     	;# 
   112  0096                     	;# 
   113  0097                     	;# 
   114  0098                     	;# 
   115  0099                     	;# 
   116  009A                     	;# 
   117  009B                     	;# 
   118  009C                     	;# 
   119  009D                     	;# 
   120  009E                     	;# 
   121  009F                     	;# 
   122  0105                     	;# 
   123  0107                     	;# 
   124  0108                     	;# 
   125  0109                     	;# 
   126  010C                     	;# 
   127  010C                     	;# 
   128  010D                     	;# 
   129  010E                     	;# 
   130  010F                     	;# 
   131  0185                     	;# 
   132  0187                     	;# 
   133  0188                     	;# 
   134  0189                     	;# 
   135  018C                     	;# 
   136  018D                     	;# 
   137  0000                     	;# 
   138  0001                     	;# 
   139  0002                     	;# 
   140  0003                     	;# 
   141  0004                     	;# 
   142  0005                     	;# 
   143  0006                     	;# 
   144  0007                     	;# 
   145  0008                     	;# 
   146  0009                     	;# 
   147  000A                     	;# 
   148  000B                     	;# 
   149  000C                     	;# 
   150  000D                     	;# 
   151  000E                     	;# 
   152  000E                     	;# 
   153  000F                     	;# 
   154  0010                     	;# 
   155  0011                     	;# 
   156  0012                     	;# 
   157  0013                     	;# 
   158  0014                     	;# 
   159  0015                     	;# 
   160  0015                     	;# 
   161  0016                     	;# 
   162  0017                     	;# 
   163  0018                     	;# 
   164  0019                     	;# 
   165  001A                     	;# 
   166  001B                     	;# 
   167  001B                     	;# 
   168  001C                     	;# 
   169  001D                     	;# 
   170  001E                     	;# 
   171  001F                     	;# 
   172  0081                     	;# 
   173  0085                     	;# 
   174  0086                     	;# 
   175  0087                     	;# 
   176  0088                     	;# 
   177  0089                     	;# 
   178  008C                     	;# 
   179  008D                     	;# 
   180  008E                     	;# 
   181  008F                     	;# 
   182  0090                     	;# 
   183  0091                     	;# 
   184  0092                     	;# 
   185  0093                     	;# 
   186  0093                     	;# 
   187  0093                     	;# 
   188  0094                     	;# 
   189  0095                     	;# 
   190  0096                     	;# 
   191  0097                     	;# 
   192  0098                     	;# 
   193  0099                     	;# 
   194  009A                     	;# 
   195  009B                     	;# 
   196  009C                     	;# 
   197  009D                     	;# 
   198  009E                     	;# 
   199  009F                     	;# 
   200  0105                     	;# 
   201  0107                     	;# 
   202  0108                     	;# 
   203  0109                     	;# 
   204  010C                     	;# 
   205  010C                     	;# 
   206  010D                     	;# 
   207  010E                     	;# 
   208  010F                     	;# 
   209  0185                     	;# 
   210  0187                     	;# 
   211  0188                     	;# 
   212  0189                     	;# 
   213  018C                     	;# 
   214  018D                     	;# 
   215  0000                     	;# 
   216  0001                     	;# 
   217  0002                     	;# 
   218  0003                     	;# 
   219  0004                     	;# 
   220  0005                     	;# 
   221  0006                     	;# 
   222  0007                     	;# 
   223  0008                     	;# 
   224  0009                     	;# 
   225  000A                     	;# 
   226  000B                     	;# 
   227  000C                     	;# 
   228  000D                     	;# 
   229  000E                     	;# 
   230  000E                     	;# 
   231  000F                     	;# 
   232  0010                     	;# 
   233  0011                     	;# 
   234  0012                     	;# 
   235  0013                     	;# 
   236  0014                     	;# 
   237  0015                     	;# 
   238  0015                     	;# 
   239  0016                     	;# 
   240  0017                     	;# 
   241  0018                     	;# 
   242  0019                     	;# 
   243  001A                     	;# 
   244  001B                     	;# 
   245  001B                     	;# 
   246  001C                     	;# 
   247  001D                     	;# 
   248  001E                     	;# 
   249  001F                     	;# 
   250  0081                     	;# 
   251  0085                     	;# 
   252  0086                     	;# 
   253  0087                     	;# 
   254  0088                     	;# 
   255  0089                     	;# 
   256  008C                     	;# 
   257  008D                     	;# 
   258  008E                     	;# 
   259  008F                     	;# 
   260  0090                     	;# 
   261  0091                     	;# 
   262  0092                     	;# 
   263  0093                     	;# 
   264  0093                     	;# 
   265  0093                     	;# 
   266  0094                     	;# 
   267  0095                     	;# 
   268  0096                     	;# 
   269  0097                     	;# 
   270  0098                     	;# 
   271  0099                     	;# 
   272  009A                     	;# 
   273  009B                     	;# 
   274  009C                     	;# 
   275  009D                     	;# 
   276  009E                     	;# 
   277  009F                     	;# 
   278  0105                     	;# 
   279  0107                     	;# 
   280  0108                     	;# 
   281  0109                     	;# 
   282  010C                     	;# 
   283  010C                     	;# 
   284  010D                     	;# 
   285  010E                     	;# 
   286  010F                     	;# 
   287  0185                     	;# 
   288  0187                     	;# 
   289  0188                     	;# 
   290  0189                     	;# 
   291  018C                     	;# 
   292  018D                     	;# 
   293  0000                     	;# 
   294  0001                     	;# 
   295  0002                     	;# 
   296  0003                     	;# 
   297  0004                     	;# 
   298  0005                     	;# 
   299  0006                     	;# 
   300  0007                     	;# 
   301  0008                     	;# 
   302  0009                     	;# 
   303  000A                     	;# 
   304  000B                     	;# 
   305  000C                     	;# 
   306  000D                     	;# 
   307  000E                     	;# 
   308  000E                     	;# 
   309  000F                     	;# 
   310  0010                     	;# 
   311  0011                     	;# 
   312  0012                     	;# 
   313  0013                     	;# 
   314  0014                     	;# 
   315  0015                     	;# 
   316  0015                     	;# 
   317  0016                     	;# 
   318  0017                     	;# 
   319  0018                     	;# 
   320  0019                     	;# 
   321  001A                     	;# 
   322  001B                     	;# 
   323  001B                     	;# 
   324  001C                     	;# 
   325  001D                     	;# 
   326  001E                     	;# 
   327  001F                     	;# 
   328  0081                     	;# 
   329  0085                     	;# 
   330  0086                     	;# 
   331  0087                     	;# 
   332  0088                     	;# 
   333  0089                     	;# 
   334  008C                     	;# 
   335  008D                     	;# 
   336  008E                     	;# 
   337  008F                     	;# 
   338  0090                     	;# 
   339  0091                     	;# 
   340  0092                     	;# 
   341  0093                     	;# 
   342  0093                     	;# 
   343  0093                     	;# 
   344  0094                     	;# 
   345  0095                     	;# 
   346  0096                     	;# 
   347  0097                     	;# 
   348  0098                     	;# 
   349  0099                     	;# 
   350  009A                     	;# 
   351  009B                     	;# 
   352  009C                     	;# 
   353  009D                     	;# 
   354  009E                     	;# 
   355  009F                     	;# 
   356  0105                     	;# 
   357  0107                     	;# 
   358  0108                     	;# 
   359  0109                     	;# 
   360  010C                     	;# 
   361  010C                     	;# 
   362  010D                     	;# 
   363  010E                     	;# 
   364  010F                     	;# 
   365  0185                     	;# 
   366  0187                     	;# 
   367  0188                     	;# 
   368  0189                     	;# 
   369  018C                     	;# 
   370  018D                     	;# 
   371  0013                     _SSPBUF	set	19
   372  0014                     _SSPCONbits	set	20
   373  001F                     _ADCON0bits	set	31
   374  0009                     _PORTE	set	9
   375  0008                     _PORTD	set	8
   376  0007                     _PORTC	set	7
   377  0006                     _PORTB	set	6
   378  0005                     _PORTAbits	set	5
   379  0005                     _PORTA	set	5
   380  001E                     _ADRESH	set	30
   381  0001                     _TMR0	set	1
   382  000B                     _INTCONbits	set	11
   383  0063                     _SSPIF	set	99
   384  0094                     _SSPSTATbits	set	148
   385  009F                     _ADCON1bits	set	159
   386  0081                     _OPTION_REGbits	set	129
   387  008F                     _OSCCONbits	set	143
   388  0096                     _IOCB	set	150
   389  0089                     _TRISE	set	137
   390  0088                     _TRISD	set	136
   391  0087                     _TRISCbits	set	135
   392  0087                     _TRISC	set	135
   393  0086                     _TRISB	set	134
   394  0085                     _TRISAbits	set	133
   395  0085                     _TRISA	set	133
   396  0189                     _ANSELH	set	393
   397  0188                     _ANSELbits	set	392
   398  0188                     _ANSEL	set	392
   399                           
   400                           	psect	cinit
   401  000F                     start_initialization:	
   402                           ; #config settings
   403                           
   404  000F                     __initialization:
   405                           
   406                           ; Clear objects allocated to COMMON
   407  000F  01F8               	clrf	__pbssCOMMON& (0+127)
   408  0010  01F9               	clrf	(__pbssCOMMON+1)& (0+127)
   409  0011                     end_of_initialization:	
   410                           ;End of C runtime variable initialization code
   411                           
   412  0011                     __end_of__initialization:
   413  0011  0183               	clrf	3
   414  0012  120A  118A  2941   	ljmp	_main	;jump to C main() function
   415                           
   416                           	psect	bssCOMMON
   417  0078                     __pbssCOMMON:
   418  0078                     _dato_maestro:
   419  0078                     	ds	1
   420  0079                     _adc_value:
   421  0079                     	ds	1
   422                           
   423                           	psect	cstackCOMMON
   424  0070                     __pcstackCOMMON:
   425  0070                     ?_adc_conversion:
   426  0070                     ??_adc_conversion:	
   427                           ; 1 bytes @ 0x0
   428                           
   429  0070                     ?_setup:	
   430                           ; 1 bytes @ 0x0
   431                           
   432  0070                     ?_osc_config:	
   433                           ; 1 bytes @ 0x0
   434                           
   435  0070                     ?_interrup_config:	
   436                           ; 1 bytes @ 0x0
   437                           
   438  0070                     ?_tmr0_config:	
   439                           ; 1 bytes @ 0x0
   440                           
   441  0070                     ?_adc_config:	
   442                           ; 1 bytes @ 0x0
   443                           
   444  0070                     ?_SPI_config:	
   445                           ; 1 bytes @ 0x0
   446                           
   447  0070                     ?_SPI_Recibir:	
   448                           ; 1 bytes @ 0x0
   449                           
   450  0070                     ?_SPI_Enviar:	
   451                           ; 1 bytes @ 0x0
   452                           
   453  0070                     ?_initADC:	
   454                           ; 1 bytes @ 0x0
   455                           
   456  0070                     ?_ISR:	
   457                           ; 1 bytes @ 0x0
   458                           
   459  0070                     ?_main:	
   460                           ; 1 bytes @ 0x0
   461                           
   462                           
   463                           ; 1 bytes @ 0x0
   464  0070                     	ds	2
   465  0072                     ??_ISR:
   466                           
   467                           ; 1 bytes @ 0x2
   468  0072                     	ds	2
   469  0074                     ??_setup:
   470  0074                     ??_osc_config:	
   471                           ; 1 bytes @ 0x4
   472                           
   473  0074                     ??_interrup_config:	
   474                           ; 1 bytes @ 0x4
   475                           
   476  0074                     ??_tmr0_config:	
   477                           ; 1 bytes @ 0x4
   478                           
   479  0074                     ??_SPI_Recibir:	
   480                           ; 1 bytes @ 0x4
   481                           
   482  0074                     ??_SPI_Enviar:	
   483                           ; 1 bytes @ 0x4
   484                           
   485  0074                     ??_initADC:	
   486                           ; 1 bytes @ 0x4
   487                           
   488  0074                     ?_SPI_Esclavo_Init:	
   489                           ; 1 bytes @ 0x4
   490                           
   491  0074                     SPI_Esclavo_Init@SCK:	
   492                           ; 1 bytes @ 0x4
   493                           
   494  0074                     SPI_Enviar@valor:	
   495                           ; 1 bytes @ 0x4
   496                           
   497                           
   498                           ; 1 bytes @ 0x4
   499  0074                     	ds	1
   500  0075                     ??_SPI_Esclavo_Init:
   501                           
   502                           ; 1 bytes @ 0x5
   503  0075                     	ds	1
   504  0076                     initADC@CHS:
   505                           
   506                           ; 1 bytes @ 0x6
   507  0076                     	ds	1
   508  0077                     ??_adc_config:
   509  0077                     SPI_Esclavo_Init@port_mode:	
   510                           ; 1 bytes @ 0x7
   511                           
   512                           
   513                           ; 1 bytes @ 0x7
   514  0077                     	ds	1
   515                           
   516                           	psect	cstackBANK0
   517  0020                     __pcstackBANK0:
   518  0020                     ??_SPI_config:
   519                           
   520                           ; 1 bytes @ 0x0
   521  0020                     	ds	1
   522  0021                     ??_main:
   523                           
   524                           ; 1 bytes @ 0x1
   525  0021                     	ds	1
   526                           
   527                           	psect	maintext
   528  0141                     __pmaintext:	
   529 ;;
   530 ;;Main: autosize = 0, tempsize = 1, incstack = 0, save=0
   531 ;;
   532 ;; *************** function _main *****************
   533 ;; Defined at:
   534 ;;		line 82 in file "SLAVE_POT_SPI.c"
   535 ;; Parameters:    Size  Location     Type
   536 ;;		None
   537 ;; Auto vars:     Size  Location     Type
   538 ;;		None
   539 ;; Return value:  Size  Location     Type
   540 ;;                  1    wreg      void 
   541 ;; Registers used:
   542 ;;		wreg, fsr0l, fsr0h, status,2, status,0, pclath, cstack
   543 ;; Tracked objects:
   544 ;;		On entry : B00/0
   545 ;;		On exit  : 0/0
   546 ;;		Unchanged: 0/0
   547 ;; Data sizes:     COMMON   BANK0   BANK1   BANK3   BANK2
   548 ;;      Params:         0       0       0       0       0
   549 ;;      Locals:         0       0       0       0       0
   550 ;;      Temps:          0       1       0       0       0
   551 ;;      Totals:         0       1       0       0       0
   552 ;;Total ram usage:        1 bytes
   553 ;; Hardware stack levels required when called:    4
   554 ;; This function calls:
   555 ;;		_SPI_Enviar
   556 ;;		_SPI_Recibir
   557 ;;		_SPI_config
   558 ;;		_adc_config
   559 ;;		_interrup_config
   560 ;;		_osc_config
   561 ;;		_setup
   562 ;;		_tmr0_config
   563 ;; This function is called by:
   564 ;;		Startup code after reset
   565 ;; This function uses a non-reentrant model
   566 ;;
   567                           
   568                           
   569                           ;psect for function _main
   570  0141                     _main:
   571  0141                     l1057:	
   572                           ;incstack = 0
   573                           ; Regs used in _main: [wreg-fsr0h+status,2+status,0+pclath+cstack]
   574                           
   575                           
   576                           ;SLAVE_POT_SPI.c: 84:     setup();
   577  0141  120A  118A  217C  120A  118A  	fcall	_setup
   578                           
   579                           ;SLAVE_POT_SPI.c: 85:     osc_config();
   580  0146  120A  118A  220A  120A  118A  	fcall	_osc_config
   581                           
   582                           ;SLAVE_POT_SPI.c: 86:     interrup_config();
   583  014B  120A  118A  21FE  120A  118A  	fcall	_interrup_config
   584  0150                     l1059:
   585                           
   586                           ;SLAVE_POT_SPI.c: 87:     tmr0_config ();
   587  0150  120A  118A  21E4  120A  118A  	fcall	_tmr0_config
   588  0155                     l1061:
   589                           
   590                           ;SLAVE_POT_SPI.c: 88:     adc_config();
   591  0155  120A  118A  2214  120A  118A  	fcall	_adc_config
   592  015A                     l1063:
   593                           
   594                           ;SLAVE_POT_SPI.c: 89:     SPI_config ();
   595  015A  120A  118A  21F1  120A  118A  	fcall	_SPI_config
   596  015F                     l1065:
   597                           
   598                           ;SLAVE_POT_SPI.c: 92:     {;SLAVE_POT_SPI.c: 93:         if (SSPIF == 1)
   599  015F  1283               	bcf	3,5	;RP0=0, select bank0
   600  0160  1303               	bcf	3,6	;RP1=0, select bank0
   601  0161  1D8C               	btfss	12,3	;volatile
   602  0162  2964               	goto	u51
   603  0163  2965               	goto	u50
   604  0164                     u51:
   605  0164  295F               	goto	l1065
   606  0165                     u50:
   607  0165                     l1067:
   608                           
   609                           ;SLAVE_POT_SPI.c: 94:         {;SLAVE_POT_SPI.c: 95:         dato_maestro = SPI_Recibir(
      +                          );
   610  0165  120A  118A  2221  120A  118A  	fcall	_SPI_Recibir
   611  016A  1283               	bcf	3,5	;RP0=0, select bank0
   612  016B  1303               	bcf	3,6	;RP1=0, select bank0
   613  016C  00A1               	movwf	??_main
   614  016D  0821               	movf	??_main,w
   615  016E  00F8               	movwf	_dato_maestro
   616  016F                     l1069:
   617                           
   618                           ;SLAVE_POT_SPI.c: 96:         SPI_Enviar (ADRESH);
   619  016F  081E               	movf	30,w	;volatile
   620  0170  120A  118A  221B  120A  118A  	fcall	_SPI_Enviar
   621  0175                     l1071:
   622                           
   623                           ;SLAVE_POT_SPI.c: 97:         SSPIF = 0;
   624  0175  1283               	bcf	3,5	;RP0=0, select bank0
   625  0176  1303               	bcf	3,6	;RP1=0, select bank0
   626  0177  118C               	bcf	12,3	;volatile
   627  0178  295F               	goto	l1065
   628  0179  120A  118A  280C   	ljmp	start
   629  017C                     __end_of_main:
   630                           
   631                           	psect	text1
   632  01E4                     __ptext1:	
   633 ;; *************** function _tmr0_config *****************
   634 ;; Defined at:
   635 ;;		line 158 in file "SLAVE_POT_SPI.c"
   636 ;; Parameters:    Size  Location     Type
   637 ;;		None
   638 ;; Auto vars:     Size  Location     Type
   639 ;;		None
   640 ;; Return value:  Size  Location     Type
   641 ;;                  1    wreg      void 
   642 ;; Registers used:
   643 ;;		wreg
   644 ;; Tracked objects:
   645 ;;		On entry : 0/0
   646 ;;		On exit  : 0/0
   647 ;;		Unchanged: 0/0
   648 ;; Data sizes:     COMMON   BANK0   BANK1   BANK3   BANK2
   649 ;;      Params:         0       0       0       0       0
   650 ;;      Locals:         0       0       0       0       0
   651 ;;      Temps:          0       0       0       0       0
   652 ;;      Totals:         0       0       0       0       0
   653 ;;Total ram usage:        0 bytes
   654 ;; Hardware stack levels used:    1
   655 ;; Hardware stack levels required when called:    2
   656 ;; This function calls:
   657 ;;		Nothing
   658 ;; This function is called by:
   659 ;;		_main
   660 ;; This function uses a non-reentrant model
   661 ;;
   662                           
   663                           
   664                           ;psect for function _tmr0_config
   665  01E4                     _tmr0_config:
   666  01E4                     l843:	
   667                           ;incstack = 0
   668                           ; Regs used in _tmr0_config: [wreg]
   669                           
   670                           
   671                           ;SLAVE_POT_SPI.c: 160:     OPTION_REGbits.nRBPU = 1;
   672  01E4  1683               	bsf	3,5	;RP0=1, select bank1
   673  01E5  1303               	bcf	3,6	;RP1=0, select bank1
   674  01E6  1781               	bsf	1,7	;volatile
   675                           
   676                           ;SLAVE_POT_SPI.c: 161:     OPTION_REGbits.T0CS = 0;
   677  01E7  1281               	bcf	1,5	;volatile
   678                           
   679                           ;SLAVE_POT_SPI.c: 162:     OPTION_REGbits.PSA = 0;
   680  01E8  1181               	bcf	1,3	;volatile
   681                           
   682                           ;SLAVE_POT_SPI.c: 163:     OPTION_REGbits.PS2 = 0;
   683  01E9  1101               	bcf	1,2	;volatile
   684                           
   685                           ;SLAVE_POT_SPI.c: 164:     OPTION_REGbits.PS1 = 1;
   686  01EA  1481               	bsf	1,1	;volatile
   687                           
   688                           ;SLAVE_POT_SPI.c: 165:     OPTION_REGbits.PS0 = 0;
   689  01EB  1001               	bcf	1,0	;volatile
   690  01EC                     l845:
   691                           
   692                           ;SLAVE_POT_SPI.c: 166:     TMR0 = 100;
   693  01EC  3064               	movlw	100
   694  01ED  1283               	bcf	3,5	;RP0=0, select bank0
   695  01EE  1303               	bcf	3,6	;RP1=0, select bank0
   696  01EF  0081               	movwf	1	;volatile
   697  01F0                     l103:
   698  01F0  0008               	return
   699  01F1                     __end_of_tmr0_config:
   700                           
   701                           	psect	text2
   702  017C                     __ptext2:	
   703 ;; *************** function _setup *****************
   704 ;; Defined at:
   705 ;;		line 108 in file "SLAVE_POT_SPI.c"
   706 ;; Parameters:    Size  Location     Type
   707 ;;		None
   708 ;; Auto vars:     Size  Location     Type
   709 ;;		None
   710 ;; Return value:  Size  Location     Type
   711 ;;                  1    wreg      void 
   712 ;; Registers used:
   713 ;;		status,2
   714 ;; Tracked objects:
   715 ;;		On entry : 0/0
   716 ;;		On exit  : 0/0
   717 ;;		Unchanged: 0/0
   718 ;; Data sizes:     COMMON   BANK0   BANK1   BANK3   BANK2
   719 ;;      Params:         0       0       0       0       0
   720 ;;      Locals:         0       0       0       0       0
   721 ;;      Temps:          0       0       0       0       0
   722 ;;      Totals:         0       0       0       0       0
   723 ;;Total ram usage:        0 bytes
   724 ;; Hardware stack levels used:    1
   725 ;; Hardware stack levels required when called:    2
   726 ;; This function calls:
   727 ;;		Nothing
   728 ;; This function is called by:
   729 ;;		_main
   730 ;; This function uses a non-reentrant model
   731 ;;
   732                           
   733                           
   734                           ;psect for function _setup
   735  017C                     _setup:
   736  017C                     l819:	
   737                           ;incstack = 0
   738                           ; Regs used in _setup: [status,2]
   739                           
   740                           
   741                           ;SLAVE_POT_SPI.c: 110:     ANSEL = 0;
   742  017C  1683               	bsf	3,5	;RP0=1, select bank3
   743  017D  1703               	bsf	3,6	;RP1=1, select bank3
   744  017E  0188               	clrf	8	;volatile
   745                           
   746                           ;SLAVE_POT_SPI.c: 111:     TRISA = 0;
   747  017F  1683               	bsf	3,5	;RP0=1, select bank1
   748  0180  1303               	bcf	3,6	;RP1=0, select bank1
   749  0181  0185               	clrf	5	;volatile
   750                           
   751                           ;SLAVE_POT_SPI.c: 112:     PORTA = 0;
   752  0182  1283               	bcf	3,5	;RP0=0, select bank0
   753  0183  1303               	bcf	3,6	;RP1=0, select bank0
   754  0184  0185               	clrf	5	;volatile
   755  0185                     l821:
   756                           
   757                           ;SLAVE_POT_SPI.c: 113:     TRISAbits.TRISA0 = 1;
   758  0185  1683               	bsf	3,5	;RP0=1, select bank1
   759  0186  1303               	bcf	3,6	;RP1=0, select bank1
   760  0187  1405               	bsf	5,0	;volatile
   761  0188                     l823:
   762                           
   763                           ;SLAVE_POT_SPI.c: 114:     ANSELbits.ANS0 = 1;
   764  0188  1683               	bsf	3,5	;RP0=1, select bank3
   765  0189  1703               	bsf	3,6	;RP1=1, select bank3
   766  018A  1408               	bsf	8,0	;volatile
   767  018B                     l825:
   768                           
   769                           ;SLAVE_POT_SPI.c: 115:     TRISAbits.TRISA5 = 1;
   770  018B  1683               	bsf	3,5	;RP0=1, select bank1
   771  018C  1303               	bcf	3,6	;RP1=0, select bank1
   772  018D  1685               	bsf	5,5	;volatile
   773  018E                     l827:
   774                           
   775                           ;SLAVE_POT_SPI.c: 116:     ANSELbits.ANS5 = 0;
   776  018E  1683               	bsf	3,5	;RP0=1, select bank3
   777  018F  1703               	bsf	3,6	;RP1=1, select bank3
   778  0190  1288               	bcf	8,5	;volatile
   779  0191                     l829:
   780                           
   781                           ;SLAVE_POT_SPI.c: 117:     PORTAbits.RA5 = 1;
   782  0191  1283               	bcf	3,5	;RP0=0, select bank0
   783  0192  1303               	bcf	3,6	;RP1=0, select bank0
   784  0193  1685               	bsf	5,5	;volatile
   785                           
   786                           ;SLAVE_POT_SPI.c: 120:     ANSELH = 0;
   787  0194  1683               	bsf	3,5	;RP0=1, select bank3
   788  0195  1703               	bsf	3,6	;RP1=1, select bank3
   789  0196  0189               	clrf	9	;volatile
   790                           
   791                           ;SLAVE_POT_SPI.c: 121:     TRISB = 0;
   792  0197  1683               	bsf	3,5	;RP0=1, select bank1
   793  0198  1303               	bcf	3,6	;RP1=0, select bank1
   794  0199  0186               	clrf	6	;volatile
   795                           
   796                           ;SLAVE_POT_SPI.c: 122:     PORTB = 0;
   797  019A  1283               	bcf	3,5	;RP0=0, select bank0
   798  019B  1303               	bcf	3,6	;RP1=0, select bank0
   799  019C  0186               	clrf	6	;volatile
   800                           
   801                           ;SLAVE_POT_SPI.c: 123:     TRISC = 0;
   802  019D  1683               	bsf	3,5	;RP0=1, select bank1
   803  019E  1303               	bcf	3,6	;RP1=0, select bank1
   804  019F  0187               	clrf	7	;volatile
   805                           
   806                           ;SLAVE_POT_SPI.c: 124:     PORTC = 0;
   807  01A0  1283               	bcf	3,5	;RP0=0, select bank0
   808  01A1  1303               	bcf	3,6	;RP1=0, select bank0
   809  01A2  0187               	clrf	7	;volatile
   810  01A3                     l831:
   811                           
   812                           ;SLAVE_POT_SPI.c: 125:     TRISCbits.TRISC3 = 1;
   813  01A3  1683               	bsf	3,5	;RP0=1, select bank1
   814  01A4  1303               	bcf	3,6	;RP1=0, select bank1
   815  01A5  1587               	bsf	7,3	;volatile
   816  01A6                     l833:
   817                           
   818                           ;SLAVE_POT_SPI.c: 126:     TRISCbits.TRISC4 = 1;
   819  01A6  1607               	bsf	7,4	;volatile
   820  01A7                     l835:
   821                           
   822                           ;SLAVE_POT_SPI.c: 127:     TRISCbits.TRISC5 = 0;
   823  01A7  1287               	bcf	7,5	;volatile
   824                           
   825                           ;SLAVE_POT_SPI.c: 128:     TRISD = 0;
   826  01A8  0188               	clrf	8	;volatile
   827                           
   828                           ;SLAVE_POT_SPI.c: 129:     PORTD = 0;
   829  01A9  1283               	bcf	3,5	;RP0=0, select bank0
   830  01AA  1303               	bcf	3,6	;RP1=0, select bank0
   831  01AB  0188               	clrf	8	;volatile
   832                           
   833                           ;SLAVE_POT_SPI.c: 130:     TRISE = 0;
   834  01AC  1683               	bsf	3,5	;RP0=1, select bank1
   835  01AD  1303               	bcf	3,6	;RP1=0, select bank1
   836  01AE  0189               	clrf	9	;volatile
   837                           
   838                           ;SLAVE_POT_SPI.c: 131:     PORTE = 0;
   839  01AF  1283               	bcf	3,5	;RP0=0, select bank0
   840  01B0  1303               	bcf	3,6	;RP1=0, select bank0
   841  01B1  0189               	clrf	9	;volatile
   842  01B2                     l94:
   843  01B2  0008               	return
   844  01B3                     __end_of_setup:
   845                           
   846                           	psect	text3
   847  020A                     __ptext3:	
   848 ;; *************** function _osc_config *****************
   849 ;; Defined at:
   850 ;;		line 147 in file "SLAVE_POT_SPI.c"
   851 ;; Parameters:    Size  Location     Type
   852 ;;		None
   853 ;; Auto vars:     Size  Location     Type
   854 ;;		None
   855 ;; Return value:  Size  Location     Type
   856 ;;                  1    wreg      void 
   857 ;; Registers used:
   858 ;;		None
   859 ;; Tracked objects:
   860 ;;		On entry : 0/0
   861 ;;		On exit  : 0/0
   862 ;;		Unchanged: 0/0
   863 ;; Data sizes:     COMMON   BANK0   BANK1   BANK3   BANK2
   864 ;;      Params:         0       0       0       0       0
   865 ;;      Locals:         0       0       0       0       0
   866 ;;      Temps:          0       0       0       0       0
   867 ;;      Totals:         0       0       0       0       0
   868 ;;Total ram usage:        0 bytes
   869 ;; Hardware stack levels used:    1
   870 ;; Hardware stack levels required when called:    2
   871 ;; This function calls:
   872 ;;		Nothing
   873 ;; This function is called by:
   874 ;;		_main
   875 ;; This function uses a non-reentrant model
   876 ;;
   877                           
   878                           
   879                           ;psect for function _osc_config
   880  020A                     _osc_config:
   881  020A                     l837:	
   882                           ;incstack = 0
   883                           ; Regs used in _osc_config: []
   884                           
   885                           
   886                           ;SLAVE_POT_SPI.c: 149:     OSCCONbits.IRCF2 = 1;
   887  020A  1683               	bsf	3,5	;RP0=1, select bank1
   888  020B  1303               	bcf	3,6	;RP1=0, select bank1
   889  020C  170F               	bsf	15,6	;volatile
   890                           
   891                           ;SLAVE_POT_SPI.c: 150:     OSCCONbits.IRCF1 = 1;
   892  020D  168F               	bsf	15,5	;volatile
   893                           
   894                           ;SLAVE_POT_SPI.c: 151:     OSCCONbits.IRCF0 = 0;
   895  020E  120F               	bcf	15,4	;volatile
   896                           
   897                           ;SLAVE_POT_SPI.c: 152:     OSCCONbits.OSTS = 0;
   898  020F  118F               	bcf	15,3	;volatile
   899                           
   900                           ;SLAVE_POT_SPI.c: 153:     OSCCONbits.HTS = 0;
   901  0210  110F               	bcf	15,2	;volatile
   902                           
   903                           ;SLAVE_POT_SPI.c: 154:     OSCCONbits.LTS = 1;
   904  0211  148F               	bsf	15,1	;volatile
   905                           
   906                           ;SLAVE_POT_SPI.c: 155:     OSCCONbits.SCS = 0;
   907  0212  100F               	bcf	15,0	;volatile
   908  0213                     l100:
   909  0213  0008               	return
   910  0214                     __end_of_osc_config:
   911                           
   912                           	psect	text4
   913  01FE                     __ptext4:	
   914 ;; *************** function _interrup_config *****************
   915 ;; Defined at:
   916 ;;		line 134 in file "SLAVE_POT_SPI.c"
   917 ;; Parameters:    Size  Location     Type
   918 ;;		None
   919 ;; Auto vars:     Size  Location     Type
   920 ;;		None
   921 ;; Return value:  Size  Location     Type
   922 ;;                  1    wreg      void 
   923 ;; Registers used:
   924 ;;		status,2
   925 ;; Tracked objects:
   926 ;;		On entry : 0/0
   927 ;;		On exit  : 0/0
   928 ;;		Unchanged: 0/0
   929 ;; Data sizes:     COMMON   BANK0   BANK1   BANK3   BANK2
   930 ;;      Params:         0       0       0       0       0
   931 ;;      Locals:         0       0       0       0       0
   932 ;;      Temps:          0       0       0       0       0
   933 ;;      Totals:         0       0       0       0       0
   934 ;;Total ram usage:        0 bytes
   935 ;; Hardware stack levels used:    1
   936 ;; Hardware stack levels required when called:    2
   937 ;; This function calls:
   938 ;;		Nothing
   939 ;; This function is called by:
   940 ;;		_main
   941 ;; This function uses a non-reentrant model
   942 ;;
   943                           
   944                           
   945                           ;psect for function _interrup_config
   946  01FE                     _interrup_config:
   947  01FE                     l839:	
   948                           ;incstack = 0
   949                           ; Regs used in _interrup_config: [status,2]
   950                           
   951                           
   952                           ;SLAVE_POT_SPI.c: 136:     INTCONbits.GIE = 1;
   953  01FE  178B               	bsf	11,7	;volatile
   954                           
   955                           ;SLAVE_POT_SPI.c: 137:     INTCONbits.PEIE = 1;
   956  01FF  170B               	bsf	11,6	;volatile
   957                           
   958                           ;SLAVE_POT_SPI.c: 138:     INTCONbits.T0IE = 1;
   959  0200  168B               	bsf	11,5	;volatile
   960                           
   961                           ;SLAVE_POT_SPI.c: 139:     INTCONbits.INTE = 0;
   962  0201  120B               	bcf	11,4	;volatile
   963                           
   964                           ;SLAVE_POT_SPI.c: 140:     INTCONbits.RBIE = 0;
   965  0202  118B               	bcf	11,3	;volatile
   966                           
   967                           ;SLAVE_POT_SPI.c: 141:     INTCONbits.T0IF = 0;
   968  0203  110B               	bcf	11,2	;volatile
   969                           
   970                           ;SLAVE_POT_SPI.c: 142:     INTCONbits.INTF = 0;
   971  0204  108B               	bcf	11,1	;volatile
   972                           
   973                           ;SLAVE_POT_SPI.c: 143:     INTCONbits.RBIF = 0;
   974  0205  100B               	bcf	11,0	;volatile
   975  0206                     l841:
   976                           
   977                           ;SLAVE_POT_SPI.c: 144:     IOCB = 0b00000000;
   978  0206  1683               	bsf	3,5	;RP0=1, select bank1
   979  0207  1303               	bcf	3,6	;RP1=0, select bank1
   980  0208  0196               	clrf	22	;volatile
   981  0209                     l97:
   982  0209  0008               	return
   983  020A                     __end_of_interrup_config:
   984                           
   985                           	psect	text5
   986  0214                     __ptext5:	
   987 ;; *************** function _adc_config *****************
   988 ;; Defined at:
   989 ;;		line 173 in file "SLAVE_POT_SPI.c"
   990 ;; Parameters:    Size  Location     Type
   991 ;;		None
   992 ;; Auto vars:     Size  Location     Type
   993 ;;		None
   994 ;; Return value:  Size  Location     Type
   995 ;;                  1    wreg      void 
   996 ;; Registers used:
   997 ;;		wreg, fsr0l, fsr0h, status,2, status,0, pclath, cstack
   998 ;; Tracked objects:
   999 ;;		On entry : 0/0
  1000 ;;		On exit  : 0/0
  1001 ;;		Unchanged: 0/0
  1002 ;; Data sizes:     COMMON   BANK0   BANK1   BANK3   BANK2
  1003 ;;      Params:         0       0       0       0       0
  1004 ;;      Locals:         0       0       0       0       0
  1005 ;;      Temps:          0       0       0       0       0
  1006 ;;      Totals:         0       0       0       0       0
  1007 ;;Total ram usage:        0 bytes
  1008 ;; Hardware stack levels used:    1
  1009 ;; Hardware stack levels required when called:    3
  1010 ;; This function calls:
  1011 ;;		_initADC
  1012 ;; This function is called by:
  1013 ;;		_main
  1014 ;; This function uses a non-reentrant model
  1015 ;;
  1016                           
  1017                           
  1018                           ;psect for function _adc_config
  1019  0214                     _adc_config:
  1020  0214                     l847:	
  1021                           ;incstack = 0
  1022                           ; Regs used in _adc_config: [wreg-fsr0h+status,2+status,0+pclath+cstack]
  1023                           
  1024                           
  1025                           ;SLAVE_POT_SPI.c: 175:     initADC (0);
  1026  0214  3000               	movlw	0
  1027  0215  120A  118A  2015  120A  118A  	fcall	_initADC
  1028  021A                     l106:
  1029  021A  0008               	return
  1030  021B                     __end_of_adc_config:
  1031                           
  1032                           	psect	text6
  1033  0015                     __ptext6:	
  1034 ;; *************** function _initADC *****************
  1035 ;; Defined at:
  1036 ;;		line 19 in file "ADC_SPI.c"
  1037 ;; Parameters:    Size  Location     Type
  1038 ;;  CHS             1    wreg     unsigned char 
  1039 ;; Auto vars:     Size  Location     Type
  1040 ;;  CHS             1    6[COMMON] unsigned char 
  1041 ;; Return value:  Size  Location     Type
  1042 ;;                  1    wreg      void 
  1043 ;; Registers used:
  1044 ;;		wreg, fsr0l, fsr0h, status,2, status,0
  1045 ;; Tracked objects:
  1046 ;;		On entry : 0/0
  1047 ;;		On exit  : 0/0
  1048 ;;		Unchanged: 0/0
  1049 ;; Data sizes:     COMMON   BANK0   BANK1   BANK3   BANK2
  1050 ;;      Params:         0       0       0       0       0
  1051 ;;      Locals:         1       0       0       0       0
  1052 ;;      Temps:          2       0       0       0       0
  1053 ;;      Totals:         3       0       0       0       0
  1054 ;;Total ram usage:        3 bytes
  1055 ;; Hardware stack levels used:    1
  1056 ;; Hardware stack levels required when called:    2
  1057 ;; This function calls:
  1058 ;;		Nothing
  1059 ;; This function is called by:
  1060 ;;		_adc_config
  1061 ;; This function uses a non-reentrant model
  1062 ;;
  1063                           
  1064                           
  1065                           ;psect for function _initADC
  1066  0015                     _initADC:
  1067                           
  1068                           ;incstack = 0
  1069                           ; Regs used in _initADC: [wreg-fsr0h+status,2+status,0]
  1070                           ;initADC@CHS stored from wreg
  1071  0015  00F6               	movwf	initADC@CHS
  1072  0016                     l779:
  1073                           
  1074                           ;ADC_SPI.c: 19: void initADC (uint8_t CHS);ADC_SPI.c: 20: {;ADC_SPI.c: 21:     switch (C
      +                          HS)
  1075  0016  2880               	goto	l783
  1076  0017                     l121:	
  1077                           ;ADC_SPI.c: 22:     {;ADC_SPI.c: 23:         case 0:
  1078                           
  1079                           
  1080                           ;ADC_SPI.c: 24:             ADCON0bits.CHS3 = 0;
  1081  0017  1283               	bcf	3,5	;RP0=0, select bank0
  1082  0018  1303               	bcf	3,6	;RP1=0, select bank0
  1083  0019  129F               	bcf	31,5	;volatile
  1084                           
  1085                           ;ADC_SPI.c: 25:             ADCON0bits.CHS2 = 0;
  1086  001A  121F               	bcf	31,4	;volatile
  1087                           
  1088                           ;ADC_SPI.c: 26:             ADCON0bits.CHS1 = 0;
  1089  001B  119F               	bcf	31,3	;volatile
  1090                           
  1091                           ;ADC_SPI.c: 27:             ADCON0bits.CHS0 = 0;
  1092  001C  111F               	bcf	31,2	;volatile
  1093                           
  1094                           ;ADC_SPI.c: 28:             break;
  1095  001D  28B4               	goto	l122
  1096  001E                     l123:	
  1097                           ;ADC_SPI.c: 29:         case 1:
  1098                           
  1099                           
  1100                           ;ADC_SPI.c: 30:             ADCON0bits.CHS3 = 0;
  1101  001E  1283               	bcf	3,5	;RP0=0, select bank0
  1102  001F  1303               	bcf	3,6	;RP1=0, select bank0
  1103  0020  129F               	bcf	31,5	;volatile
  1104                           
  1105                           ;ADC_SPI.c: 31:             ADCON0bits.CHS2 = 0;
  1106  0021  121F               	bcf	31,4	;volatile
  1107                           
  1108                           ;ADC_SPI.c: 32:             ADCON0bits.CHS1 = 0;
  1109  0022  119F               	bcf	31,3	;volatile
  1110                           
  1111                           ;ADC_SPI.c: 33:             ADCON0bits.CHS0 = 1;
  1112  0023  151F               	bsf	31,2	;volatile
  1113                           
  1114                           ;ADC_SPI.c: 34:             break;
  1115  0024  28B4               	goto	l122
  1116  0025                     l124:	
  1117                           ;ADC_SPI.c: 36:         case 2:
  1118                           
  1119                           
  1120                           ;ADC_SPI.c: 37:             ADCON0bits.CHS3 = 0;
  1121  0025  1283               	bcf	3,5	;RP0=0, select bank0
  1122  0026  1303               	bcf	3,6	;RP1=0, select bank0
  1123  0027  129F               	bcf	31,5	;volatile
  1124                           
  1125                           ;ADC_SPI.c: 38:             ADCON0bits.CHS2 = 0;
  1126  0028  121F               	bcf	31,4	;volatile
  1127                           
  1128                           ;ADC_SPI.c: 39:             ADCON0bits.CHS1 = 1;
  1129  0029  159F               	bsf	31,3	;volatile
  1130                           
  1131                           ;ADC_SPI.c: 40:             ADCON0bits.CHS0 = 0;
  1132  002A  111F               	bcf	31,2	;volatile
  1133                           
  1134                           ;ADC_SPI.c: 41:             break;
  1135  002B  28B4               	goto	l122
  1136  002C                     l125:	
  1137                           ;ADC_SPI.c: 43:         case 3:
  1138                           
  1139                           
  1140                           ;ADC_SPI.c: 44:             ADCON0bits.CHS3 = 0;
  1141  002C  1283               	bcf	3,5	;RP0=0, select bank0
  1142  002D  1303               	bcf	3,6	;RP1=0, select bank0
  1143  002E  129F               	bcf	31,5	;volatile
  1144                           
  1145                           ;ADC_SPI.c: 45:             ADCON0bits.CHS2 = 0;
  1146  002F  121F               	bcf	31,4	;volatile
  1147                           
  1148                           ;ADC_SPI.c: 46:             ADCON0bits.CHS1 = 1;
  1149  0030  159F               	bsf	31,3	;volatile
  1150                           
  1151                           ;ADC_SPI.c: 47:             ADCON0bits.CHS0 = 1;
  1152  0031  151F               	bsf	31,2	;volatile
  1153                           
  1154                           ;ADC_SPI.c: 48:             break;
  1155  0032  28B4               	goto	l122
  1156  0033                     l126:	
  1157                           ;ADC_SPI.c: 50:         case 4:
  1158                           
  1159                           
  1160                           ;ADC_SPI.c: 51:             ADCON0bits.CHS3 = 0;
  1161  0033  1283               	bcf	3,5	;RP0=0, select bank0
  1162  0034  1303               	bcf	3,6	;RP1=0, select bank0
  1163  0035  129F               	bcf	31,5	;volatile
  1164                           
  1165                           ;ADC_SPI.c: 52:             ADCON0bits.CHS2 = 1;
  1166  0036  161F               	bsf	31,4	;volatile
  1167                           
  1168                           ;ADC_SPI.c: 53:             ADCON0bits.CHS1 = 0;
  1169  0037  119F               	bcf	31,3	;volatile
  1170                           
  1171                           ;ADC_SPI.c: 54:             ADCON0bits.CHS0 = 0;
  1172  0038  111F               	bcf	31,2	;volatile
  1173                           
  1174                           ;ADC_SPI.c: 55:             break;
  1175  0039  28B4               	goto	l122
  1176  003A                     l127:	
  1177                           ;ADC_SPI.c: 57:         case 5:
  1178                           
  1179                           
  1180                           ;ADC_SPI.c: 58:             ADCON0bits.CHS3 = 0;
  1181  003A  1283               	bcf	3,5	;RP0=0, select bank0
  1182  003B  1303               	bcf	3,6	;RP1=0, select bank0
  1183  003C  129F               	bcf	31,5	;volatile
  1184                           
  1185                           ;ADC_SPI.c: 59:             ADCON0bits.CHS2 = 1;
  1186  003D  161F               	bsf	31,4	;volatile
  1187                           
  1188                           ;ADC_SPI.c: 60:             ADCON0bits.CHS1 = 0;
  1189  003E  119F               	bcf	31,3	;volatile
  1190                           
  1191                           ;ADC_SPI.c: 61:             ADCON0bits.CHS0 = 1;
  1192  003F  151F               	bsf	31,2	;volatile
  1193                           
  1194                           ;ADC_SPI.c: 62:             break;
  1195  0040  28B4               	goto	l122
  1196  0041                     l128:	
  1197                           ;ADC_SPI.c: 64:         case 6:
  1198                           
  1199                           
  1200                           ;ADC_SPI.c: 65:             ADCON0bits.CHS3 = 0;
  1201  0041  1283               	bcf	3,5	;RP0=0, select bank0
  1202  0042  1303               	bcf	3,6	;RP1=0, select bank0
  1203  0043  129F               	bcf	31,5	;volatile
  1204                           
  1205                           ;ADC_SPI.c: 66:             ADCON0bits.CHS2 = 1;
  1206  0044  161F               	bsf	31,4	;volatile
  1207                           
  1208                           ;ADC_SPI.c: 67:             ADCON0bits.CHS1 = 1;
  1209  0045  159F               	bsf	31,3	;volatile
  1210                           
  1211                           ;ADC_SPI.c: 68:             ADCON0bits.CHS0 = 0;
  1212  0046  111F               	bcf	31,2	;volatile
  1213                           
  1214                           ;ADC_SPI.c: 69:             break;
  1215  0047  28B4               	goto	l122
  1216  0048                     l129:	
  1217                           ;ADC_SPI.c: 71:         case 7:
  1218                           
  1219                           
  1220                           ;ADC_SPI.c: 72:             ADCON0bits.CHS3 = 0;
  1221  0048  1283               	bcf	3,5	;RP0=0, select bank0
  1222  0049  1303               	bcf	3,6	;RP1=0, select bank0
  1223  004A  129F               	bcf	31,5	;volatile
  1224                           
  1225                           ;ADC_SPI.c: 73:             ADCON0bits.CHS2 = 1;
  1226  004B  161F               	bsf	31,4	;volatile
  1227                           
  1228                           ;ADC_SPI.c: 74:             ADCON0bits.CHS1 = 1;
  1229  004C  159F               	bsf	31,3	;volatile
  1230                           
  1231                           ;ADC_SPI.c: 75:             ADCON0bits.CHS0 = 1;
  1232  004D  151F               	bsf	31,2	;volatile
  1233                           
  1234                           ;ADC_SPI.c: 76:             break;
  1235  004E  28B4               	goto	l122
  1236  004F                     l130:	
  1237                           ;ADC_SPI.c: 78:         case 8:
  1238                           
  1239                           
  1240                           ;ADC_SPI.c: 79:             ADCON0bits.CHS3 = 1;
  1241  004F  1283               	bcf	3,5	;RP0=0, select bank0
  1242  0050  1303               	bcf	3,6	;RP1=0, select bank0
  1243  0051  169F               	bsf	31,5	;volatile
  1244                           
  1245                           ;ADC_SPI.c: 80:             ADCON0bits.CHS2 = 0;
  1246  0052  121F               	bcf	31,4	;volatile
  1247                           
  1248                           ;ADC_SPI.c: 81:             ADCON0bits.CHS1 = 0;
  1249  0053  119F               	bcf	31,3	;volatile
  1250                           
  1251                           ;ADC_SPI.c: 82:             ADCON0bits.CHS0 = 0;
  1252  0054  111F               	bcf	31,2	;volatile
  1253                           
  1254                           ;ADC_SPI.c: 83:             break;
  1255  0055  28B4               	goto	l122
  1256  0056                     l131:	
  1257                           ;ADC_SPI.c: 85:         case 9:
  1258                           
  1259                           
  1260                           ;ADC_SPI.c: 86:             ADCON0bits.CHS3 = 1;
  1261  0056  1283               	bcf	3,5	;RP0=0, select bank0
  1262  0057  1303               	bcf	3,6	;RP1=0, select bank0
  1263  0058  169F               	bsf	31,5	;volatile
  1264                           
  1265                           ;ADC_SPI.c: 87:             ADCON0bits.CHS2 = 0;
  1266  0059  121F               	bcf	31,4	;volatile
  1267                           
  1268                           ;ADC_SPI.c: 88:             ADCON0bits.CHS1 = 0;
  1269  005A  119F               	bcf	31,3	;volatile
  1270                           
  1271                           ;ADC_SPI.c: 89:             ADCON0bits.CHS0 = 1;
  1272  005B  151F               	bsf	31,2	;volatile
  1273                           
  1274                           ;ADC_SPI.c: 90:             break;
  1275  005C  28B4               	goto	l122
  1276  005D                     l132:	
  1277                           ;ADC_SPI.c: 92:         case 10:
  1278                           
  1279                           
  1280                           ;ADC_SPI.c: 93:             ADCON0bits.CHS3 = 1;
  1281  005D  1283               	bcf	3,5	;RP0=0, select bank0
  1282  005E  1303               	bcf	3,6	;RP1=0, select bank0
  1283  005F  169F               	bsf	31,5	;volatile
  1284                           
  1285                           ;ADC_SPI.c: 94:             ADCON0bits.CHS2 = 0;
  1286  0060  121F               	bcf	31,4	;volatile
  1287                           
  1288                           ;ADC_SPI.c: 95:             ADCON0bits.CHS1 = 1;
  1289  0061  159F               	bsf	31,3	;volatile
  1290                           
  1291                           ;ADC_SPI.c: 96:             ADCON0bits.CHS0 = 0;
  1292  0062  111F               	bcf	31,2	;volatile
  1293                           
  1294                           ;ADC_SPI.c: 97:             break;
  1295  0063  28B4               	goto	l122
  1296  0064                     l133:	
  1297                           ;ADC_SPI.c: 99:         case 11:
  1298                           
  1299                           
  1300                           ;ADC_SPI.c: 100:             ADCON0bits.CHS3 = 1;
  1301  0064  1283               	bcf	3,5	;RP0=0, select bank0
  1302  0065  1303               	bcf	3,6	;RP1=0, select bank0
  1303  0066  169F               	bsf	31,5	;volatile
  1304                           
  1305                           ;ADC_SPI.c: 101:             ADCON0bits.CHS2 = 0;
  1306  0067  121F               	bcf	31,4	;volatile
  1307                           
  1308                           ;ADC_SPI.c: 102:             ADCON0bits.CHS1 = 1;
  1309  0068  159F               	bsf	31,3	;volatile
  1310                           
  1311                           ;ADC_SPI.c: 103:             ADCON0bits.CHS0 = 1;
  1312  0069  151F               	bsf	31,2	;volatile
  1313                           
  1314                           ;ADC_SPI.c: 104:             break;
  1315  006A  28B4               	goto	l122
  1316  006B                     l134:	
  1317                           ;ADC_SPI.c: 106:         case 12:
  1318                           
  1319                           
  1320                           ;ADC_SPI.c: 107:             ADCON0bits.CHS3 = 1;
  1321  006B  1283               	bcf	3,5	;RP0=0, select bank0
  1322  006C  1303               	bcf	3,6	;RP1=0, select bank0
  1323  006D  169F               	bsf	31,5	;volatile
  1324                           
  1325                           ;ADC_SPI.c: 108:             ADCON0bits.CHS2 = 1;
  1326  006E  161F               	bsf	31,4	;volatile
  1327                           
  1328                           ;ADC_SPI.c: 109:             ADCON0bits.CHS1 = 0;
  1329  006F  119F               	bcf	31,3	;volatile
  1330                           
  1331                           ;ADC_SPI.c: 110:             ADCON0bits.CHS0 = 0;
  1332  0070  111F               	bcf	31,2	;volatile
  1333                           
  1334                           ;ADC_SPI.c: 111:             break;
  1335  0071  28B4               	goto	l122
  1336  0072                     l135:	
  1337                           ;ADC_SPI.c: 113:         case 13:
  1338                           
  1339                           
  1340                           ;ADC_SPI.c: 114:             ADCON0bits.CHS3 = 1;
  1341  0072  1283               	bcf	3,5	;RP0=0, select bank0
  1342  0073  1303               	bcf	3,6	;RP1=0, select bank0
  1343  0074  169F               	bsf	31,5	;volatile
  1344                           
  1345                           ;ADC_SPI.c: 115:             ADCON0bits.CHS2 = 1;
  1346  0075  161F               	bsf	31,4	;volatile
  1347                           
  1348                           ;ADC_SPI.c: 116:             ADCON0bits.CHS1 = 0;
  1349  0076  119F               	bcf	31,3	;volatile
  1350                           
  1351                           ;ADC_SPI.c: 117:             ADCON0bits.CHS0 = 1;
  1352  0077  151F               	bsf	31,2	;volatile
  1353                           
  1354                           ;ADC_SPI.c: 118:             break;
  1355  0078  28B4               	goto	l122
  1356  0079                     l136:	
  1357                           ;ADC_SPI.c: 120:         default:
  1358                           
  1359                           
  1360                           ;ADC_SPI.c: 121:             ADCON0bits.CHS3 = 1;
  1361  0079  1283               	bcf	3,5	;RP0=0, select bank0
  1362  007A  1303               	bcf	3,6	;RP1=0, select bank0
  1363  007B  169F               	bsf	31,5	;volatile
  1364                           
  1365                           ;ADC_SPI.c: 122:             ADCON0bits.CHS2 = 1;
  1366  007C  161F               	bsf	31,4	;volatile
  1367                           
  1368                           ;ADC_SPI.c: 123:             ADCON0bits.CHS1 = 1;
  1369  007D  159F               	bsf	31,3	;volatile
  1370                           
  1371                           ;ADC_SPI.c: 124:             ADCON0bits.CHS0 = 0;
  1372  007E  111F               	bcf	31,2	;volatile
  1373                           
  1374                           ;ADC_SPI.c: 125:             break;
  1375  007F  28B4               	goto	l122
  1376  0080                     l783:
  1377  0080  0876               	movf	initADC@CHS,w
  1378  0081  00F4               	movwf	??_initADC
  1379  0082  01F5               	clrf	??_initADC+1
  1380                           
  1381                           ; Switch on 2 bytes has been partitioned into a top level switch of size 1, and 1 sub-sw
      +                          itches
  1382                           ; Switch size 1, requested type "simple"
  1383                           ; Number of cases is 1, Range of values is 0 to 0
  1384                           ; switch strategies available:
  1385                           ; Name         Instructions Cycles
  1386                           ; simple_byte            4     3 (average)
  1387                           ; direct_byte           11     8 (fixed)
  1388                           ; jumptable            260     6 (fixed)
  1389                           ;	Chosen strategy is simple_byte
  1390  0083  0875               	movf	??_initADC+1,w
  1391  0084  3A00               	xorlw	0	; case 0
  1392  0085  1903               	skipnz
  1393  0086  2888               	goto	l1133
  1394  0087  2879               	goto	l136
  1395  0088                     l1133:
  1396                           
  1397                           ; Switch size 1, requested type "simple"
  1398                           ; Number of cases is 14, Range of values is 0 to 13
  1399                           ; switch strategies available:
  1400                           ; Name         Instructions Cycles
  1401                           ; simple_byte           43    22 (average)
  1402                           ; direct_byte           50     8 (fixed)
  1403                           ; jumptable            260     6 (fixed)
  1404                           ;	Chosen strategy is simple_byte
  1405  0088  0874               	movf	??_initADC,w
  1406  0089  3A00               	xorlw	0	; case 0
  1407  008A  1903               	skipnz
  1408  008B  2817               	goto	l121
  1409  008C  3A01               	xorlw	1	; case 1
  1410  008D  1903               	skipnz
  1411  008E  281E               	goto	l123
  1412  008F  3A03               	xorlw	3	; case 2
  1413  0090  1903               	skipnz
  1414  0091  2825               	goto	l124
  1415  0092  3A01               	xorlw	1	; case 3
  1416  0093  1903               	skipnz
  1417  0094  282C               	goto	l125
  1418  0095  3A07               	xorlw	7	; case 4
  1419  0096  1903               	skipnz
  1420  0097  2833               	goto	l126
  1421  0098  3A01               	xorlw	1	; case 5
  1422  0099  1903               	skipnz
  1423  009A  283A               	goto	l127
  1424  009B  3A03               	xorlw	3	; case 6
  1425  009C  1903               	skipnz
  1426  009D  2841               	goto	l128
  1427  009E  3A01               	xorlw	1	; case 7
  1428  009F  1903               	skipnz
  1429  00A0  2848               	goto	l129
  1430  00A1  3A0F               	xorlw	15	; case 8
  1431  00A2  1903               	skipnz
  1432  00A3  284F               	goto	l130
  1433  00A4  3A01               	xorlw	1	; case 9
  1434  00A5  1903               	skipnz
  1435  00A6  2856               	goto	l131
  1436  00A7  3A03               	xorlw	3	; case 10
  1437  00A8  1903               	skipnz
  1438  00A9  285D               	goto	l132
  1439  00AA  3A01               	xorlw	1	; case 11
  1440  00AB  1903               	skipnz
  1441  00AC  2864               	goto	l133
  1442  00AD  3A07               	xorlw	7	; case 12
  1443  00AE  1903               	skipnz
  1444  00AF  286B               	goto	l134
  1445  00B0  3A01               	xorlw	1	; case 13
  1446  00B1  1903               	skipnz
  1447  00B2  2872               	goto	l135
  1448  00B3  2879               	goto	l136
  1449  00B4                     l122:
  1450                           
  1451                           ;ADC_SPI.c: 127:     ADCON0bits.ADCS1 = 1;
  1452  00B4  179F               	bsf	31,7	;volatile
  1453                           
  1454                           ;ADC_SPI.c: 128:     ADCON0bits.ADCS0 = 0;
  1455  00B5  131F               	bcf	31,6	;volatile
  1456                           
  1457                           ;ADC_SPI.c: 129:     ADCON0bits.GO_DONE= 0;
  1458  00B6  109F               	bcf	31,1	;volatile
  1459                           
  1460                           ;ADC_SPI.c: 130:     ADCON0bits.ADON = 1;
  1461  00B7  141F               	bsf	31,0	;volatile
  1462                           
  1463                           ;ADC_SPI.c: 132:     ADCON1bits.ADFM = 0;
  1464  00B8  1683               	bsf	3,5	;RP0=1, select bank1
  1465  00B9  1303               	bcf	3,6	;RP1=0, select bank1
  1466  00BA  139F               	bcf	31,7	;volatile
  1467                           
  1468                           ;ADC_SPI.c: 133:     ADCON1bits.VCFG1 = 0;
  1469  00BB  129F               	bcf	31,5	;volatile
  1470                           
  1471                           ;ADC_SPI.c: 134:     ADCON1bits.VCFG0 = 0;
  1472  00BC  121F               	bcf	31,4	;volatile
  1473  00BD                     l137:
  1474  00BD  0008               	return
  1475  00BE                     __end_of_initADC:
  1476                           
  1477                           	psect	text7
  1478  01F1                     __ptext7:	
  1479 ;; *************** function _SPI_config *****************
  1480 ;; Defined at:
  1481 ;;		line 178 in file "SLAVE_POT_SPI.c"
  1482 ;; Parameters:    Size  Location     Type
  1483 ;;		None
  1484 ;; Auto vars:     Size  Location     Type
  1485 ;;		None
  1486 ;; Return value:  Size  Location     Type
  1487 ;;                  1    wreg      void 
  1488 ;; Registers used:
  1489 ;;		wreg, fsr0l, fsr0h, status,2, status,0, pclath, cstack
  1490 ;; Tracked objects:
  1491 ;;		On entry : 0/0
  1492 ;;		On exit  : 0/0
  1493 ;;		Unchanged: 0/0
  1494 ;; Data sizes:     COMMON   BANK0   BANK1   BANK3   BANK2
  1495 ;;      Params:         0       0       0       0       0
  1496 ;;      Locals:         0       0       0       0       0
  1497 ;;      Temps:          0       1       0       0       0
  1498 ;;      Totals:         0       1       0       0       0
  1499 ;;Total ram usage:        1 bytes
  1500 ;; Hardware stack levels used:    1
  1501 ;; Hardware stack levels required when called:    3
  1502 ;; This function calls:
  1503 ;;		_SPI_Esclavo_Init
  1504 ;; This function is called by:
  1505 ;;		_main
  1506 ;; This function uses a non-reentrant model
  1507 ;;
  1508                           
  1509                           
  1510                           ;psect for function _SPI_config
  1511  01F1                     _SPI_config:
  1512  01F1                     l1055:	
  1513                           ;incstack = 0
  1514                           ; Regs used in _SPI_config: [wreg-fsr0h+status,2+status,0+pclath+cstack]
  1515                           
  1516                           
  1517                           ;SLAVE_POT_SPI.c: 180:     SPI_Esclavo_Init (4, 2);
  1518  01F1  3002               	movlw	2
  1519  01F2  1283               	bcf	3,5	;RP0=0, select bank0
  1520  01F3  1303               	bcf	3,6	;RP1=0, select bank0
  1521  01F4  00A0               	movwf	??_SPI_config
  1522  01F5  0820               	movf	??_SPI_config,w
  1523  01F6  00F4               	movwf	SPI_Esclavo_Init@SCK
  1524  01F7  3004               	movlw	4
  1525  01F8  120A  118A  20BE  120A  118A  	fcall	_SPI_Esclavo_Init
  1526  01FD                     l109:
  1527  01FD  0008               	return
  1528  01FE                     __end_of_SPI_config:
  1529                           
  1530                           	psect	text8
  1531  00BE                     __ptext8:	
  1532 ;; *************** function _SPI_Esclavo_Init *****************
  1533 ;; Defined at:
  1534 ;;		line 84 in file "SPI_SPI.c"
  1535 ;; Parameters:    Size  Location     Type
  1536 ;;  port_mode       1    wreg     unsigned char 
  1537 ;;  SCK             1    4[COMMON] unsigned char 
  1538 ;; Auto vars:     Size  Location     Type
  1539 ;;  port_mode       1    7[COMMON] unsigned char 
  1540 ;; Return value:  Size  Location     Type
  1541 ;;                  1    wreg      void 
  1542 ;; Registers used:
  1543 ;;		wreg, fsr0l, fsr0h, status,2, status,0
  1544 ;; Tracked objects:
  1545 ;;		On entry : 0/0
  1546 ;;		On exit  : 0/0
  1547 ;;		Unchanged: 0/0
  1548 ;; Data sizes:     COMMON   BANK0   BANK1   BANK3   BANK2
  1549 ;;      Params:         1       0       0       0       0
  1550 ;;      Locals:         1       0       0       0       0
  1551 ;;      Temps:          2       0       0       0       0
  1552 ;;      Totals:         4       0       0       0       0
  1553 ;;Total ram usage:        4 bytes
  1554 ;; Hardware stack levels used:    1
  1555 ;; Hardware stack levels required when called:    2
  1556 ;; This function calls:
  1557 ;;		Nothing
  1558 ;; This function is called by:
  1559 ;;		_SPI_config
  1560 ;; This function uses a non-reentrant model
  1561 ;;
  1562                           
  1563                           
  1564                           ;psect for function _SPI_Esclavo_Init
  1565  00BE                     _SPI_Esclavo_Init:
  1566                           
  1567                           ;incstack = 0
  1568                           ; Regs used in _SPI_Esclavo_Init: [wreg-fsr0h+status,2+status,0]
  1569                           ;SPI_Esclavo_Init@port_mode stored from wreg
  1570  00BE  00F7               	movwf	SPI_Esclavo_Init@port_mode
  1571  00BF                     l959:
  1572                           
  1573                           ;SPI_SPI.c: 84: void SPI_Esclavo_Init (char port_mode, char SCK);SPI_SPI.c: 85: {;SPI_SP
      +                          I.c: 86:     TRISAbits.TRISA5 = 1;
  1574  00BF  1683               	bsf	3,5	;RP0=1, select bank1
  1575  00C0  1303               	bcf	3,6	;RP1=0, select bank1
  1576  00C1  1685               	bsf	5,5	;volatile
  1577                           
  1578                           ;SPI_SPI.c: 87:     TRISCbits.TRISC5 = 0;
  1579  00C2  1287               	bcf	7,5	;volatile
  1580                           
  1581                           ;SPI_SPI.c: 88:     TRISCbits.TRISC4 = 1;
  1582  00C3  1607               	bsf	7,4	;volatile
  1583                           
  1584                           ;SPI_SPI.c: 89:     TRISCbits.TRISC3 = 1;
  1585  00C4  1587               	bsf	7,3	;volatile
  1586                           
  1587                           ;SPI_SPI.c: 91:     switch (port_mode)
  1588  00C5  28F0               	goto	l963
  1589  00C6                     l168:	
  1590                           ;SPI_SPI.c: 92:     {;SPI_SPI.c: 93:         case 0:
  1591                           
  1592                           
  1593                           ;SPI_SPI.c: 94:             SSPCONbits.SSPM3 = 0;
  1594  00C6  1283               	bcf	3,5	;RP0=0, select bank0
  1595  00C7  1303               	bcf	3,6	;RP1=0, select bank0
  1596  00C8  1194               	bcf	20,3	;volatile
  1597                           
  1598                           ;SPI_SPI.c: 95:             SSPCONbits.SSPM2 = 0;
  1599  00C9  1114               	bcf	20,2	;volatile
  1600                           
  1601                           ;SPI_SPI.c: 96:             SSPCONbits.SSPM1 = 0;
  1602  00CA  1094               	bcf	20,1	;volatile
  1603                           
  1604                           ;SPI_SPI.c: 97:             SSPCONbits.SSPM0 = 0;
  1605  00CB  1014               	bcf	20,0	;volatile
  1606                           
  1607                           ;SPI_SPI.c: 99:             break;
  1608  00CC  2924               	goto	l967
  1609  00CD                     l170:	
  1610                           ;SPI_SPI.c: 100:          case 1:
  1611                           
  1612                           
  1613                           ;SPI_SPI.c: 101:             SSPCONbits.SSPM3 = 0;
  1614  00CD  1283               	bcf	3,5	;RP0=0, select bank0
  1615  00CE  1303               	bcf	3,6	;RP1=0, select bank0
  1616  00CF  1194               	bcf	20,3	;volatile
  1617                           
  1618                           ;SPI_SPI.c: 102:             SSPCONbits.SSPM2 = 0;
  1619  00D0  1114               	bcf	20,2	;volatile
  1620                           
  1621                           ;SPI_SPI.c: 103:             SSPCONbits.SSPM1 = 0;
  1622  00D1  1094               	bcf	20,1	;volatile
  1623                           
  1624                           ;SPI_SPI.c: 104:             SSPCONbits.SSPM0 = 1;
  1625  00D2  1414               	bsf	20,0	;volatile
  1626                           
  1627                           ;SPI_SPI.c: 106:             break;
  1628  00D3  2924               	goto	l967
  1629  00D4                     l171:	
  1630                           ;SPI_SPI.c: 107:          case 2:
  1631                           
  1632                           
  1633                           ;SPI_SPI.c: 108:             SSPCONbits.SSPM3 = 0;
  1634  00D4  1283               	bcf	3,5	;RP0=0, select bank0
  1635  00D5  1303               	bcf	3,6	;RP1=0, select bank0
  1636  00D6  1194               	bcf	20,3	;volatile
  1637                           
  1638                           ;SPI_SPI.c: 109:             SSPCONbits.SSPM2 = 0;
  1639  00D7  1114               	bcf	20,2	;volatile
  1640                           
  1641                           ;SPI_SPI.c: 110:             SSPCONbits.SSPM1 = 1;
  1642  00D8  1494               	bsf	20,1	;volatile
  1643                           
  1644                           ;SPI_SPI.c: 111:             SSPCONbits.SSPM0 = 0;
  1645  00D9  1014               	bcf	20,0	;volatile
  1646                           
  1647                           ;SPI_SPI.c: 113:             break;
  1648  00DA  2924               	goto	l967
  1649  00DB                     l172:	
  1650                           ;SPI_SPI.c: 114:          case 3:
  1651                           
  1652                           
  1653                           ;SPI_SPI.c: 115:             SSPCONbits.SSPM3 = 0;
  1654  00DB  1283               	bcf	3,5	;RP0=0, select bank0
  1655  00DC  1303               	bcf	3,6	;RP1=0, select bank0
  1656  00DD  1194               	bcf	20,3	;volatile
  1657                           
  1658                           ;SPI_SPI.c: 116:             SSPCONbits.SSPM2 = 0;
  1659  00DE  1114               	bcf	20,2	;volatile
  1660                           
  1661                           ;SPI_SPI.c: 117:             SSPCONbits.SSPM1 = 1;
  1662  00DF  1494               	bsf	20,1	;volatile
  1663                           
  1664                           ;SPI_SPI.c: 118:             SSPCONbits.SSPM0 = 1;
  1665  00E0  1414               	bsf	20,0	;volatile
  1666                           
  1667                           ;SPI_SPI.c: 119:             break;
  1668  00E1  2924               	goto	l967
  1669  00E2                     l173:	
  1670                           ;SPI_SPI.c: 120:          case 4:
  1671                           
  1672                           
  1673                           ;SPI_SPI.c: 121:             SSPCONbits.SSPM3 = 0;
  1674  00E2  1283               	bcf	3,5	;RP0=0, select bank0
  1675  00E3  1303               	bcf	3,6	;RP1=0, select bank0
  1676  00E4  1194               	bcf	20,3	;volatile
  1677                           
  1678                           ;SPI_SPI.c: 122:             SSPCONbits.SSPM2 = 1;
  1679  00E5  1514               	bsf	20,2	;volatile
  1680                           
  1681                           ;SPI_SPI.c: 123:             SSPCONbits.SSPM1 = 0;
  1682  00E6  1094               	bcf	20,1	;volatile
  1683                           
  1684                           ;SPI_SPI.c: 124:             SSPCONbits.SSPM0 = 0;
  1685  00E7  1014               	bcf	20,0	;volatile
  1686                           
  1687                           ;SPI_SPI.c: 126:             break;
  1688  00E8  2924               	goto	l967
  1689  00E9                     l174:	
  1690                           ;SPI_SPI.c: 127:          case 5:
  1691                           
  1692                           
  1693                           ;SPI_SPI.c: 128:             SSPCONbits.SSPM3 = 0;
  1694  00E9  1283               	bcf	3,5	;RP0=0, select bank0
  1695  00EA  1303               	bcf	3,6	;RP1=0, select bank0
  1696  00EB  1194               	bcf	20,3	;volatile
  1697                           
  1698                           ;SPI_SPI.c: 129:             SSPCONbits.SSPM2 = 1;
  1699  00EC  1514               	bsf	20,2	;volatile
  1700                           
  1701                           ;SPI_SPI.c: 130:             SSPCONbits.SSPM1 = 0;
  1702  00ED  1094               	bcf	20,1	;volatile
  1703                           
  1704                           ;SPI_SPI.c: 131:             SSPCONbits.SSPM0 = 1;
  1705  00EE  1414               	bsf	20,0	;volatile
  1706                           
  1707                           ;SPI_SPI.c: 132:             break;
  1708  00EF  2924               	goto	l967
  1709  00F0                     l963:
  1710  00F0  0877               	movf	SPI_Esclavo_Init@port_mode,w
  1711  00F1  00F5               	movwf	??_SPI_Esclavo_Init
  1712  00F2  01F6               	clrf	??_SPI_Esclavo_Init+1
  1713                           
  1714                           ; Switch on 2 bytes has been partitioned into a top level switch of size 1, and 1 sub-sw
      +                          itches
  1715                           ; Switch size 1, requested type "simple"
  1716                           ; Number of cases is 1, Range of values is 0 to 0
  1717                           ; switch strategies available:
  1718                           ; Name         Instructions Cycles
  1719                           ; simple_byte            4     3 (average)
  1720                           ; direct_byte           11     8 (fixed)
  1721                           ; jumptable            260     6 (fixed)
  1722                           ;	Chosen strategy is simple_byte
  1723  00F3  0876               	movf	??_SPI_Esclavo_Init+1,w
  1724  00F4  3A00               	xorlw	0	; case 0
  1725  00F5  1903               	skipnz
  1726  00F6  28F8               	goto	l1135
  1727  00F7  2924               	goto	l967
  1728  00F8                     l1135:
  1729                           
  1730                           ; Switch size 1, requested type "simple"
  1731                           ; Number of cases is 6, Range of values is 0 to 5
  1732                           ; switch strategies available:
  1733                           ; Name         Instructions Cycles
  1734                           ; simple_byte           19    10 (average)
  1735                           ; direct_byte           26     8 (fixed)
  1736                           ; jumptable            260     6 (fixed)
  1737                           ;	Chosen strategy is simple_byte
  1738  00F8  0875               	movf	??_SPI_Esclavo_Init,w
  1739  00F9  3A00               	xorlw	0	; case 0
  1740  00FA  1903               	skipnz
  1741  00FB  28C6               	goto	l168
  1742  00FC  3A01               	xorlw	1	; case 1
  1743  00FD  1903               	skipnz
  1744  00FE  28CD               	goto	l170
  1745  00FF  3A03               	xorlw	3	; case 2
  1746  0100  1903               	skipnz
  1747  0101  28D4               	goto	l171
  1748  0102  3A01               	xorlw	1	; case 3
  1749  0103  1903               	skipnz
  1750  0104  28DB               	goto	l172
  1751  0105  3A07               	xorlw	7	; case 4
  1752  0106  1903               	skipnz
  1753  0107  28E2               	goto	l173
  1754  0108  3A01               	xorlw	1	; case 5
  1755  0109  1903               	skipnz
  1756  010A  28E9               	goto	l174
  1757  010B  2924               	goto	l967
  1758  010C                     l176:	
  1759                           ;SPI_SPI.c: 136:     {;SPI_SPI.c: 137:         case 0:
  1760                           
  1761                           
  1762                           ;SPI_SPI.c: 138:             SSPCONbits.CKP = 0;
  1763  010C  1283               	bcf	3,5	;RP0=0, select bank0
  1764  010D  1214               	bcf	20,4	;volatile
  1765                           
  1766                           ;SPI_SPI.c: 139:             SSPSTATbits.CKE = 0;
  1767  010E  1683               	bsf	3,5	;RP0=1, select bank1
  1768  010F  1303               	bcf	3,6	;RP1=0, select bank1
  1769  0110  1314               	bcf	20,6	;volatile
  1770                           
  1771                           ;SPI_SPI.c: 141:             break;
  1772  0111  293A               	goto	l177
  1773  0112                     l178:	
  1774                           ;SPI_SPI.c: 142:          case 1:
  1775                           
  1776                           
  1777                           ;SPI_SPI.c: 143:             SSPCONbits.CKP = 1;
  1778  0112  1283               	bcf	3,5	;RP0=0, select bank0
  1779  0113  1614               	bsf	20,4	;volatile
  1780                           
  1781                           ;SPI_SPI.c: 144:             SSPSTATbits.CKE = 0;
  1782  0114  1683               	bsf	3,5	;RP0=1, select bank1
  1783  0115  1303               	bcf	3,6	;RP1=0, select bank1
  1784  0116  1314               	bcf	20,6	;volatile
  1785                           
  1786                           ;SPI_SPI.c: 146:             break;
  1787  0117  293A               	goto	l177
  1788  0118                     l179:	
  1789                           ;SPI_SPI.c: 147:          case 2:
  1790                           
  1791                           
  1792                           ;SPI_SPI.c: 148:             SSPCONbits.CKP = 0;
  1793  0118  1283               	bcf	3,5	;RP0=0, select bank0
  1794  0119  1214               	bcf	20,4	;volatile
  1795                           
  1796                           ;SPI_SPI.c: 149:             SSPSTATbits.CKE = 1;
  1797  011A  1683               	bsf	3,5	;RP0=1, select bank1
  1798  011B  1303               	bcf	3,6	;RP1=0, select bank1
  1799  011C  1714               	bsf	20,6	;volatile
  1800                           
  1801                           ;SPI_SPI.c: 151:             break;
  1802  011D  293A               	goto	l177
  1803  011E                     l180:	
  1804                           ;SPI_SPI.c: 152:          case 3:
  1805                           
  1806                           
  1807                           ;SPI_SPI.c: 153:             SSPCONbits.CKP = 1;
  1808  011E  1283               	bcf	3,5	;RP0=0, select bank0
  1809  011F  1614               	bsf	20,4	;volatile
  1810                           
  1811                           ;SPI_SPI.c: 154:             SSPSTATbits.CKE = 1;
  1812  0120  1683               	bsf	3,5	;RP0=1, select bank1
  1813  0121  1303               	bcf	3,6	;RP1=0, select bank1
  1814  0122  1714               	bsf	20,6	;volatile
  1815                           
  1816                           ;SPI_SPI.c: 155:             break;
  1817  0123  293A               	goto	l177
  1818  0124                     l967:
  1819  0124  0874               	movf	SPI_Esclavo_Init@SCK,w
  1820  0125  00F5               	movwf	??_SPI_Esclavo_Init
  1821  0126  01F6               	clrf	??_SPI_Esclavo_Init+1
  1822                           
  1823                           ; Switch on 2 bytes has been partitioned into a top level switch of size 1, and 1 sub-sw
      +                          itches
  1824                           ; Switch size 1, requested type "simple"
  1825                           ; Number of cases is 1, Range of values is 0 to 0
  1826                           ; switch strategies available:
  1827                           ; Name         Instructions Cycles
  1828                           ; simple_byte            4     3 (average)
  1829                           ; direct_byte           11     8 (fixed)
  1830                           ; jumptable            260     6 (fixed)
  1831                           ;	Chosen strategy is simple_byte
  1832  0127  0876               	movf	??_SPI_Esclavo_Init+1,w
  1833  0128  3A00               	xorlw	0	; case 0
  1834  0129  1903               	skipnz
  1835  012A  292C               	goto	l1137
  1836  012B  293A               	goto	l177
  1837  012C                     l1137:
  1838                           
  1839                           ; Switch size 1, requested type "simple"
  1840                           ; Number of cases is 4, Range of values is 0 to 3
  1841                           ; switch strategies available:
  1842                           ; Name         Instructions Cycles
  1843                           ; simple_byte           13     7 (average)
  1844                           ; direct_byte           20     8 (fixed)
  1845                           ; jumptable            260     6 (fixed)
  1846                           ;	Chosen strategy is simple_byte
  1847  012C  0875               	movf	??_SPI_Esclavo_Init,w
  1848  012D  3A00               	xorlw	0	; case 0
  1849  012E  1903               	skipnz
  1850  012F  290C               	goto	l176
  1851  0130  3A01               	xorlw	1	; case 1
  1852  0131  1903               	skipnz
  1853  0132  2912               	goto	l178
  1854  0133  3A03               	xorlw	3	; case 2
  1855  0134  1903               	skipnz
  1856  0135  2918               	goto	l179
  1857  0136  3A01               	xorlw	1	; case 3
  1858  0137  1903               	skipnz
  1859  0138  291E               	goto	l180
  1860  0139  293A               	goto	l177
  1861  013A                     l177:
  1862                           
  1863                           ;SPI_SPI.c: 157:     SSPSTATbits.SMP = 0;
  1864  013A  1683               	bsf	3,5	;RP0=1, select bank1
  1865  013B  1303               	bcf	3,6	;RP1=0, select bank1
  1866  013C  1394               	bcf	20,7	;volatile
  1867                           
  1868                           ;SPI_SPI.c: 158:     SSPCONbits.SSPEN = 1;
  1869  013D  1283               	bcf	3,5	;RP0=0, select bank0
  1870  013E  1303               	bcf	3,6	;RP1=0, select bank0
  1871  013F  1694               	bsf	20,5	;volatile
  1872  0140                     l181:
  1873  0140  0008               	return
  1874  0141                     __end_of_SPI_Esclavo_Init:
  1875                           
  1876                           	psect	text9
  1877  0221                     __ptext9:	
  1878 ;; *************** function _SPI_Recibir *****************
  1879 ;; Defined at:
  1880 ;;		line 167 in file "SPI_SPI.c"
  1881 ;; Parameters:    Size  Location     Type
  1882 ;;		None
  1883 ;; Auto vars:     Size  Location     Type
  1884 ;;		None
  1885 ;; Return value:  Size  Location     Type
  1886 ;;                  1    wreg      unsigned char 
  1887 ;; Registers used:
  1888 ;;		wreg
  1889 ;; Tracked objects:
  1890 ;;		On entry : 0/0
  1891 ;;		On exit  : 0/0
  1892 ;;		Unchanged: 0/0
  1893 ;; Data sizes:     COMMON   BANK0   BANK1   BANK3   BANK2
  1894 ;;      Params:         0       0       0       0       0
  1895 ;;      Locals:         0       0       0       0       0
  1896 ;;      Temps:          0       0       0       0       0
  1897 ;;      Totals:         0       0       0       0       0
  1898 ;;Total ram usage:        0 bytes
  1899 ;; Hardware stack levels used:    1
  1900 ;; Hardware stack levels required when called:    2
  1901 ;; This function calls:
  1902 ;;		Nothing
  1903 ;; This function is called by:
  1904 ;;		_main
  1905 ;; This function uses a non-reentrant model
  1906 ;;
  1907                           
  1908                           
  1909                           ;psect for function _SPI_Recibir
  1910  0221                     _SPI_Recibir:
  1911  0221                     l851:	
  1912                           ;incstack = 0
  1913                           ; Regs used in _SPI_Recibir: [wreg]
  1914                           
  1915                           
  1916                           ;SPI_SPI.c: 169:     return SSPBUF;
  1917  0221  1283               	bcf	3,5	;RP0=0, select bank0
  1918  0222  1303               	bcf	3,6	;RP1=0, select bank0
  1919  0223  0813               	movf	19,w	;volatile
  1920  0224                     l187:
  1921  0224  0008               	return
  1922  0225                     __end_of_SPI_Recibir:
  1923                           
  1924                           	psect	text10
  1925  021B                     __ptext10:	
  1926 ;; *************** function _SPI_Enviar *****************
  1927 ;; Defined at:
  1928 ;;		line 161 in file "SPI_SPI.c"
  1929 ;; Parameters:    Size  Location     Type
  1930 ;;  valor           1    wreg     unsigned char 
  1931 ;; Auto vars:     Size  Location     Type
  1932 ;;  valor           1    4[COMMON] unsigned char 
  1933 ;; Return value:  Size  Location     Type
  1934 ;;                  1    wreg      void 
  1935 ;; Registers used:
  1936 ;;		wreg
  1937 ;; Tracked objects:
  1938 ;;		On entry : 0/0
  1939 ;;		On exit  : 0/0
  1940 ;;		Unchanged: 0/0
  1941 ;; Data sizes:     COMMON   BANK0   BANK1   BANK3   BANK2
  1942 ;;      Params:         0       0       0       0       0
  1943 ;;      Locals:         1       0       0       0       0
  1944 ;;      Temps:          0       0       0       0       0
  1945 ;;      Totals:         1       0       0       0       0
  1946 ;;Total ram usage:        1 bytes
  1947 ;; Hardware stack levels used:    1
  1948 ;; Hardware stack levels required when called:    2
  1949 ;; This function calls:
  1950 ;;		Nothing
  1951 ;; This function is called by:
  1952 ;;		_main
  1953 ;; This function uses a non-reentrant model
  1954 ;;
  1955                           
  1956                           
  1957                           ;psect for function _SPI_Enviar
  1958  021B                     _SPI_Enviar:
  1959                           
  1960                           ;incstack = 0
  1961                           ; Regs used in _SPI_Enviar: [wreg]
  1962                           ;SPI_Enviar@valor stored from wreg
  1963  021B  00F4               	movwf	SPI_Enviar@valor
  1964  021C                     l855:
  1965                           
  1966                           ;SPI_SPI.c: 161: void SPI_Enviar (char valor);SPI_SPI.c: 162: {;SPI_SPI.c: 163:     SSPB
      +                          UF = valor;
  1967  021C  0874               	movf	SPI_Enviar@valor,w
  1968  021D  1283               	bcf	3,5	;RP0=0, select bank0
  1969  021E  1303               	bcf	3,6	;RP1=0, select bank0
  1970  021F  0093               	movwf	19	;volatile
  1971  0220                     l184:
  1972  0220  0008               	return
  1973  0221                     __end_of_SPI_Enviar:
  1974                           
  1975                           	psect	text11
  1976  01CF                     __ptext11:	
  1977 ;; *************** function _ISR *****************
  1978 ;; Defined at:
  1979 ;;		line 68 in file "SLAVE_POT_SPI.c"
  1980 ;; Parameters:    Size  Location     Type
  1981 ;;		None
  1982 ;; Auto vars:     Size  Location     Type
  1983 ;;		None
  1984 ;; Return value:  Size  Location     Type
  1985 ;;                  1    wreg      void 
  1986 ;; Registers used:
  1987 ;;		wreg, status,2, status,0, pclath, cstack
  1988 ;; Tracked objects:
  1989 ;;		On entry : 0/0
  1990 ;;		On exit  : 0/0
  1991 ;;		Unchanged: 0/0
  1992 ;; Data sizes:     COMMON   BANK0   BANK1   BANK3   BANK2
  1993 ;;      Params:         0       0       0       0       0
  1994 ;;      Locals:         0       0       0       0       0
  1995 ;;      Temps:          2       0       0       0       0
  1996 ;;      Totals:         2       0       0       0       0
  1997 ;;Total ram usage:        2 bytes
  1998 ;; Hardware stack levels used:    1
  1999 ;; Hardware stack levels required when called:    1
  2000 ;; This function calls:
  2001 ;;		_adc_conversion
  2002 ;; This function is called by:
  2003 ;;		Interrupt level 1
  2004 ;; This function uses a non-reentrant model
  2005 ;;
  2006                           
  2007                           
  2008                           ;psect for function _ISR
  2009  01CF                     _ISR:
  2010  01CF                     i1l857:
  2011                           
  2012                           ;SLAVE_POT_SPI.c: 70:     if (INTCONbits.TMR0IF == 1)
  2013  01CF  1D0B               	btfss	11,2	;volatile
  2014  01D0  29D2               	goto	u2_21
  2015  01D1  29D3               	goto	u2_20
  2016  01D2                     u2_21:
  2017  01D2  29DD               	goto	i1l82
  2018  01D3                     u2_20:
  2019  01D3                     i1l859:
  2020                           
  2021                           ;SLAVE_POT_SPI.c: 71:     {;SLAVE_POT_SPI.c: 72:         adc_conversion();
  2022  01D3  120A  118A  21B3  120A  118A  	fcall	_adc_conversion
  2023  01D8                     i1l861:
  2024                           
  2025                           ;SLAVE_POT_SPI.c: 73:         INTCONbits.TMR0IF = 0;
  2026  01D8  110B               	bcf	11,2	;volatile
  2027  01D9                     i1l863:
  2028                           
  2029                           ;SLAVE_POT_SPI.c: 74:         TMR0 = 100;
  2030  01D9  3064               	movlw	100
  2031  01DA  1283               	bcf	3,5	;RP0=0, select bank0
  2032  01DB  1303               	bcf	3,6	;RP1=0, select bank0
  2033  01DC  0081               	movwf	1	;volatile
  2034  01DD                     i1l82:
  2035  01DD  0873               	movf	??_ISR+1,w
  2036  01DE  008A               	movwf	10
  2037  01DF  0E72               	swapf	??_ISR,w
  2038  01E0  0083               	movwf	3
  2039  01E1  0EFE               	swapf	btemp,f
  2040  01E2  0E7E               	swapf	btemp,w
  2041  01E3  0009               	retfie
  2042  01E4                     __end_of_ISR:
  2043                           
  2044                           	psect	intentry
  2045  0004                     __pintentry:	
  2046                           ;incstack = 0
  2047                           ; Regs used in _ISR: [wreg+status,2+status,0+pclath+cstack]
  2048                           
  2049  0004                     interrupt_function:
  2050  007E                     saved_w	set	btemp
  2051  0004  00FE               	movwf	btemp
  2052  0005  0E03               	swapf	3,w
  2053  0006  00F2               	movwf	??_ISR
  2054  0007  080A               	movf	10,w
  2055  0008  00F3               	movwf	??_ISR+1
  2056  0009  120A  118A  29CF   	ljmp	_ISR
  2057                           
  2058                           	psect	text12
  2059  01B3                     __ptext12:	
  2060 ;; *************** function _adc_conversion *****************
  2061 ;; Defined at:
  2062 ;;		line 187 in file "SLAVE_POT_SPI.c"
  2063 ;; Parameters:    Size  Location     Type
  2064 ;;		None
  2065 ;; Auto vars:     Size  Location     Type
  2066 ;;		None
  2067 ;; Return value:  Size  Location     Type
  2068 ;;                  1    wreg      void 
  2069 ;; Registers used:
  2070 ;;		wreg, status,2, status,0
  2071 ;; Tracked objects:
  2072 ;;		On entry : 0/0
  2073 ;;		On exit  : 0/0
  2074 ;;		Unchanged: 0/0
  2075 ;; Data sizes:     COMMON   BANK0   BANK1   BANK3   BANK2
  2076 ;;      Params:         0       0       0       0       0
  2077 ;;      Locals:         0       0       0       0       0
  2078 ;;      Temps:          2       0       0       0       0
  2079 ;;      Totals:         2       0       0       0       0
  2080 ;;Total ram usage:        2 bytes
  2081 ;; Hardware stack levels used:    1
  2082 ;; This function calls:
  2083 ;;		Nothing
  2084 ;; This function is called by:
  2085 ;;		_ISR
  2086 ;; This function uses a non-reentrant model
  2087 ;;
  2088                           
  2089                           
  2090                           ;psect for function _adc_conversion
  2091  01B3                     _adc_conversion:
  2092  01B3                     i1l807:	
  2093                           ;incstack = 0
  2094                           ; Regs used in _adc_conversion: [wreg+status,2+status,0]
  2095                           
  2096                           
  2097                           ;SLAVE_POT_SPI.c: 189:     ADCON0bits.GO_DONE = 1;
  2098  01B3  1283               	bcf	3,5	;RP0=0, select bank0
  2099  01B4  1303               	bcf	3,6	;RP1=0, select bank0
  2100  01B5  149F               	bsf	31,1	;volatile
  2101  01B6                     i1l809:
  2102                           
  2103                           ;SLAVE_POT_SPI.c: 190:     _delay((unsigned long)((10)*(8000000/4000.0)));
  2104  01B6  301A               	movlw	26
  2105  01B7  00F1               	movwf	??_adc_conversion+1
  2106  01B8  30F8               	movlw	248
  2107  01B9  00F0               	movwf	??_adc_conversion
  2108  01BA                     u6_27:
  2109  01BA  0BF0               	decfsz	??_adc_conversion,f
  2110  01BB  29BA               	goto	u6_27
  2111  01BC  0BF1               	decfsz	??_adc_conversion+1,f
  2112  01BD  29BA               	goto	u6_27
  2113  01BE  0000               	nop
  2114  01BF                     i1l811:
  2115                           
  2116                           ;SLAVE_POT_SPI.c: 191:     if (ADCON0bits.GO_DONE == 0)
  2117  01BF  1283               	bcf	3,5	;RP0=0, select bank0
  2118  01C0  1303               	bcf	3,6	;RP1=0, select bank0
  2119  01C1  189F               	btfsc	31,1	;volatile
  2120  01C2  29C4               	goto	u1_21
  2121  01C3  29C5               	goto	u1_20
  2122  01C4                     u1_21:
  2123  01C4  29CA               	goto	i1l817
  2124  01C5                     u1_20:
  2125  01C5                     i1l813:
  2126                           
  2127                           ;SLAVE_POT_SPI.c: 192:     {;SLAVE_POT_SPI.c: 193:         ADCON0bits.GO_DONE = 1;
  2128  01C5  149F               	bsf	31,1	;volatile
  2129  01C6                     i1l815:
  2130                           
  2131                           ;SLAVE_POT_SPI.c: 194:         PORTD = ADRESH * 2;
  2132  01C6  081E               	movf	30,w	;volatile
  2133  01C7  00F0               	movwf	??_adc_conversion
  2134  01C8  0770               	addwf	??_adc_conversion,w
  2135  01C9  0088               	movwf	8	;volatile
  2136  01CA                     i1l817:
  2137                           
  2138                           ;SLAVE_POT_SPI.c: 197:     adc_value = PORTD;
  2139  01CA  0808               	movf	8,w	;volatile
  2140  01CB  00F0               	movwf	??_adc_conversion
  2141  01CC  0870               	movf	??_adc_conversion,w
  2142  01CD  00F9               	movwf	_adc_value
  2143  01CE                     i1l113:
  2144  01CE  0008               	return
  2145  01CF                     __end_of_adc_conversion:
  2146  007E                     btemp	set	126	;btemp
  2147  007E                     wtemp0	set	126
  2148                           
  2149                           	psect	config
  2150                           
  2151                           ;Config register CONFIG1 @ 0x2007
  2152                           ;	Oscillator Selection bits
  2153                           ;	FOSC = INTRC_NOCLKOUT, INTOSCIO oscillator: I/O function on RA6/OSC2/CLKOUT pin, I/O f
      +                          unction on RA7/OSC1/CLKIN
  2154                           ;	Watchdog Timer Enable bit
  2155                           ;	WDTE = OFF, WDT disabled and can be enabled by SWDTEN bit of the WDTCON register
  2156                           ;	Power-up Timer Enable bit
  2157                           ;	PWRTE = OFF, PWRT disabled
  2158                           ;	RE3/MCLR pin function select bit
  2159                           ;	MCLRE = OFF, RE3/MCLR pin function is digital input, MCLR internally tied to VDD
  2160                           ;	Code Protection bit
  2161                           ;	CP = OFF, Program memory code protection is disabled
  2162                           ;	Data Code Protection bit
  2163                           ;	CPD = OFF, Data memory code protection is disabled
  2164                           ;	Brown Out Reset Selection bits
  2165                           ;	BOREN = OFF, BOR disabled
  2166                           ;	Internal External Switchover bit
  2167                           ;	IESO = OFF, Internal/External Switchover mode is disabled
  2168                           ;	Fail-Safe Clock Monitor Enabled bit
  2169                           ;	FCMEN = OFF, Fail-Safe Clock Monitor is disabled
  2170                           ;	Low Voltage Programming Enable bit
  2171                           ;	LVP = OFF, RB3 pin has digital I/O, HV on MCLR must be used for programming
  2172                           ;	In-Circuit Debugger Mode bit
  2173                           ;	DEBUG = 0x1, unprogrammed default
  2174  2007                     	org	8199
  2175  2007  20D4               	dw	8404
  2176                           
  2177                           ;Config register CONFIG2 @ 0x2008
  2178                           ;	Brown-out Reset Selection bit
  2179                           ;	BOR4V = BOR40V, Brown-out Reset set to 4.0V
  2180                           ;	Flash Program Memory Self Write Enable bits
  2181                           ;	WRT = OFF, Write protection off
  2182  2008                     	org	8200
  2183  2008  3FFF               	dw	16383

Data Sizes:
    Strings     0
    Constant    0
    Data        0
    BSS         2
    Persistent  0
    Stack       0

Auto Spaces:
    Space          Size  Autos    Used
    COMMON           14      8      10
    BANK0            80      2       2
    BANK1            80      0       0
    BANK3            96      0       0
    BANK2            96      0       0

Pointer List with Targets:

    None.

Critical Paths under _main in COMMON

    _adc_config->_initADC
    _SPI_config->_SPI_Esclavo_Init

Critical Paths under _ISR in COMMON

    _ISR->_adc_conversion

Critical Paths under _main in BANK0

    _main->_SPI_config

Critical Paths under _ISR in BANK0

    None.

Critical Paths under _main in BANK1

    None.

Critical Paths under _ISR in BANK1

    None.

Critical Paths under _main in BANK3

    None.

Critical Paths under _ISR in BANK3

    None.

Critical Paths under _main in BANK2

    None.

Critical Paths under _ISR in BANK2

    None.

Call Graph Tables:

 ---------------------------------------------------------------------------------
 (Depth) Function   	        Calls       Base Space   Used Autos Params    Refs
 ---------------------------------------------------------------------------------
 (0) _main                                                 1     1      0     150
                                              1 BANK0      1     1      0
                         _SPI_Enviar
                        _SPI_Recibir
                         _SPI_config
                         _adc_config
                    _interrup_config
                         _osc_config
                              _setup
                        _tmr0_config
 ---------------------------------------------------------------------------------
 (1) _tmr0_config                                          0     0      0       0
 ---------------------------------------------------------------------------------
 (1) _setup                                                0     0      0       0
 ---------------------------------------------------------------------------------
 (1) _osc_config                                           0     0      0       0
 ---------------------------------------------------------------------------------
 (1) _interrup_config                                      0     0      0       0
 ---------------------------------------------------------------------------------
 (1) _adc_config                                           0     0      0      15
                            _initADC
 ---------------------------------------------------------------------------------
 (2) _initADC                                              3     3      0      15
                                              4 COMMON     3     3      0
 ---------------------------------------------------------------------------------
 (1) _SPI_config                                           1     1      0     120
                                              0 BANK0      1     1      0
                   _SPI_Esclavo_Init
 ---------------------------------------------------------------------------------
 (2) _SPI_Esclavo_Init                                     4     3      1     120
                                              4 COMMON     4     3      1
 ---------------------------------------------------------------------------------
 (1) _SPI_Recibir                                          0     0      0       0
 ---------------------------------------------------------------------------------
 (1) _SPI_Enviar                                           1     1      0      15
                                              4 COMMON     1     1      0
 ---------------------------------------------------------------------------------
 Estimated maximum stack depth 2
 ---------------------------------------------------------------------------------
 (Depth) Function   	        Calls       Base Space   Used Autos Params    Refs
 ---------------------------------------------------------------------------------
 (3) _ISR                                                  2     2      0       0
                                              2 COMMON     2     2      0
                     _adc_conversion
 ---------------------------------------------------------------------------------
 (4) _adc_conversion                                       2     2      0       0
                                              0 COMMON     2     2      0
 ---------------------------------------------------------------------------------
 Estimated maximum stack depth 4
 ---------------------------------------------------------------------------------

 Call Graph Graphs:

 _main (ROOT)
   _SPI_Enviar
   _SPI_Recibir
   _SPI_config
     _SPI_Esclavo_Init
   _adc_config
     _initADC
   _interrup_config
   _osc_config
   _setup
   _tmr0_config

 _ISR (ROOT)
   _adc_conversion

 Address spaces:
Name               Size   Autos  Total    Cost      Usage
BITCOMMON            E      0       0       0        0.0%
EEDATA             100      0       0       0        0.0%
NULL                 0      0       0       0        0.0%
CODE                 0      0       0       0        0.0%
COMMON               E      8       A       1       71.4%
BITSFR0              0      0       0       1        0.0%
SFR0                 0      0       0       1        0.0%
BITSFR1              0      0       0       2        0.0%
SFR1                 0      0       0       2        0.0%
STACK                0      0       0       2        0.0%
ABS                  0      0       C       3        0.0%
BITBANK0            50      0       0       4        0.0%
BITSFR3              0      0       0       4        0.0%
SFR3                 0      0       0       4        0.0%
BANK0               50      2       2       5        2.5%
BITSFR2              0      0       0       5        0.0%
SFR2                 0      0       0       5        0.0%
BITBANK1            50      0       0       6        0.0%
BANK1               50      0       0       7        0.0%
BITBANK3            60      0       0       8        0.0%
BANK3               60      0       0       9        0.0%
BITBANK2            60      0       0      10        0.0%
BANK2               60      0       0      11        0.0%
DATA                 0      0       C      12        0.0%


Microchip Technology PIC Macro Assembler V2.31 build 20201012212115 
Symbol Table                                                                                   Fri Feb 19 00:20:21 2021

              _SPI_Recibir 0221            SPI_Enviar@valor 0074                _SSPSTATbits 0094  
                       l94 01B2                         l97 0209                         u50 0165  
                       u51 0164                 _SPI_config 01F1                        l100 0213  
                      l103 01F0                        l121 0017                        l130 004F  
                      l122 00B4                        l106 021A                        l131 0056  
                      l123 001E                        l132 005D                        l124 0025  
                      l109 01FD                        l133 0064                        l125 002C  
                      l134 006B                        l126 0033                        l135 0072  
                      l127 003A                        l136 0079                        l128 0041  
                      l137 00BD                        l129 0048                        l170 00CD  
                      l171 00D4                        l180 011E                        l172 00DB  
                      l181 0140                        l173 00E2                        l174 00E9  
                      l184 0220                        l176 010C                        l168 00C6  
                      l177 013A                        l178 0112                        l187 0224  
                      l179 0118                        l821 0185                        l831 01A3  
                      l823 0188                        l841 0206                        l833 01A6  
                      l825 018B                        l851 0221                        l835 01A7  
                      l827 018E                        l819 017C                        l843 01E4  
                      l837 020A                        l829 0191                        l845 01EC  
                      l855 021C                        l783 0080                        l847 0214  
                      l839 01FE                        l963 00F0                        l779 0016  
  __end_of_interrup_config 020A                        l967 0124                        l959 00BF  
                      _ISR 01CF                       ?_ISR 0070                       l1133 0088  
                     l1061 0155                       l1135 00F8                       l1055 01F1  
                     l1071 0175                       l1063 015A                       l1137 012C  
                     l1065 015F                       l1057 0141                       l1067 0165  
                     l1059 0150                       l1069 016F                       _IOCB 0096  
                     i1l82 01DD                       _TMR0 0001                       u1_20 01C5  
                     u1_21 01C4                       u2_20 01D3                       u2_21 01D2  
                     u6_27 01BA                       _main 0141                       btemp 007E  
                     start 000C                      ??_ISR 0072                      ?_main 0070  
                    _ANSEL 0188                      i1l113 01CE                      i1l811 01BF  
                    i1l813 01C5                      i1l815 01C6                      i1l807 01B3  
                    i1l817 01CA                      i1l809 01B6                      i1l861 01D8  
                    i1l863 01D9                      i1l857 01CF                      i1l859 01D3  
                    _PORTA 0005                      _PORTB 0006                      _PORTC 0007  
                    _PORTD 0008                      _PORTE 0009                      _TRISA 0085  
                    _TRISB 0086                      _TRISC 0087                      _TRISD 0088  
                    _TRISE 0089                      _SSPIF 0063            __end_of_initADC 00BE  
                    _setup 017C  SPI_Esclavo_Init@port_mode 0077                      pclath 000A  
 __end_of_SPI_Esclavo_Init 0141                      status 0003                      wtemp0 007E  
              ?_SPI_Enviar 0070            __initialization 000F               __end_of_main 017C  
              ?_SPI_config 0070                     ??_main 0021           ?_interrup_config 0070  
             ?_tmr0_config 0070                     _ADRESH 001E                     ?_setup 0070  
                   _ANSELH 0189    __size_of_adc_conversion 001C                     _SSPBUF 0013  
                ??_initADC 0074                     saved_w 007E        __size_of_SPI_Enviar 0006  
  __end_of__initialization 0011        __size_of_SPI_config 000D               ?_SPI_Recibir 0070  
           __pcstackCOMMON 0070                 _adc_config 0214              __end_of_setup 01B3  
           _OPTION_REGbits 0081                    ??_setup 0074                 __pmaintext 0141  
             _dato_maestro 0078                 __pintentry 0004        SPI_Esclavo_Init@SCK 0074  
     __size_of_tmr0_config 000D             _adc_conversion 01B3          ?_SPI_Esclavo_Init 0074  
       ??_SPI_Esclavo_Init 0075               ??_SPI_Enviar 0074                ?_adc_config 0070  
             ??_SPI_config 0020                  _ANSELbits 0188                    __ptext1 01E4  
                  __ptext2 017C                    __ptext3 020A                    __ptext4 01FE  
                  __ptext5 0214                    __ptext6 0015                    __ptext7 01F1  
                  __ptext8 00BE                    __ptext9 0221                    _initADC 0015  
             __size_of_ISR 0015     __end_of_adc_conversion 01CF         __end_of_SPI_Enviar 0221  
     end_of_initialization 0011                 _osc_config 020A         __end_of_SPI_config 01FE  
     __size_of_SPI_Recibir 0004                  _PORTAbits 0005                  _TRISAbits 0085  
                _TRISCbits 0087            ?_adc_conversion 0070        __size_of_adc_config 0007  
 __size_of_interrup_config 000C                 initADC@CHS 0076        start_initialization 000F  
              __end_of_ISR 01E4                ?_osc_config 0070                __pbssCOMMON 0078  
                ___latbits 0002              __pcstackBANK0 0020                  _adc_value 0079  
        ??_interrup_config 0074               ??_adc_config 0077  __size_of_SPI_Esclavo_Init 0083  
                 ?_initADC 0070        __size_of_osc_config 000A              ??_tmr0_config 0074  
           __size_of_setup 0037         __end_of_adc_config 021B          interrupt_function 0004  
               _ADCON0bits 001F           ??_adc_conversion 0070                 _ADCON1bits 009F  
      __end_of_tmr0_config 01F1              ??_SPI_Recibir 0074           __size_of_initADC 00A9  
                 __ptext10 021B                   __ptext11 01CF                   __ptext12 01B3  
             ??_osc_config 0074              __size_of_main 003B           _SPI_Esclavo_Init 00BE  
      __end_of_SPI_Recibir 0225                 _INTCONbits 000B         __end_of_osc_config 0214  
              _tmr0_config 01E4            _interrup_config 01FE                   intlevel1 0000  
               _OSCCONbits 008F                 _SSPCONbits 0014                 _SPI_Enviar 021B  
