

Microchip MPLAB XC8 Assembler V2.31 build 20201012212115 
                                                                                               Fri Feb 19 10:41:15 2021

Microchip MPLAB XC8 C Compiler v2.31 (Free license) build 20201012212115 Og1 
     1                           	processor	16F887
     2                           	pagewidth 120
     3                           	opt	flic
     4                           	psect	cinit,global,class=CODE,merge=1,delta=2
     5                           	psect	bssCOMMON,global,class=COMMON,space=1,delta=1,noexec
     6                           	psect	cstackCOMMON,global,class=COMMON,space=1,delta=1,noexec
     7                           	psect	cstackBANK0,global,class=BANK0,space=1,delta=1,noexec
     8                           	psect	maintext,global,class=CODE,split=1,delta=2
     9                           	psect	text1,local,class=CODE,merge=1,delta=2
    10                           	psect	text2,local,class=CODE,merge=1,delta=2
    11                           	psect	text3,local,class=CODE,merge=1,delta=2
    12                           	psect	text4,local,class=CODE,merge=1,delta=2
    13                           	psect	text5,local,class=CODE,merge=1,delta=2
    14                           	psect	text6,local,class=CODE,merge=1,delta=2
    15                           	psect	text7,local,class=CODE,merge=1,delta=2
    16                           	psect	text8,local,class=CODE,merge=1,delta=2
    17                           	psect	text9,local,class=CODE,merge=1,delta=2
    18                           	psect	text10,local,class=CODE,merge=1,delta=2
    19                           	psect	text11,local,class=CODE,merge=1,delta=2
    20                           	psect	intentry,global,class=CODE,delta=2
    21                           	psect	text12,local,class=CODE,merge=1,delta=2
    22                           	psect	text13,local,class=CODE,merge=1,delta=2
    23                           	psect	config,global,abs,ovrld,class=CONFIG,space=4,delta=2,noexec
    24                           	dabs	1,0x7E,2
    25  0000                     
    26                           ; Version 2.20
    27                           ; Generated 12/02/2020 GMT
    28                           ; 
    29                           ; Copyright © 2020, Microchip Technology Inc. and its subsidiaries ("Microchip")
    30                           ; All rights reserved.
    31                           ; 
    32                           ; This software is developed by Microchip Technology Inc. and its subsidiaries ("Microch
      +                          ip").
    33                           ; 
    34                           ; Redistribution and use in source and binary forms, with or without modification, are
    35                           ; permitted provided that the following conditions are met:
    36                           ; 
    37                           ;     1. Redistributions of source code must retain the above copyright notice, this lis
      +                          t of
    38                           ;        conditions and the following disclaimer.
    39                           ; 
    40                           ;     2. Redistributions in binary form must reproduce the above copyright notice, this 
      +                          list
    41                           ;        of conditions and the following disclaimer in the documentation and/or other
    42                           ;        materials provided with the distribution.
    43                           ; 
    44                           ;     3. Microchip's name may not be used to endorse or promote products derived from th
      +                          is
    45                           ;        software without specific prior written permission.
    46                           ; 
    47                           ; THIS SOFTWARE IS PROVIDED BY MICROCHIP "AS IS" AND ANY EXPRESS OR IMPLIED WARRANTIES,
    48                           ; INCLUDING, BUT NOT LIMITED TO, THE IMPLIED WARRANTIES OF MERCHANTABILITY AND FITNESS F
      +                          OR
    49                           ; PURPOSE ARE DISCLAIMED.  IN NO EVENT SHALL MICROCHIP BE LIABLE FOR ANY DIRECT, INDIREC
      +                          T,
    50                           ; INCIDENTAL, SPECIAL, EXEMPLARY, OR CONSEQUENTIAL DAMAGES (INCLUDING BUT NOT LIMITED TO
    51                           ; PROCUREMENT OF SUBSTITUTE GOODS OR SERVICES; LOSS OF USE, DATA OR PROFITS; OR BUSINESS
    52                           ; INTERRUPTION) HOWSOEVER CAUSED AND ON ANY THEORY OF LIABILITY, WHETHER IN CONTRACT, ST
      +                          RICT
    53                           ; LIABILITY, OR TORT (INCLUDING NEGLIGENCE OR OTHERWISE) ARISING IN ANY WAY OUT OF THE U
      +                          SE OF
    54                           ; THIS SOFTWARE, EVEN IF ADVISED OF THE POSSIBILITY OF SUCH DAMAGE.
    55                           ; 
    56                           ; 
    57                           ; Code-generator required, PIC16F887 Definitions
    58                           ; 
    59                           ; SFR Addresses
    60  0000                     	;# 
    61  0001                     	;# 
    62  0002                     	;# 
    63  0003                     	;# 
    64  0004                     	;# 
    65  0005                     	;# 
    66  0006                     	;# 
    67  0007                     	;# 
    68  0008                     	;# 
    69  0009                     	;# 
    70  000A                     	;# 
    71  000B                     	;# 
    72  000C                     	;# 
    73  000D                     	;# 
    74  000E                     	;# 
    75  000E                     	;# 
    76  000F                     	;# 
    77  0010                     	;# 
    78  0011                     	;# 
    79  0012                     	;# 
    80  0013                     	;# 
    81  0014                     	;# 
    82  0015                     	;# 
    83  0015                     	;# 
    84  0016                     	;# 
    85  0017                     	;# 
    86  0018                     	;# 
    87  0019                     	;# 
    88  001A                     	;# 
    89  001B                     	;# 
    90  001B                     	;# 
    91  001C                     	;# 
    92  001D                     	;# 
    93  001E                     	;# 
    94  001F                     	;# 
    95  0081                     	;# 
    96  0085                     	;# 
    97  0086                     	;# 
    98  0087                     	;# 
    99  0088                     	;# 
   100  0089                     	;# 
   101  008C                     	;# 
   102  008D                     	;# 
   103  008E                     	;# 
   104  008F                     	;# 
   105  0090                     	;# 
   106  0091                     	;# 
   107  0092                     	;# 
   108  0093                     	;# 
   109  0093                     	;# 
   110  0093                     	;# 
   111  0094                     	;# 
   112  0095                     	;# 
   113  0096                     	;# 
   114  0097                     	;# 
   115  0098                     	;# 
   116  0099                     	;# 
   117  009A                     	;# 
   118  009B                     	;# 
   119  009C                     	;# 
   120  009D                     	;# 
   121  009E                     	;# 
   122  009F                     	;# 
   123  0105                     	;# 
   124  0107                     	;# 
   125  0108                     	;# 
   126  0109                     	;# 
   127  010C                     	;# 
   128  010C                     	;# 
   129  010D                     	;# 
   130  010E                     	;# 
   131  010F                     	;# 
   132  0185                     	;# 
   133  0187                     	;# 
   134  0188                     	;# 
   135  0189                     	;# 
   136  018C                     	;# 
   137  018D                     	;# 
   138  0000                     	;# 
   139  0001                     	;# 
   140  0002                     	;# 
   141  0003                     	;# 
   142  0004                     	;# 
   143  0005                     	;# 
   144  0006                     	;# 
   145  0007                     	;# 
   146  0008                     	;# 
   147  0009                     	;# 
   148  000A                     	;# 
   149  000B                     	;# 
   150  000C                     	;# 
   151  000D                     	;# 
   152  000E                     	;# 
   153  000E                     	;# 
   154  000F                     	;# 
   155  0010                     	;# 
   156  0011                     	;# 
   157  0012                     	;# 
   158  0013                     	;# 
   159  0014                     	;# 
   160  0015                     	;# 
   161  0015                     	;# 
   162  0016                     	;# 
   163  0017                     	;# 
   164  0018                     	;# 
   165  0019                     	;# 
   166  001A                     	;# 
   167  001B                     	;# 
   168  001B                     	;# 
   169  001C                     	;# 
   170  001D                     	;# 
   171  001E                     	;# 
   172  001F                     	;# 
   173  0081                     	;# 
   174  0085                     	;# 
   175  0086                     	;# 
   176  0087                     	;# 
   177  0088                     	;# 
   178  0089                     	;# 
   179  008C                     	;# 
   180  008D                     	;# 
   181  008E                     	;# 
   182  008F                     	;# 
   183  0090                     	;# 
   184  0091                     	;# 
   185  0092                     	;# 
   186  0093                     	;# 
   187  0093                     	;# 
   188  0093                     	;# 
   189  0094                     	;# 
   190  0095                     	;# 
   191  0096                     	;# 
   192  0097                     	;# 
   193  0098                     	;# 
   194  0099                     	;# 
   195  009A                     	;# 
   196  009B                     	;# 
   197  009C                     	;# 
   198  009D                     	;# 
   199  009E                     	;# 
   200  009F                     	;# 
   201  0105                     	;# 
   202  0107                     	;# 
   203  0108                     	;# 
   204  0109                     	;# 
   205  010C                     	;# 
   206  010C                     	;# 
   207  010D                     	;# 
   208  010E                     	;# 
   209  010F                     	;# 
   210  0185                     	;# 
   211  0187                     	;# 
   212  0188                     	;# 
   213  0189                     	;# 
   214  018C                     	;# 
   215  018D                     	;# 
   216  0000                     	;# 
   217  0001                     	;# 
   218  0002                     	;# 
   219  0003                     	;# 
   220  0004                     	;# 
   221  0005                     	;# 
   222  0006                     	;# 
   223  0007                     	;# 
   224  0008                     	;# 
   225  0009                     	;# 
   226  000A                     	;# 
   227  000B                     	;# 
   228  000C                     	;# 
   229  000D                     	;# 
   230  000E                     	;# 
   231  000E                     	;# 
   232  000F                     	;# 
   233  0010                     	;# 
   234  0011                     	;# 
   235  0012                     	;# 
   236  0013                     	;# 
   237  0014                     	;# 
   238  0015                     	;# 
   239  0015                     	;# 
   240  0016                     	;# 
   241  0017                     	;# 
   242  0018                     	;# 
   243  0019                     	;# 
   244  001A                     	;# 
   245  001B                     	;# 
   246  001B                     	;# 
   247  001C                     	;# 
   248  001D                     	;# 
   249  001E                     	;# 
   250  001F                     	;# 
   251  0081                     	;# 
   252  0085                     	;# 
   253  0086                     	;# 
   254  0087                     	;# 
   255  0088                     	;# 
   256  0089                     	;# 
   257  008C                     	;# 
   258  008D                     	;# 
   259  008E                     	;# 
   260  008F                     	;# 
   261  0090                     	;# 
   262  0091                     	;# 
   263  0092                     	;# 
   264  0093                     	;# 
   265  0093                     	;# 
   266  0093                     	;# 
   267  0094                     	;# 
   268  0095                     	;# 
   269  0096                     	;# 
   270  0097                     	;# 
   271  0098                     	;# 
   272  0099                     	;# 
   273  009A                     	;# 
   274  009B                     	;# 
   275  009C                     	;# 
   276  009D                     	;# 
   277  009E                     	;# 
   278  009F                     	;# 
   279  0105                     	;# 
   280  0107                     	;# 
   281  0108                     	;# 
   282  0109                     	;# 
   283  010C                     	;# 
   284  010C                     	;# 
   285  010D                     	;# 
   286  010E                     	;# 
   287  010F                     	;# 
   288  0185                     	;# 
   289  0187                     	;# 
   290  0188                     	;# 
   291  0189                     	;# 
   292  018C                     	;# 
   293  018D                     	;# 
   294  0000                     	;# 
   295  0001                     	;# 
   296  0002                     	;# 
   297  0003                     	;# 
   298  0004                     	;# 
   299  0005                     	;# 
   300  0006                     	;# 
   301  0007                     	;# 
   302  0008                     	;# 
   303  0009                     	;# 
   304  000A                     	;# 
   305  000B                     	;# 
   306  000C                     	;# 
   307  000D                     	;# 
   308  000E                     	;# 
   309  000E                     	;# 
   310  000F                     	;# 
   311  0010                     	;# 
   312  0011                     	;# 
   313  0012                     	;# 
   314  0013                     	;# 
   315  0014                     	;# 
   316  0015                     	;# 
   317  0015                     	;# 
   318  0016                     	;# 
   319  0017                     	;# 
   320  0018                     	;# 
   321  0019                     	;# 
   322  001A                     	;# 
   323  001B                     	;# 
   324  001B                     	;# 
   325  001C                     	;# 
   326  001D                     	;# 
   327  001E                     	;# 
   328  001F                     	;# 
   329  0081                     	;# 
   330  0085                     	;# 
   331  0086                     	;# 
   332  0087                     	;# 
   333  0088                     	;# 
   334  0089                     	;# 
   335  008C                     	;# 
   336  008D                     	;# 
   337  008E                     	;# 
   338  008F                     	;# 
   339  0090                     	;# 
   340  0091                     	;# 
   341  0092                     	;# 
   342  0093                     	;# 
   343  0093                     	;# 
   344  0093                     	;# 
   345  0094                     	;# 
   346  0095                     	;# 
   347  0096                     	;# 
   348  0097                     	;# 
   349  0098                     	;# 
   350  0099                     	;# 
   351  009A                     	;# 
   352  009B                     	;# 
   353  009C                     	;# 
   354  009D                     	;# 
   355  009E                     	;# 
   356  009F                     	;# 
   357  0105                     	;# 
   358  0107                     	;# 
   359  0108                     	;# 
   360  0109                     	;# 
   361  010C                     	;# 
   362  010C                     	;# 
   363  010D                     	;# 
   364  010E                     	;# 
   365  010F                     	;# 
   366  0185                     	;# 
   367  0187                     	;# 
   368  0188                     	;# 
   369  0189                     	;# 
   370  018C                     	;# 
   371  018D                     	;# 
   372  0013                     _SSPBUF	set	19
   373  0014                     _SSPCONbits	set	20
   374  001F                     _ADCON0bits	set	31
   375  0009                     _PORTE	set	9
   376  0008                     _PORTD	set	8
   377  0007                     _PORTC	set	7
   378  0006                     _PORTBbits	set	6
   379  0006                     _PORTB	set	6
   380  0005                     _PORTAbits	set	5
   381  0005                     _PORTA	set	5
   382  001E                     _ADRESH	set	30
   383  0001                     _TMR0	set	1
   384  000B                     _INTCONbits	set	11
   385  0063                     _SSPIF	set	99
   386  009F                     _ADCON1bits	set	159
   387  0094                     _SSPSTATbits	set	148
   388  0081                     _OPTION_REGbits	set	129
   389  008F                     _OSCCONbits	set	143
   390  0096                     _IOCB	set	150
   391  0089                     _TRISE	set	137
   392  0088                     _TRISD	set	136
   393  0087                     _TRISCbits	set	135
   394  0087                     _TRISC	set	135
   395  0086                     _TRISB	set	134
   396  0085                     _TRISAbits	set	133
   397  0085                     _TRISA	set	133
   398  0189                     _ANSELH	set	393
   399  0188                     _ANSELbits	set	392
   400  0188                     _ANSEL	set	392
   401                           
   402                           	psect	cinit
   403  000F                     start_initialization:	
   404                           ; #config settings
   405                           
   406  000F                     __initialization:
   407                           
   408                           ; Clear objects allocated to COMMON
   409  000F  01F9               	clrf	__pbssCOMMON& (0+127)
   410  0010                     end_of_initialization:	
   411                           ;End of C runtime variable initialization code
   412                           
   413  0010                     __end_of__initialization:
   414  0010  0183               	clrf	3
   415  0011  120A  118A  2940   	ljmp	_main	;jump to C main() function
   416                           
   417                           	psect	bssCOMMON
   418  0079                     __pbssCOMMON:
   419  0079                     _dato_maestro:
   420  0079                     	ds	1
   421                           
   422                           	psect	cstackCOMMON
   423  0070                     __pcstackCOMMON:
   424  0070                     ?_adc_conversion:
   425  0070                     ??_adc_conversion:	
   426                           ; 1 bytes @ 0x0
   427                           
   428  0070                     ?_setup:	
   429                           ; 1 bytes @ 0x0
   430                           
   431  0070                     ?_osc_config:	
   432                           ; 1 bytes @ 0x0
   433                           
   434  0070                     ?_interrup_config:	
   435                           ; 1 bytes @ 0x0
   436                           
   437  0070                     ?_tmr0_config:	
   438                           ; 1 bytes @ 0x0
   439                           
   440  0070                     ?_adc_config:	
   441                           ; 1 bytes @ 0x0
   442                           
   443  0070                     ?_SPI_config:	
   444                           ; 1 bytes @ 0x0
   445                           
   446  0070                     ?_SPI_Recibir:	
   447                           ; 1 bytes @ 0x0
   448                           
   449  0070                     ?_SPI_Enviar:	
   450                           ; 1 bytes @ 0x0
   451                           
   452  0070                     ?_initADC:	
   453                           ; 1 bytes @ 0x0
   454                           
   455  0070                     ?_ISR:	
   456                           ; 1 bytes @ 0x0
   457                           
   458  0070                     ?_main:	
   459                           ; 1 bytes @ 0x0
   460                           
   461  0070                     ?_semaforo:	
   462                           ; 1 bytes @ 0x0
   463                           
   464  0070                     ??_semaforo:	
   465                           ; 1 bytes @ 0x0
   466                           
   467                           
   468                           ; 1 bytes @ 0x0
   469  0070                     	ds	2
   470  0072                     ??_ISR:
   471                           
   472                           ; 1 bytes @ 0x2
   473  0072                     	ds	2
   474  0074                     ??_setup:
   475  0074                     ??_osc_config:	
   476                           ; 1 bytes @ 0x4
   477                           
   478  0074                     ??_interrup_config:	
   479                           ; 1 bytes @ 0x4
   480                           
   481  0074                     ??_tmr0_config:	
   482                           ; 1 bytes @ 0x4
   483                           
   484  0074                     ??_SPI_Recibir:	
   485                           ; 1 bytes @ 0x4
   486                           
   487  0074                     ??_SPI_Enviar:	
   488                           ; 1 bytes @ 0x4
   489                           
   490  0074                     ??_initADC:	
   491                           ; 1 bytes @ 0x4
   492                           
   493  0074                     ?_SPI_Esclavo_Init:	
   494                           ; 1 bytes @ 0x4
   495                           
   496  0074                     SPI_Esclavo_Init@SCK:	
   497                           ; 1 bytes @ 0x4
   498                           
   499  0074                     SPI_Enviar@valor:	
   500                           ; 1 bytes @ 0x4
   501                           
   502                           
   503                           ; 1 bytes @ 0x4
   504  0074                     	ds	1
   505  0075                     ??_SPI_Esclavo_Init:
   506                           
   507                           ; 1 bytes @ 0x5
   508  0075                     	ds	1
   509  0076                     initADC@CHS:
   510                           
   511                           ; 1 bytes @ 0x6
   512  0076                     	ds	1
   513  0077                     ??_adc_config:
   514  0077                     SPI_Esclavo_Init@port_mode:	
   515                           ; 1 bytes @ 0x7
   516                           
   517                           
   518                           ; 1 bytes @ 0x7
   519  0077                     	ds	1
   520  0078                     ??_SPI_config:
   521                           
   522                           ; 1 bytes @ 0x8
   523  0078                     	ds	1
   524                           
   525                           	psect	cstackBANK0
   526  0020                     __pcstackBANK0:
   527  0020                     ??_main:
   528                           
   529                           ; 1 bytes @ 0x0
   530  0020                     	ds	1
   531                           
   532                           	psect	maintext
   533  0140                     __pmaintext:	
   534 ;;
   535 ;;Main: autosize = 0, tempsize = 1, incstack = 0, save=0
   536 ;;
   537 ;; *************** function _main *****************
   538 ;; Defined at:
   539 ;;		line 81 in file "SLAVE_SEMAFORO_SPI.c"
   540 ;; Parameters:    Size  Location     Type
   541 ;;		None
   542 ;; Auto vars:     Size  Location     Type
   543 ;;		None
   544 ;; Return value:  Size  Location     Type
   545 ;;                  1    wreg      void 
   546 ;; Registers used:
   547 ;;		wreg, fsr0l, fsr0h, status,2, status,0, pclath, cstack
   548 ;; Tracked objects:
   549 ;;		On entry : B00/0
   550 ;;		On exit  : 0/0
   551 ;;		Unchanged: 0/0
   552 ;; Data sizes:     COMMON   BANK0   BANK1   BANK3   BANK2
   553 ;;      Params:         0       0       0       0       0
   554 ;;      Locals:         0       0       0       0       0
   555 ;;      Temps:          0       1       0       0       0
   556 ;;      Totals:         0       1       0       0       0
   557 ;;Total ram usage:        1 bytes
   558 ;; Hardware stack levels required when called:    5
   559 ;; This function calls:
   560 ;;		_SPI_Enviar
   561 ;;		_SPI_Recibir
   562 ;;		_SPI_config
   563 ;;		_adc_config
   564 ;;		_interrup_config
   565 ;;		_osc_config
   566 ;;		_setup
   567 ;;		_tmr0_config
   568 ;; This function is called by:
   569 ;;		Startup code after reset
   570 ;; This function uses a non-reentrant model
   571 ;;
   572                           
   573                           
   574                           ;psect for function _main
   575  0140                     _main:
   576  0140                     l1078:	
   577                           ;incstack = 0
   578                           ; Regs used in _main: [wreg-fsr0h+status,2+status,0+pclath+cstack]
   579                           
   580                           
   581                           ;SLAVE_SEMAFORO_SPI.c: 83:     setup();
   582  0140  120A  118A  217B  120A  118A  	fcall	_setup
   583                           
   584                           ;SLAVE_SEMAFORO_SPI.c: 84:     osc_config();
   585  0145  120A  118A  2229  120A  118A  	fcall	_osc_config
   586                           
   587                           ;SLAVE_SEMAFORO_SPI.c: 85:     interrup_config();
   588  014A  120A  118A  2212  120A  118A  	fcall	_interrup_config
   589  014F                     l1080:
   590                           
   591                           ;SLAVE_SEMAFORO_SPI.c: 86:     tmr0_config ();
   592  014F  120A  118A  2205  120A  118A  	fcall	_tmr0_config
   593  0154                     l1082:
   594                           
   595                           ;SLAVE_SEMAFORO_SPI.c: 87:     adc_config();
   596  0154  120A  118A  2233  120A  118A  	fcall	_adc_config
   597  0159                     l1084:
   598                           
   599                           ;SLAVE_SEMAFORO_SPI.c: 88:     SPI_config ();
   600  0159  120A  118A  221E  120A  118A  	fcall	_SPI_config
   601  015E                     l1086:
   602                           
   603                           ;SLAVE_SEMAFORO_SPI.c: 90:     {;SLAVE_SEMAFORO_SPI.c: 91:         if (SSPIF == 1)
   604  015E  1283               	bcf	3,5	;RP0=0, select bank0
   605  015F  1303               	bcf	3,6	;RP1=0, select bank0
   606  0160  1D8C               	btfss	12,3	;volatile
   607  0161  2963               	goto	u81
   608  0162  2964               	goto	u80
   609  0163                     u81:
   610  0163  295E               	goto	l1086
   611  0164                     u80:
   612  0164                     l1088:
   613                           
   614                           ;SLAVE_SEMAFORO_SPI.c: 92:         {;SLAVE_SEMAFORO_SPI.c: 93:         dato_maestro = SP
      +                          I_Recibir();
   615  0164  120A  118A  2240  120A  118A  	fcall	_SPI_Recibir
   616  0169  1283               	bcf	3,5	;RP0=0, select bank0
   617  016A  1303               	bcf	3,6	;RP1=0, select bank0
   618  016B  00A0               	movwf	??_main
   619  016C  0820               	movf	??_main,w
   620  016D  00F9               	movwf	_dato_maestro
   621  016E                     l1090:
   622                           
   623                           ;SLAVE_SEMAFORO_SPI.c: 94:         SPI_Enviar (ADRESH);
   624  016E  081E               	movf	30,w	;volatile
   625  016F  120A  118A  223A  120A  118A  	fcall	_SPI_Enviar
   626  0174                     l1092:
   627                           
   628                           ;SLAVE_SEMAFORO_SPI.c: 95:         SSPIF = 0;
   629  0174  1283               	bcf	3,5	;RP0=0, select bank0
   630  0175  1303               	bcf	3,6	;RP1=0, select bank0
   631  0176  118C               	bcf	12,3	;volatile
   632  0177  295E               	goto	l1086
   633  0178  120A  118A  280C   	ljmp	start
   634  017B                     __end_of_main:
   635                           
   636                           	psect	text1
   637  0205                     __ptext1:	
   638 ;; *************** function _tmr0_config *****************
   639 ;; Defined at:
   640 ;;		line 156 in file "SLAVE_SEMAFORO_SPI.c"
   641 ;; Parameters:    Size  Location     Type
   642 ;;		None
   643 ;; Auto vars:     Size  Location     Type
   644 ;;		None
   645 ;; Return value:  Size  Location     Type
   646 ;;                  1    wreg      void 
   647 ;; Registers used:
   648 ;;		wreg
   649 ;; Tracked objects:
   650 ;;		On entry : 0/0
   651 ;;		On exit  : 0/0
   652 ;;		Unchanged: 0/0
   653 ;; Data sizes:     COMMON   BANK0   BANK1   BANK3   BANK2
   654 ;;      Params:         0       0       0       0       0
   655 ;;      Locals:         0       0       0       0       0
   656 ;;      Temps:          0       0       0       0       0
   657 ;;      Totals:         0       0       0       0       0
   658 ;;Total ram usage:        0 bytes
   659 ;; Hardware stack levels used:    1
   660 ;; Hardware stack levels required when called:    3
   661 ;; This function calls:
   662 ;;		Nothing
   663 ;; This function is called by:
   664 ;;		_main
   665 ;; This function uses a non-reentrant model
   666 ;;
   667                           
   668                           
   669                           ;psect for function _tmr0_config
   670  0205                     _tmr0_config:
   671  0205                     l866:	
   672                           ;incstack = 0
   673                           ; Regs used in _tmr0_config: [wreg]
   674                           
   675                           
   676                           ;SLAVE_SEMAFORO_SPI.c: 158:     OPTION_REGbits.nRBPU = 1;
   677  0205  1683               	bsf	3,5	;RP0=1, select bank1
   678  0206  1303               	bcf	3,6	;RP1=0, select bank1
   679  0207  1781               	bsf	1,7	;volatile
   680                           
   681                           ;SLAVE_SEMAFORO_SPI.c: 159:     OPTION_REGbits.T0CS = 0;
   682  0208  1281               	bcf	1,5	;volatile
   683                           
   684                           ;SLAVE_SEMAFORO_SPI.c: 160:     OPTION_REGbits.PSA = 0;
   685  0209  1181               	bcf	1,3	;volatile
   686                           
   687                           ;SLAVE_SEMAFORO_SPI.c: 161:     OPTION_REGbits.PS2 = 0;
   688  020A  1101               	bcf	1,2	;volatile
   689                           
   690                           ;SLAVE_SEMAFORO_SPI.c: 162:     OPTION_REGbits.PS1 = 1;
   691  020B  1481               	bsf	1,1	;volatile
   692                           
   693                           ;SLAVE_SEMAFORO_SPI.c: 163:     OPTION_REGbits.PS0 = 0;
   694  020C  1001               	bcf	1,0	;volatile
   695  020D                     l868:
   696                           
   697                           ;SLAVE_SEMAFORO_SPI.c: 164:     TMR0 = 100;
   698  020D  3064               	movlw	100
   699  020E  1283               	bcf	3,5	;RP0=0, select bank0
   700  020F  1303               	bcf	3,6	;RP1=0, select bank0
   701  0210  0081               	movwf	1	;volatile
   702  0211                     l103:
   703  0211  0008               	return
   704  0212                     __end_of_tmr0_config:
   705                           
   706                           	psect	text2
   707  017B                     __ptext2:	
   708 ;; *************** function _setup *****************
   709 ;; Defined at:
   710 ;;		line 104 in file "SLAVE_SEMAFORO_SPI.c"
   711 ;; Parameters:    Size  Location     Type
   712 ;;		None
   713 ;; Auto vars:     Size  Location     Type
   714 ;;		None
   715 ;; Return value:  Size  Location     Type
   716 ;;                  1    wreg      void 
   717 ;; Registers used:
   718 ;;		status,2
   719 ;; Tracked objects:
   720 ;;		On entry : 0/0
   721 ;;		On exit  : 0/0
   722 ;;		Unchanged: 0/0
   723 ;; Data sizes:     COMMON   BANK0   BANK1   BANK3   BANK2
   724 ;;      Params:         0       0       0       0       0
   725 ;;      Locals:         0       0       0       0       0
   726 ;;      Temps:          0       0       0       0       0
   727 ;;      Totals:         0       0       0       0       0
   728 ;;Total ram usage:        0 bytes
   729 ;; Hardware stack levels used:    1
   730 ;; Hardware stack levels required when called:    3
   731 ;; This function calls:
   732 ;;		Nothing
   733 ;; This function is called by:
   734 ;;		_main
   735 ;; This function uses a non-reentrant model
   736 ;;
   737                           
   738                           
   739                           ;psect for function _setup
   740  017B                     _setup:
   741  017B                     l836:	
   742                           ;incstack = 0
   743                           ; Regs used in _setup: [status,2]
   744                           
   745                           
   746                           ;SLAVE_SEMAFORO_SPI.c: 106:     ANSEL = 0;
   747  017B  1683               	bsf	3,5	;RP0=1, select bank3
   748  017C  1703               	bsf	3,6	;RP1=1, select bank3
   749  017D  0188               	clrf	8	;volatile
   750                           
   751                           ;SLAVE_SEMAFORO_SPI.c: 107:     TRISA = 0;
   752  017E  1683               	bsf	3,5	;RP0=1, select bank1
   753  017F  1303               	bcf	3,6	;RP1=0, select bank1
   754  0180  0185               	clrf	5	;volatile
   755                           
   756                           ;SLAVE_SEMAFORO_SPI.c: 108:     PORTA = 0;
   757  0181  1283               	bcf	3,5	;RP0=0, select bank0
   758  0182  1303               	bcf	3,6	;RP1=0, select bank0
   759  0183  0185               	clrf	5	;volatile
   760  0184                     l838:
   761                           
   762                           ;SLAVE_SEMAFORO_SPI.c: 109:     TRISAbits.TRISA0 = 1;
   763  0184  1683               	bsf	3,5	;RP0=1, select bank1
   764  0185  1303               	bcf	3,6	;RP1=0, select bank1
   765  0186  1405               	bsf	5,0	;volatile
   766  0187                     l840:
   767                           
   768                           ;SLAVE_SEMAFORO_SPI.c: 110:     ANSELbits.ANS0 = 1;
   769  0187  1683               	bsf	3,5	;RP0=1, select bank3
   770  0188  1703               	bsf	3,6	;RP1=1, select bank3
   771  0189  1408               	bsf	8,0	;volatile
   772  018A                     l842:
   773                           
   774                           ;SLAVE_SEMAFORO_SPI.c: 111:     TRISAbits.TRISA5 = 1;
   775  018A  1683               	bsf	3,5	;RP0=1, select bank1
   776  018B  1303               	bcf	3,6	;RP1=0, select bank1
   777  018C  1685               	bsf	5,5	;volatile
   778  018D                     l844:
   779                           
   780                           ;SLAVE_SEMAFORO_SPI.c: 112:     ANSELbits.ANS5 = 0;
   781  018D  1683               	bsf	3,5	;RP0=1, select bank3
   782  018E  1703               	bsf	3,6	;RP1=1, select bank3
   783  018F  1288               	bcf	8,5	;volatile
   784  0190                     l846:
   785                           
   786                           ;SLAVE_SEMAFORO_SPI.c: 113:     PORTAbits.RA5 = 1;
   787  0190  1283               	bcf	3,5	;RP0=0, select bank0
   788  0191  1303               	bcf	3,6	;RP1=0, select bank0
   789  0192  1685               	bsf	5,5	;volatile
   790                           
   791                           ;SLAVE_SEMAFORO_SPI.c: 115:     ANSELH = 0;
   792  0193  1683               	bsf	3,5	;RP0=1, select bank3
   793  0194  1703               	bsf	3,6	;RP1=1, select bank3
   794  0195  0189               	clrf	9	;volatile
   795                           
   796                           ;SLAVE_SEMAFORO_SPI.c: 116:     TRISB = 0;
   797  0196  1683               	bsf	3,5	;RP0=1, select bank1
   798  0197  1303               	bcf	3,6	;RP1=0, select bank1
   799  0198  0186               	clrf	6	;volatile
   800                           
   801                           ;SLAVE_SEMAFORO_SPI.c: 117:     PORTB = 0;
   802  0199  1283               	bcf	3,5	;RP0=0, select bank0
   803  019A  1303               	bcf	3,6	;RP1=0, select bank0
   804  019B  0186               	clrf	6	;volatile
   805  019C                     l848:
   806                           
   807                           ;SLAVE_SEMAFORO_SPI.c: 118:     PORTBbits.RB0 = 0;
   808  019C  1006               	bcf	6,0	;volatile
   809  019D                     l850:
   810                           
   811                           ;SLAVE_SEMAFORO_SPI.c: 119:     PORTBbits.RB1 = 0;
   812  019D  1086               	bcf	6,1	;volatile
   813  019E                     l852:
   814                           
   815                           ;SLAVE_SEMAFORO_SPI.c: 120:     PORTBbits.RB2 = 0;
   816  019E  1106               	bcf	6,2	;volatile
   817                           
   818                           ;SLAVE_SEMAFORO_SPI.c: 121:     TRISC = 0;
   819  019F  1683               	bsf	3,5	;RP0=1, select bank1
   820  01A0  1303               	bcf	3,6	;RP1=0, select bank1
   821  01A1  0187               	clrf	7	;volatile
   822  01A2                     l854:
   823                           
   824                           ;SLAVE_SEMAFORO_SPI.c: 122:     TRISCbits.TRISC3 = 1;
   825  01A2  1587               	bsf	7,3	;volatile
   826  01A3                     l856:
   827                           
   828                           ;SLAVE_SEMAFORO_SPI.c: 123:     TRISCbits.TRISC4 = 1;
   829  01A3  1607               	bsf	7,4	;volatile
   830  01A4                     l858:
   831                           
   832                           ;SLAVE_SEMAFORO_SPI.c: 124:     TRISCbits.TRISC5 = 0;
   833  01A4  1287               	bcf	7,5	;volatile
   834                           
   835                           ;SLAVE_SEMAFORO_SPI.c: 125:     PORTC = 0;
   836  01A5  1283               	bcf	3,5	;RP0=0, select bank0
   837  01A6  1303               	bcf	3,6	;RP1=0, select bank0
   838  01A7  0187               	clrf	7	;volatile
   839                           
   840                           ;SLAVE_SEMAFORO_SPI.c: 126:     TRISD = 0;
   841  01A8  1683               	bsf	3,5	;RP0=1, select bank1
   842  01A9  1303               	bcf	3,6	;RP1=0, select bank1
   843  01AA  0188               	clrf	8	;volatile
   844                           
   845                           ;SLAVE_SEMAFORO_SPI.c: 127:     PORTD = 0;
   846  01AB  1283               	bcf	3,5	;RP0=0, select bank0
   847  01AC  1303               	bcf	3,6	;RP1=0, select bank0
   848  01AD  0188               	clrf	8	;volatile
   849                           
   850                           ;SLAVE_SEMAFORO_SPI.c: 128:     TRISE = 0;
   851  01AE  1683               	bsf	3,5	;RP0=1, select bank1
   852  01AF  1303               	bcf	3,6	;RP1=0, select bank1
   853  01B0  0189               	clrf	9	;volatile
   854                           
   855                           ;SLAVE_SEMAFORO_SPI.c: 129:     PORTE = 0;
   856  01B1  1283               	bcf	3,5	;RP0=0, select bank0
   857  01B2  1303               	bcf	3,6	;RP1=0, select bank0
   858  01B3  0189               	clrf	9	;volatile
   859  01B4                     l94:
   860  01B4  0008               	return
   861  01B5                     __end_of_setup:
   862                           
   863                           	psect	text3
   864  0229                     __ptext3:	
   865 ;; *************** function _osc_config *****************
   866 ;; Defined at:
   867 ;;		line 145 in file "SLAVE_SEMAFORO_SPI.c"
   868 ;; Parameters:    Size  Location     Type
   869 ;;		None
   870 ;; Auto vars:     Size  Location     Type
   871 ;;		None
   872 ;; Return value:  Size  Location     Type
   873 ;;                  1    wreg      void 
   874 ;; Registers used:
   875 ;;		None
   876 ;; Tracked objects:
   877 ;;		On entry : 0/0
   878 ;;		On exit  : 0/0
   879 ;;		Unchanged: 0/0
   880 ;; Data sizes:     COMMON   BANK0   BANK1   BANK3   BANK2
   881 ;;      Params:         0       0       0       0       0
   882 ;;      Locals:         0       0       0       0       0
   883 ;;      Temps:          0       0       0       0       0
   884 ;;      Totals:         0       0       0       0       0
   885 ;;Total ram usage:        0 bytes
   886 ;; Hardware stack levels used:    1
   887 ;; Hardware stack levels required when called:    3
   888 ;; This function calls:
   889 ;;		Nothing
   890 ;; This function is called by:
   891 ;;		_main
   892 ;; This function uses a non-reentrant model
   893 ;;
   894                           
   895                           
   896                           ;psect for function _osc_config
   897  0229                     _osc_config:
   898  0229                     l860:	
   899                           ;incstack = 0
   900                           ; Regs used in _osc_config: []
   901                           
   902                           
   903                           ;SLAVE_SEMAFORO_SPI.c: 147:     OSCCONbits.IRCF2 = 1;
   904  0229  1683               	bsf	3,5	;RP0=1, select bank1
   905  022A  1303               	bcf	3,6	;RP1=0, select bank1
   906  022B  170F               	bsf	15,6	;volatile
   907                           
   908                           ;SLAVE_SEMAFORO_SPI.c: 148:     OSCCONbits.IRCF1 = 1;
   909  022C  168F               	bsf	15,5	;volatile
   910                           
   911                           ;SLAVE_SEMAFORO_SPI.c: 149:     OSCCONbits.IRCF0 = 0;
   912  022D  120F               	bcf	15,4	;volatile
   913                           
   914                           ;SLAVE_SEMAFORO_SPI.c: 150:     OSCCONbits.OSTS = 0;
   915  022E  118F               	bcf	15,3	;volatile
   916                           
   917                           ;SLAVE_SEMAFORO_SPI.c: 151:     OSCCONbits.HTS = 0;
   918  022F  110F               	bcf	15,2	;volatile
   919                           
   920                           ;SLAVE_SEMAFORO_SPI.c: 152:     OSCCONbits.LTS = 1;
   921  0230  148F               	bsf	15,1	;volatile
   922                           
   923                           ;SLAVE_SEMAFORO_SPI.c: 153:     OSCCONbits.SCS = 0;
   924  0231  100F               	bcf	15,0	;volatile
   925  0232                     l100:
   926  0232  0008               	return
   927  0233                     __end_of_osc_config:
   928                           
   929                           	psect	text4
   930  0212                     __ptext4:	
   931 ;; *************** function _interrup_config *****************
   932 ;; Defined at:
   933 ;;		line 132 in file "SLAVE_SEMAFORO_SPI.c"
   934 ;; Parameters:    Size  Location     Type
   935 ;;		None
   936 ;; Auto vars:     Size  Location     Type
   937 ;;		None
   938 ;; Return value:  Size  Location     Type
   939 ;;                  1    wreg      void 
   940 ;; Registers used:
   941 ;;		status,2
   942 ;; Tracked objects:
   943 ;;		On entry : 0/0
   944 ;;		On exit  : 0/0
   945 ;;		Unchanged: 0/0
   946 ;; Data sizes:     COMMON   BANK0   BANK1   BANK3   BANK2
   947 ;;      Params:         0       0       0       0       0
   948 ;;      Locals:         0       0       0       0       0
   949 ;;      Temps:          0       0       0       0       0
   950 ;;      Totals:         0       0       0       0       0
   951 ;;Total ram usage:        0 bytes
   952 ;; Hardware stack levels used:    1
   953 ;; Hardware stack levels required when called:    3
   954 ;; This function calls:
   955 ;;		Nothing
   956 ;; This function is called by:
   957 ;;		_main
   958 ;; This function uses a non-reentrant model
   959 ;;
   960                           
   961                           
   962                           ;psect for function _interrup_config
   963  0212                     _interrup_config:
   964  0212                     l862:	
   965                           ;incstack = 0
   966                           ; Regs used in _interrup_config: [status,2]
   967                           
   968                           
   969                           ;SLAVE_SEMAFORO_SPI.c: 134:     INTCONbits.GIE = 1;
   970  0212  178B               	bsf	11,7	;volatile
   971                           
   972                           ;SLAVE_SEMAFORO_SPI.c: 135:     INTCONbits.PEIE = 1;
   973  0213  170B               	bsf	11,6	;volatile
   974                           
   975                           ;SLAVE_SEMAFORO_SPI.c: 136:     INTCONbits.T0IE = 1;
   976  0214  168B               	bsf	11,5	;volatile
   977                           
   978                           ;SLAVE_SEMAFORO_SPI.c: 137:     INTCONbits.INTE = 0;
   979  0215  120B               	bcf	11,4	;volatile
   980                           
   981                           ;SLAVE_SEMAFORO_SPI.c: 138:     INTCONbits.RBIE = 0;
   982  0216  118B               	bcf	11,3	;volatile
   983                           
   984                           ;SLAVE_SEMAFORO_SPI.c: 139:     INTCONbits.T0IF = 0;
   985  0217  110B               	bcf	11,2	;volatile
   986                           
   987                           ;SLAVE_SEMAFORO_SPI.c: 140:     INTCONbits.INTF = 0;
   988  0218  108B               	bcf	11,1	;volatile
   989                           
   990                           ;SLAVE_SEMAFORO_SPI.c: 141:     INTCONbits.RBIF = 0;
   991  0219  100B               	bcf	11,0	;volatile
   992  021A                     l864:
   993                           
   994                           ;SLAVE_SEMAFORO_SPI.c: 142:     IOCB = 0b00000000;
   995  021A  1683               	bsf	3,5	;RP0=1, select bank1
   996  021B  1303               	bcf	3,6	;RP1=0, select bank1
   997  021C  0196               	clrf	22	;volatile
   998  021D                     l97:
   999  021D  0008               	return
  1000  021E                     __end_of_interrup_config:
  1001                           
  1002                           	psect	text5
  1003  0233                     __ptext5:	
  1004 ;; *************** function _adc_config *****************
  1005 ;; Defined at:
  1006 ;;		line 171 in file "SLAVE_SEMAFORO_SPI.c"
  1007 ;; Parameters:    Size  Location     Type
  1008 ;;		None
  1009 ;; Auto vars:     Size  Location     Type
  1010 ;;		None
  1011 ;; Return value:  Size  Location     Type
  1012 ;;                  1    wreg      void 
  1013 ;; Registers used:
  1014 ;;		wreg, fsr0l, fsr0h, status,2, status,0, pclath, cstack
  1015 ;; Tracked objects:
  1016 ;;		On entry : 0/0
  1017 ;;		On exit  : 0/0
  1018 ;;		Unchanged: 0/0
  1019 ;; Data sizes:     COMMON   BANK0   BANK1   BANK3   BANK2
  1020 ;;      Params:         0       0       0       0       0
  1021 ;;      Locals:         0       0       0       0       0
  1022 ;;      Temps:          0       0       0       0       0
  1023 ;;      Totals:         0       0       0       0       0
  1024 ;;Total ram usage:        0 bytes
  1025 ;; Hardware stack levels used:    1
  1026 ;; Hardware stack levels required when called:    4
  1027 ;; This function calls:
  1028 ;;		_initADC
  1029 ;; This function is called by:
  1030 ;;		_main
  1031 ;; This function uses a non-reentrant model
  1032 ;;
  1033                           
  1034                           
  1035                           ;psect for function _adc_config
  1036  0233                     _adc_config:
  1037  0233                     l870:	
  1038                           ;incstack = 0
  1039                           ; Regs used in _adc_config: [wreg-fsr0h+status,2+status,0+pclath+cstack]
  1040                           
  1041                           
  1042                           ;SLAVE_SEMAFORO_SPI.c: 173:     initADC (0);
  1043  0233  3000               	movlw	0
  1044  0234  120A  118A  2014  120A  118A  	fcall	_initADC
  1045  0239                     l106:
  1046  0239  0008               	return
  1047  023A                     __end_of_adc_config:
  1048                           
  1049                           	psect	text6
  1050  0014                     __ptext6:	
  1051 ;; *************** function _initADC *****************
  1052 ;; Defined at:
  1053 ;;		line 19 in file "ADC_SPI.c"
  1054 ;; Parameters:    Size  Location     Type
  1055 ;;  CHS             1    wreg     unsigned char 
  1056 ;; Auto vars:     Size  Location     Type
  1057 ;;  CHS             1    6[COMMON] unsigned char 
  1058 ;; Return value:  Size  Location     Type
  1059 ;;                  1    wreg      void 
  1060 ;; Registers used:
  1061 ;;		wreg, fsr0l, fsr0h, status,2, status,0
  1062 ;; Tracked objects:
  1063 ;;		On entry : 0/0
  1064 ;;		On exit  : 0/0
  1065 ;;		Unchanged: 0/0
  1066 ;; Data sizes:     COMMON   BANK0   BANK1   BANK3   BANK2
  1067 ;;      Params:         0       0       0       0       0
  1068 ;;      Locals:         1       0       0       0       0
  1069 ;;      Temps:          2       0       0       0       0
  1070 ;;      Totals:         3       0       0       0       0
  1071 ;;Total ram usage:        3 bytes
  1072 ;; Hardware stack levels used:    1
  1073 ;; Hardware stack levels required when called:    3
  1074 ;; This function calls:
  1075 ;;		Nothing
  1076 ;; This function is called by:
  1077 ;;		_adc_config
  1078 ;; This function uses a non-reentrant model
  1079 ;;
  1080                           
  1081                           
  1082                           ;psect for function _initADC
  1083  0014                     _initADC:
  1084                           
  1085                           ;incstack = 0
  1086                           ; Regs used in _initADC: [wreg-fsr0h+status,2+status,0]
  1087                           ;initADC@CHS stored from wreg
  1088  0014  00F6               	movwf	initADC@CHS
  1089  0015                     l786:
  1090                           
  1091                           ;ADC_SPI.c: 19: void initADC (uint8_t CHS);ADC_SPI.c: 20: {;ADC_SPI.c: 21:     switch (C
      +                          HS)
  1092  0015  287F               	goto	l790
  1093  0016                     l178:	
  1094                           ;ADC_SPI.c: 22:     {;ADC_SPI.c: 23:         case 0:
  1095                           
  1096                           
  1097                           ;ADC_SPI.c: 24:             ADCON0bits.CHS3 = 0;
  1098  0016  1283               	bcf	3,5	;RP0=0, select bank0
  1099  0017  1303               	bcf	3,6	;RP1=0, select bank0
  1100  0018  129F               	bcf	31,5	;volatile
  1101                           
  1102                           ;ADC_SPI.c: 25:             ADCON0bits.CHS2 = 0;
  1103  0019  121F               	bcf	31,4	;volatile
  1104                           
  1105                           ;ADC_SPI.c: 26:             ADCON0bits.CHS1 = 0;
  1106  001A  119F               	bcf	31,3	;volatile
  1107                           
  1108                           ;ADC_SPI.c: 27:             ADCON0bits.CHS0 = 0;
  1109  001B  111F               	bcf	31,2	;volatile
  1110                           
  1111                           ;ADC_SPI.c: 28:             break;
  1112  001C  28B3               	goto	l179
  1113  001D                     l180:	
  1114                           ;ADC_SPI.c: 29:         case 1:
  1115                           
  1116                           
  1117                           ;ADC_SPI.c: 30:             ADCON0bits.CHS3 = 0;
  1118  001D  1283               	bcf	3,5	;RP0=0, select bank0
  1119  001E  1303               	bcf	3,6	;RP1=0, select bank0
  1120  001F  129F               	bcf	31,5	;volatile
  1121                           
  1122                           ;ADC_SPI.c: 31:             ADCON0bits.CHS2 = 0;
  1123  0020  121F               	bcf	31,4	;volatile
  1124                           
  1125                           ;ADC_SPI.c: 32:             ADCON0bits.CHS1 = 0;
  1126  0021  119F               	bcf	31,3	;volatile
  1127                           
  1128                           ;ADC_SPI.c: 33:             ADCON0bits.CHS0 = 1;
  1129  0022  151F               	bsf	31,2	;volatile
  1130                           
  1131                           ;ADC_SPI.c: 34:             break;
  1132  0023  28B3               	goto	l179
  1133  0024                     l181:	
  1134                           ;ADC_SPI.c: 36:         case 2:
  1135                           
  1136                           
  1137                           ;ADC_SPI.c: 37:             ADCON0bits.CHS3 = 0;
  1138  0024  1283               	bcf	3,5	;RP0=0, select bank0
  1139  0025  1303               	bcf	3,6	;RP1=0, select bank0
  1140  0026  129F               	bcf	31,5	;volatile
  1141                           
  1142                           ;ADC_SPI.c: 38:             ADCON0bits.CHS2 = 0;
  1143  0027  121F               	bcf	31,4	;volatile
  1144                           
  1145                           ;ADC_SPI.c: 39:             ADCON0bits.CHS1 = 1;
  1146  0028  159F               	bsf	31,3	;volatile
  1147                           
  1148                           ;ADC_SPI.c: 40:             ADCON0bits.CHS0 = 0;
  1149  0029  111F               	bcf	31,2	;volatile
  1150                           
  1151                           ;ADC_SPI.c: 41:             break;
  1152  002A  28B3               	goto	l179
  1153  002B                     l182:	
  1154                           ;ADC_SPI.c: 43:         case 3:
  1155                           
  1156                           
  1157                           ;ADC_SPI.c: 44:             ADCON0bits.CHS3 = 0;
  1158  002B  1283               	bcf	3,5	;RP0=0, select bank0
  1159  002C  1303               	bcf	3,6	;RP1=0, select bank0
  1160  002D  129F               	bcf	31,5	;volatile
  1161                           
  1162                           ;ADC_SPI.c: 45:             ADCON0bits.CHS2 = 0;
  1163  002E  121F               	bcf	31,4	;volatile
  1164                           
  1165                           ;ADC_SPI.c: 46:             ADCON0bits.CHS1 = 1;
  1166  002F  159F               	bsf	31,3	;volatile
  1167                           
  1168                           ;ADC_SPI.c: 47:             ADCON0bits.CHS0 = 1;
  1169  0030  151F               	bsf	31,2	;volatile
  1170                           
  1171                           ;ADC_SPI.c: 48:             break;
  1172  0031  28B3               	goto	l179
  1173  0032                     l183:	
  1174                           ;ADC_SPI.c: 50:         case 4:
  1175                           
  1176                           
  1177                           ;ADC_SPI.c: 51:             ADCON0bits.CHS3 = 0;
  1178  0032  1283               	bcf	3,5	;RP0=0, select bank0
  1179  0033  1303               	bcf	3,6	;RP1=0, select bank0
  1180  0034  129F               	bcf	31,5	;volatile
  1181                           
  1182                           ;ADC_SPI.c: 52:             ADCON0bits.CHS2 = 1;
  1183  0035  161F               	bsf	31,4	;volatile
  1184                           
  1185                           ;ADC_SPI.c: 53:             ADCON0bits.CHS1 = 0;
  1186  0036  119F               	bcf	31,3	;volatile
  1187                           
  1188                           ;ADC_SPI.c: 54:             ADCON0bits.CHS0 = 0;
  1189  0037  111F               	bcf	31,2	;volatile
  1190                           
  1191                           ;ADC_SPI.c: 55:             break;
  1192  0038  28B3               	goto	l179
  1193  0039                     l184:	
  1194                           ;ADC_SPI.c: 57:         case 5:
  1195                           
  1196                           
  1197                           ;ADC_SPI.c: 58:             ADCON0bits.CHS3 = 0;
  1198  0039  1283               	bcf	3,5	;RP0=0, select bank0
  1199  003A  1303               	bcf	3,6	;RP1=0, select bank0
  1200  003B  129F               	bcf	31,5	;volatile
  1201                           
  1202                           ;ADC_SPI.c: 59:             ADCON0bits.CHS2 = 1;
  1203  003C  161F               	bsf	31,4	;volatile
  1204                           
  1205                           ;ADC_SPI.c: 60:             ADCON0bits.CHS1 = 0;
  1206  003D  119F               	bcf	31,3	;volatile
  1207                           
  1208                           ;ADC_SPI.c: 61:             ADCON0bits.CHS0 = 1;
  1209  003E  151F               	bsf	31,2	;volatile
  1210                           
  1211                           ;ADC_SPI.c: 62:             break;
  1212  003F  28B3               	goto	l179
  1213  0040                     l185:	
  1214                           ;ADC_SPI.c: 64:         case 6:
  1215                           
  1216                           
  1217                           ;ADC_SPI.c: 65:             ADCON0bits.CHS3 = 0;
  1218  0040  1283               	bcf	3,5	;RP0=0, select bank0
  1219  0041  1303               	bcf	3,6	;RP1=0, select bank0
  1220  0042  129F               	bcf	31,5	;volatile
  1221                           
  1222                           ;ADC_SPI.c: 66:             ADCON0bits.CHS2 = 1;
  1223  0043  161F               	bsf	31,4	;volatile
  1224                           
  1225                           ;ADC_SPI.c: 67:             ADCON0bits.CHS1 = 1;
  1226  0044  159F               	bsf	31,3	;volatile
  1227                           
  1228                           ;ADC_SPI.c: 68:             ADCON0bits.CHS0 = 0;
  1229  0045  111F               	bcf	31,2	;volatile
  1230                           
  1231                           ;ADC_SPI.c: 69:             break;
  1232  0046  28B3               	goto	l179
  1233  0047                     l186:	
  1234                           ;ADC_SPI.c: 71:         case 7:
  1235                           
  1236                           
  1237                           ;ADC_SPI.c: 72:             ADCON0bits.CHS3 = 0;
  1238  0047  1283               	bcf	3,5	;RP0=0, select bank0
  1239  0048  1303               	bcf	3,6	;RP1=0, select bank0
  1240  0049  129F               	bcf	31,5	;volatile
  1241                           
  1242                           ;ADC_SPI.c: 73:             ADCON0bits.CHS2 = 1;
  1243  004A  161F               	bsf	31,4	;volatile
  1244                           
  1245                           ;ADC_SPI.c: 74:             ADCON0bits.CHS1 = 1;
  1246  004B  159F               	bsf	31,3	;volatile
  1247                           
  1248                           ;ADC_SPI.c: 75:             ADCON0bits.CHS0 = 1;
  1249  004C  151F               	bsf	31,2	;volatile
  1250                           
  1251                           ;ADC_SPI.c: 76:             break;
  1252  004D  28B3               	goto	l179
  1253  004E                     l187:	
  1254                           ;ADC_SPI.c: 78:         case 8:
  1255                           
  1256                           
  1257                           ;ADC_SPI.c: 79:             ADCON0bits.CHS3 = 1;
  1258  004E  1283               	bcf	3,5	;RP0=0, select bank0
  1259  004F  1303               	bcf	3,6	;RP1=0, select bank0
  1260  0050  169F               	bsf	31,5	;volatile
  1261                           
  1262                           ;ADC_SPI.c: 80:             ADCON0bits.CHS2 = 0;
  1263  0051  121F               	bcf	31,4	;volatile
  1264                           
  1265                           ;ADC_SPI.c: 81:             ADCON0bits.CHS1 = 0;
  1266  0052  119F               	bcf	31,3	;volatile
  1267                           
  1268                           ;ADC_SPI.c: 82:             ADCON0bits.CHS0 = 0;
  1269  0053  111F               	bcf	31,2	;volatile
  1270                           
  1271                           ;ADC_SPI.c: 83:             break;
  1272  0054  28B3               	goto	l179
  1273  0055                     l188:	
  1274                           ;ADC_SPI.c: 85:         case 9:
  1275                           
  1276                           
  1277                           ;ADC_SPI.c: 86:             ADCON0bits.CHS3 = 1;
  1278  0055  1283               	bcf	3,5	;RP0=0, select bank0
  1279  0056  1303               	bcf	3,6	;RP1=0, select bank0
  1280  0057  169F               	bsf	31,5	;volatile
  1281                           
  1282                           ;ADC_SPI.c: 87:             ADCON0bits.CHS2 = 0;
  1283  0058  121F               	bcf	31,4	;volatile
  1284                           
  1285                           ;ADC_SPI.c: 88:             ADCON0bits.CHS1 = 0;
  1286  0059  119F               	bcf	31,3	;volatile
  1287                           
  1288                           ;ADC_SPI.c: 89:             ADCON0bits.CHS0 = 1;
  1289  005A  151F               	bsf	31,2	;volatile
  1290                           
  1291                           ;ADC_SPI.c: 90:             break;
  1292  005B  28B3               	goto	l179
  1293  005C                     l189:	
  1294                           ;ADC_SPI.c: 92:         case 10:
  1295                           
  1296                           
  1297                           ;ADC_SPI.c: 93:             ADCON0bits.CHS3 = 1;
  1298  005C  1283               	bcf	3,5	;RP0=0, select bank0
  1299  005D  1303               	bcf	3,6	;RP1=0, select bank0
  1300  005E  169F               	bsf	31,5	;volatile
  1301                           
  1302                           ;ADC_SPI.c: 94:             ADCON0bits.CHS2 = 0;
  1303  005F  121F               	bcf	31,4	;volatile
  1304                           
  1305                           ;ADC_SPI.c: 95:             ADCON0bits.CHS1 = 1;
  1306  0060  159F               	bsf	31,3	;volatile
  1307                           
  1308                           ;ADC_SPI.c: 96:             ADCON0bits.CHS0 = 0;
  1309  0061  111F               	bcf	31,2	;volatile
  1310                           
  1311                           ;ADC_SPI.c: 97:             break;
  1312  0062  28B3               	goto	l179
  1313  0063                     l190:	
  1314                           ;ADC_SPI.c: 99:         case 11:
  1315                           
  1316                           
  1317                           ;ADC_SPI.c: 100:             ADCON0bits.CHS3 = 1;
  1318  0063  1283               	bcf	3,5	;RP0=0, select bank0
  1319  0064  1303               	bcf	3,6	;RP1=0, select bank0
  1320  0065  169F               	bsf	31,5	;volatile
  1321                           
  1322                           ;ADC_SPI.c: 101:             ADCON0bits.CHS2 = 0;
  1323  0066  121F               	bcf	31,4	;volatile
  1324                           
  1325                           ;ADC_SPI.c: 102:             ADCON0bits.CHS1 = 1;
  1326  0067  159F               	bsf	31,3	;volatile
  1327                           
  1328                           ;ADC_SPI.c: 103:             ADCON0bits.CHS0 = 1;
  1329  0068  151F               	bsf	31,2	;volatile
  1330                           
  1331                           ;ADC_SPI.c: 104:             break;
  1332  0069  28B3               	goto	l179
  1333  006A                     l191:	
  1334                           ;ADC_SPI.c: 106:         case 12:
  1335                           
  1336                           
  1337                           ;ADC_SPI.c: 107:             ADCON0bits.CHS3 = 1;
  1338  006A  1283               	bcf	3,5	;RP0=0, select bank0
  1339  006B  1303               	bcf	3,6	;RP1=0, select bank0
  1340  006C  169F               	bsf	31,5	;volatile
  1341                           
  1342                           ;ADC_SPI.c: 108:             ADCON0bits.CHS2 = 1;
  1343  006D  161F               	bsf	31,4	;volatile
  1344                           
  1345                           ;ADC_SPI.c: 109:             ADCON0bits.CHS1 = 0;
  1346  006E  119F               	bcf	31,3	;volatile
  1347                           
  1348                           ;ADC_SPI.c: 110:             ADCON0bits.CHS0 = 0;
  1349  006F  111F               	bcf	31,2	;volatile
  1350                           
  1351                           ;ADC_SPI.c: 111:             break;
  1352  0070  28B3               	goto	l179
  1353  0071                     l192:	
  1354                           ;ADC_SPI.c: 113:         case 13:
  1355                           
  1356                           
  1357                           ;ADC_SPI.c: 114:             ADCON0bits.CHS3 = 1;
  1358  0071  1283               	bcf	3,5	;RP0=0, select bank0
  1359  0072  1303               	bcf	3,6	;RP1=0, select bank0
  1360  0073  169F               	bsf	31,5	;volatile
  1361                           
  1362                           ;ADC_SPI.c: 115:             ADCON0bits.CHS2 = 1;
  1363  0074  161F               	bsf	31,4	;volatile
  1364                           
  1365                           ;ADC_SPI.c: 116:             ADCON0bits.CHS1 = 0;
  1366  0075  119F               	bcf	31,3	;volatile
  1367                           
  1368                           ;ADC_SPI.c: 117:             ADCON0bits.CHS0 = 1;
  1369  0076  151F               	bsf	31,2	;volatile
  1370                           
  1371                           ;ADC_SPI.c: 118:             break;
  1372  0077  28B3               	goto	l179
  1373  0078                     l193:	
  1374                           ;ADC_SPI.c: 120:         default:
  1375                           
  1376                           
  1377                           ;ADC_SPI.c: 121:             ADCON0bits.CHS3 = 1;
  1378  0078  1283               	bcf	3,5	;RP0=0, select bank0
  1379  0079  1303               	bcf	3,6	;RP1=0, select bank0
  1380  007A  169F               	bsf	31,5	;volatile
  1381                           
  1382                           ;ADC_SPI.c: 122:             ADCON0bits.CHS2 = 1;
  1383  007B  161F               	bsf	31,4	;volatile
  1384                           
  1385                           ;ADC_SPI.c: 123:             ADCON0bits.CHS1 = 1;
  1386  007C  159F               	bsf	31,3	;volatile
  1387                           
  1388                           ;ADC_SPI.c: 124:             ADCON0bits.CHS0 = 0;
  1389  007D  111F               	bcf	31,2	;volatile
  1390                           
  1391                           ;ADC_SPI.c: 125:             break;
  1392  007E  28B3               	goto	l179
  1393  007F                     l790:
  1394  007F  0876               	movf	initADC@CHS,w
  1395  0080  00F4               	movwf	??_initADC
  1396  0081  01F5               	clrf	??_initADC+1
  1397                           
  1398                           ; Switch on 2 bytes has been partitioned into a top level switch of size 1, and 1 sub-sw
      +                          itches
  1399                           ; Switch size 1, requested type "simple"
  1400                           ; Number of cases is 1, Range of values is 0 to 0
  1401                           ; switch strategies available:
  1402                           ; Name         Instructions Cycles
  1403                           ; simple_byte            4     3 (average)
  1404                           ; direct_byte           11     8 (fixed)
  1405                           ; jumptable            260     6 (fixed)
  1406                           ;	Chosen strategy is simple_byte
  1407  0082  0875               	movf	??_initADC+1,w
  1408  0083  3A00               	xorlw	0	; case 0
  1409  0084  1903               	skipnz
  1410  0085  2887               	goto	l1154
  1411  0086  2878               	goto	l193
  1412  0087                     l1154:
  1413                           
  1414                           ; Switch size 1, requested type "simple"
  1415                           ; Number of cases is 14, Range of values is 0 to 13
  1416                           ; switch strategies available:
  1417                           ; Name         Instructions Cycles
  1418                           ; simple_byte           43    22 (average)
  1419                           ; direct_byte           50     8 (fixed)
  1420                           ; jumptable            260     6 (fixed)
  1421                           ;	Chosen strategy is simple_byte
  1422  0087  0874               	movf	??_initADC,w
  1423  0088  3A00               	xorlw	0	; case 0
  1424  0089  1903               	skipnz
  1425  008A  2816               	goto	l178
  1426  008B  3A01               	xorlw	1	; case 1
  1427  008C  1903               	skipnz
  1428  008D  281D               	goto	l180
  1429  008E  3A03               	xorlw	3	; case 2
  1430  008F  1903               	skipnz
  1431  0090  2824               	goto	l181
  1432  0091  3A01               	xorlw	1	; case 3
  1433  0092  1903               	skipnz
  1434  0093  282B               	goto	l182
  1435  0094  3A07               	xorlw	7	; case 4
  1436  0095  1903               	skipnz
  1437  0096  2832               	goto	l183
  1438  0097  3A01               	xorlw	1	; case 5
  1439  0098  1903               	skipnz
  1440  0099  2839               	goto	l184
  1441  009A  3A03               	xorlw	3	; case 6
  1442  009B  1903               	skipnz
  1443  009C  2840               	goto	l185
  1444  009D  3A01               	xorlw	1	; case 7
  1445  009E  1903               	skipnz
  1446  009F  2847               	goto	l186
  1447  00A0  3A0F               	xorlw	15	; case 8
  1448  00A1  1903               	skipnz
  1449  00A2  284E               	goto	l187
  1450  00A3  3A01               	xorlw	1	; case 9
  1451  00A4  1903               	skipnz
  1452  00A5  2855               	goto	l188
  1453  00A6  3A03               	xorlw	3	; case 10
  1454  00A7  1903               	skipnz
  1455  00A8  285C               	goto	l189
  1456  00A9  3A01               	xorlw	1	; case 11
  1457  00AA  1903               	skipnz
  1458  00AB  2863               	goto	l190
  1459  00AC  3A07               	xorlw	7	; case 12
  1460  00AD  1903               	skipnz
  1461  00AE  286A               	goto	l191
  1462  00AF  3A01               	xorlw	1	; case 13
  1463  00B0  1903               	skipnz
  1464  00B1  2871               	goto	l192
  1465  00B2  2878               	goto	l193
  1466  00B3                     l179:
  1467                           
  1468                           ;ADC_SPI.c: 127:     ADCON0bits.ADCS1 = 1;
  1469  00B3  179F               	bsf	31,7	;volatile
  1470                           
  1471                           ;ADC_SPI.c: 128:     ADCON0bits.ADCS0 = 0;
  1472  00B4  131F               	bcf	31,6	;volatile
  1473                           
  1474                           ;ADC_SPI.c: 129:     ADCON0bits.GO_DONE= 0;
  1475  00B5  109F               	bcf	31,1	;volatile
  1476                           
  1477                           ;ADC_SPI.c: 130:     ADCON0bits.ADON = 1;
  1478  00B6  141F               	bsf	31,0	;volatile
  1479                           
  1480                           ;ADC_SPI.c: 132:     ADCON1bits.ADFM = 0;
  1481  00B7  1683               	bsf	3,5	;RP0=1, select bank1
  1482  00B8  1303               	bcf	3,6	;RP1=0, select bank1
  1483  00B9  139F               	bcf	31,7	;volatile
  1484                           
  1485                           ;ADC_SPI.c: 133:     ADCON1bits.VCFG1 = 0;
  1486  00BA  129F               	bcf	31,5	;volatile
  1487                           
  1488                           ;ADC_SPI.c: 134:     ADCON1bits.VCFG0 = 1;
  1489  00BB  161F               	bsf	31,4	;volatile
  1490  00BC                     l194:
  1491  00BC  0008               	return
  1492  00BD                     __end_of_initADC:
  1493                           
  1494                           	psect	text7
  1495  021E                     __ptext7:	
  1496 ;; *************** function _SPI_config *****************
  1497 ;; Defined at:
  1498 ;;		line 176 in file "SLAVE_SEMAFORO_SPI.c"
  1499 ;; Parameters:    Size  Location     Type
  1500 ;;		None
  1501 ;; Auto vars:     Size  Location     Type
  1502 ;;		None
  1503 ;; Return value:  Size  Location     Type
  1504 ;;                  1    wreg      void 
  1505 ;; Registers used:
  1506 ;;		wreg, fsr0l, fsr0h, status,2, status,0, pclath, cstack
  1507 ;; Tracked objects:
  1508 ;;		On entry : 0/0
  1509 ;;		On exit  : 0/0
  1510 ;;		Unchanged: 0/0
  1511 ;; Data sizes:     COMMON   BANK0   BANK1   BANK3   BANK2
  1512 ;;      Params:         0       0       0       0       0
  1513 ;;      Locals:         0       0       0       0       0
  1514 ;;      Temps:          1       0       0       0       0
  1515 ;;      Totals:         1       0       0       0       0
  1516 ;;Total ram usage:        1 bytes
  1517 ;; Hardware stack levels used:    1
  1518 ;; Hardware stack levels required when called:    4
  1519 ;; This function calls:
  1520 ;;		_SPI_Esclavo_Init
  1521 ;; This function is called by:
  1522 ;;		_main
  1523 ;; This function uses a non-reentrant model
  1524 ;;
  1525                           
  1526                           
  1527                           ;psect for function _SPI_config
  1528  021E                     _SPI_config:
  1529  021E                     l1000:	
  1530                           ;incstack = 0
  1531                           ; Regs used in _SPI_config: [wreg-fsr0h+status,2+status,0+pclath+cstack]
  1532                           
  1533                           
  1534                           ;SLAVE_SEMAFORO_SPI.c: 178:     SPI_Esclavo_Init (4, 2);
  1535  021E  3002               	movlw	2
  1536  021F  00F8               	movwf	??_SPI_config
  1537  0220  0878               	movf	??_SPI_config,w
  1538  0221  00F4               	movwf	SPI_Esclavo_Init@SCK
  1539  0222  3004               	movlw	4
  1540  0223  120A  118A  20BD  120A  118A  	fcall	_SPI_Esclavo_Init
  1541  0228                     l109:
  1542  0228  0008               	return
  1543  0229                     __end_of_SPI_config:
  1544                           
  1545                           	psect	text8
  1546  00BD                     __ptext8:	
  1547 ;; *************** function _SPI_Esclavo_Init *****************
  1548 ;; Defined at:
  1549 ;;		line 84 in file "SPI_SPI.c"
  1550 ;; Parameters:    Size  Location     Type
  1551 ;;  port_mode       1    wreg     unsigned char 
  1552 ;;  SCK             1    4[COMMON] unsigned char 
  1553 ;; Auto vars:     Size  Location     Type
  1554 ;;  port_mode       1    7[COMMON] unsigned char 
  1555 ;; Return value:  Size  Location     Type
  1556 ;;                  1    wreg      void 
  1557 ;; Registers used:
  1558 ;;		wreg, fsr0l, fsr0h, status,2, status,0
  1559 ;; Tracked objects:
  1560 ;;		On entry : 0/0
  1561 ;;		On exit  : 0/0
  1562 ;;		Unchanged: 0/0
  1563 ;; Data sizes:     COMMON   BANK0   BANK1   BANK3   BANK2
  1564 ;;      Params:         1       0       0       0       0
  1565 ;;      Locals:         1       0       0       0       0
  1566 ;;      Temps:          2       0       0       0       0
  1567 ;;      Totals:         4       0       0       0       0
  1568 ;;Total ram usage:        4 bytes
  1569 ;; Hardware stack levels used:    1
  1570 ;; Hardware stack levels required when called:    3
  1571 ;; This function calls:
  1572 ;;		Nothing
  1573 ;; This function is called by:
  1574 ;;		_SPI_config
  1575 ;; This function uses a non-reentrant model
  1576 ;;
  1577                           
  1578                           
  1579                           ;psect for function _SPI_Esclavo_Init
  1580  00BD                     _SPI_Esclavo_Init:
  1581                           
  1582                           ;incstack = 0
  1583                           ; Regs used in _SPI_Esclavo_Init: [wreg-fsr0h+status,2+status,0]
  1584                           ;SPI_Esclavo_Init@port_mode stored from wreg
  1585  00BD  00F7               	movwf	SPI_Esclavo_Init@port_mode
  1586  00BE                     l982:
  1587                           
  1588                           ;SPI_SPI.c: 84: void SPI_Esclavo_Init (char port_mode, char SCK);SPI_SPI.c: 85: {;SPI_SP
      +                          I.c: 86:     TRISAbits.TRISA5 = 1;
  1589  00BE  1683               	bsf	3,5	;RP0=1, select bank1
  1590  00BF  1303               	bcf	3,6	;RP1=0, select bank1
  1591  00C0  1685               	bsf	5,5	;volatile
  1592                           
  1593                           ;SPI_SPI.c: 87:     TRISCbits.TRISC5 = 0;
  1594  00C1  1287               	bcf	7,5	;volatile
  1595                           
  1596                           ;SPI_SPI.c: 88:     TRISCbits.TRISC4 = 1;
  1597  00C2  1607               	bsf	7,4	;volatile
  1598                           
  1599                           ;SPI_SPI.c: 89:     TRISCbits.TRISC3 = 1;
  1600  00C3  1587               	bsf	7,3	;volatile
  1601                           
  1602                           ;SPI_SPI.c: 91:     switch (port_mode)
  1603  00C4  28EF               	goto	l986
  1604  00C5                     l151:	
  1605                           ;SPI_SPI.c: 92:     {;SPI_SPI.c: 93:         case 0:
  1606                           
  1607                           
  1608                           ;SPI_SPI.c: 94:             SSPCONbits.SSPM3 = 0;
  1609  00C5  1283               	bcf	3,5	;RP0=0, select bank0
  1610  00C6  1303               	bcf	3,6	;RP1=0, select bank0
  1611  00C7  1194               	bcf	20,3	;volatile
  1612                           
  1613                           ;SPI_SPI.c: 95:             SSPCONbits.SSPM2 = 0;
  1614  00C8  1114               	bcf	20,2	;volatile
  1615                           
  1616                           ;SPI_SPI.c: 96:             SSPCONbits.SSPM1 = 0;
  1617  00C9  1094               	bcf	20,1	;volatile
  1618                           
  1619                           ;SPI_SPI.c: 97:             SSPCONbits.SSPM0 = 0;
  1620  00CA  1014               	bcf	20,0	;volatile
  1621                           
  1622                           ;SPI_SPI.c: 99:             break;
  1623  00CB  2923               	goto	l990
  1624  00CC                     l153:	
  1625                           ;SPI_SPI.c: 100:          case 1:
  1626                           
  1627                           
  1628                           ;SPI_SPI.c: 101:             SSPCONbits.SSPM3 = 0;
  1629  00CC  1283               	bcf	3,5	;RP0=0, select bank0
  1630  00CD  1303               	bcf	3,6	;RP1=0, select bank0
  1631  00CE  1194               	bcf	20,3	;volatile
  1632                           
  1633                           ;SPI_SPI.c: 102:             SSPCONbits.SSPM2 = 0;
  1634  00CF  1114               	bcf	20,2	;volatile
  1635                           
  1636                           ;SPI_SPI.c: 103:             SSPCONbits.SSPM1 = 0;
  1637  00D0  1094               	bcf	20,1	;volatile
  1638                           
  1639                           ;SPI_SPI.c: 104:             SSPCONbits.SSPM0 = 1;
  1640  00D1  1414               	bsf	20,0	;volatile
  1641                           
  1642                           ;SPI_SPI.c: 106:             break;
  1643  00D2  2923               	goto	l990
  1644  00D3                     l154:	
  1645                           ;SPI_SPI.c: 107:          case 2:
  1646                           
  1647                           
  1648                           ;SPI_SPI.c: 108:             SSPCONbits.SSPM3 = 0;
  1649  00D3  1283               	bcf	3,5	;RP0=0, select bank0
  1650  00D4  1303               	bcf	3,6	;RP1=0, select bank0
  1651  00D5  1194               	bcf	20,3	;volatile
  1652                           
  1653                           ;SPI_SPI.c: 109:             SSPCONbits.SSPM2 = 0;
  1654  00D6  1114               	bcf	20,2	;volatile
  1655                           
  1656                           ;SPI_SPI.c: 110:             SSPCONbits.SSPM1 = 1;
  1657  00D7  1494               	bsf	20,1	;volatile
  1658                           
  1659                           ;SPI_SPI.c: 111:             SSPCONbits.SSPM0 = 0;
  1660  00D8  1014               	bcf	20,0	;volatile
  1661                           
  1662                           ;SPI_SPI.c: 113:             break;
  1663  00D9  2923               	goto	l990
  1664  00DA                     l155:	
  1665                           ;SPI_SPI.c: 114:          case 3:
  1666                           
  1667                           
  1668                           ;SPI_SPI.c: 115:             SSPCONbits.SSPM3 = 0;
  1669  00DA  1283               	bcf	3,5	;RP0=0, select bank0
  1670  00DB  1303               	bcf	3,6	;RP1=0, select bank0
  1671  00DC  1194               	bcf	20,3	;volatile
  1672                           
  1673                           ;SPI_SPI.c: 116:             SSPCONbits.SSPM2 = 0;
  1674  00DD  1114               	bcf	20,2	;volatile
  1675                           
  1676                           ;SPI_SPI.c: 117:             SSPCONbits.SSPM1 = 1;
  1677  00DE  1494               	bsf	20,1	;volatile
  1678                           
  1679                           ;SPI_SPI.c: 118:             SSPCONbits.SSPM0 = 1;
  1680  00DF  1414               	bsf	20,0	;volatile
  1681                           
  1682                           ;SPI_SPI.c: 119:             break;
  1683  00E0  2923               	goto	l990
  1684  00E1                     l156:	
  1685                           ;SPI_SPI.c: 120:          case 4:
  1686                           
  1687                           
  1688                           ;SPI_SPI.c: 121:             SSPCONbits.SSPM3 = 0;
  1689  00E1  1283               	bcf	3,5	;RP0=0, select bank0
  1690  00E2  1303               	bcf	3,6	;RP1=0, select bank0
  1691  00E3  1194               	bcf	20,3	;volatile
  1692                           
  1693                           ;SPI_SPI.c: 122:             SSPCONbits.SSPM2 = 1;
  1694  00E4  1514               	bsf	20,2	;volatile
  1695                           
  1696                           ;SPI_SPI.c: 123:             SSPCONbits.SSPM1 = 0;
  1697  00E5  1094               	bcf	20,1	;volatile
  1698                           
  1699                           ;SPI_SPI.c: 124:             SSPCONbits.SSPM0 = 0;
  1700  00E6  1014               	bcf	20,0	;volatile
  1701                           
  1702                           ;SPI_SPI.c: 126:             break;
  1703  00E7  2923               	goto	l990
  1704  00E8                     l157:	
  1705                           ;SPI_SPI.c: 127:          case 5:
  1706                           
  1707                           
  1708                           ;SPI_SPI.c: 128:             SSPCONbits.SSPM3 = 0;
  1709  00E8  1283               	bcf	3,5	;RP0=0, select bank0
  1710  00E9  1303               	bcf	3,6	;RP1=0, select bank0
  1711  00EA  1194               	bcf	20,3	;volatile
  1712                           
  1713                           ;SPI_SPI.c: 129:             SSPCONbits.SSPM2 = 1;
  1714  00EB  1514               	bsf	20,2	;volatile
  1715                           
  1716                           ;SPI_SPI.c: 130:             SSPCONbits.SSPM1 = 0;
  1717  00EC  1094               	bcf	20,1	;volatile
  1718                           
  1719                           ;SPI_SPI.c: 131:             SSPCONbits.SSPM0 = 1;
  1720  00ED  1414               	bsf	20,0	;volatile
  1721                           
  1722                           ;SPI_SPI.c: 132:             break;
  1723  00EE  2923               	goto	l990
  1724  00EF                     l986:
  1725  00EF  0877               	movf	SPI_Esclavo_Init@port_mode,w
  1726  00F0  00F5               	movwf	??_SPI_Esclavo_Init
  1727  00F1  01F6               	clrf	??_SPI_Esclavo_Init+1
  1728                           
  1729                           ; Switch on 2 bytes has been partitioned into a top level switch of size 1, and 1 sub-sw
      +                          itches
  1730                           ; Switch size 1, requested type "simple"
  1731                           ; Number of cases is 1, Range of values is 0 to 0
  1732                           ; switch strategies available:
  1733                           ; Name         Instructions Cycles
  1734                           ; simple_byte            4     3 (average)
  1735                           ; direct_byte           11     8 (fixed)
  1736                           ; jumptable            260     6 (fixed)
  1737                           ;	Chosen strategy is simple_byte
  1738  00F2  0876               	movf	??_SPI_Esclavo_Init+1,w
  1739  00F3  3A00               	xorlw	0	; case 0
  1740  00F4  1903               	skipnz
  1741  00F5  28F7               	goto	l1156
  1742  00F6  2923               	goto	l990
  1743  00F7                     l1156:
  1744                           
  1745                           ; Switch size 1, requested type "simple"
  1746                           ; Number of cases is 6, Range of values is 0 to 5
  1747                           ; switch strategies available:
  1748                           ; Name         Instructions Cycles
  1749                           ; simple_byte           19    10 (average)
  1750                           ; direct_byte           26     8 (fixed)
  1751                           ; jumptable            260     6 (fixed)
  1752                           ;	Chosen strategy is simple_byte
  1753  00F7  0875               	movf	??_SPI_Esclavo_Init,w
  1754  00F8  3A00               	xorlw	0	; case 0
  1755  00F9  1903               	skipnz
  1756  00FA  28C5               	goto	l151
  1757  00FB  3A01               	xorlw	1	; case 1
  1758  00FC  1903               	skipnz
  1759  00FD  28CC               	goto	l153
  1760  00FE  3A03               	xorlw	3	; case 2
  1761  00FF  1903               	skipnz
  1762  0100  28D3               	goto	l154
  1763  0101  3A01               	xorlw	1	; case 3
  1764  0102  1903               	skipnz
  1765  0103  28DA               	goto	l155
  1766  0104  3A07               	xorlw	7	; case 4
  1767  0105  1903               	skipnz
  1768  0106  28E1               	goto	l156
  1769  0107  3A01               	xorlw	1	; case 5
  1770  0108  1903               	skipnz
  1771  0109  28E8               	goto	l157
  1772  010A  2923               	goto	l990
  1773  010B                     l159:	
  1774                           ;SPI_SPI.c: 136:     {;SPI_SPI.c: 137:         case 0:
  1775                           
  1776                           
  1777                           ;SPI_SPI.c: 138:             SSPCONbits.CKP = 0;
  1778  010B  1283               	bcf	3,5	;RP0=0, select bank0
  1779  010C  1214               	bcf	20,4	;volatile
  1780                           
  1781                           ;SPI_SPI.c: 139:             SSPSTATbits.CKE = 0;
  1782  010D  1683               	bsf	3,5	;RP0=1, select bank1
  1783  010E  1303               	bcf	3,6	;RP1=0, select bank1
  1784  010F  1314               	bcf	20,6	;volatile
  1785                           
  1786                           ;SPI_SPI.c: 141:             break;
  1787  0110  2939               	goto	l160
  1788  0111                     l161:	
  1789                           ;SPI_SPI.c: 142:          case 1:
  1790                           
  1791                           
  1792                           ;SPI_SPI.c: 143:             SSPCONbits.CKP = 1;
  1793  0111  1283               	bcf	3,5	;RP0=0, select bank0
  1794  0112  1614               	bsf	20,4	;volatile
  1795                           
  1796                           ;SPI_SPI.c: 144:             SSPSTATbits.CKE = 0;
  1797  0113  1683               	bsf	3,5	;RP0=1, select bank1
  1798  0114  1303               	bcf	3,6	;RP1=0, select bank1
  1799  0115  1314               	bcf	20,6	;volatile
  1800                           
  1801                           ;SPI_SPI.c: 146:             break;
  1802  0116  2939               	goto	l160
  1803  0117                     l162:	
  1804                           ;SPI_SPI.c: 147:          case 2:
  1805                           
  1806                           
  1807                           ;SPI_SPI.c: 148:             SSPCONbits.CKP = 0;
  1808  0117  1283               	bcf	3,5	;RP0=0, select bank0
  1809  0118  1214               	bcf	20,4	;volatile
  1810                           
  1811                           ;SPI_SPI.c: 149:             SSPSTATbits.CKE = 1;
  1812  0119  1683               	bsf	3,5	;RP0=1, select bank1
  1813  011A  1303               	bcf	3,6	;RP1=0, select bank1
  1814  011B  1714               	bsf	20,6	;volatile
  1815                           
  1816                           ;SPI_SPI.c: 151:             break;
  1817  011C  2939               	goto	l160
  1818  011D                     l163:	
  1819                           ;SPI_SPI.c: 152:          case 3:
  1820                           
  1821                           
  1822                           ;SPI_SPI.c: 153:             SSPCONbits.CKP = 1;
  1823  011D  1283               	bcf	3,5	;RP0=0, select bank0
  1824  011E  1614               	bsf	20,4	;volatile
  1825                           
  1826                           ;SPI_SPI.c: 154:             SSPSTATbits.CKE = 1;
  1827  011F  1683               	bsf	3,5	;RP0=1, select bank1
  1828  0120  1303               	bcf	3,6	;RP1=0, select bank1
  1829  0121  1714               	bsf	20,6	;volatile
  1830                           
  1831                           ;SPI_SPI.c: 155:             break;
  1832  0122  2939               	goto	l160
  1833  0123                     l990:
  1834  0123  0874               	movf	SPI_Esclavo_Init@SCK,w
  1835  0124  00F5               	movwf	??_SPI_Esclavo_Init
  1836  0125  01F6               	clrf	??_SPI_Esclavo_Init+1
  1837                           
  1838                           ; Switch on 2 bytes has been partitioned into a top level switch of size 1, and 1 sub-sw
      +                          itches
  1839                           ; Switch size 1, requested type "simple"
  1840                           ; Number of cases is 1, Range of values is 0 to 0
  1841                           ; switch strategies available:
  1842                           ; Name         Instructions Cycles
  1843                           ; simple_byte            4     3 (average)
  1844                           ; direct_byte           11     8 (fixed)
  1845                           ; jumptable            260     6 (fixed)
  1846                           ;	Chosen strategy is simple_byte
  1847  0126  0876               	movf	??_SPI_Esclavo_Init+1,w
  1848  0127  3A00               	xorlw	0	; case 0
  1849  0128  1903               	skipnz
  1850  0129  292B               	goto	l1158
  1851  012A  2939               	goto	l160
  1852  012B                     l1158:
  1853                           
  1854                           ; Switch size 1, requested type "simple"
  1855                           ; Number of cases is 4, Range of values is 0 to 3
  1856                           ; switch strategies available:
  1857                           ; Name         Instructions Cycles
  1858                           ; simple_byte           13     7 (average)
  1859                           ; direct_byte           20     8 (fixed)
  1860                           ; jumptable            260     6 (fixed)
  1861                           ;	Chosen strategy is simple_byte
  1862  012B  0875               	movf	??_SPI_Esclavo_Init,w
  1863  012C  3A00               	xorlw	0	; case 0
  1864  012D  1903               	skipnz
  1865  012E  290B               	goto	l159
  1866  012F  3A01               	xorlw	1	; case 1
  1867  0130  1903               	skipnz
  1868  0131  2911               	goto	l161
  1869  0132  3A03               	xorlw	3	; case 2
  1870  0133  1903               	skipnz
  1871  0134  2917               	goto	l162
  1872  0135  3A01               	xorlw	1	; case 3
  1873  0136  1903               	skipnz
  1874  0137  291D               	goto	l163
  1875  0138  2939               	goto	l160
  1876  0139                     l160:
  1877                           
  1878                           ;SPI_SPI.c: 157:     SSPSTATbits.SMP = 0;
  1879  0139  1683               	bsf	3,5	;RP0=1, select bank1
  1880  013A  1303               	bcf	3,6	;RP1=0, select bank1
  1881  013B  1394               	bcf	20,7	;volatile
  1882                           
  1883                           ;SPI_SPI.c: 158:     SSPCONbits.SSPEN = 1;
  1884  013C  1283               	bcf	3,5	;RP0=0, select bank0
  1885  013D  1303               	bcf	3,6	;RP1=0, select bank0
  1886  013E  1694               	bsf	20,5	;volatile
  1887  013F                     l164:
  1888  013F  0008               	return
  1889  0140                     __end_of_SPI_Esclavo_Init:
  1890                           
  1891                           	psect	text9
  1892  0240                     __ptext9:	
  1893 ;; *************** function _SPI_Recibir *****************
  1894 ;; Defined at:
  1895 ;;		line 167 in file "SPI_SPI.c"
  1896 ;; Parameters:    Size  Location     Type
  1897 ;;		None
  1898 ;; Auto vars:     Size  Location     Type
  1899 ;;		None
  1900 ;; Return value:  Size  Location     Type
  1901 ;;                  1    wreg      unsigned char 
  1902 ;; Registers used:
  1903 ;;		wreg
  1904 ;; Tracked objects:
  1905 ;;		On entry : 0/0
  1906 ;;		On exit  : 0/0
  1907 ;;		Unchanged: 0/0
  1908 ;; Data sizes:     COMMON   BANK0   BANK1   BANK3   BANK2
  1909 ;;      Params:         0       0       0       0       0
  1910 ;;      Locals:         0       0       0       0       0
  1911 ;;      Temps:          0       0       0       0       0
  1912 ;;      Totals:         0       0       0       0       0
  1913 ;;Total ram usage:        0 bytes
  1914 ;; Hardware stack levels used:    1
  1915 ;; Hardware stack levels required when called:    3
  1916 ;; This function calls:
  1917 ;;		Nothing
  1918 ;; This function is called by:
  1919 ;;		_main
  1920 ;; This function uses a non-reentrant model
  1921 ;;
  1922                           
  1923                           
  1924                           ;psect for function _SPI_Recibir
  1925  0240                     _SPI_Recibir:
  1926  0240                     l874:	
  1927                           ;incstack = 0
  1928                           ; Regs used in _SPI_Recibir: [wreg]
  1929                           
  1930                           
  1931                           ;SPI_SPI.c: 169:     return SSPBUF;
  1932  0240  1283               	bcf	3,5	;RP0=0, select bank0
  1933  0241  1303               	bcf	3,6	;RP1=0, select bank0
  1934  0242  0813               	movf	19,w	;volatile
  1935  0243                     l170:
  1936  0243  0008               	return
  1937  0244                     __end_of_SPI_Recibir:
  1938                           
  1939                           	psect	text10
  1940  023A                     __ptext10:	
  1941 ;; *************** function _SPI_Enviar *****************
  1942 ;; Defined at:
  1943 ;;		line 161 in file "SPI_SPI.c"
  1944 ;; Parameters:    Size  Location     Type
  1945 ;;  valor           1    wreg     unsigned char 
  1946 ;; Auto vars:     Size  Location     Type
  1947 ;;  valor           1    4[COMMON] unsigned char 
  1948 ;; Return value:  Size  Location     Type
  1949 ;;                  1    wreg      void 
  1950 ;; Registers used:
  1951 ;;		wreg
  1952 ;; Tracked objects:
  1953 ;;		On entry : 0/0
  1954 ;;		On exit  : 0/0
  1955 ;;		Unchanged: 0/0
  1956 ;; Data sizes:     COMMON   BANK0   BANK1   BANK3   BANK2
  1957 ;;      Params:         0       0       0       0       0
  1958 ;;      Locals:         1       0       0       0       0
  1959 ;;      Temps:          0       0       0       0       0
  1960 ;;      Totals:         1       0       0       0       0
  1961 ;;Total ram usage:        1 bytes
  1962 ;; Hardware stack levels used:    1
  1963 ;; Hardware stack levels required when called:    3
  1964 ;; This function calls:
  1965 ;;		Nothing
  1966 ;; This function is called by:
  1967 ;;		_main
  1968 ;; This function uses a non-reentrant model
  1969 ;;
  1970                           
  1971                           
  1972                           ;psect for function _SPI_Enviar
  1973  023A                     _SPI_Enviar:
  1974                           
  1975                           ;incstack = 0
  1976                           ; Regs used in _SPI_Enviar: [wreg]
  1977                           ;SPI_Enviar@valor stored from wreg
  1978  023A  00F4               	movwf	SPI_Enviar@valor
  1979  023B                     l878:
  1980                           
  1981                           ;SPI_SPI.c: 161: void SPI_Enviar (char valor);SPI_SPI.c: 162: {;SPI_SPI.c: 163:     SSPB
      +                          UF = valor;
  1982  023B  0874               	movf	SPI_Enviar@valor,w
  1983  023C  1283               	bcf	3,5	;RP0=0, select bank0
  1984  023D  1303               	bcf	3,6	;RP1=0, select bank0
  1985  023E  0093               	movwf	19	;volatile
  1986  023F                     l167:
  1987  023F  0008               	return
  1988  0240                     __end_of_SPI_Enviar:
  1989                           
  1990                           	psect	text11
  1991  01F0                     __ptext11:	
  1992 ;; *************** function _ISR *****************
  1993 ;; Defined at:
  1994 ;;		line 67 in file "SLAVE_SEMAFORO_SPI.c"
  1995 ;; Parameters:    Size  Location     Type
  1996 ;;		None
  1997 ;; Auto vars:     Size  Location     Type
  1998 ;;		None
  1999 ;; Return value:  Size  Location     Type
  2000 ;;                  1    wreg      void 
  2001 ;; Registers used:
  2002 ;;		wreg, status,2, status,0, pclath, cstack
  2003 ;; Tracked objects:
  2004 ;;		On entry : 0/0
  2005 ;;		On exit  : 0/0
  2006 ;;		Unchanged: 0/0
  2007 ;; Data sizes:     COMMON   BANK0   BANK1   BANK3   BANK2
  2008 ;;      Params:         0       0       0       0       0
  2009 ;;      Locals:         0       0       0       0       0
  2010 ;;      Temps:          2       0       0       0       0
  2011 ;;      Totals:         2       0       0       0       0
  2012 ;;Total ram usage:        2 bytes
  2013 ;; Hardware stack levels used:    1
  2014 ;; Hardware stack levels required when called:    2
  2015 ;; This function calls:
  2016 ;;		_adc_conversion
  2017 ;; This function is called by:
  2018 ;;		Interrupt level 1
  2019 ;; This function uses a non-reentrant model
  2020 ;;
  2021                           
  2022                           
  2023                           ;psect for function _ISR
  2024  01F0                     _ISR:
  2025  01F0                     i1l880:
  2026                           
  2027                           ;SLAVE_SEMAFORO_SPI.c: 69:     if (INTCONbits.TMR0IF == 1)
  2028  01F0  1D0B               	btfss	11,2	;volatile
  2029  01F1  29F3               	goto	u5_21
  2030  01F2  29F4               	goto	u5_20
  2031  01F3                     u5_21:
  2032  01F3  29FE               	goto	i1l82
  2033  01F4                     u5_20:
  2034  01F4                     i1l882:
  2035                           
  2036                           ;SLAVE_SEMAFORO_SPI.c: 70:     {;SLAVE_SEMAFORO_SPI.c: 71:         adc_conversion();
  2037  01F4  120A  118A  21D5  120A  118A  	fcall	_adc_conversion
  2038  01F9                     i1l884:
  2039                           
  2040                           ;SLAVE_SEMAFORO_SPI.c: 72:         INTCONbits.TMR0IF = 0;
  2041  01F9  110B               	bcf	11,2	;volatile
  2042  01FA                     i1l886:
  2043                           
  2044                           ;SLAVE_SEMAFORO_SPI.c: 73:         TMR0 = 100;
  2045  01FA  3064               	movlw	100
  2046  01FB  1283               	bcf	3,5	;RP0=0, select bank0
  2047  01FC  1303               	bcf	3,6	;RP1=0, select bank0
  2048  01FD  0081               	movwf	1	;volatile
  2049  01FE                     i1l82:
  2050  01FE  0873               	movf	??_ISR+1,w
  2051  01FF  008A               	movwf	10
  2052  0200  0E72               	swapf	??_ISR,w
  2053  0201  0083               	movwf	3
  2054  0202  0EFE               	swapf	btemp,f
  2055  0203  0E7E               	swapf	btemp,w
  2056  0204  0009               	retfie
  2057  0205                     __end_of_ISR:
  2058                           
  2059                           	psect	intentry
  2060  0004                     __pintentry:	
  2061                           ;incstack = 0
  2062                           ; Regs used in _ISR: [wreg+status,2+status,0+pclath+cstack]
  2063                           
  2064  0004                     interrupt_function:
  2065  007E                     saved_w	set	btemp
  2066  0004  00FE               	movwf	btemp
  2067  0005  0E03               	swapf	3,w
  2068  0006  00F2               	movwf	??_ISR
  2069  0007  080A               	movf	10,w
  2070  0008  00F3               	movwf	??_ISR+1
  2071  0009  120A  118A  29F0   	ljmp	_ISR
  2072                           
  2073                           	psect	text12
  2074  01D5                     __ptext12:	
  2075 ;; *************** function _adc_conversion *****************
  2076 ;; Defined at:
  2077 ;;		line 207 in file "SLAVE_SEMAFORO_SPI.c"
  2078 ;; Parameters:    Size  Location     Type
  2079 ;;		None
  2080 ;; Auto vars:     Size  Location     Type
  2081 ;;		None
  2082 ;; Return value:  Size  Location     Type
  2083 ;;                  1    wreg      void 
  2084 ;; Registers used:
  2085 ;;		wreg, status,2, status,0, pclath, cstack
  2086 ;; Tracked objects:
  2087 ;;		On entry : 0/0
  2088 ;;		On exit  : 0/0
  2089 ;;		Unchanged: 0/0
  2090 ;; Data sizes:     COMMON   BANK0   BANK1   BANK3   BANK2
  2091 ;;      Params:         0       0       0       0       0
  2092 ;;      Locals:         0       0       0       0       0
  2093 ;;      Temps:          2       0       0       0       0
  2094 ;;      Totals:         2       0       0       0       0
  2095 ;;Total ram usage:        2 bytes
  2096 ;; Hardware stack levels used:    1
  2097 ;; Hardware stack levels required when called:    1
  2098 ;; This function calls:
  2099 ;;		_semaforo
  2100 ;; This function is called by:
  2101 ;;		_ISR
  2102 ;; This function uses a non-reentrant model
  2103 ;;
  2104                           
  2105                           
  2106                           ;psect for function _adc_conversion
  2107  01D5                     _adc_conversion:
  2108  01D5                     i1l824:	
  2109                           ;incstack = 0
  2110                           ; Regs used in _adc_conversion: [wreg+status,2+status,0+pclath+cstack]
  2111                           
  2112                           
  2113                           ;SLAVE_SEMAFORO_SPI.c: 209:     ADCON0bits.GO_DONE = 1;
  2114  01D5  1283               	bcf	3,5	;RP0=0, select bank0
  2115  01D6  1303               	bcf	3,6	;RP1=0, select bank0
  2116  01D7  149F               	bsf	31,1	;volatile
  2117  01D8                     i1l826:
  2118                           
  2119                           ;SLAVE_SEMAFORO_SPI.c: 210:     _delay((unsigned long)((10)*(8000000/4000.0)));
  2120  01D8  301A               	movlw	26
  2121  01D9  00F1               	movwf	??_adc_conversion+1
  2122  01DA  30F8               	movlw	248
  2123  01DB  00F0               	movwf	??_adc_conversion
  2124  01DC                     u9_27:
  2125  01DC  0BF0               	decfsz	??_adc_conversion,f
  2126  01DD  29DC               	goto	u9_27
  2127  01DE  0BF1               	decfsz	??_adc_conversion+1,f
  2128  01DF  29DC               	goto	u9_27
  2129  01E0  0000               	nop
  2130  01E1                     i1l828:
  2131                           
  2132                           ;SLAVE_SEMAFORO_SPI.c: 211:     if (ADCON0bits.GO_DONE == 0)
  2133  01E1  1283               	bcf	3,5	;RP0=0, select bank0
  2134  01E2  1303               	bcf	3,6	;RP1=0, select bank0
  2135  01E3  189F               	btfsc	31,1	;volatile
  2136  01E4  29E6               	goto	u4_21
  2137  01E5  29E7               	goto	u4_20
  2138  01E6                     u4_21:
  2139  01E6  29EF               	goto	i1l120
  2140  01E7                     u4_20:
  2141  01E7                     i1l830:
  2142                           
  2143                           ;SLAVE_SEMAFORO_SPI.c: 212:     {;SLAVE_SEMAFORO_SPI.c: 213:         ADCON0bits.GO_DONE 
      +                          = 1;
  2144  01E7  149F               	bsf	31,1	;volatile
  2145  01E8                     i1l832:
  2146                           
  2147                           ;SLAVE_SEMAFORO_SPI.c: 214:         PORTD = ADRESH;
  2148  01E8  081E               	movf	30,w	;volatile
  2149  01E9  0088               	movwf	8	;volatile
  2150  01EA                     i1l834:
  2151                           
  2152                           ;SLAVE_SEMAFORO_SPI.c: 215:         semaforo();
  2153  01EA  120A  118A  21B5  120A  118A  	fcall	_semaforo
  2154  01EF                     i1l120:
  2155  01EF  0008               	return
  2156  01F0                     __end_of_adc_conversion:
  2157                           
  2158                           	psect	text13
  2159  01B5                     __ptext13:	
  2160 ;; *************** function _semaforo *****************
  2161 ;; Defined at:
  2162 ;;		line 185 in file "SLAVE_SEMAFORO_SPI.c"
  2163 ;; Parameters:    Size  Location     Type
  2164 ;;		None
  2165 ;; Auto vars:     Size  Location     Type
  2166 ;;		None
  2167 ;; Return value:  Size  Location     Type
  2168 ;;                  1    wreg      void 
  2169 ;; Registers used:
  2170 ;;		wreg
  2171 ;; Tracked objects:
  2172 ;;		On entry : 0/0
  2173 ;;		On exit  : 0/0
  2174 ;;		Unchanged: 0/0
  2175 ;; Data sizes:     COMMON   BANK0   BANK1   BANK3   BANK2
  2176 ;;      Params:         0       0       0       0       0
  2177 ;;      Locals:         0       0       0       0       0
  2178 ;;      Temps:          0       0       0       0       0
  2179 ;;      Totals:         0       0       0       0       0
  2180 ;;Total ram usage:        0 bytes
  2181 ;; Hardware stack levels used:    1
  2182 ;; This function calls:
  2183 ;;		Nothing
  2184 ;; This function is called by:
  2185 ;;		_adc_conversion
  2186 ;; This function uses a non-reentrant model
  2187 ;;
  2188                           
  2189                           
  2190                           ;psect for function _semaforo
  2191  01B5                     _semaforo:
  2192  01B5                     i1l814:	
  2193                           ;incstack = 0
  2194                           ; Regs used in _semaforo: [wreg]
  2195                           
  2196                           
  2197                           ;SLAVE_SEMAFORO_SPI.c: 187:     if (PORTD < 25)
  2198  01B5  3019               	movlw	25
  2199  01B6  1283               	bcf	3,5	;RP0=0, select bank0
  2200  01B7  1303               	bcf	3,6	;RP1=0, select bank0
  2201  01B8  0208               	subwf	8,w	;volatile
  2202  01B9  1803               	skipnc
  2203  01BA  29BC               	goto	u1_21
  2204  01BB  29BD               	goto	u1_20
  2205  01BC                     u1_21:
  2206  01BC  29C1               	goto	i1l818
  2207  01BD                     u1_20:
  2208  01BD                     i1l816:
  2209                           
  2210                           ;SLAVE_SEMAFORO_SPI.c: 188:     {;SLAVE_SEMAFORO_SPI.c: 189:         PORTBbits.RB2 = 1;
  2211  01BD  1506               	bsf	6,2	;volatile
  2212                           
  2213                           ;SLAVE_SEMAFORO_SPI.c: 190:         PORTBbits.RB1 = 0;
  2214  01BE  1086               	bcf	6,1	;volatile
  2215                           
  2216                           ;SLAVE_SEMAFORO_SPI.c: 191:         PORTBbits.RB0 = 0;
  2217  01BF  1006               	bcf	6,0	;volatile
  2218                           
  2219                           ;SLAVE_SEMAFORO_SPI.c: 192:     }
  2220  01C0  29D4               	goto	i1l116
  2221  01C1                     i1l818:
  2222  01C1  3019               	movlw	25
  2223  01C2  0208               	subwf	8,w	;volatile
  2224  01C3  1C03               	skipc
  2225  01C4  29C6               	goto	u2_21
  2226  01C5  29C7               	goto	u2_20
  2227  01C6                     u2_21:
  2228  01C6  29D1               	goto	i1l114
  2229  01C7                     u2_20:
  2230  01C7                     i1l820:
  2231  01C7  3025               	movlw	37
  2232  01C8  0208               	subwf	8,w	;volatile
  2233  01C9  1803               	skipnc
  2234  01CA  29CC               	goto	u3_21
  2235  01CB  29CD               	goto	u3_20
  2236  01CC                     u3_21:
  2237  01CC  29D1               	goto	i1l114
  2238  01CD                     u3_20:
  2239  01CD                     i1l822:
  2240                           
  2241                           ;SLAVE_SEMAFORO_SPI.c: 194:     {;SLAVE_SEMAFORO_SPI.c: 195:         PORTBbits.RB2 = 0;
  2242  01CD  1106               	bcf	6,2	;volatile
  2243                           
  2244                           ;SLAVE_SEMAFORO_SPI.c: 196:         PORTBbits.RB1 = 1;
  2245  01CE  1486               	bsf	6,1	;volatile
  2246                           
  2247                           ;SLAVE_SEMAFORO_SPI.c: 197:         PORTBbits.RB0 = 0;
  2248  01CF  1006               	bcf	6,0	;volatile
  2249                           
  2250                           ;SLAVE_SEMAFORO_SPI.c: 198:     }
  2251  01D0  29D4               	goto	i1l116
  2252  01D1                     i1l114:	
  2253                           ;SLAVE_SEMAFORO_SPI.c: 199:     else
  2254                           
  2255                           
  2256                           ;SLAVE_SEMAFORO_SPI.c: 200:     {;SLAVE_SEMAFORO_SPI.c: 201:         PORTBbits.RB2 = 0;
  2257  01D1  1106               	bcf	6,2	;volatile
  2258                           
  2259                           ;SLAVE_SEMAFORO_SPI.c: 202:         PORTBbits.RB1 = 0;
  2260  01D2  1086               	bcf	6,1	;volatile
  2261                           
  2262                           ;SLAVE_SEMAFORO_SPI.c: 203:         PORTBbits.RB0 = 1;
  2263  01D3  1406               	bsf	6,0	;volatile
  2264  01D4                     i1l116:
  2265  01D4  0008               	return
  2266  01D5                     __end_of_semaforo:
  2267  007E                     btemp	set	126	;btemp
  2268  007E                     wtemp0	set	126
  2269                           
  2270                           	psect	config
  2271                           
  2272                           ;Config register CONFIG1 @ 0x2007
  2273                           ;	Oscillator Selection bits
  2274                           ;	FOSC = INTRC_NOCLKOUT, INTOSCIO oscillator: I/O function on RA6/OSC2/CLKOUT pin, I/O f
      +                          unction on RA7/OSC1/CLKIN
  2275                           ;	Watchdog Timer Enable bit
  2276                           ;	WDTE = OFF, WDT disabled and can be enabled by SWDTEN bit of the WDTCON register
  2277                           ;	Power-up Timer Enable bit
  2278                           ;	PWRTE = OFF, PWRT disabled
  2279                           ;	RE3/MCLR pin function select bit
  2280                           ;	MCLRE = OFF, RE3/MCLR pin function is digital input, MCLR internally tied to VDD
  2281                           ;	Code Protection bit
  2282                           ;	CP = OFF, Program memory code protection is disabled
  2283                           ;	Data Code Protection bit
  2284                           ;	CPD = OFF, Data memory code protection is disabled
  2285                           ;	Brown Out Reset Selection bits
  2286                           ;	BOREN = OFF, BOR disabled
  2287                           ;	Internal External Switchover bit
  2288                           ;	IESO = OFF, Internal/External Switchover mode is disabled
  2289                           ;	Fail-Safe Clock Monitor Enabled bit
  2290                           ;	FCMEN = OFF, Fail-Safe Clock Monitor is disabled
  2291                           ;	Low Voltage Programming Enable bit
  2292                           ;	LVP = OFF, RB3 pin has digital I/O, HV on MCLR must be used for programming
  2293                           ;	In-Circuit Debugger Mode bit
  2294                           ;	DEBUG = 0x1, unprogrammed default
  2295  2007                     	org	8199
  2296  2007  20D4               	dw	8404
  2297                           
  2298                           ;Config register CONFIG2 @ 0x2008
  2299                           ;	Brown-out Reset Selection bit
  2300                           ;	BOR4V = BOR40V, Brown-out Reset set to 4.0V
  2301                           ;	Flash Program Memory Self Write Enable bits
  2302                           ;	WRT = OFF, Write protection off
  2303  2008                     	org	8200
  2304  2008  3FFF               	dw	16383

Data Sizes:
    Strings     0
    Constant    0
    Data        0
    BSS         1
    Persistent  0
    Stack       0

Auto Spaces:
    Space          Size  Autos    Used
    COMMON           14      9      10
    BANK0            80      1       1
    BANK1            80      0       0
    BANK3            96      0       0
    BANK2            96      0       0

Pointer List with Targets:

    None.

Critical Paths under _main in COMMON

    _main->_SPI_config
    _adc_config->_initADC
    _SPI_config->_SPI_Esclavo_Init

Critical Paths under _ISR in COMMON

    _ISR->_adc_conversion

Critical Paths under _main in BANK0

    None.

Critical Paths under _ISR in BANK0

    None.

Critical Paths under _main in BANK1

    None.

Critical Paths under _ISR in BANK1

    None.

Critical Paths under _main in BANK3

    None.

Critical Paths under _ISR in BANK3

    None.

Critical Paths under _main in BANK2

    None.

Critical Paths under _ISR in BANK2

    None.

Call Graph Tables:

 ---------------------------------------------------------------------------------
 (Depth) Function   	        Calls       Base Space   Used Autos Params    Refs
 ---------------------------------------------------------------------------------
 (0) _main                                                 1     1      0     150
                                              0 BANK0      1     1      0
                         _SPI_Enviar
                        _SPI_Recibir
                         _SPI_config
                         _adc_config
                    _interrup_config
                         _osc_config
                              _setup
                        _tmr0_config
 ---------------------------------------------------------------------------------
 (1) _tmr0_config                                          0     0      0       0
 ---------------------------------------------------------------------------------
 (1) _setup                                                0     0      0       0
 ---------------------------------------------------------------------------------
 (1) _osc_config                                           0     0      0       0
 ---------------------------------------------------------------------------------
 (1) _interrup_config                                      0     0      0       0
 ---------------------------------------------------------------------------------
 (1) _adc_config                                           0     0      0      15
                            _initADC
 ---------------------------------------------------------------------------------
 (2) _initADC                                              3     3      0      15
                                              4 COMMON     3     3      0
 ---------------------------------------------------------------------------------
 (1) _SPI_config                                           1     1      0     120
                                              8 COMMON     1     1      0
                   _SPI_Esclavo_Init
 ---------------------------------------------------------------------------------
 (2) _SPI_Esclavo_Init                                     4     3      1     120
                                              4 COMMON     4     3      1
 ---------------------------------------------------------------------------------
 (1) _SPI_Recibir                                          0     0      0       0
 ---------------------------------------------------------------------------------
 (1) _SPI_Enviar                                           1     1      0      15
                                              4 COMMON     1     1      0
 ---------------------------------------------------------------------------------
 Estimated maximum stack depth 2
 ---------------------------------------------------------------------------------
 (Depth) Function   	        Calls       Base Space   Used Autos Params    Refs
 ---------------------------------------------------------------------------------
 (3) _ISR                                                  2     2      0       0
                                              2 COMMON     2     2      0
                     _adc_conversion
 ---------------------------------------------------------------------------------
 (4) _adc_conversion                                       2     2      0       0
                                              0 COMMON     2     2      0
                           _semaforo
 ---------------------------------------------------------------------------------
 (5) _semaforo                                             0     0      0       0
 ---------------------------------------------------------------------------------
 Estimated maximum stack depth 5
 ---------------------------------------------------------------------------------

 Call Graph Graphs:

 _main (ROOT)
   _SPI_Enviar
   _SPI_Recibir
   _SPI_config
     _SPI_Esclavo_Init
   _adc_config
     _initADC
   _interrup_config
   _osc_config
   _setup
   _tmr0_config

 _ISR (ROOT)
   _adc_conversion
     _semaforo

 Address spaces:
Name               Size   Autos  Total    Cost      Usage
BITCOMMON            E      0       0       0        0.0%
EEDATA             100      0       0       0        0.0%
NULL                 0      0       0       0        0.0%
CODE                 0      0       0       0        0.0%
COMMON               E      9       A       1       71.4%
BITSFR0              0      0       0       1        0.0%
SFR0                 0      0       0       1        0.0%
BITSFR1              0      0       0       2        0.0%
SFR1                 0      0       0       2        0.0%
STACK                0      0       0       2        0.0%
ABS                  0      0       B       3        0.0%
BITBANK0            50      0       0       4        0.0%
BITSFR3              0      0       0       4        0.0%
SFR3                 0      0       0       4        0.0%
BANK0               50      1       1       5        1.2%
BITSFR2              0      0       0       5        0.0%
SFR2                 0      0       0       5        0.0%
BITBANK1            50      0       0       6        0.0%
BANK1               50      0       0       7        0.0%
BITBANK3            60      0       0       8        0.0%
BANK3               60      0       0       9        0.0%
BITBANK2            60      0       0      10        0.0%
BANK2               60      0       0      11        0.0%
DATA                 0      0       B      12        0.0%


Microchip Technology PIC Macro Assembler V2.31 build 20201012212115 
Symbol Table                                                                                   Fri Feb 19 10:41:15 2021

              _SPI_Recibir 0240            SPI_Enviar@valor 0074                _SSPSTATbits 0094  
                       l94 01B4                         l97 021D                         u80 0164  
                       u81 0163                 _SPI_config 021E                        l100 0232  
                      l103 0211                        l106 0239                        l109 0228  
                      l151 00C5                        l160 0139                        l161 0111  
                      l153 00CC                        l170 0243                        l162 0117  
                      l154 00D3                        l163 011D                        l155 00DA  
                      l164 013F                        l156 00E1                        l180 001D  
                      l157 00E8                        l181 0024                        l190 0063  
                      l182 002B                        l167 023F                        l159 010B  
                      l191 006A                        l183 0032                        l192 0071  
                      l184 0039                        l193 0078                        l185 0040  
                      l194 00BC                        l186 0047                        l178 0016  
                      l187 004E                        l179 00B3                        l188 0055  
                      l189 005C                        l840 0187                        l850 019D  
                      l842 018A                        l860 0229                        l852 019E  
                      l844 018D                        l836 017B                        l790 007F  
                      l870 0233                        l862 0212                        l854 01A2  
                      l846 0190                        l838 0184                        l864 021A  
                      l856 01A3                        l848 019C                        l874 0240  
                      l786 0015                        l858 01A4                        l866 0205  
                      l868 020D    __end_of_interrup_config 021E                        l878 023B  
                      l990 0123                        l982 00BE                        l986 00EF  
                      _ISR 01F0                       ?_ISR 0070                       l1000 021E  
                     l1080 014F                       l1154 0087                       l1090 016E  
                     l1082 0154                       l1156 00F7                       l1092 0174  
                     l1084 0159                       l1158 012B                       l1086 015E  
                     l1078 0140                       l1088 0164                       _IOCB 0096  
                     i1l82 01FE                       _TMR0 0001                       u1_20 01BD  
                     u1_21 01BC                       u2_20 01C7                       u2_21 01C6  
                     u3_20 01CD                       u3_21 01CC                       u4_20 01E7  
                     u4_21 01E6                       u5_20 01F4                       u5_21 01F3  
                     u9_27 01DC                       _main 0140                       btemp 007E  
                     start 000C                      ??_ISR 0072                      ?_main 0070  
                    _ANSEL 0188                      i1l120 01EF                      i1l114 01D1  
                    i1l116 01D4                      i1l820 01C7                      i1l822 01CD  
                    i1l814 01B5                      i1l830 01E7                      i1l816 01BD  
                    i1l832 01E8                      i1l824 01D5                      i1l818 01C1  
                    i1l834 01EA                      i1l826 01D8                      i1l828 01E1  
                    i1l880 01F0                      i1l882 01F4                      i1l884 01F9  
                    i1l886 01FA                      _PORTA 0005                      _PORTB 0006  
                    _PORTC 0007                      _PORTD 0008                      _PORTE 0009  
                    _TRISA 0085                      _TRISB 0086                      _TRISC 0087  
                    _TRISD 0088                      _TRISE 0089                      _SSPIF 0063  
          __end_of_initADC 00BD                      _setup 017B  SPI_Esclavo_Init@port_mode 0077  
                    pclath 000A   __end_of_SPI_Esclavo_Init 0140                      status 0003  
                    wtemp0 007E                ?_SPI_Enviar 0070            __initialization 000F  
             __end_of_main 017B                ?_SPI_config 0070                     ??_main 0020  
         ?_interrup_config 0070               ?_tmr0_config 0070                     _ADRESH 001E  
                   ?_setup 0070                     _ANSELH 0189    __size_of_adc_conversion 001B  
                   _SSPBUF 0013                  ??_initADC 0074           __end_of_semaforo 01D5  
                   saved_w 007E        __size_of_SPI_Enviar 0006    __end_of__initialization 0010  
      __size_of_SPI_config 000B               ?_SPI_Recibir 0070             __pcstackCOMMON 0070  
               _adc_config 0233              __end_of_setup 01B5             _OPTION_REGbits 0081  
                  ??_setup 0074                 __pmaintext 0140               _dato_maestro 0079  
               __pintentry 0004        SPI_Esclavo_Init@SCK 0074       __size_of_tmr0_config 000D  
           _adc_conversion 01D5          ?_SPI_Esclavo_Init 0074         ??_SPI_Esclavo_Init 0075  
                ?_semaforo 0070               ??_SPI_Enviar 0074                ?_adc_config 0070  
             ??_SPI_config 0078                  _ANSELbits 0188                    __ptext1 0205  
                  __ptext2 017B                    __ptext3 0229                    __ptext4 0212  
                  __ptext5 0233                    __ptext6 0014                    __ptext7 021E  
                  __ptext8 00BD                    __ptext9 0240                    _initADC 0014  
             __size_of_ISR 0015     __end_of_adc_conversion 01F0         __end_of_SPI_Enviar 0240  
     end_of_initialization 0010                 _osc_config 0229         __end_of_SPI_config 0229  
               ??_semaforo 0070       __size_of_SPI_Recibir 0004                  _PORTAbits 0005  
                _PORTBbits 0006                  _TRISAbits 0085                  _TRISCbits 0087  
          ?_adc_conversion 0070        __size_of_adc_config 0007   __size_of_interrup_config 000C  
               initADC@CHS 0076        start_initialization 000F                __end_of_ISR 0205  
              ?_osc_config 0070                __pbssCOMMON 0079                  ___latbits 0002  
            __pcstackBANK0 0020          ??_interrup_config 0074               ??_adc_config 0077  
        __size_of_semaforo 0020  __size_of_SPI_Esclavo_Init 0083                   ?_initADC 0070  
      __size_of_osc_config 000A              ??_tmr0_config 0074             __size_of_setup 003A  
       __end_of_adc_config 023A          interrupt_function 0004                 _ADCON0bits 001F  
         ??_adc_conversion 0070                 _ADCON1bits 009F        __end_of_tmr0_config 0212  
            ??_SPI_Recibir 0074           __size_of_initADC 00A9                   __ptext10 023A  
                 __ptext11 01F0                   __ptext12 01D5                   __ptext13 01B5  
             ??_osc_config 0074              __size_of_main 003B                   _semaforo 01B5  
         _SPI_Esclavo_Init 00BD        __end_of_SPI_Recibir 0244                 _INTCONbits 000B  
       __end_of_osc_config 0233                _tmr0_config 0205            _interrup_config 0212  
                 intlevel1 0000                 _OSCCONbits 008F                 _SSPCONbits 0014  
               _SPI_Enviar 023A  
