

Microchip MPLAB XC8 Assembler V2.31 build 20201012212115 
                                                                                               Thu Jan 28 23:06:06 2021

Microchip MPLAB XC8 C Compiler v2.31 (Free license) build 20201012212115 Og1 
     1                           	processor	16F887
     2                           	pagewidth 120
     3                           	opt	flic
     4                           	psect	strings,global,class=STRING,delta=2,noexec
     5                           	psect	cinit,global,class=CODE,merge=1,delta=2
     6                           	psect	bssBANK1,global,class=BANK1,space=1,delta=1,noexec
     7                           	psect	clrtext,global,class=CODE,delta=2
     8                           	psect	cstackBANK1,global,class=BANK1,space=1,delta=1,noexec
     9                           	psect	cstackCOMMON,global,class=COMMON,space=1,delta=1,noexec
    10                           	psect	cstackBANK0,global,class=BANK0,space=1,delta=1,noexec
    11                           	psect	maintext,global,class=CODE,split=1,delta=2
    12                           	psect	text1,local,class=CODE,merge=1,delta=2
    13                           	psect	text2,local,class=CODE,merge=1,delta=2
    14                           	psect	text3,local,class=CODE,merge=1,delta=2
    15                           	psect	text4,local,class=CODE,merge=1,delta=2
    16                           	psect	text5,local,class=CODE,merge=1,delta=2
    17                           	psect	text6,local,class=CODE,merge=1,delta=2,group=2
    18                           	psect	text7,local,class=CODE,merge=1,delta=2,group=2
    19                           	psect	text8,local,class=CODE,merge=1,delta=2,group=2
    20                           	psect	text9,local,class=CODE,merge=1,delta=2,group=2
    21                           	psect	text10,local,class=CODE,merge=1,delta=2,group=2
    22                           	psect	text11,local,class=CODE,merge=1,delta=2,group=2
    23                           	psect	text12,local,class=CODE,merge=1,delta=2,group=1
    24                           	psect	text13,local,class=CODE,merge=1,delta=2,group=1
    25                           	psect	text14,local,class=CODE,merge=1,delta=2,group=1
    26                           	psect	text15,local,class=CODE,merge=1,delta=2,group=1
    27                           	psect	text16,local,class=CODE,merge=1,delta=2,group=2
    28                           	psect	text17,local,class=CODE,merge=1,delta=2,group=1
    29                           	psect	text18,local,class=CODE,merge=1,delta=2,group=1
    30                           	psect	text19,local,class=CODE,merge=1,delta=2,group=1
    31                           	psect	text20,local,class=CODE,merge=1,delta=2,group=1
    32                           	psect	text21,local,class=CODE,merge=1,delta=2,group=1
    33                           	psect	text22,local,class=CODE,merge=1,delta=2,group=1
    34                           	psect	config,global,abs,ovrld,class=CONFIG,space=4,delta=2,noexec
    35                           	dabs	1,0x7E,2
    36  0000                     
    37                           ; Version 2.20
    38                           ; Generated 12/02/2020 GMT
    39                           ; 
    40                           ; Copyright © 2020, Microchip Technology Inc. and its subsidiaries ("Microchip")
    41                           ; All rights reserved.
    42                           ; 
    43                           ; This software is developed by Microchip Technology Inc. and its subsidiaries ("Microch
      +                          ip").
    44                           ; 
    45                           ; Redistribution and use in source and binary forms, with or without modification, are
    46                           ; permitted provided that the following conditions are met:
    47                           ; 
    48                           ;     1. Redistributions of source code must retain the above copyright notice, this lis
      +                          t of
    49                           ;        conditions and the following disclaimer.
    50                           ; 
    51                           ;     2. Redistributions in binary form must reproduce the above copyright notice, this 
      +                          list
    52                           ;        of conditions and the following disclaimer in the documentation and/or other
    53                           ;        materials provided with the distribution.
    54                           ; 
    55                           ;     3. Microchip's name may not be used to endorse or promote products derived from th
      +                          is
    56                           ;        software without specific prior written permission.
    57                           ; 
    58                           ; THIS SOFTWARE IS PROVIDED BY MICROCHIP "AS IS" AND ANY EXPRESS OR IMPLIED WARRANTIES,
    59                           ; INCLUDING, BUT NOT LIMITED TO, THE IMPLIED WARRANTIES OF MERCHANTABILITY AND FITNESS F
      +                          OR
    60                           ; PURPOSE ARE DISCLAIMED.  IN NO EVENT SHALL MICROCHIP BE LIABLE FOR ANY DIRECT, INDIREC
      +                          T,
    61                           ; INCIDENTAL, SPECIAL, EXEMPLARY, OR CONSEQUENTIAL DAMAGES (INCLUDING BUT NOT LIMITED TO
    62                           ; PROCUREMENT OF SUBSTITUTE GOODS OR SERVICES; LOSS OF USE, DATA OR PROFITS; OR BUSINESS
    63                           ; INTERRUPTION) HOWSOEVER CAUSED AND ON ANY THEORY OF LIABILITY, WHETHER IN CONTRACT, ST
      +                          RICT
    64                           ; LIABILITY, OR TORT (INCLUDING NEGLIGENCE OR OTHERWISE) ARISING IN ANY WAY OUT OF THE U
      +                          SE OF
    65                           ; THIS SOFTWARE, EVEN IF ADVISED OF THE POSSIBILITY OF SUCH DAMAGE.
    66                           ; 
    67                           ; 
    68                           ; Code-generator required, PIC16F887 Definitions
    69                           ; 
    70                           ; SFR Addresses
    71  0000                     	;# 
    72  0001                     	;# 
    73  0002                     	;# 
    74  0003                     	;# 
    75  0004                     	;# 
    76  0005                     	;# 
    77  0006                     	;# 
    78  0007                     	;# 
    79  0008                     	;# 
    80  0009                     	;# 
    81  000A                     	;# 
    82  000B                     	;# 
    83  000C                     	;# 
    84  000D                     	;# 
    85  000E                     	;# 
    86  000E                     	;# 
    87  000F                     	;# 
    88  0010                     	;# 
    89  0011                     	;# 
    90  0012                     	;# 
    91  0013                     	;# 
    92  0014                     	;# 
    93  0015                     	;# 
    94  0015                     	;# 
    95  0016                     	;# 
    96  0017                     	;# 
    97  0018                     	;# 
    98  0019                     	;# 
    99  001A                     	;# 
   100  001B                     	;# 
   101  001B                     	;# 
   102  001C                     	;# 
   103  001D                     	;# 
   104  001E                     	;# 
   105  001F                     	;# 
   106  0081                     	;# 
   107  0085                     	;# 
   108  0086                     	;# 
   109  0087                     	;# 
   110  0088                     	;# 
   111  0089                     	;# 
   112  008C                     	;# 
   113  008D                     	;# 
   114  008E                     	;# 
   115  008F                     	;# 
   116  0090                     	;# 
   117  0091                     	;# 
   118  0092                     	;# 
   119  0093                     	;# 
   120  0093                     	;# 
   121  0093                     	;# 
   122  0094                     	;# 
   123  0095                     	;# 
   124  0096                     	;# 
   125  0097                     	;# 
   126  0098                     	;# 
   127  0099                     	;# 
   128  009A                     	;# 
   129  009B                     	;# 
   130  009C                     	;# 
   131  009D                     	;# 
   132  009E                     	;# 
   133  009F                     	;# 
   134  0105                     	;# 
   135  0107                     	;# 
   136  0108                     	;# 
   137  0109                     	;# 
   138  010C                     	;# 
   139  010C                     	;# 
   140  010D                     	;# 
   141  010E                     	;# 
   142  010F                     	;# 
   143  0185                     	;# 
   144  0187                     	;# 
   145  0188                     	;# 
   146  0189                     	;# 
   147  018C                     	;# 
   148  018D                     	;# 
   149  0000                     	;# 
   150  0001                     	;# 
   151  0002                     	;# 
   152  0003                     	;# 
   153  0004                     	;# 
   154  0005                     	;# 
   155  0006                     	;# 
   156  0007                     	;# 
   157  0008                     	;# 
   158  0009                     	;# 
   159  000A                     	;# 
   160  000B                     	;# 
   161  000C                     	;# 
   162  000D                     	;# 
   163  000E                     	;# 
   164  000E                     	;# 
   165  000F                     	;# 
   166  0010                     	;# 
   167  0011                     	;# 
   168  0012                     	;# 
   169  0013                     	;# 
   170  0014                     	;# 
   171  0015                     	;# 
   172  0015                     	;# 
   173  0016                     	;# 
   174  0017                     	;# 
   175  0018                     	;# 
   176  0019                     	;# 
   177  001A                     	;# 
   178  001B                     	;# 
   179  001B                     	;# 
   180  001C                     	;# 
   181  001D                     	;# 
   182  001E                     	;# 
   183  001F                     	;# 
   184  0081                     	;# 
   185  0085                     	;# 
   186  0086                     	;# 
   187  0087                     	;# 
   188  0088                     	;# 
   189  0089                     	;# 
   190  008C                     	;# 
   191  008D                     	;# 
   192  008E                     	;# 
   193  008F                     	;# 
   194  0090                     	;# 
   195  0091                     	;# 
   196  0092                     	;# 
   197  0093                     	;# 
   198  0093                     	;# 
   199  0093                     	;# 
   200  0094                     	;# 
   201  0095                     	;# 
   202  0096                     	;# 
   203  0097                     	;# 
   204  0098                     	;# 
   205  0099                     	;# 
   206  009A                     	;# 
   207  009B                     	;# 
   208  009C                     	;# 
   209  009D                     	;# 
   210  009E                     	;# 
   211  009F                     	;# 
   212  0105                     	;# 
   213  0107                     	;# 
   214  0108                     	;# 
   215  0109                     	;# 
   216  010C                     	;# 
   217  010C                     	;# 
   218  010D                     	;# 
   219  010E                     	;# 
   220  010F                     	;# 
   221  0185                     	;# 
   222  0187                     	;# 
   223  0188                     	;# 
   224  0189                     	;# 
   225  018C                     	;# 
   226  018D                     	;# 
   227                           
   228                           	psect	strings
   229  1000                     __pstrings:
   230  1000                     stringtab:
   231  1000                     __stringtab:
   232  1000                     stringcode:	
   233                           ;	String table - string pointers are 1 byte each
   234                           
   235  1000                     stringdir:
   236  1000  3010               	movlw	high stringdir
   237  1001  008A               	movwf	10
   238  1002  0804               	movf	4,w
   239  1003  0A84               	incf	4,f
   240  1004  0782               	addwf	2,f
   241  1005                     __stringbase:
   242  1005  3400               	retlw	0
   243  1006                     __end_of__stringtab:
   244  1006                     exp@coeff:
   245  1006  3400               	retlw	0
   246  1007  3400               	retlw	0
   247  1008  3480               	retlw	128
   248  1009  343F               	retlw	63
   249  100A  3418               	retlw	24
   250  100B  3472               	retlw	114
   251  100C  3431               	retlw	49
   252  100D  343F               	retlw	63
   253  100E  34F0               	retlw	240
   254  100F  34FD               	retlw	253
   255  1010  3475               	retlw	117
   256  1011  343E               	retlw	62
   257  1012  3447               	retlw	71
   258  1013  3458               	retlw	88
   259  1014  3463               	retlw	99
   260  1015  343D               	retlw	61
   261  1016  3458               	retlw	88
   262  1017  3495               	retlw	149
   263  1018  341D               	retlw	29
   264  1019  343C               	retlw	60
   265  101A  3482               	retlw	130
   266  101B  34C4               	retlw	196
   267  101C  34AE               	retlw	174
   268  101D  343A               	retlw	58
   269  101E  34A8               	retlw	168
   270  101F  3478               	retlw	120
   271  1020  3421               	retlw	33
   272  1021  3439               	retlw	57
   273  1022  34EF               	retlw	239
   274  1023  3493               	retlw	147
   275  1024  3480               	retlw	128
   276  1025  3437               	retlw	55
   277  1026  34A0               	retlw	160
   278  1027  3492               	retlw	146
   279  1028  34A7               	retlw	167
   280  1029  3435               	retlw	53
   281  102A  3446               	retlw	70
   282  102B  3456               	retlw	86
   283  102C  3415               	retlw	21
   284  102D  3434               	retlw	52
   285  102E                     __end_ofexp@coeff:
   286  102E                     log@coeff:
   287  102E  3400               	retlw	0
   288  102F  3400               	retlw	0
   289  1030  3400               	retlw	0
   290  1031  3400               	retlw	0
   291  1032  34C4               	retlw	196
   292  1033  34FF               	retlw	255
   293  1034  347F               	retlw	127
   294  1035  343F               	retlw	63
   295  1036  3480               	retlw	128
   296  1037  34EF               	retlw	239
   297  1038  34FF               	retlw	255
   298  1039  34BE               	retlw	190
   299  103A  3490               	retlw	144
   300  103B  34E1               	retlw	225
   301  103C  34A9               	retlw	169
   302  103D  343E               	retlw	62
   303  103E  34EC               	retlw	236
   304  103F  3482               	retlw	130
   305  1040  3476               	retlw	118
   306  1041  34BE               	retlw	190
   307  1042  3482               	retlw	130
   308  1043  34AD               	retlw	173
   309  1044  342B               	retlw	43
   310  1045  343E               	retlw	62
   311  1046  340E               	retlw	14
   312  1047  343C               	retlw	60
   313  1048  34C3               	retlw	195
   314  1049  34BD               	retlw	189
   315  104A  3487               	retlw	135
   316  104B  34D1               	retlw	209
   317  104C  3413               	retlw	19
   318  104D  343D               	retlw	61
   319  104E  3441               	retlw	65
   320  104F  3478               	retlw	120
   321  1050  34D3               	retlw	211
   322  1051  34BB               	retlw	187
   323  1052                     __end_oflog@coeff:
   324  0009                     _PORTEbits	set	9
   325  0005                     _PORTAbits	set	5
   326  0006                     _PORTBbits	set	6
   327  0005                     _PORTA	set	5
   328  0008                     _PORTD	set	8
   329  0007                     _PORTC	set	7
   330  0006                     _PORTB	set	6
   331  0009                     _PORTE	set	9
   332  0085                     _TRISA	set	133
   333  0088                     _TRISD	set	136
   334  0087                     _TRISC	set	135
   335  0086                     _TRISB	set	134
   336  0089                     _TRISE	set	137
   337  0189                     _ANSELH	set	393
   338  0188                     _ANSEL	set	392
   339                           
   340                           	psect	cinit
   341  07F3                     start_initialization:	
   342                           ; #config settings
   343                           
   344  07F3                     __initialization:
   345                           
   346                           ; Clear objects allocated to BANK1
   347  07F3  1383               	bcf	3,7	;select IRP bank0
   348  07F4  30D4               	movlw	low __pbssBANK1
   349  07F5  0084               	movwf	4
   350  07F6  30E6               	movlw	low (__pbssBANK1+18)
   351  07F7  160A  118A  2320  120A  118A  	fcall	clear_ram0
   352  07FC                     end_of_initialization:	
   353                           ;End of C runtime variable initialization code
   354                           
   355  07FC                     __end_of__initialization:
   356  07FC  0183               	clrf	3
   357  07FD  160A  118A  2B7D   	ljmp	_main	;jump to C main() function
   358                           
   359                           	psect	bssBANK1
   360  00D4                     __pbssBANK1:
   361  00D4                     _errno:
   362  00D4                     	ds	2
   363  00D6                     _i2:
   364  00D6                     	ds	2
   365  00D8                     _presionado2:
   366  00D8                     	ds	2
   367  00DA                     _released_ok2:
   368  00DA                     	ds	2
   369  00DC                     _pressed_ok2:
   370  00DC                     	ds	2
   371  00DE                     _i:
   372  00DE                     	ds	2
   373  00E0                     _presionado:
   374  00E0                     	ds	2
   375  00E2                     _released_ok:
   376  00E2                     	ds	2
   377  00E4                     _pressed_ok:
   378  00E4                     	ds	2
   379                           
   380                           	psect	clrtext
   381  1320                     clear_ram0:	
   382                           ;	Called with FSR containing the base address, and
   383                           ;	W with the last address+1
   384                           
   385  1320  0064               	clrwdt	;clear the watchdog before getting into this loop
   386  1321                     clrloop0:
   387  1321  0180               	clrf	0	;clear RAM location pointed to by FSR
   388  1322  0A84               	incf	4,f	;increment pointer
   389  1323  0604               	xorwf	4,w	;XOR with final address
   390  1324  1903               	btfsc	3,2	;have we reached the end yet?
   391  1325  3400               	retlw	0	;all done for this memory range, return
   392  1326  0604               	xorwf	4,w	;XOR again to restore value
   393  1327  2B21               	goto	clrloop0	;do the next byte
   394                           
   395                           	psect	cstackBANK1
   396  00A0                     __pcstackBANK1:
   397  00A0                     eval_poly@res:
   398                           
   399                           ; 4 bytes @ 0x0
   400  00A0                     	ds	4
   401  00A4                     ?_log:
   402  00A4                     ?_ldexp:	
   403                           ; 4 bytes @ 0x4
   404                           
   405  00A4                     ldexp@value:	
   406                           ; 4 bytes @ 0x4
   407                           
   408  00A4                     log@x:	
   409                           ; 4 bytes @ 0x4
   410                           
   411                           
   412                           ; 4 bytes @ 0x4
   413  00A4                     	ds	4
   414  00A8                     ldexp@newexp:
   415                           
   416                           ; 2 bytes @ 0x8
   417  00A8                     	ds	2
   418  00AA                     ?_exp:
   419  00AA                     exp@x:	
   420                           ; 4 bytes @ 0xA
   421                           
   422                           
   423                           ; 4 bytes @ 0xA
   424  00AA                     	ds	4
   425  00AE                     ??_exp:
   426                           
   427                           ; 1 bytes @ 0xE
   428  00AE                     	ds	1
   429  00AF                     _exp$859:
   430                           
   431                           ; 4 bytes @ 0xF
   432  00AF                     	ds	4
   433  00B3                     exp@exponent:
   434                           
   435                           ; 2 bytes @ 0x13
   436  00B3                     	ds	2
   437  00B5                     exp@sign:
   438                           
   439                           ; 1 bytes @ 0x15
   440  00B5                     	ds	1
   441  00B6                     ?_pow:
   442  00B6                     pow@x:	
   443                           ; 4 bytes @ 0x16
   444                           
   445                           
   446                           ; 4 bytes @ 0x16
   447  00B6                     	ds	4
   448  00BA                     pow@y:
   449                           
   450                           ; 4 bytes @ 0x1A
   451  00BA                     	ds	4
   452  00BE                     ??_pow:
   453                           
   454                           ; 1 bytes @ 0x1E
   455  00BE                     	ds	1
   456  00BF                     _pow$857:
   457                           
   458                           ; 4 bytes @ 0x1F
   459  00BF                     	ds	4
   460  00C3                     _pow$858:
   461                           
   462                           ; 4 bytes @ 0x23
   463  00C3                     	ds	4
   464  00C7                     pow@sign:
   465                           
   466                           ; 1 bytes @ 0x27
   467  00C7                     	ds	1
   468  00C8                     pow@yi:
   469                           
   470                           ; 4 bytes @ 0x28
   471  00C8                     	ds	4
   472  00CC                     _jugador_1$853:
   473  00CC                     _jugador_2$855:	
   474                           ; 4 bytes @ 0x2C
   475                           
   476                           
   477                           ; 4 bytes @ 0x2C
   478  00CC                     	ds	4
   479  00D0                     _jugador_1$854:
   480  00D0                     _jugador_2$856:	
   481                           ; 4 bytes @ 0x30
   482                           
   483                           
   484                           ; 4 bytes @ 0x30
   485  00D0                     	ds	4
   486                           
   487                           	psect	cstackCOMMON
   488  0070                     __pcstackCOMMON:
   489  0070                     ?___flge:
   490  0070                     ?_setup:	
   491                           ; 1 bit 
   492                           
   493  0070                     ??_setup:	
   494                           ; 1 bytes @ 0x0
   495                           
   496  0070                     ?_semaforo:	
   497                           ; 1 bytes @ 0x0
   498                           
   499  0070                     ??_semaforo:	
   500                           ; 1 bytes @ 0x0
   501                           
   502  0070                     ?_verde:	
   503                           ; 1 bytes @ 0x0
   504                           
   505  0070                     ??_verde:	
   506                           ; 1 bytes @ 0x0
   507                           
   508  0070                     ?_jugador_1:	
   509                           ; 1 bytes @ 0x0
   510                           
   511  0070                     ?_jugador_2:	
   512                           ; 1 bytes @ 0x0
   513                           
   514  0070                     ?_main:	
   515                           ; 1 bytes @ 0x0
   516                           
   517  0070                     ?__Umul8_16:	
   518                           ; 1 bytes @ 0x0
   519                           
   520  0070                     ?___flneg:	
   521                           ; 2 bytes @ 0x0
   522                           
   523  0070                     ?___fldiv:	
   524                           ; 4 bytes @ 0x0
   525                           
   526  0070                     ?___xxtofl:	
   527                           ; 4 bytes @ 0x0
   528                           
   529  0070                     __Umul8_16@multiplicand:	
   530                           ; 4 bytes @ 0x0
   531                           
   532  0070                     ___flge@ff1:	
   533                           ; 1 bytes @ 0x0
   534                           
   535  0070                     ___flneg@f1:	
   536                           ; 4 bytes @ 0x0
   537                           
   538  0070                     ___fldiv@a:	
   539                           ; 4 bytes @ 0x0
   540                           
   541  0070                     ___xxtofl@val:	
   542                           ; 4 bytes @ 0x0
   543                           
   544                           
   545                           ; 4 bytes @ 0x0
   546  0070                     	ds	2
   547  0072                     ??__Umul8_16:
   548                           
   549                           ; 1 bytes @ 0x2
   550  0072                     	ds	2
   551  0074                     ??___flneg:
   552  0074                     ??___xxtofl:	
   553                           ; 1 bytes @ 0x4
   554                           
   555  0074                     __Umul8_16@product:	
   556                           ; 1 bytes @ 0x4
   557                           
   558  0074                     ___flge@ff2:	
   559                           ; 2 bytes @ 0x4
   560                           
   561  0074                     ___fldiv@b:	
   562                           ; 4 bytes @ 0x4
   563                           
   564                           
   565                           ; 4 bytes @ 0x4
   566  0074                     	ds	2
   567  0076                     __Umul8_16@word_mpld:
   568                           
   569                           ; 2 bytes @ 0x6
   570  0076                     	ds	2
   571  0078                     ??___flge:
   572  0078                     ??___fldiv:	
   573                           ; 1 bytes @ 0x8
   574                           
   575  0078                     __Umul8_16@multiplier:	
   576                           ; 1 bytes @ 0x8
   577                           
   578  0078                     ___xxtofl@sign:	
   579                           ; 1 bytes @ 0x8
   580                           
   581                           
   582                           ; 1 bytes @ 0x8
   583  0078                     	ds	1
   584  0079                     ___xxtofl@exp:
   585                           
   586                           ; 1 bytes @ 0x9
   587  0079                     	ds	1
   588  007A                     ___xxtofl@arg:
   589                           
   590                           ; 4 bytes @ 0xA
   591  007A                     	ds	4
   592  007E                     ??_jugador_1:
   593  007E                     ??_jugador_2:	
   594                           ; 1 bytes @ 0xE
   595                           
   596  007E                     ??_main:	
   597                           ; 1 bytes @ 0xE
   598                           
   599  007E                     ??___flsub:	
   600                           ; 1 bytes @ 0xE
   601                           
   602                           
   603                           	psect	cstackBANK0
   604  0020                     __pcstackBANK0:	
   605                           ; 1 bytes @ 0xE
   606                           
   607  0020                     ?___fleq:
   608  0020                     ?___fltol:	
   609                           ; 1 bit 
   610                           
   611  0020                     ___fleq@ff1:	
   612                           ; 4 bytes @ 0x0
   613                           
   614  0020                     ___fltol@f1:	
   615                           ; 4 bytes @ 0x0
   616                           
   617  0020                     ___fldiv@rem:	
   618                           ; 4 bytes @ 0x0
   619                           
   620                           
   621                           ; 4 bytes @ 0x0
   622  0020                     	ds	4
   623  0024                     ??___fltol:
   624  0024                     ___fldiv@sign:	
   625                           ; 1 bytes @ 0x4
   626                           
   627  0024                     ___fleq@ff2:	
   628                           ; 1 bytes @ 0x4
   629                           
   630                           
   631                           ; 4 bytes @ 0x4
   632  0024                     	ds	1
   633  0025                     ___fldiv@new_exp:
   634                           
   635                           ; 2 bytes @ 0x5
   636  0025                     	ds	2
   637  0027                     ___fldiv@grs:
   638                           
   639                           ; 4 bytes @ 0x7
   640  0027                     	ds	1
   641  0028                     ??___fleq:
   642                           
   643                           ; 1 bytes @ 0x8
   644  0028                     	ds	1
   645  0029                     ___fltol@sign1:
   646                           
   647                           ; 1 bytes @ 0x9
   648  0029                     	ds	1
   649  002A                     ___fltol@exp1:
   650                           
   651                           ; 1 bytes @ 0xA
   652  002A                     	ds	1
   653  002B                     ___fldiv@bexp:
   654                           
   655                           ; 1 bytes @ 0xB
   656  002B                     	ds	1
   657  002C                     ?_frexp:
   658  002C                     ___fldiv@aexp:	
   659                           ; 4 bytes @ 0xC
   660                           
   661  002C                     frexp@value:	
   662                           ; 1 bytes @ 0xC
   663                           
   664                           
   665                           ; 4 bytes @ 0xC
   666  002C                     	ds	4
   667  0030                     frexp@eptr:
   668                           
   669                           ; 1 bytes @ 0x10
   670  0030                     	ds	1
   671  0031                     ??_frexp:
   672                           
   673                           ; 1 bytes @ 0x11
   674  0031                     	ds	2
   675  0033                     ?___flmul:
   676  0033                     ___flmul@b:	
   677                           ; 4 bytes @ 0x13
   678                           
   679                           
   680                           ; 4 bytes @ 0x13
   681  0033                     	ds	4
   682  0037                     ___flmul@a:
   683                           
   684                           ; 4 bytes @ 0x17
   685  0037                     	ds	4
   686  003B                     ??___flmul:
   687                           
   688                           ; 1 bytes @ 0x1B
   689  003B                     	ds	5
   690  0040                     ___flmul@sign:
   691                           
   692                           ; 1 bytes @ 0x20
   693  0040                     	ds	1
   694  0041                     ___flmul@aexp:
   695                           
   696                           ; 1 bytes @ 0x21
   697  0041                     	ds	1
   698  0042                     ___flmul@grs:
   699                           
   700                           ; 4 bytes @ 0x22
   701  0042                     	ds	4
   702  0046                     ___flmul@bexp:
   703                           
   704                           ; 1 bytes @ 0x26
   705  0046                     	ds	1
   706  0047                     ___flmul@prod:
   707                           
   708                           ; 4 bytes @ 0x27
   709  0047                     	ds	4
   710  004B                     ___flmul@temp:
   711                           
   712                           ; 2 bytes @ 0x2B
   713  004B                     	ds	2
   714  004D                     ?___fladd:
   715  004D                     ___fladd@b:	
   716                           ; 4 bytes @ 0x2D
   717                           
   718                           
   719                           ; 4 bytes @ 0x2D
   720  004D                     	ds	4
   721  0051                     ___fladd@a:
   722                           
   723                           ; 4 bytes @ 0x31
   724  0051                     	ds	4
   725  0055                     ??___fladd:
   726                           
   727                           ; 1 bytes @ 0x35
   728  0055                     	ds	8
   729  005D                     ___fladd@signs:
   730                           
   731                           ; 1 bytes @ 0x3D
   732  005D                     	ds	1
   733  005E                     ___fladd@aexp:
   734                           
   735                           ; 1 bytes @ 0x3E
   736  005E                     	ds	1
   737  005F                     ___fladd@bexp:
   738                           
   739                           ; 1 bytes @ 0x3F
   740  005F                     	ds	1
   741  0060                     ___fladd@grs:
   742                           
   743                           ; 1 bytes @ 0x40
   744  0060                     	ds	1
   745  0061                     ?_floor:
   746  0061                     ?_eval_poly:	
   747                           ; 4 bytes @ 0x41
   748                           
   749  0061                     ?___flsub:	
   750                           ; 4 bytes @ 0x41
   751                           
   752  0061                     ___flsub@a:	
   753                           ; 4 bytes @ 0x41
   754                           
   755  0061                     eval_poly@x:	
   756                           ; 4 bytes @ 0x41
   757                           
   758  0061                     floor@x:	
   759                           ; 4 bytes @ 0x41
   760                           
   761                           
   762                           ; 4 bytes @ 0x41
   763  0061                     	ds	4
   764  0065                     ??_floor:
   765  0065                     eval_poly@d:	
   766                           ; 1 bytes @ 0x45
   767                           
   768  0065                     ___flsub@b:	
   769                           ; 1 bytes @ 0x45
   770                           
   771                           
   772                           ; 4 bytes @ 0x45
   773  0065                     	ds	1
   774  0066                     eval_poly@n:
   775  0066                     floor@i:	
   776                           ; 2 bytes @ 0x46
   777                           
   778                           
   779                           ; 4 bytes @ 0x46
   780  0066                     	ds	2
   781  0068                     ??_eval_poly:
   782                           
   783                           ; 1 bytes @ 0x48
   784  0068                     	ds	2
   785  006A                     floor@expon:
   786                           
   787                           ; 2 bytes @ 0x4A
   788  006A                     	ds	3
   789  006D                     ??_log:
   790  006D                     ??_ldexp:	
   791                           ; 1 bytes @ 0x4D
   792                           
   793                           
   794                           ; 1 bytes @ 0x4D
   795  006D                     	ds	1
   796  006E                     log@exponent:
   797                           
   798                           ; 2 bytes @ 0x4E
   799  006E                     	ds	2
   800                           
   801                           	psect	maintext
   802  137D                     __pmaintext:	
   803 ;;
   804 ;;Main: autosize = 0, tempsize = 0, incstack = 0, save=0
   805 ;;
   806 ;; *************** function _main *****************
   807 ;; Defined at:
   808 ;;		line 87 in file "Juego_Carrera.c"
   809 ;; Parameters:    Size  Location     Type
   810 ;;		None
   811 ;; Auto vars:     Size  Location     Type
   812 ;;		None
   813 ;; Return value:  Size  Location     Type
   814 ;;                  1    wreg      void 
   815 ;; Registers used:
   816 ;;		wreg, fsr0l, fsr0h, status,2, status,0, btemp+1, pclath, cstack
   817 ;; Tracked objects:
   818 ;;		On entry : B00/0
   819 ;;		On exit  : 0/0
   820 ;;		Unchanged: 0/0
   821 ;; Data sizes:     COMMON   BANK0   BANK1   BANK3   BANK2
   822 ;;      Params:         0       0       0       0       0
   823 ;;      Locals:         0       0       0       0       0
   824 ;;      Temps:          0       0       0       0       0
   825 ;;      Totals:         0       0       0       0       0
   826 ;;Total ram usage:        0 bytes
   827 ;; Hardware stack levels required when called:    6
   828 ;; This function calls:
   829 ;;		_jugador_1
   830 ;;		_jugador_2
   831 ;;		_semaforo
   832 ;;		_setup
   833 ;;		_verde
   834 ;; This function is called by:
   835 ;;		Startup code after reset
   836 ;; This function uses a non-reentrant model
   837 ;;
   838                           
   839                           
   840                           ;psect for function _main
   841  137D                     _main:
   842  137D                     l3403:	
   843                           ;incstack = 0
   844                           ; Regs used in _main: [wreg-fsr0h+status,2+status,0+btemp+1+pclath+cstack]
   845                           
   846                           
   847                           ;Juego_Carrera.c: 88:     setup();
   848  137D  120A  118A  2003  160A  118A  	fcall	_setup
   849  1382                     l3405:
   850                           
   851                           ;Juego_Carrera.c: 95:         if (PORTBbits.RB0 == 0)
   852  1382  1283               	bcf	3,5	;RP0=0, select bank0
   853  1383  1303               	bcf	3,6	;RP1=0, select bank0
   854  1384  1806               	btfsc	6,0	;volatile
   855  1385  2B87               	goto	u5451
   856  1386  2B88               	goto	u5450
   857  1387                     u5451:
   858  1387  2B99               	goto	l3415
   859  1388                     u5450:
   860  1388                     l3407:
   861                           
   862                           ;Juego_Carrera.c: 96:         {;Juego_Carrera.c: 97:             if (PORTAbits.RA2 == 0)
   863  1388  1905               	btfsc	5,2	;volatile
   864  1389  2B8B               	goto	u5461
   865  138A  2B8C               	goto	u5460
   866  138B                     u5461:
   867  138B  2B99               	goto	l3415
   868  138C                     u5460:
   869  138C                     l3409:
   870                           
   871                           ;Juego_Carrera.c: 98:             {;Juego_Carrera.c: 99:                 semaforo();
   872  138C  160A  118A  2333  160A  118A  	fcall	_semaforo
   873  1391                     l3411:
   874                           
   875                           ;Juego_Carrera.c: 100:                 verde();
   876  1391  160A  118A  231A  160A  118A  	fcall	_verde
   877  1396                     l3413:
   878                           
   879                           ;Juego_Carrera.c: 101:                 PORTAbits.RA2 = 1;
   880  1396  1283               	bcf	3,5	;RP0=0, select bank0
   881  1397  1303               	bcf	3,6	;RP1=0, select bank0
   882  1398  1505               	bsf	5,2	;volatile
   883  1399                     l3415:
   884                           
   885                           ;Juego_Carrera.c: 104:         if (PORTAbits.RA0 == 0 && PORTAbits.RA1 == 0)
   886  1399  1805               	btfsc	5,0	;volatile
   887  139A  2B9C               	goto	u5471
   888  139B  2B9D               	goto	u5470
   889  139C                     u5471:
   890  139C  2B82               	goto	l3405
   891  139D                     u5470:
   892  139D                     l3417:
   893  139D  1885               	btfsc	5,1	;volatile
   894  139E  2BA0               	goto	u5481
   895  139F  2BA1               	goto	u5480
   896  13A0                     u5481:
   897  13A0  2B82               	goto	l3405
   898  13A1                     u5480:
   899  13A1                     l3419:
   900                           
   901                           ;Juego_Carrera.c: 105:         {;Juego_Carrera.c: 106:             if (PORTAbits.RA0 == 
      +                          1)
   902  13A1  1C05               	btfss	5,0	;volatile
   903  13A2  2BA4               	goto	u5491
   904  13A3  2BA5               	goto	u5490
   905  13A4                     u5491:
   906  13A4  2BA7               	goto	l72
   907  13A5                     u5490:
   908  13A5                     l3421:
   909                           
   910                           ;Juego_Carrera.c: 107:             {;Juego_Carrera.c: 108:                 PORTBbits.RB2
      +                           = 0;
   911  13A5  1106               	bcf	6,2	;volatile
   912                           
   913                           ;Juego_Carrera.c: 109:             }
   914  13A6  2B82               	goto	l3405
   915  13A7                     l72:	
   916                           ;Juego_Carrera.c: 110:             else if (PORTAbits.RA1 == 1)
   917                           
   918  13A7  1C85               	btfss	5,1	;volatile
   919  13A8  2BAA               	goto	u5501
   920  13A9  2BAB               	goto	u5500
   921  13AA                     u5501:
   922  13AA  2BAD               	goto	l3425
   923  13AB                     u5500:
   924  13AB                     l3423:
   925                           
   926                           ;Juego_Carrera.c: 111:             {;Juego_Carrera.c: 112:                 PORTBbits.RB1
      +                           = 0;
   927  13AB  1086               	bcf	6,1	;volatile
   928                           
   929                           ;Juego_Carrera.c: 113:             }
   930  13AC  2B82               	goto	l3405
   931  13AD                     l3425:
   932                           
   933                           ;Juego_Carrera.c: 115:             {;Juego_Carrera.c: 116:                 jugador_1();
   934  13AD  160A  118A  2682  160A  118A  	fcall	_jugador_1
   935                           
   936                           ;Juego_Carrera.c: 117:                 jugador_2();
   937  13B2  160A  118A  2741  160A  118A  	fcall	_jugador_2
   938  13B7  2B82               	goto	l3405
   939  13B8  120A  118A  2800   	ljmp	start
   940  13BB                     __end_of_main:
   941                           
   942                           	psect	text1
   943  131A                     __ptext1:	
   944 ;; *************** function _verde *****************
   945 ;; Defined at:
   946 ;;		line 140 in file "Juego_Carrera.c"
   947 ;; Parameters:    Size  Location     Type
   948 ;;		None
   949 ;; Auto vars:     Size  Location     Type
   950 ;;		None
   951 ;; Return value:  Size  Location     Type
   952 ;;                  1    wreg      void 
   953 ;; Registers used:
   954 ;;		None
   955 ;; Tracked objects:
   956 ;;		On entry : 0/0
   957 ;;		On exit  : 0/0
   958 ;;		Unchanged: 0/0
   959 ;; Data sizes:     COMMON   BANK0   BANK1   BANK3   BANK2
   960 ;;      Params:         0       0       0       0       0
   961 ;;      Locals:         0       0       0       0       0
   962 ;;      Temps:          0       0       0       0       0
   963 ;;      Totals:         0       0       0       0       0
   964 ;;Total ram usage:        0 bytes
   965 ;; Hardware stack levels used:    1
   966 ;; This function calls:
   967 ;;		Nothing
   968 ;; This function is called by:
   969 ;;		_main
   970 ;; This function uses a non-reentrant model
   971 ;;
   972                           
   973                           
   974                           ;psect for function _verde
   975  131A                     _verde:
   976  131A                     l1667:	
   977                           ;incstack = 0
   978                           ; Regs used in _verde: []
   979                           
   980                           
   981                           ;Juego_Carrera.c: 141:     PORTEbits.RE2 = 1;
   982  131A  1283               	bcf	3,5	;RP0=0, select bank0
   983  131B  1303               	bcf	3,6	;RP1=0, select bank0
   984  131C  1509               	bsf	9,2	;volatile
   985                           
   986                           ;Juego_Carrera.c: 142:     PORTEbits.RE0 = 0;
   987  131D  1009               	bcf	9,0	;volatile
   988                           
   989                           ;Juego_Carrera.c: 143:     PORTEbits.RE1 = 0;
   990  131E  1089               	bcf	9,1	;volatile
   991  131F                     l84:
   992  131F  0008               	return
   993  1320                     __end_of_verde:
   994                           
   995                           	psect	text2
   996  0003                     __ptext2:	
   997 ;; *************** function _setup *****************
   998 ;; Defined at:
   999 ;;		line 43 in file "Juego_Carrera.c"
  1000 ;; Parameters:    Size  Location     Type
  1001 ;;		None
  1002 ;; Auto vars:     Size  Location     Type
  1003 ;;		None
  1004 ;; Return value:  Size  Location     Type
  1005 ;;                  1    wreg      void 
  1006 ;; Registers used:
  1007 ;;		wreg, status,2
  1008 ;; Tracked objects:
  1009 ;;		On entry : 0/0
  1010 ;;		On exit  : 0/0
  1011 ;;		Unchanged: 0/0
  1012 ;; Data sizes:     COMMON   BANK0   BANK1   BANK3   BANK2
  1013 ;;      Params:         0       0       0       0       0
  1014 ;;      Locals:         0       0       0       0       0
  1015 ;;      Temps:          0       0       0       0       0
  1016 ;;      Totals:         0       0       0       0       0
  1017 ;;Total ram usage:        0 bytes
  1018 ;; Hardware stack levels used:    1
  1019 ;; This function calls:
  1020 ;;		Nothing
  1021 ;; This function is called by:
  1022 ;;		_main
  1023 ;; This function uses a non-reentrant model
  1024 ;;
  1025                           
  1026                           
  1027                           ;psect for function _setup
  1028  0003                     _setup:
  1029  0003                     l1637:	
  1030                           ;incstack = 0
  1031                           ; Regs used in _setup: [wreg+status,2]
  1032                           
  1033                           
  1034                           ;Juego_Carrera.c: 44:     TRISE = 0;
  1035  0003  1683               	bsf	3,5	;RP0=1, select bank1
  1036  0004  1303               	bcf	3,6	;RP1=0, select bank1
  1037  0005  0189               	clrf	9	;volatile
  1038                           
  1039                           ;Juego_Carrera.c: 45:     PORTE = 0;
  1040  0006  1283               	bcf	3,5	;RP0=0, select bank0
  1041  0007  1303               	bcf	3,6	;RP1=0, select bank0
  1042  0008  0189               	clrf	9	;volatile
  1043                           
  1044                           ;Juego_Carrera.c: 46:     ANSEL = 0;
  1045  0009  1683               	bsf	3,5	;RP0=1, select bank3
  1046  000A  1703               	bsf	3,6	;RP1=1, select bank3
  1047  000B  0188               	clrf	8	;volatile
  1048                           
  1049                           ;Juego_Carrera.c: 47:     ANSELH = 0;
  1050  000C  0189               	clrf	9	;volatile
  1051  000D                     l1639:
  1052                           
  1053                           ;Juego_Carrera.c: 48:     TRISB = 0b00000111;
  1054  000D  3007               	movlw	7
  1055  000E  1683               	bsf	3,5	;RP0=1, select bank1
  1056  000F  1303               	bcf	3,6	;RP1=0, select bank1
  1057  0010  0086               	movwf	6	;volatile
  1058  0011                     l1641:
  1059                           
  1060                           ;Juego_Carrera.c: 49:     PORTB = 0;
  1061  0011  1283               	bcf	3,5	;RP0=0, select bank0
  1062  0012  1303               	bcf	3,6	;RP1=0, select bank0
  1063  0013  0186               	clrf	6	;volatile
  1064  0014                     l1643:
  1065                           
  1066                           ;Juego_Carrera.c: 50:     TRISC = 0;
  1067  0014  1683               	bsf	3,5	;RP0=1, select bank1
  1068  0015  1303               	bcf	3,6	;RP1=0, select bank1
  1069  0016  0187               	clrf	7	;volatile
  1070  0017                     l1645:
  1071                           
  1072                           ;Juego_Carrera.c: 51:     PORTC = 0;
  1073  0017  1283               	bcf	3,5	;RP0=0, select bank0
  1074  0018  1303               	bcf	3,6	;RP1=0, select bank0
  1075  0019  0187               	clrf	7	;volatile
  1076  001A                     l1647:
  1077                           
  1078                           ;Juego_Carrera.c: 52:     TRISD = 0;
  1079  001A  1683               	bsf	3,5	;RP0=1, select bank1
  1080  001B  1303               	bcf	3,6	;RP1=0, select bank1
  1081  001C  0188               	clrf	8	;volatile
  1082  001D                     l1649:
  1083                           
  1084                           ;Juego_Carrera.c: 53:     PORTD = 0;
  1085  001D  1283               	bcf	3,5	;RP0=0, select bank0
  1086  001E  1303               	bcf	3,6	;RP1=0, select bank0
  1087  001F  0188               	clrf	8	;volatile
  1088  0020                     l1651:
  1089                           
  1090                           ;Juego_Carrera.c: 54:     TRISA = 0;
  1091  0020  1683               	bsf	3,5	;RP0=1, select bank1
  1092  0021  1303               	bcf	3,6	;RP1=0, select bank1
  1093  0022  0185               	clrf	5	;volatile
  1094  0023                     l1653:
  1095                           
  1096                           ;Juego_Carrera.c: 55:     PORTA = 0;
  1097  0023  1283               	bcf	3,5	;RP0=0, select bank0
  1098  0024  1303               	bcf	3,6	;RP1=0, select bank0
  1099  0025  0185               	clrf	5	;volatile
  1100  0026                     l47:
  1101  0026  0008               	return
  1102  0027                     __end_of_setup:
  1103                           
  1104                           	psect	text3
  1105  1333                     __ptext3:	
  1106 ;; *************** function _semaforo *****************
  1107 ;; Defined at:
  1108 ;;		line 129 in file "Juego_Carrera.c"
  1109 ;; Parameters:    Size  Location     Type
  1110 ;;		None
  1111 ;; Auto vars:     Size  Location     Type
  1112 ;;		None
  1113 ;; Return value:  Size  Location     Type
  1114 ;;                  1    wreg      void 
  1115 ;; Registers used:
  1116 ;;		wreg
  1117 ;; Tracked objects:
  1118 ;;		On entry : 0/0
  1119 ;;		On exit  : 0/0
  1120 ;;		Unchanged: 0/0
  1121 ;; Data sizes:     COMMON   BANK0   BANK1   BANK3   BANK2
  1122 ;;      Params:         0       0       0       0       0
  1123 ;;      Locals:         0       0       0       0       0
  1124 ;;      Temps:          3       0       0       0       0
  1125 ;;      Totals:         3       0       0       0       0
  1126 ;;Total ram usage:        3 bytes
  1127 ;; Hardware stack levels used:    1
  1128 ;; This function calls:
  1129 ;;		Nothing
  1130 ;; This function is called by:
  1131 ;;		_main
  1132 ;; This function uses a non-reentrant model
  1133 ;;
  1134                           
  1135                           
  1136                           ;psect for function _semaforo
  1137  1333                     _semaforo:
  1138  1333                     l1655:	
  1139                           ;incstack = 0
  1140                           ; Regs used in _semaforo: [wreg]
  1141                           
  1142                           
  1143                           ;Juego_Carrera.c: 130:     PORTEbits.RE0 = 1;
  1144  1333  1283               	bcf	3,5	;RP0=0, select bank0
  1145  1334  1303               	bcf	3,6	;RP1=0, select bank0
  1146  1335  1409               	bsf	9,0	;volatile
  1147  1336                     l1657:
  1148                           
  1149                           ;Juego_Carrera.c: 131:     _delay((unsigned long)((700)*(8000000/4000.0)));
  1150  1336  3008               	movlw	8
  1151  1337  00F2               	movwf	??_semaforo+2
  1152  1338  301B               	movlw	27
  1153  1339  00F1               	movwf	??_semaforo+1
  1154  133A  3027               	movlw	39
  1155  133B  00F0               	movwf	??_semaforo
  1156  133C                     u5517:
  1157  133C  0BF0               	decfsz	??_semaforo,f
  1158  133D  2B3C               	goto	u5517
  1159  133E  0BF1               	decfsz	??_semaforo+1,f
  1160  133F  2B3C               	goto	u5517
  1161  1340  0BF2               	decfsz	??_semaforo+2,f
  1162  1341  2B3C               	goto	u5517
  1163  1342                     l1659:
  1164                           
  1165                           ;Juego_Carrera.c: 132:     PORTEbits.RE0 = 0;
  1166  1342  1283               	bcf	3,5	;RP0=0, select bank0
  1167  1343  1303               	bcf	3,6	;RP1=0, select bank0
  1168  1344  1009               	bcf	9,0	;volatile
  1169  1345                     l1661:
  1170                           
  1171                           ;Juego_Carrera.c: 133:     PORTEbits.RE1 = 1;
  1172  1345  1489               	bsf	9,1	;volatile
  1173                           
  1174                           ;Juego_Carrera.c: 134:     _delay((unsigned long)((700)*(8000000/4000.0)));
  1175  1346  3008               	movlw	8
  1176  1347  00F2               	movwf	??_semaforo+2
  1177  1348  301B               	movlw	27
  1178  1349  00F1               	movwf	??_semaforo+1
  1179  134A  3027               	movlw	39
  1180  134B  00F0               	movwf	??_semaforo
  1181  134C                     u5527:
  1182  134C  0BF0               	decfsz	??_semaforo,f
  1183  134D  2B4C               	goto	u5527
  1184  134E  0BF1               	decfsz	??_semaforo+1,f
  1185  134F  2B4C               	goto	u5527
  1186  1350  0BF2               	decfsz	??_semaforo+2,f
  1187  1351  2B4C               	goto	u5527
  1188  1352                     l1663:
  1189                           
  1190                           ;Juego_Carrera.c: 135:     PORTEbits.RE1 = 0;
  1191  1352  1283               	bcf	3,5	;RP0=0, select bank0
  1192  1353  1303               	bcf	3,6	;RP1=0, select bank0
  1193  1354  1089               	bcf	9,1	;volatile
  1194  1355                     l81:
  1195  1355  0008               	return
  1196  1356                     __end_of_semaforo:
  1197                           
  1198                           	psect	text4
  1199  1741                     __ptext4:	
  1200 ;; *************** function _jugador_2 *****************
  1201 ;; Defined at:
  1202 ;;		line 184 in file "Juego_Carrera.c"
  1203 ;; Parameters:    Size  Location     Type
  1204 ;;		None
  1205 ;; Auto vars:     Size  Location     Type
  1206 ;;		None
  1207 ;; Return value:  Size  Location     Type
  1208 ;;                  1    wreg      void 
  1209 ;; Registers used:
  1210 ;;		wreg, fsr0l, fsr0h, status,2, status,0, btemp+1, pclath, cstack
  1211 ;; Tracked objects:
  1212 ;;		On entry : 0/0
  1213 ;;		On exit  : 0/0
  1214 ;;		Unchanged: 0/0
  1215 ;; Data sizes:     COMMON   BANK0   BANK1   BANK3   BANK2
  1216 ;;      Params:         0       0       0       0       0
  1217 ;;      Locals:         0       0       8       0       0
  1218 ;;      Temps:          0       0       0       0       0
  1219 ;;      Totals:         0       0       8       0       0
  1220 ;;Total ram usage:        8 bytes
  1221 ;; Hardware stack levels used:    1
  1222 ;; Hardware stack levels required when called:    5
  1223 ;; This function calls:
  1224 ;;		___fltol
  1225 ;;		___xxtofl
  1226 ;;		_pow
  1227 ;; This function is called by:
  1228 ;;		_main
  1229 ;; This function uses a non-reentrant model
  1230 ;;
  1231                           
  1232                           
  1233                           ;psect for function _jugador_2
  1234  1741                     _jugador_2:
  1235  1741                     l3367:	
  1236                           ;incstack = 0
  1237                           ; Regs used in _jugador_2: [wreg-fsr0h+status,2+status,0+btemp+1+pclath+cstack]
  1238                           
  1239                           
  1240                           ;Juego_Carrera.c: 186:     if (PORTAbits.RA2 == 1)
  1241  1741  1283               	bcf	3,5	;RP0=0, select bank0
  1242  1742  1303               	bcf	3,6	;RP1=0, select bank0
  1243  1743  1D05               	btfss	5,2	;volatile
  1244  1744  2F46               	goto	u5391
  1245  1745  2F47               	goto	u5390
  1246  1746                     u5391:
  1247  1746  2FFF               	goto	l104
  1248  1747                     u5390:
  1249  1747                     l3369:
  1250                           
  1251                           ;Juego_Carrera.c: 187:     {;Juego_Carrera.c: 188:         if (PORTBbits.RB2 == 0)
  1252  1747  1906               	btfsc	6,2	;volatile
  1253  1748  2F4A               	goto	u5401
  1254  1749  2F4B               	goto	u5400
  1255  174A                     u5401:
  1256  174A  2FE0               	goto	l3395
  1257  174B                     u5400:
  1258  174B                     l3371:
  1259                           
  1260                           ;Juego_Carrera.c: 189:         {;Juego_Carrera.c: 190:             pressed_ok2 = pressed
      +                          _ok2 + 1;
  1261  174B  1683               	bsf	3,5	;RP0=1, select bank1
  1262  174C  1303               	bcf	3,6	;RP1=0, select bank1
  1263  174D  085C               	movf	_pressed_ok2^(0+128),w
  1264  174E  3E01               	addlw	1
  1265  174F  00DC               	movwf	_pressed_ok2^(0+128)
  1266  1750  085D               	movf	(_pressed_ok2+1)^(0+128),w
  1267  1751  1803               	skipnc
  1268  1752  3E01               	addlw	1
  1269  1753  3E00               	addlw	0
  1270  1754  00DD               	movwf	(_pressed_ok2+1)^(0+128)
  1271  1755                     l3373:
  1272                           
  1273                           ;Juego_Carrera.c: 191:             released_ok2 = 0;
  1274  1755  01DA               	clrf	_released_ok2^(0+128)
  1275  1756  01DB               	clrf	(_released_ok2+1)^(0+128)
  1276  1757                     l3375:
  1277                           
  1278                           ;Juego_Carrera.c: 192:             if (pressed_ok2 > 500)
  1279  1757  085D               	movf	(_pressed_ok2+1)^(0+128),w
  1280  1758  3A80               	xorlw	128
  1281  1759  00FF               	movwf	btemp+1
  1282  175A  3081               	movlw	129
  1283  175B  027F               	subwf	btemp+1,w
  1284  175C  1D03               	skipz
  1285  175D  2F60               	goto	u5415
  1286  175E  30F5               	movlw	245
  1287  175F  025C               	subwf	_pressed_ok2^(0+128),w
  1288  1760                     u5415:
  1289  1760  1C03               	skipc
  1290  1761  2F63               	goto	u5411
  1291  1762  2F64               	goto	u5410
  1292  1763                     u5411:
  1293  1763  2FFF               	goto	l104
  1294  1764                     u5410:
  1295  1764                     l3377:
  1296                           
  1297                           ;Juego_Carrera.c: 193:             {;Juego_Carrera.c: 194:                 if (presionad
      +                          o2 == 0)
  1298  1764  1683               	bsf	3,5	;RP0=1, select bank1
  1299  1765  1303               	bcf	3,6	;RP1=0, select bank1
  1300  1766  0858               	movf	_presionado2^(0+128),w
  1301  1767  0459               	iorwf	(_presionado2+1)^(0+128),w
  1302  1768  1D03               	btfss	3,2
  1303  1769  2F6B               	goto	u5421
  1304  176A  2F6C               	goto	u5420
  1305  176B                     u5421:
  1306  176B  2FDB               	goto	l3393
  1307  176C                     u5420:
  1308  176C                     l3379:
  1309                           
  1310                           ;Juego_Carrera.c: 195:                 {;Juego_Carrera.c: 196:                     PORTD
      +                           = pow(2,i2);
  1311  176C  0856               	movf	_i2^(0+128),w
  1312  176D  00F0               	movwf	___xxtofl@val
  1313  176E  0857               	movf	(_i2+1)^(0+128),w
  1314  176F  00F1               	movwf	___xxtofl@val+1
  1315  1770  3000               	movlw	0
  1316  1771  1BF1               	btfsc	___xxtofl@val+1,7
  1317  1772  30FF               	movlw	255
  1318  1773  00F2               	movwf	___xxtofl@val+2
  1319  1774  00F3               	movwf	___xxtofl@val+3
  1320  1775  3001               	movlw	1
  1321  1776  160A  118A  2509  160A  118A  	fcall	___xxtofl
  1322  177B  0873               	movf	?___xxtofl+3,w
  1323  177C  1683               	bsf	3,5	;RP0=1, select bank1
  1324  177D  1303               	bcf	3,6	;RP1=0, select bank1
  1325  177E  00CF               	movwf	(_jugador_2$855+3)^(0+128)
  1326  177F  0872               	movf	?___xxtofl+2,w
  1327  1780  00CE               	movwf	(_jugador_2$855+2)^(0+128)
  1328  1781  0871               	movf	?___xxtofl+1,w
  1329  1782  00CD               	movwf	(_jugador_2$855+1)^(0+128)
  1330  1783  0870               	movf	?___xxtofl,w
  1331  1784  00CC               	movwf	_jugador_2$855^(0+128)
  1332  1785                     l3381:
  1333                           
  1334                           ;Juego_Carrera.c: 195:                 {;Juego_Carrera.c: 196:                     PORTD
      +                           = pow(2,i2);
  1335  1785  084F               	movf	(_jugador_2$855+3)^(0+128),w
  1336  1786  00BD               	movwf	(pow@y+3)^(0+128)
  1337  1787  084E               	movf	(_jugador_2$855+2)^(0+128),w
  1338  1788  00BC               	movwf	(pow@y+2)^(0+128)
  1339  1789  084D               	movf	(_jugador_2$855+1)^(0+128),w
  1340  178A  00BB               	movwf	(pow@y+1)^(0+128)
  1341  178B  084C               	movf	_jugador_2$855^(0+128),w
  1342  178C  00BA               	movwf	pow@y^(0+128)
  1343  178D  3040               	movlw	64
  1344  178E  00B9               	movwf	(pow@x+3)^(0+128)
  1345  178F  3000               	movlw	0
  1346  1790  00B8               	movwf	(pow@x+2)^(0+128)
  1347  1791  3000               	movlw	0
  1348  1792  00B7               	movwf	(pow@x+1)^(0+128)
  1349  1793  3000               	movlw	0
  1350  1794  00B6               	movwf	pow@x^(0+128)
  1351  1795  120A  158A  23CE  160A  118A  	fcall	_pow
  1352  179A  1683               	bsf	3,5	;RP0=1, select bank1
  1353  179B  1303               	bcf	3,6	;RP1=0, select bank1
  1354  179C  0839               	movf	(?_pow+3)^(0+128),w
  1355  179D  00D3               	movwf	(_jugador_2$856+3)^(0+128)
  1356  179E  0838               	movf	(?_pow+2)^(0+128),w
  1357  179F  00D2               	movwf	(_jugador_2$856+2)^(0+128)
  1358  17A0  0837               	movf	(?_pow+1)^(0+128),w
  1359  17A1  00D1               	movwf	(_jugador_2$856+1)^(0+128)
  1360  17A2  0836               	movf	?_pow^(0+128),w
  1361  17A3  00D0               	movwf	_jugador_2$856^(0+128)
  1362  17A4                     l3383:
  1363                           
  1364                           ;Juego_Carrera.c: 195:                 {;Juego_Carrera.c: 196:                     PORTD
      +                           = pow(2,i2);
  1365  17A4  0853               	movf	(_jugador_2$856+3)^(0+128),w
  1366  17A5  1283               	bcf	3,5	;RP0=0, select bank0
  1367  17A6  1303               	bcf	3,6	;RP1=0, select bank0
  1368  17A7  00A3               	movwf	___fltol@f1+3
  1369  17A8  1683               	bsf	3,5	;RP0=1, select bank1
  1370  17A9  1303               	bcf	3,6	;RP1=0, select bank1
  1371  17AA  0852               	movf	(_jugador_2$856+2)^(0+128),w
  1372  17AB  1283               	bcf	3,5	;RP0=0, select bank0
  1373  17AC  1303               	bcf	3,6	;RP1=0, select bank0
  1374  17AD  00A2               	movwf	___fltol@f1+2
  1375  17AE  1683               	bsf	3,5	;RP0=1, select bank1
  1376  17AF  1303               	bcf	3,6	;RP1=0, select bank1
  1377  17B0  0851               	movf	(_jugador_2$856+1)^(0+128),w
  1378  17B1  1283               	bcf	3,5	;RP0=0, select bank0
  1379  17B2  1303               	bcf	3,6	;RP1=0, select bank0
  1380  17B3  00A1               	movwf	___fltol@f1+1
  1381  17B4  1683               	bsf	3,5	;RP0=1, select bank1
  1382  17B5  1303               	bcf	3,6	;RP1=0, select bank1
  1383  17B6  0850               	movf	_jugador_2$856^(0+128),w
  1384  17B7  1283               	bcf	3,5	;RP0=0, select bank0
  1385  17B8  1303               	bcf	3,6	;RP1=0, select bank0
  1386  17B9  00A0               	movwf	___fltol@f1
  1387  17BA  120A  158A  2024  160A  118A  	fcall	___fltol
  1388  17BF  1283               	bcf	3,5	;RP0=0, select bank0
  1389  17C0  1303               	bcf	3,6	;RP1=0, select bank0
  1390  17C1  0820               	movf	?___fltol,w
  1391  17C2  0088               	movwf	8	;volatile
  1392  17C3                     l3385:
  1393                           
  1394                           ;Juego_Carrera.c: 197:                     i2 = i2 + 1;
  1395  17C3  1683               	bsf	3,5	;RP0=1, select bank1
  1396  17C4  1303               	bcf	3,6	;RP1=0, select bank1
  1397  17C5  0856               	movf	_i2^(0+128),w
  1398  17C6  3E01               	addlw	1
  1399  17C7  00D6               	movwf	_i2^(0+128)
  1400  17C8  0857               	movf	(_i2+1)^(0+128),w
  1401  17C9  1803               	skipnc
  1402  17CA  3E01               	addlw	1
  1403  17CB  3E00               	addlw	0
  1404  17CC  00D7               	movwf	(_i2+1)^(0+128)
  1405  17CD                     l3387:
  1406                           
  1407                           ;Juego_Carrera.c: 198:                     presionado2 = 1;
  1408  17CD  3001               	movlw	1
  1409  17CE  00D8               	movwf	_presionado2^(0+128)
  1410  17CF  3000               	movlw	0
  1411  17D0  00D9               	movwf	(_presionado2^(0+128)+1)
  1412  17D1                     l3389:
  1413                           
  1414                           ;Juego_Carrera.c: 199:                     if (i2 == 8)
  1415  17D1  3008               	movlw	8
  1416  17D2  0656               	xorwf	_i2^(0+128),w
  1417  17D3  0457               	iorwf	(_i2+1)^(0+128),w
  1418  17D4  1D03               	btfss	3,2
  1419  17D5  2FD7               	goto	u5431
  1420  17D6  2FD8               	goto	u5430
  1421  17D7                     u5431:
  1422  17D7  2FDB               	goto	l3393
  1423  17D8                     u5430:
  1424  17D8                     l3391:
  1425                           
  1426                           ;Juego_Carrera.c: 200:                     {;Juego_Carrera.c: 201:                      
      +                             PORTAbits.RA1 = 1;
  1427  17D8  1283               	bcf	3,5	;RP0=0, select bank0
  1428  17D9  1303               	bcf	3,6	;RP1=0, select bank0
  1429  17DA  1485               	bsf	5,1	;volatile
  1430  17DB                     l3393:
  1431                           
  1432                           ;Juego_Carrera.c: 204:                 pressed_ok2 = 0;
  1433  17DB  1683               	bsf	3,5	;RP0=1, select bank1
  1434  17DC  1303               	bcf	3,6	;RP1=0, select bank1
  1435  17DD  01DC               	clrf	_pressed_ok2^(0+128)
  1436  17DE  01DD               	clrf	(_pressed_ok2+1)^(0+128)
  1437  17DF  2FFF               	goto	l104
  1438  17E0                     l3395:
  1439                           
  1440                           ;Juego_Carrera.c: 208:         {;Juego_Carrera.c: 209:             released_ok2 = releas
      +                          ed_ok2 + 1;
  1441  17E0  1683               	bsf	3,5	;RP0=1, select bank1
  1442  17E1  1303               	bcf	3,6	;RP1=0, select bank1
  1443  17E2  085A               	movf	_released_ok2^(0+128),w
  1444  17E3  3E01               	addlw	1
  1445  17E4  00DA               	movwf	_released_ok2^(0+128)
  1446  17E5  085B               	movf	(_released_ok2+1)^(0+128),w
  1447  17E6  1803               	skipnc
  1448  17E7  3E01               	addlw	1
  1449  17E8  3E00               	addlw	0
  1450  17E9  00DB               	movwf	(_released_ok2+1)^(0+128)
  1451  17EA                     l3397:
  1452                           
  1453                           ;Juego_Carrera.c: 210:             pressed_ok2 = 0;
  1454  17EA  01DC               	clrf	_pressed_ok2^(0+128)
  1455  17EB  01DD               	clrf	(_pressed_ok2+1)^(0+128)
  1456  17EC                     l3399:
  1457                           
  1458                           ;Juego_Carrera.c: 211:             if (released_ok2 > 500)
  1459  17EC  085B               	movf	(_released_ok2+1)^(0+128),w
  1460  17ED  3A80               	xorlw	128
  1461  17EE  00FF               	movwf	btemp+1
  1462  17EF  3081               	movlw	129
  1463  17F0  027F               	subwf	btemp+1,w
  1464  17F1  1D03               	skipz
  1465  17F2  2FF5               	goto	u5445
  1466  17F3  30F5               	movlw	245
  1467  17F4  025A               	subwf	_released_ok2^(0+128),w
  1468  17F5                     u5445:
  1469  17F5  1C03               	skipc
  1470  17F6  2FF8               	goto	u5441
  1471  17F7  2FF9               	goto	u5440
  1472  17F8                     u5441:
  1473  17F8  2FFF               	goto	l104
  1474  17F9                     u5440:
  1475  17F9                     l3401:
  1476                           
  1477                           ;Juego_Carrera.c: 212:             {;Juego_Carrera.c: 213:                 presionado2 =
      +                           0;
  1478  17F9  1683               	bsf	3,5	;RP0=1, select bank1
  1479  17FA  1303               	bcf	3,6	;RP1=0, select bank1
  1480  17FB  01D8               	clrf	_presionado2^(0+128)
  1481  17FC  01D9               	clrf	(_presionado2+1)^(0+128)
  1482                           
  1483                           ;Juego_Carrera.c: 214:                 released_ok2 = 0;
  1484  17FD  01DA               	clrf	_released_ok2^(0+128)
  1485  17FE  01DB               	clrf	(_released_ok2+1)^(0+128)
  1486  17FF                     l104:
  1487  17FF  0008               	return
  1488  1800                     __end_of_jugador_2:
  1489                           
  1490                           	psect	text5
  1491  1682                     __ptext5:	
  1492 ;; *************** function _jugador_1 *****************
  1493 ;; Defined at:
  1494 ;;		line 148 in file "Juego_Carrera.c"
  1495 ;; Parameters:    Size  Location     Type
  1496 ;;		None
  1497 ;; Auto vars:     Size  Location     Type
  1498 ;;		None
  1499 ;; Return value:  Size  Location     Type
  1500 ;;                  1    wreg      void 
  1501 ;; Registers used:
  1502 ;;		wreg, fsr0l, fsr0h, status,2, status,0, btemp+1, pclath, cstack
  1503 ;; Tracked objects:
  1504 ;;		On entry : 0/0
  1505 ;;		On exit  : 0/0
  1506 ;;		Unchanged: 0/0
  1507 ;; Data sizes:     COMMON   BANK0   BANK1   BANK3   BANK2
  1508 ;;      Params:         0       0       0       0       0
  1509 ;;      Locals:         0       0       8       0       0
  1510 ;;      Temps:          0       0       0       0       0
  1511 ;;      Totals:         0       0       8       0       0
  1512 ;;Total ram usage:        8 bytes
  1513 ;; Hardware stack levels used:    1
  1514 ;; Hardware stack levels required when called:    5
  1515 ;; This function calls:
  1516 ;;		___fltol
  1517 ;;		___xxtofl
  1518 ;;		_pow
  1519 ;; This function is called by:
  1520 ;;		_main
  1521 ;; This function uses a non-reentrant model
  1522 ;;
  1523                           
  1524                           
  1525                           ;psect for function _jugador_1
  1526  1682                     _jugador_1:
  1527  1682                     l3331:	
  1528                           ;incstack = 0
  1529                           ; Regs used in _jugador_1: [wreg-fsr0h+status,2+status,0+btemp+1+pclath+cstack]
  1530                           
  1531                           
  1532                           ;Juego_Carrera.c: 150:     if (PORTAbits.RA2 == 1)
  1533  1682  1283               	bcf	3,5	;RP0=0, select bank0
  1534  1683  1303               	bcf	3,6	;RP1=0, select bank0
  1535  1684  1D05               	btfss	5,2	;volatile
  1536  1685  2E87               	goto	u5331
  1537  1686  2E88               	goto	u5330
  1538  1687                     u5331:
  1539  1687  2F40               	goto	l94
  1540  1688                     u5330:
  1541  1688                     l3333:
  1542                           
  1543                           ;Juego_Carrera.c: 151:     {;Juego_Carrera.c: 152:         if (PORTBbits.RB1 == 0)
  1544  1688  1886               	btfsc	6,1	;volatile
  1545  1689  2E8B               	goto	u5341
  1546  168A  2E8C               	goto	u5340
  1547  168B                     u5341:
  1548  168B  2F21               	goto	l3359
  1549  168C                     u5340:
  1550  168C                     l3335:
  1551                           
  1552                           ;Juego_Carrera.c: 153:         {;Juego_Carrera.c: 154:             pressed_ok = pressed_
      +                          ok + 1;
  1553  168C  1683               	bsf	3,5	;RP0=1, select bank1
  1554  168D  1303               	bcf	3,6	;RP1=0, select bank1
  1555  168E  0864               	movf	_pressed_ok^(0+128),w
  1556  168F  3E01               	addlw	1
  1557  1690  00E4               	movwf	_pressed_ok^(0+128)
  1558  1691  0865               	movf	(_pressed_ok+1)^(0+128),w
  1559  1692  1803               	skipnc
  1560  1693  3E01               	addlw	1
  1561  1694  3E00               	addlw	0
  1562  1695  00E5               	movwf	(_pressed_ok+1)^(0+128)
  1563  1696                     l3337:
  1564                           
  1565                           ;Juego_Carrera.c: 155:             released_ok = 0;
  1566  1696  01E2               	clrf	_released_ok^(0+128)
  1567  1697  01E3               	clrf	(_released_ok+1)^(0+128)
  1568  1698                     l3339:
  1569                           
  1570                           ;Juego_Carrera.c: 156:             if (pressed_ok > 500)
  1571  1698  0865               	movf	(_pressed_ok+1)^(0+128),w
  1572  1699  3A80               	xorlw	128
  1573  169A  00FF               	movwf	btemp+1
  1574  169B  3081               	movlw	129
  1575  169C  027F               	subwf	btemp+1,w
  1576  169D  1D03               	skipz
  1577  169E  2EA1               	goto	u5355
  1578  169F  30F5               	movlw	245
  1579  16A0  0264               	subwf	_pressed_ok^(0+128),w
  1580  16A1                     u5355:
  1581  16A1  1C03               	skipc
  1582  16A2  2EA4               	goto	u5351
  1583  16A3  2EA5               	goto	u5350
  1584  16A4                     u5351:
  1585  16A4  2F40               	goto	l94
  1586  16A5                     u5350:
  1587  16A5                     l3341:
  1588                           
  1589                           ;Juego_Carrera.c: 157:             {;Juego_Carrera.c: 158:                 if (presionad
      +                          o == 0)
  1590  16A5  1683               	bsf	3,5	;RP0=1, select bank1
  1591  16A6  1303               	bcf	3,6	;RP1=0, select bank1
  1592  16A7  0860               	movf	_presionado^(0+128),w
  1593  16A8  0461               	iorwf	(_presionado+1)^(0+128),w
  1594  16A9  1D03               	btfss	3,2
  1595  16AA  2EAC               	goto	u5361
  1596  16AB  2EAD               	goto	u5360
  1597  16AC                     u5361:
  1598  16AC  2F1C               	goto	l3357
  1599  16AD                     u5360:
  1600  16AD                     l3343:
  1601                           
  1602                           ;Juego_Carrera.c: 159:                 {;Juego_Carrera.c: 160:                     PORTC
      +                           = pow(2,i);
  1603  16AD  085E               	movf	_i^(0+128),w
  1604  16AE  00F0               	movwf	___xxtofl@val
  1605  16AF  085F               	movf	(_i+1)^(0+128),w
  1606  16B0  00F1               	movwf	___xxtofl@val+1
  1607  16B1  3000               	movlw	0
  1608  16B2  1BF1               	btfsc	___xxtofl@val+1,7
  1609  16B3  30FF               	movlw	255
  1610  16B4  00F2               	movwf	___xxtofl@val+2
  1611  16B5  00F3               	movwf	___xxtofl@val+3
  1612  16B6  3001               	movlw	1
  1613  16B7  160A  118A  2509  160A  118A  	fcall	___xxtofl
  1614  16BC  0873               	movf	?___xxtofl+3,w
  1615  16BD  1683               	bsf	3,5	;RP0=1, select bank1
  1616  16BE  1303               	bcf	3,6	;RP1=0, select bank1
  1617  16BF  00CF               	movwf	(_jugador_1$853+3)^(0+128)
  1618  16C0  0872               	movf	?___xxtofl+2,w
  1619  16C1  00CE               	movwf	(_jugador_1$853+2)^(0+128)
  1620  16C2  0871               	movf	?___xxtofl+1,w
  1621  16C3  00CD               	movwf	(_jugador_1$853+1)^(0+128)
  1622  16C4  0870               	movf	?___xxtofl,w
  1623  16C5  00CC               	movwf	_jugador_1$853^(0+128)
  1624  16C6                     l3345:
  1625                           
  1626                           ;Juego_Carrera.c: 159:                 {;Juego_Carrera.c: 160:                     PORTC
      +                           = pow(2,i);
  1627  16C6  084F               	movf	(_jugador_1$853+3)^(0+128),w
  1628  16C7  00BD               	movwf	(pow@y+3)^(0+128)
  1629  16C8  084E               	movf	(_jugador_1$853+2)^(0+128),w
  1630  16C9  00BC               	movwf	(pow@y+2)^(0+128)
  1631  16CA  084D               	movf	(_jugador_1$853+1)^(0+128),w
  1632  16CB  00BB               	movwf	(pow@y+1)^(0+128)
  1633  16CC  084C               	movf	_jugador_1$853^(0+128),w
  1634  16CD  00BA               	movwf	pow@y^(0+128)
  1635  16CE  3040               	movlw	64
  1636  16CF  00B9               	movwf	(pow@x+3)^(0+128)
  1637  16D0  3000               	movlw	0
  1638  16D1  00B8               	movwf	(pow@x+2)^(0+128)
  1639  16D2  3000               	movlw	0
  1640  16D3  00B7               	movwf	(pow@x+1)^(0+128)
  1641  16D4  3000               	movlw	0
  1642  16D5  00B6               	movwf	pow@x^(0+128)
  1643  16D6  120A  158A  23CE  160A  118A  	fcall	_pow
  1644  16DB  1683               	bsf	3,5	;RP0=1, select bank1
  1645  16DC  1303               	bcf	3,6	;RP1=0, select bank1
  1646  16DD  0839               	movf	(?_pow+3)^(0+128),w
  1647  16DE  00D3               	movwf	(_jugador_1$854+3)^(0+128)
  1648  16DF  0838               	movf	(?_pow+2)^(0+128),w
  1649  16E0  00D2               	movwf	(_jugador_1$854+2)^(0+128)
  1650  16E1  0837               	movf	(?_pow+1)^(0+128),w
  1651  16E2  00D1               	movwf	(_jugador_1$854+1)^(0+128)
  1652  16E3  0836               	movf	?_pow^(0+128),w
  1653  16E4  00D0               	movwf	_jugador_1$854^(0+128)
  1654  16E5                     l3347:
  1655                           
  1656                           ;Juego_Carrera.c: 159:                 {;Juego_Carrera.c: 160:                     PORTC
      +                           = pow(2,i);
  1657  16E5  0853               	movf	(_jugador_1$854+3)^(0+128),w
  1658  16E6  1283               	bcf	3,5	;RP0=0, select bank0
  1659  16E7  1303               	bcf	3,6	;RP1=0, select bank0
  1660  16E8  00A3               	movwf	___fltol@f1+3
  1661  16E9  1683               	bsf	3,5	;RP0=1, select bank1
  1662  16EA  1303               	bcf	3,6	;RP1=0, select bank1
  1663  16EB  0852               	movf	(_jugador_1$854+2)^(0+128),w
  1664  16EC  1283               	bcf	3,5	;RP0=0, select bank0
  1665  16ED  1303               	bcf	3,6	;RP1=0, select bank0
  1666  16EE  00A2               	movwf	___fltol@f1+2
  1667  16EF  1683               	bsf	3,5	;RP0=1, select bank1
  1668  16F0  1303               	bcf	3,6	;RP1=0, select bank1
  1669  16F1  0851               	movf	(_jugador_1$854+1)^(0+128),w
  1670  16F2  1283               	bcf	3,5	;RP0=0, select bank0
  1671  16F3  1303               	bcf	3,6	;RP1=0, select bank0
  1672  16F4  00A1               	movwf	___fltol@f1+1
  1673  16F5  1683               	bsf	3,5	;RP0=1, select bank1
  1674  16F6  1303               	bcf	3,6	;RP1=0, select bank1
  1675  16F7  0850               	movf	_jugador_1$854^(0+128),w
  1676  16F8  1283               	bcf	3,5	;RP0=0, select bank0
  1677  16F9  1303               	bcf	3,6	;RP1=0, select bank0
  1678  16FA  00A0               	movwf	___fltol@f1
  1679  16FB  120A  158A  2024  160A  118A  	fcall	___fltol
  1680  1700  1283               	bcf	3,5	;RP0=0, select bank0
  1681  1701  1303               	bcf	3,6	;RP1=0, select bank0
  1682  1702  0820               	movf	?___fltol,w
  1683  1703  0087               	movwf	7	;volatile
  1684  1704                     l3349:
  1685                           
  1686                           ;Juego_Carrera.c: 161:                     i = i + 1;
  1687  1704  1683               	bsf	3,5	;RP0=1, select bank1
  1688  1705  1303               	bcf	3,6	;RP1=0, select bank1
  1689  1706  085E               	movf	_i^(0+128),w
  1690  1707  3E01               	addlw	1
  1691  1708  00DE               	movwf	_i^(0+128)
  1692  1709  085F               	movf	(_i+1)^(0+128),w
  1693  170A  1803               	skipnc
  1694  170B  3E01               	addlw	1
  1695  170C  3E00               	addlw	0
  1696  170D  00DF               	movwf	(_i+1)^(0+128)
  1697  170E                     l3351:
  1698                           
  1699                           ;Juego_Carrera.c: 162:                     presionado = 1;
  1700  170E  3001               	movlw	1
  1701  170F  00E0               	movwf	_presionado^(0+128)
  1702  1710  3000               	movlw	0
  1703  1711  00E1               	movwf	(_presionado^(0+128)+1)
  1704  1712                     l3353:
  1705                           
  1706                           ;Juego_Carrera.c: 163:                     if (i == 8)
  1707  1712  3008               	movlw	8
  1708  1713  065E               	xorwf	_i^(0+128),w
  1709  1714  045F               	iorwf	(_i+1)^(0+128),w
  1710  1715  1D03               	btfss	3,2
  1711  1716  2F18               	goto	u5371
  1712  1717  2F19               	goto	u5370
  1713  1718                     u5371:
  1714  1718  2F1C               	goto	l3357
  1715  1719                     u5370:
  1716  1719                     l3355:
  1717                           
  1718                           ;Juego_Carrera.c: 164:                     {;Juego_Carrera.c: 165:                      
      +                             PORTAbits.RA0 = 1;
  1719  1719  1283               	bcf	3,5	;RP0=0, select bank0
  1720  171A  1303               	bcf	3,6	;RP1=0, select bank0
  1721  171B  1405               	bsf	5,0	;volatile
  1722  171C                     l3357:
  1723                           
  1724                           ;Juego_Carrera.c: 168:                 pressed_ok = 0;
  1725  171C  1683               	bsf	3,5	;RP0=1, select bank1
  1726  171D  1303               	bcf	3,6	;RP1=0, select bank1
  1727  171E  01E4               	clrf	_pressed_ok^(0+128)
  1728  171F  01E5               	clrf	(_pressed_ok+1)^(0+128)
  1729  1720  2F40               	goto	l94
  1730  1721                     l3359:
  1731                           
  1732                           ;Juego_Carrera.c: 172:         {;Juego_Carrera.c: 173:             released_ok = release
      +                          d_ok + 1;
  1733  1721  1683               	bsf	3,5	;RP0=1, select bank1
  1734  1722  1303               	bcf	3,6	;RP1=0, select bank1
  1735  1723  0862               	movf	_released_ok^(0+128),w
  1736  1724  3E01               	addlw	1
  1737  1725  00E2               	movwf	_released_ok^(0+128)
  1738  1726  0863               	movf	(_released_ok+1)^(0+128),w
  1739  1727  1803               	skipnc
  1740  1728  3E01               	addlw	1
  1741  1729  3E00               	addlw	0
  1742  172A  00E3               	movwf	(_released_ok+1)^(0+128)
  1743  172B                     l3361:
  1744                           
  1745                           ;Juego_Carrera.c: 174:             pressed_ok = 0;
  1746  172B  01E4               	clrf	_pressed_ok^(0+128)
  1747  172C  01E5               	clrf	(_pressed_ok+1)^(0+128)
  1748  172D                     l3363:
  1749                           
  1750                           ;Juego_Carrera.c: 175:             if (released_ok > 500)
  1751  172D  0863               	movf	(_released_ok+1)^(0+128),w
  1752  172E  3A80               	xorlw	128
  1753  172F  00FF               	movwf	btemp+1
  1754  1730  3081               	movlw	129
  1755  1731  027F               	subwf	btemp+1,w
  1756  1732  1D03               	skipz
  1757  1733  2F36               	goto	u5385
  1758  1734  30F5               	movlw	245
  1759  1735  0262               	subwf	_released_ok^(0+128),w
  1760  1736                     u5385:
  1761  1736  1C03               	skipc
  1762  1737  2F39               	goto	u5381
  1763  1738  2F3A               	goto	u5380
  1764  1739                     u5381:
  1765  1739  2F40               	goto	l94
  1766  173A                     u5380:
  1767  173A                     l3365:
  1768                           
  1769                           ;Juego_Carrera.c: 176:             {;Juego_Carrera.c: 177:                 presionado = 
      +                          0;
  1770  173A  1683               	bsf	3,5	;RP0=1, select bank1
  1771  173B  1303               	bcf	3,6	;RP1=0, select bank1
  1772  173C  01E0               	clrf	_presionado^(0+128)
  1773  173D  01E1               	clrf	(_presionado+1)^(0+128)
  1774                           
  1775                           ;Juego_Carrera.c: 178:                 released_ok = 0;
  1776  173E  01E2               	clrf	_released_ok^(0+128)
  1777  173F  01E3               	clrf	(_released_ok+1)^(0+128)
  1778  1740                     l94:
  1779  1740  0008               	return
  1780  1741                     __end_of_jugador_1:
  1781                           
  1782                           	psect	text6
  1783  0BCE                     __ptext6:	
  1784 ;; *************** function _pow *****************
  1785 ;; Defined at:
  1786 ;;		line 5 in file "C:\Program Files\Microchip\xc8\v2.31\pic\sources\c90\common\pow.c"
  1787 ;; Parameters:    Size  Location     Type
  1788 ;;  x               4   22[BANK1 ] void 
  1789 ;;  y               4   26[BANK1 ] void 
  1790 ;; Auto vars:     Size  Location     Type
  1791 ;;  yi              4   40[BANK1 ] unsigned long 
  1792 ;;  sign            1   39[BANK1 ] unsigned char 
  1793 ;; Return value:  Size  Location     Type
  1794 ;;                  4   22[BANK1 ] unsigned char 
  1795 ;; Registers used:
  1796 ;;		wreg, fsr0l, fsr0h, status,2, status,0, btemp+1, pclath, cstack
  1797 ;; Tracked objects:
  1798 ;;		On entry : 0/0
  1799 ;;		On exit  : 0/0
  1800 ;;		Unchanged: 0/0
  1801 ;; Data sizes:     COMMON   BANK0   BANK1   BANK3   BANK2
  1802 ;;      Params:         0       0       8       0       0
  1803 ;;      Locals:         0       0      13       0       0
  1804 ;;      Temps:          0       0       1       0       0
  1805 ;;      Totals:         0       0      22       0       0
  1806 ;;Total ram usage:       22 bytes
  1807 ;; Hardware stack levels used:    1
  1808 ;; Hardware stack levels required when called:    4
  1809 ;; This function calls:
  1810 ;;		___fleq
  1811 ;;		___flge
  1812 ;;		___flmul
  1813 ;;		___flneg
  1814 ;;		___fltol
  1815 ;;		___xxtofl
  1816 ;;		_exp
  1817 ;;		_log
  1818 ;; This function is called by:
  1819 ;;		_jugador_1
  1820 ;;		_jugador_2
  1821 ;; This function uses a non-reentrant model
  1822 ;;
  1823                           
  1824                           
  1825                           ;psect for function _pow
  1826  0BCE                     _pow:
  1827  0BCE                     l3291:	
  1828                           ;incstack = 0
  1829                           ; Regs used in _pow: [wreg-fsr0h+status,2+status,0+btemp+1+pclath+cstack]
  1830                           
  1831  0BCE  1683               	bsf	3,5	;RP0=1, select bank1
  1832  0BCF  1303               	bcf	3,6	;RP1=0, select bank1
  1833  0BD0  01C7               	clrf	pow@sign^(0+128)
  1834  0BD1                     l3293:
  1835  0BD1  0839               	movf	(pow@x+3)^(0+128),w
  1836  0BD2  1283               	bcf	3,5	;RP0=0, select bank0
  1837  0BD3  1303               	bcf	3,6	;RP1=0, select bank0
  1838  0BD4  00A3               	movwf	___fleq@ff1+3
  1839  0BD5  1683               	bsf	3,5	;RP0=1, select bank1
  1840  0BD6  1303               	bcf	3,6	;RP1=0, select bank1
  1841  0BD7  0838               	movf	(pow@x+2)^(0+128),w
  1842  0BD8  1283               	bcf	3,5	;RP0=0, select bank0
  1843  0BD9  1303               	bcf	3,6	;RP1=0, select bank0
  1844  0BDA  00A2               	movwf	___fleq@ff1+2
  1845  0BDB  1683               	bsf	3,5	;RP0=1, select bank1
  1846  0BDC  1303               	bcf	3,6	;RP1=0, select bank1
  1847  0BDD  0837               	movf	(pow@x+1)^(0+128),w
  1848  0BDE  1283               	bcf	3,5	;RP0=0, select bank0
  1849  0BDF  1303               	bcf	3,6	;RP1=0, select bank0
  1850  0BE0  00A1               	movwf	___fleq@ff1+1
  1851  0BE1  1683               	bsf	3,5	;RP0=1, select bank1
  1852  0BE2  1303               	bcf	3,6	;RP1=0, select bank1
  1853  0BE3  0836               	movf	pow@x^(0+128),w
  1854  0BE4  1283               	bcf	3,5	;RP0=0, select bank0
  1855  0BE5  1303               	bcf	3,6	;RP1=0, select bank0
  1856  0BE6  00A0               	movwf	___fleq@ff1
  1857  0BE7  3000               	movlw	0
  1858  0BE8  00A7               	movwf	___fleq@ff2+3
  1859  0BE9  3000               	movlw	0
  1860  0BEA  00A6               	movwf	___fleq@ff2+2
  1861  0BEB  3000               	movlw	0
  1862  0BEC  00A5               	movwf	___fleq@ff2+1
  1863  0BED  3000               	movlw	0
  1864  0BEE  00A4               	movwf	___fleq@ff2
  1865  0BEF  160A  118A  23BB  120A  158A  	fcall	___fleq
  1866  0BF4  1C03               	btfss	3,0
  1867  0BF5  2BF7               	goto	u5271
  1868  0BF6  2BF8               	goto	u5270
  1869  0BF7                     u5271:
  1870  0BF7  2C24               	goto	l3301
  1871  0BF8                     u5270:
  1872  0BF8                     l3295:
  1873  0BF8  3000               	movlw	0
  1874  0BF9  00F3               	movwf	___flge@ff1+3
  1875  0BFA  3000               	movlw	0
  1876  0BFB  00F2               	movwf	___flge@ff1+2
  1877  0BFC  3000               	movlw	0
  1878  0BFD  00F1               	movwf	___flge@ff1+1
  1879  0BFE  3000               	movlw	0
  1880  0BFF  00F0               	movwf	___flge@ff1
  1881  0C00  1683               	bsf	3,5	;RP0=1, select bank1
  1882  0C01  1303               	bcf	3,6	;RP1=0, select bank1
  1883  0C02  083D               	movf	(pow@y+3)^(0+128),w
  1884  0C03  00F7               	movwf	___flge@ff2+3
  1885  0C04  083C               	movf	(pow@y+2)^(0+128),w
  1886  0C05  00F6               	movwf	___flge@ff2+2
  1887  0C06  083B               	movf	(pow@y+1)^(0+128),w
  1888  0C07  00F5               	movwf	___flge@ff2+1
  1889  0C08  083A               	movf	pow@y^(0+128),w
  1890  0C09  00F4               	movwf	___flge@ff2
  1891  0C0A  160A  118A  2467  120A  158A  	fcall	___flge
  1892  0C0F  1C03               	btfss	3,0
  1893  0C10  2C12               	goto	u5281
  1894  0C11  2C13               	goto	u5280
  1895  0C12                     u5281:
  1896  0C12  2C19               	goto	l648
  1897  0C13                     u5280:
  1898  0C13                     l3297:
  1899  0C13  3021               	movlw	33
  1900  0C14  1683               	bsf	3,5	;RP0=1, select bank1
  1901  0C15  1303               	bcf	3,6	;RP1=0, select bank1
  1902  0C16  00D4               	movwf	_errno^(0+128)
  1903  0C17  3000               	movlw	0
  1904  0C18  00D5               	movwf	(_errno^(0+128)+1)
  1905  0C19                     l648:
  1906  0C19  3000               	movlw	0
  1907  0C1A  1683               	bsf	3,5	;RP0=1, select bank1
  1908  0C1B  1303               	bcf	3,6	;RP1=0, select bank1
  1909  0C1C  00B9               	movwf	(?_pow+3)^(0+128)
  1910  0C1D  3000               	movlw	0
  1911  0C1E  00B8               	movwf	(?_pow+2)^(0+128)
  1912  0C1F  3000               	movlw	0
  1913  0C20  00B7               	movwf	(?_pow+1)^(0+128)
  1914  0C21  3000               	movlw	0
  1915  0C22  00B6               	movwf	?_pow^(0+128)
  1916  0C23  2DA6               	goto	l649
  1917  0C24                     l3301:
  1918  0C24  1683               	bsf	3,5	;RP0=1, select bank1
  1919  0C25  1303               	bcf	3,6	;RP1=0, select bank1
  1920  0C26  083D               	movf	(pow@y+3)^(0+128),w
  1921  0C27  1283               	bcf	3,5	;RP0=0, select bank0
  1922  0C28  1303               	bcf	3,6	;RP1=0, select bank0
  1923  0C29  00A3               	movwf	___fleq@ff1+3
  1924  0C2A  1683               	bsf	3,5	;RP0=1, select bank1
  1925  0C2B  1303               	bcf	3,6	;RP1=0, select bank1
  1926  0C2C  083C               	movf	(pow@y+2)^(0+128),w
  1927  0C2D  1283               	bcf	3,5	;RP0=0, select bank0
  1928  0C2E  1303               	bcf	3,6	;RP1=0, select bank0
  1929  0C2F  00A2               	movwf	___fleq@ff1+2
  1930  0C30  1683               	bsf	3,5	;RP0=1, select bank1
  1931  0C31  1303               	bcf	3,6	;RP1=0, select bank1
  1932  0C32  083B               	movf	(pow@y+1)^(0+128),w
  1933  0C33  1283               	bcf	3,5	;RP0=0, select bank0
  1934  0C34  1303               	bcf	3,6	;RP1=0, select bank0
  1935  0C35  00A1               	movwf	___fleq@ff1+1
  1936  0C36  1683               	bsf	3,5	;RP0=1, select bank1
  1937  0C37  1303               	bcf	3,6	;RP1=0, select bank1
  1938  0C38  083A               	movf	pow@y^(0+128),w
  1939  0C39  1283               	bcf	3,5	;RP0=0, select bank0
  1940  0C3A  1303               	bcf	3,6	;RP1=0, select bank0
  1941  0C3B  00A0               	movwf	___fleq@ff1
  1942  0C3C  3000               	movlw	0
  1943  0C3D  00A7               	movwf	___fleq@ff2+3
  1944  0C3E  3000               	movlw	0
  1945  0C3F  00A6               	movwf	___fleq@ff2+2
  1946  0C40  3000               	movlw	0
  1947  0C41  00A5               	movwf	___fleq@ff2+1
  1948  0C42  3000               	movlw	0
  1949  0C43  00A4               	movwf	___fleq@ff2
  1950  0C44  160A  118A  23BB  120A  158A  	fcall	___fleq
  1951  0C49  1C03               	btfss	3,0
  1952  0C4A  2C4C               	goto	u5291
  1953  0C4B  2C4D               	goto	u5290
  1954  0C4C                     u5291:
  1955  0C4C  2C58               	goto	l3307
  1956  0C4D                     u5290:
  1957  0C4D                     l3303:
  1958  0C4D  303F               	movlw	63
  1959  0C4E  1683               	bsf	3,5	;RP0=1, select bank1
  1960  0C4F  1303               	bcf	3,6	;RP1=0, select bank1
  1961  0C50  00B9               	movwf	(?_pow+3)^(0+128)
  1962  0C51  3080               	movlw	128
  1963  0C52  00B8               	movwf	(?_pow+2)^(0+128)
  1964  0C53  3000               	movlw	0
  1965  0C54  00B7               	movwf	(?_pow+1)^(0+128)
  1966  0C55  3000               	movlw	0
  1967  0C56  00B6               	movwf	?_pow^(0+128)
  1968  0C57  2DA6               	goto	l649
  1969  0C58                     l3307:
  1970  0C58  1683               	bsf	3,5	;RP0=1, select bank1
  1971  0C59  1303               	bcf	3,6	;RP1=0, select bank1
  1972  0C5A  0839               	movf	(pow@x+3)^(0+128),w
  1973  0C5B  00F3               	movwf	___flge@ff1+3
  1974  0C5C  0838               	movf	(pow@x+2)^(0+128),w
  1975  0C5D  00F2               	movwf	___flge@ff1+2
  1976  0C5E  0837               	movf	(pow@x+1)^(0+128),w
  1977  0C5F  00F1               	movwf	___flge@ff1+1
  1978  0C60  0836               	movf	pow@x^(0+128),w
  1979  0C61  00F0               	movwf	___flge@ff1
  1980  0C62  3000               	movlw	0
  1981  0C63  00F7               	movwf	___flge@ff2+3
  1982  0C64  3000               	movlw	0
  1983  0C65  00F6               	movwf	___flge@ff2+2
  1984  0C66  3000               	movlw	0
  1985  0C67  00F5               	movwf	___flge@ff2+1
  1986  0C68  3000               	movlw	0
  1987  0C69  00F4               	movwf	___flge@ff2
  1988  0C6A  160A  118A  2467  120A  158A  	fcall	___flge
  1989  0C6F  1803               	btfsc	3,0
  1990  0C70  2C72               	goto	u5301
  1991  0C71  2C73               	goto	u5300
  1992  0C72                     u5301:
  1993  0C72  2D0E               	goto	l3319
  1994  0C73                     u5300:
  1995  0C73                     l3309:
  1996  0C73  1683               	bsf	3,5	;RP0=1, select bank1
  1997  0C74  1303               	bcf	3,6	;RP1=0, select bank1
  1998  0C75  083D               	movf	(pow@y+3)^(0+128),w
  1999  0C76  1283               	bcf	3,5	;RP0=0, select bank0
  2000  0C77  1303               	bcf	3,6	;RP1=0, select bank0
  2001  0C78  00A3               	movwf	___fltol@f1+3
  2002  0C79  1683               	bsf	3,5	;RP0=1, select bank1
  2003  0C7A  1303               	bcf	3,6	;RP1=0, select bank1
  2004  0C7B  083C               	movf	(pow@y+2)^(0+128),w
  2005  0C7C  1283               	bcf	3,5	;RP0=0, select bank0
  2006  0C7D  1303               	bcf	3,6	;RP1=0, select bank0
  2007  0C7E  00A2               	movwf	___fltol@f1+2
  2008  0C7F  1683               	bsf	3,5	;RP0=1, select bank1
  2009  0C80  1303               	bcf	3,6	;RP1=0, select bank1
  2010  0C81  083B               	movf	(pow@y+1)^(0+128),w
  2011  0C82  1283               	bcf	3,5	;RP0=0, select bank0
  2012  0C83  1303               	bcf	3,6	;RP1=0, select bank0
  2013  0C84  00A1               	movwf	___fltol@f1+1
  2014  0C85  1683               	bsf	3,5	;RP0=1, select bank1
  2015  0C86  1303               	bcf	3,6	;RP1=0, select bank1
  2016  0C87  083A               	movf	pow@y^(0+128),w
  2017  0C88  1283               	bcf	3,5	;RP0=0, select bank0
  2018  0C89  1303               	bcf	3,6	;RP1=0, select bank0
  2019  0C8A  00A0               	movwf	___fltol@f1
  2020  0C8B  120A  158A  2024  120A  158A  	fcall	___fltol
  2021  0C90  1283               	bcf	3,5	;RP0=0, select bank0
  2022  0C91  1303               	bcf	3,6	;RP1=0, select bank0
  2023  0C92  0823               	movf	?___fltol+3,w
  2024  0C93  1683               	bsf	3,5	;RP0=1, select bank1
  2025  0C94  1303               	bcf	3,6	;RP1=0, select bank1
  2026  0C95  00CB               	movwf	(pow@yi+3)^(0+128)
  2027  0C96  1283               	bcf	3,5	;RP0=0, select bank0
  2028  0C97  1303               	bcf	3,6	;RP1=0, select bank0
  2029  0C98  0822               	movf	?___fltol+2,w
  2030  0C99  1683               	bsf	3,5	;RP0=1, select bank1
  2031  0C9A  1303               	bcf	3,6	;RP1=0, select bank1
  2032  0C9B  00CA               	movwf	(pow@yi+2)^(0+128)
  2033  0C9C  1283               	bcf	3,5	;RP0=0, select bank0
  2034  0C9D  1303               	bcf	3,6	;RP1=0, select bank0
  2035  0C9E  0821               	movf	?___fltol+1,w
  2036  0C9F  1683               	bsf	3,5	;RP0=1, select bank1
  2037  0CA0  1303               	bcf	3,6	;RP1=0, select bank1
  2038  0CA1  00C9               	movwf	(pow@yi+1)^(0+128)
  2039  0CA2  1283               	bcf	3,5	;RP0=0, select bank0
  2040  0CA3  1303               	bcf	3,6	;RP1=0, select bank0
  2041  0CA4  0820               	movf	?___fltol,w
  2042  0CA5  1683               	bsf	3,5	;RP0=1, select bank1
  2043  0CA6  1303               	bcf	3,6	;RP1=0, select bank1
  2044  0CA7  00C8               	movwf	pow@yi^(0+128)
  2045  0CA8  084B               	movf	(pow@yi+3)^(0+128),w
  2046  0CA9  00F3               	movwf	___xxtofl@val+3
  2047  0CAA  084A               	movf	(pow@yi+2)^(0+128),w
  2048  0CAB  00F2               	movwf	___xxtofl@val+2
  2049  0CAC  0849               	movf	(pow@yi+1)^(0+128),w
  2050  0CAD  00F1               	movwf	___xxtofl@val+1
  2051  0CAE  0848               	movf	pow@yi^(0+128),w
  2052  0CAF  00F0               	movwf	___xxtofl@val
  2053  0CB0  3000               	movlw	0
  2054  0CB1  160A  118A  2509  120A  158A  	fcall	___xxtofl
  2055  0CB6  0873               	movf	?___xxtofl+3,w
  2056  0CB7  1283               	bcf	3,5	;RP0=0, select bank0
  2057  0CB8  1303               	bcf	3,6	;RP1=0, select bank0
  2058  0CB9  00A3               	movwf	___fleq@ff1+3
  2059  0CBA  0872               	movf	?___xxtofl+2,w
  2060  0CBB  00A2               	movwf	___fleq@ff1+2
  2061  0CBC  0871               	movf	?___xxtofl+1,w
  2062  0CBD  00A1               	movwf	___fleq@ff1+1
  2063  0CBE  0870               	movf	?___xxtofl,w
  2064  0CBF  00A0               	movwf	___fleq@ff1
  2065  0CC0  1683               	bsf	3,5	;RP0=1, select bank1
  2066  0CC1  1303               	bcf	3,6	;RP1=0, select bank1
  2067  0CC2  083D               	movf	(pow@y+3)^(0+128),w
  2068  0CC3  1283               	bcf	3,5	;RP0=0, select bank0
  2069  0CC4  1303               	bcf	3,6	;RP1=0, select bank0
  2070  0CC5  00A7               	movwf	___fleq@ff2+3
  2071  0CC6  1683               	bsf	3,5	;RP0=1, select bank1
  2072  0CC7  1303               	bcf	3,6	;RP1=0, select bank1
  2073  0CC8  083C               	movf	(pow@y+2)^(0+128),w
  2074  0CC9  1283               	bcf	3,5	;RP0=0, select bank0
  2075  0CCA  1303               	bcf	3,6	;RP1=0, select bank0
  2076  0CCB  00A6               	movwf	___fleq@ff2+2
  2077  0CCC  1683               	bsf	3,5	;RP0=1, select bank1
  2078  0CCD  1303               	bcf	3,6	;RP1=0, select bank1
  2079  0CCE  083B               	movf	(pow@y+1)^(0+128),w
  2080  0CCF  1283               	bcf	3,5	;RP0=0, select bank0
  2081  0CD0  1303               	bcf	3,6	;RP1=0, select bank0
  2082  0CD1  00A5               	movwf	___fleq@ff2+1
  2083  0CD2  1683               	bsf	3,5	;RP0=1, select bank1
  2084  0CD3  1303               	bcf	3,6	;RP1=0, select bank1
  2085  0CD4  083A               	movf	pow@y^(0+128),w
  2086  0CD5  1283               	bcf	3,5	;RP0=0, select bank0
  2087  0CD6  1303               	bcf	3,6	;RP1=0, select bank0
  2088  0CD7  00A4               	movwf	___fleq@ff2
  2089  0CD8  160A  118A  23BB  120A  158A  	fcall	___fleq
  2090  0CDD  1803               	btfsc	3,0
  2091  0CDE  2CE0               	goto	u5311
  2092  0CDF  2CE1               	goto	u5310
  2093  0CE0                     u5311:
  2094  0CE0  2CF0               	goto	l3315
  2095  0CE1                     u5310:
  2096  0CE1                     l3311:
  2097  0CE1  3021               	movlw	33
  2098  0CE2  1683               	bsf	3,5	;RP0=1, select bank1
  2099  0CE3  1303               	bcf	3,6	;RP1=0, select bank1
  2100  0CE4  00D4               	movwf	_errno^(0+128)
  2101  0CE5  3000               	movlw	0
  2102  0CE6  00D5               	movwf	(_errno^(0+128)+1)
  2103  0CE7  3000               	movlw	0
  2104  0CE8  00B9               	movwf	(?_pow+3)^(0+128)
  2105  0CE9  3000               	movlw	0
  2106  0CEA  00B8               	movwf	(?_pow+2)^(0+128)
  2107  0CEB  3000               	movlw	0
  2108  0CEC  00B7               	movwf	(?_pow+1)^(0+128)
  2109  0CED  3000               	movlw	0
  2110  0CEE  00B6               	movwf	?_pow^(0+128)
  2111  0CEF  2DA6               	goto	l649
  2112  0CF0                     l3315:
  2113  0CF0  1683               	bsf	3,5	;RP0=1, select bank1
  2114  0CF1  1303               	bcf	3,6	;RP1=0, select bank1
  2115  0CF2  0848               	movf	pow@yi^(0+128),w
  2116  0CF3  3901               	andlw	1
  2117  0CF4  00BE               	movwf	??_pow^(0+128)
  2118  0CF5  083E               	movf	??_pow^(0+128),w
  2119  0CF6  00C7               	movwf	pow@sign^(0+128)
  2120  0CF7                     l3317:
  2121  0CF7  0839               	movf	(pow@x+3)^(0+128),w
  2122  0CF8  00F3               	movwf	___flneg@f1+3
  2123  0CF9  0838               	movf	(pow@x+2)^(0+128),w
  2124  0CFA  00F2               	movwf	___flneg@f1+2
  2125  0CFB  0837               	movf	(pow@x+1)^(0+128),w
  2126  0CFC  00F1               	movwf	___flneg@f1+1
  2127  0CFD  0836               	movf	pow@x^(0+128),w
  2128  0CFE  00F0               	movwf	___flneg@f1
  2129  0CFF  160A  118A  2328  120A  158A  	fcall	___flneg
  2130  0D04  0873               	movf	?___flneg+3,w
  2131  0D05  1683               	bsf	3,5	;RP0=1, select bank1
  2132  0D06  1303               	bcf	3,6	;RP1=0, select bank1
  2133  0D07  00B9               	movwf	(pow@x+3)^(0+128)
  2134  0D08  0872               	movf	?___flneg+2,w
  2135  0D09  00B8               	movwf	(pow@x+2)^(0+128)
  2136  0D0A  0871               	movf	?___flneg+1,w
  2137  0D0B  00B7               	movwf	(pow@x+1)^(0+128)
  2138  0D0C  0870               	movf	?___flneg,w
  2139  0D0D  00B6               	movwf	pow@x^(0+128)
  2140  0D0E                     l3319:
  2141  0D0E  1683               	bsf	3,5	;RP0=1, select bank1
  2142  0D0F  1303               	bcf	3,6	;RP1=0, select bank1
  2143  0D10  0839               	movf	(pow@x+3)^(0+128),w
  2144  0D11  00A7               	movwf	(log@x+3)^(0+128)
  2145  0D12  0838               	movf	(pow@x+2)^(0+128),w
  2146  0D13  00A6               	movwf	(log@x+2)^(0+128)
  2147  0D14  0837               	movf	(pow@x+1)^(0+128),w
  2148  0D15  00A5               	movwf	(log@x+1)^(0+128)
  2149  0D16  0836               	movf	pow@x^(0+128),w
  2150  0D17  00A4               	movwf	log@x^(0+128)
  2151  0D18  120A  158A  225A  120A  158A  	fcall	_log
  2152  0D1D  1683               	bsf	3,5	;RP0=1, select bank1
  2153  0D1E  1303               	bcf	3,6	;RP1=0, select bank1
  2154  0D1F  0827               	movf	(?_log+3)^(0+128),w
  2155  0D20  00C2               	movwf	(_pow$857+3)^(0+128)
  2156  0D21  0826               	movf	(?_log+2)^(0+128),w
  2157  0D22  00C1               	movwf	(_pow$857+2)^(0+128)
  2158  0D23  0825               	movf	(?_log+1)^(0+128),w
  2159  0D24  00C0               	movwf	(_pow$857+1)^(0+128)
  2160  0D25  0824               	movf	?_log^(0+128),w
  2161  0D26  00BF               	movwf	_pow$857^(0+128)
  2162  0D27                     l3321:
  2163  0D27  083D               	movf	(pow@y+3)^(0+128),w
  2164  0D28  1283               	bcf	3,5	;RP0=0, select bank0
  2165  0D29  1303               	bcf	3,6	;RP1=0, select bank0
  2166  0D2A  00B6               	movwf	___flmul@b+3
  2167  0D2B  1683               	bsf	3,5	;RP0=1, select bank1
  2168  0D2C  1303               	bcf	3,6	;RP1=0, select bank1
  2169  0D2D  083C               	movf	(pow@y+2)^(0+128),w
  2170  0D2E  1283               	bcf	3,5	;RP0=0, select bank0
  2171  0D2F  1303               	bcf	3,6	;RP1=0, select bank0
  2172  0D30  00B5               	movwf	___flmul@b+2
  2173  0D31  1683               	bsf	3,5	;RP0=1, select bank1
  2174  0D32  1303               	bcf	3,6	;RP1=0, select bank1
  2175  0D33  083B               	movf	(pow@y+1)^(0+128),w
  2176  0D34  1283               	bcf	3,5	;RP0=0, select bank0
  2177  0D35  1303               	bcf	3,6	;RP1=0, select bank0
  2178  0D36  00B4               	movwf	___flmul@b+1
  2179  0D37  1683               	bsf	3,5	;RP0=1, select bank1
  2180  0D38  1303               	bcf	3,6	;RP1=0, select bank1
  2181  0D39  083A               	movf	pow@y^(0+128),w
  2182  0D3A  1283               	bcf	3,5	;RP0=0, select bank0
  2183  0D3B  1303               	bcf	3,6	;RP1=0, select bank0
  2184  0D3C  00B3               	movwf	___flmul@b
  2185  0D3D  1683               	bsf	3,5	;RP0=1, select bank1
  2186  0D3E  1303               	bcf	3,6	;RP1=0, select bank1
  2187  0D3F  0842               	movf	(_pow$857+3)^(0+128),w
  2188  0D40  1283               	bcf	3,5	;RP0=0, select bank0
  2189  0D41  1303               	bcf	3,6	;RP1=0, select bank0
  2190  0D42  00BA               	movwf	___flmul@a+3
  2191  0D43  1683               	bsf	3,5	;RP0=1, select bank1
  2192  0D44  1303               	bcf	3,6	;RP1=0, select bank1
  2193  0D45  0841               	movf	(_pow$857+2)^(0+128),w
  2194  0D46  1283               	bcf	3,5	;RP0=0, select bank0
  2195  0D47  1303               	bcf	3,6	;RP1=0, select bank0
  2196  0D48  00B9               	movwf	___flmul@a+2
  2197  0D49  1683               	bsf	3,5	;RP0=1, select bank1
  2198  0D4A  1303               	bcf	3,6	;RP1=0, select bank1
  2199  0D4B  0840               	movf	(_pow$857+1)^(0+128),w
  2200  0D4C  1283               	bcf	3,5	;RP0=0, select bank0
  2201  0D4D  1303               	bcf	3,6	;RP1=0, select bank0
  2202  0D4E  00B8               	movwf	___flmul@a+1
  2203  0D4F  1683               	bsf	3,5	;RP0=1, select bank1
  2204  0D50  1303               	bcf	3,6	;RP1=0, select bank1
  2205  0D51  083F               	movf	_pow$857^(0+128),w
  2206  0D52  1283               	bcf	3,5	;RP0=0, select bank0
  2207  0D53  1303               	bcf	3,6	;RP1=0, select bank0
  2208  0D54  00B7               	movwf	___flmul@a
  2209  0D55  120A  118A  2492  120A  158A  	fcall	___flmul
  2210  0D5A  1283               	bcf	3,5	;RP0=0, select bank0
  2211  0D5B  1303               	bcf	3,6	;RP1=0, select bank0
  2212  0D5C  0836               	movf	?___flmul+3,w
  2213  0D5D  1683               	bsf	3,5	;RP0=1, select bank1
  2214  0D5E  1303               	bcf	3,6	;RP1=0, select bank1
  2215  0D5F  00C6               	movwf	(_pow$858+3)^(0+128)
  2216  0D60  1283               	bcf	3,5	;RP0=0, select bank0
  2217  0D61  1303               	bcf	3,6	;RP1=0, select bank0
  2218  0D62  0835               	movf	?___flmul+2,w
  2219  0D63  1683               	bsf	3,5	;RP0=1, select bank1
  2220  0D64  1303               	bcf	3,6	;RP1=0, select bank1
  2221  0D65  00C5               	movwf	(_pow$858+2)^(0+128)
  2222  0D66  1283               	bcf	3,5	;RP0=0, select bank0
  2223  0D67  1303               	bcf	3,6	;RP1=0, select bank0
  2224  0D68  0834               	movf	?___flmul+1,w
  2225  0D69  1683               	bsf	3,5	;RP0=1, select bank1
  2226  0D6A  1303               	bcf	3,6	;RP1=0, select bank1
  2227  0D6B  00C4               	movwf	(_pow$858+1)^(0+128)
  2228  0D6C  1283               	bcf	3,5	;RP0=0, select bank0
  2229  0D6D  1303               	bcf	3,6	;RP1=0, select bank0
  2230  0D6E  0833               	movf	?___flmul,w
  2231  0D6F  1683               	bsf	3,5	;RP0=1, select bank1
  2232  0D70  1303               	bcf	3,6	;RP1=0, select bank1
  2233  0D71  00C3               	movwf	_pow$858^(0+128)
  2234  0D72                     l3323:
  2235  0D72  0846               	movf	(_pow$858+3)^(0+128),w
  2236  0D73  00AD               	movwf	(exp@x+3)^(0+128)
  2237  0D74  0845               	movf	(_pow$858+2)^(0+128),w
  2238  0D75  00AC               	movwf	(exp@x+2)^(0+128)
  2239  0D76  0844               	movf	(_pow$858+1)^(0+128),w
  2240  0D77  00AB               	movwf	(exp@x+1)^(0+128)
  2241  0D78  0843               	movf	_pow$858^(0+128),w
  2242  0D79  00AA               	movwf	exp@x^(0+128)
  2243  0D7A  120A  158A  25A7  120A  158A  	fcall	_exp
  2244  0D7F  1683               	bsf	3,5	;RP0=1, select bank1
  2245  0D80  1303               	bcf	3,6	;RP1=0, select bank1
  2246  0D81  082D               	movf	(?_exp+3)^(0+128),w
  2247  0D82  00B9               	movwf	(pow@x+3)^(0+128)
  2248  0D83  082C               	movf	(?_exp+2)^(0+128),w
  2249  0D84  00B8               	movwf	(pow@x+2)^(0+128)
  2250  0D85  082B               	movf	(?_exp+1)^(0+128),w
  2251  0D86  00B7               	movwf	(pow@x+1)^(0+128)
  2252  0D87  082A               	movf	?_exp^(0+128),w
  2253  0D88  00B6               	movwf	pow@x^(0+128)
  2254  0D89                     l3325:
  2255  0D89  0847               	movf	pow@sign^(0+128),w
  2256  0D8A  1903               	btfsc	3,2
  2257  0D8B  2D8D               	goto	u5321
  2258  0D8C  2D8E               	goto	u5320
  2259  0D8D                     u5321:
  2260  0D8D  2DA6               	goto	l653
  2261  0D8E                     u5320:
  2262  0D8E                     l3327:
  2263  0D8E  0839               	movf	(pow@x+3)^(0+128),w
  2264  0D8F  00F3               	movwf	___flneg@f1+3
  2265  0D90  0838               	movf	(pow@x+2)^(0+128),w
  2266  0D91  00F2               	movwf	___flneg@f1+2
  2267  0D92  0837               	movf	(pow@x+1)^(0+128),w
  2268  0D93  00F1               	movwf	___flneg@f1+1
  2269  0D94  0836               	movf	pow@x^(0+128),w
  2270  0D95  00F0               	movwf	___flneg@f1
  2271  0D96  160A  118A  2328  120A  158A  	fcall	___flneg
  2272  0D9B  0873               	movf	?___flneg+3,w
  2273  0D9C  1683               	bsf	3,5	;RP0=1, select bank1
  2274  0D9D  1303               	bcf	3,6	;RP1=0, select bank1
  2275  0D9E  00B9               	movwf	(?_pow+3)^(0+128)
  2276  0D9F  0872               	movf	?___flneg+2,w
  2277  0DA0  00B8               	movwf	(?_pow+2)^(0+128)
  2278  0DA1  0871               	movf	?___flneg+1,w
  2279  0DA2  00B7               	movwf	(?_pow+1)^(0+128)
  2280  0DA3  0870               	movf	?___flneg,w
  2281  0DA4  00B6               	movwf	?_pow^(0+128)
  2282  0DA5  2DA6               	goto	l649
  2283  0DA6                     l653:
  2284  0DA6                     l649:
  2285  0DA6  0008               	return
  2286  0DA7                     __end_of_pow:
  2287                           
  2288                           	psect	text7
  2289  0A5A                     __ptext7:	
  2290 ;; *************** function _log *****************
  2291 ;; Defined at:
  2292 ;;		line 5 in file "C:\Program Files\Microchip\xc8\v2.31\pic\sources\c90\common\log.c"
  2293 ;; Parameters:    Size  Location     Type
  2294 ;;  x               4    4[BANK1 ] unsigned char 
  2295 ;; Auto vars:     Size  Location     Type
  2296 ;;  exponent        2   78[BANK0 ] int 
  2297 ;; Return value:  Size  Location     Type
  2298 ;;                  4    4[BANK1 ] int 
  2299 ;; Registers used:
  2300 ;;		wreg, fsr0l, fsr0h, status,2, status,0, btemp+1, pclath, cstack
  2301 ;; Tracked objects:
  2302 ;;		On entry : 0/0
  2303 ;;		On exit  : 0/0
  2304 ;;		Unchanged: 0/0
  2305 ;; Data sizes:     COMMON   BANK0   BANK1   BANK3   BANK2
  2306 ;;      Params:         0       0       4       0       0
  2307 ;;      Locals:         0       2       0       0       0
  2308 ;;      Temps:          0       1       0       0       0
  2309 ;;      Totals:         0       3       4       0       0
  2310 ;;Total ram usage:        7 bytes
  2311 ;; Hardware stack levels used:    1
  2312 ;; Hardware stack levels required when called:    3
  2313 ;; This function calls:
  2314 ;;		___fladd
  2315 ;;		___fleq
  2316 ;;		___flge
  2317 ;;		___flmul
  2318 ;;		___xxtofl
  2319 ;;		_eval_poly
  2320 ;;		_frexp
  2321 ;; This function is called by:
  2322 ;;		_pow
  2323 ;; This function uses a non-reentrant model
  2324 ;;
  2325                           
  2326                           
  2327                           ;psect for function _log
  2328  0A5A                     _log:
  2329  0A5A                     l3223:	
  2330                           ;incstack = 0
  2331                           ; Regs used in _log: [wreg-fsr0h+status,2+status,0+btemp+1+pclath+cstack]
  2332                           
  2333  0A5A  1683               	bsf	3,5	;RP0=1, select bank1
  2334  0A5B  1303               	bcf	3,6	;RP1=0, select bank1
  2335  0A5C  0827               	movf	(log@x+3)^(0+128),w
  2336  0A5D  00F3               	movwf	___flge@ff1+3
  2337  0A5E  0826               	movf	(log@x+2)^(0+128),w
  2338  0A5F  00F2               	movwf	___flge@ff1+2
  2339  0A60  0825               	movf	(log@x+1)^(0+128),w
  2340  0A61  00F1               	movwf	___flge@ff1+1
  2341  0A62  0824               	movf	log@x^(0+128),w
  2342  0A63  00F0               	movwf	___flge@ff1
  2343  0A64  3000               	movlw	0
  2344  0A65  00F7               	movwf	___flge@ff2+3
  2345  0A66  3000               	movlw	0
  2346  0A67  00F6               	movwf	___flge@ff2+2
  2347  0A68  3000               	movlw	0
  2348  0A69  00F5               	movwf	___flge@ff2+1
  2349  0A6A  3000               	movlw	0
  2350  0A6B  00F4               	movwf	___flge@ff2
  2351  0A6C  160A  118A  2467  120A  158A  	fcall	___flge
  2352  0A71  1803               	btfsc	3,0
  2353  0A72  2A74               	goto	u5171
  2354  0A73  2A75               	goto	u5170
  2355  0A74                     u5171:
  2356  0A74  2A84               	goto	l3229
  2357  0A75                     u5170:
  2358  0A75                     l3225:
  2359  0A75  3021               	movlw	33
  2360  0A76  1683               	bsf	3,5	;RP0=1, select bank1
  2361  0A77  1303               	bcf	3,6	;RP1=0, select bank1
  2362  0A78  00D4               	movwf	_errno^(0+128)
  2363  0A79  3000               	movlw	0
  2364  0A7A  00D5               	movwf	(_errno^(0+128)+1)
  2365  0A7B  3000               	movlw	0
  2366  0A7C  00A7               	movwf	(?_log+3)^(0+128)
  2367  0A7D  3000               	movlw	0
  2368  0A7E  00A6               	movwf	(?_log+2)^(0+128)
  2369  0A7F  3000               	movlw	0
  2370  0A80  00A5               	movwf	(?_log+1)^(0+128)
  2371  0A81  3000               	movlw	0
  2372  0A82  00A4               	movwf	?_log^(0+128)
  2373  0A83  2BCD               	goto	l717
  2374  0A84                     l3229:
  2375  0A84  1683               	bsf	3,5	;RP0=1, select bank1
  2376  0A85  1303               	bcf	3,6	;RP1=0, select bank1
  2377  0A86  0827               	movf	(log@x+3)^(0+128),w
  2378  0A87  1283               	bcf	3,5	;RP0=0, select bank0
  2379  0A88  1303               	bcf	3,6	;RP1=0, select bank0
  2380  0A89  00A3               	movwf	___fleq@ff1+3
  2381  0A8A  1683               	bsf	3,5	;RP0=1, select bank1
  2382  0A8B  1303               	bcf	3,6	;RP1=0, select bank1
  2383  0A8C  0826               	movf	(log@x+2)^(0+128),w
  2384  0A8D  1283               	bcf	3,5	;RP0=0, select bank0
  2385  0A8E  1303               	bcf	3,6	;RP1=0, select bank0
  2386  0A8F  00A2               	movwf	___fleq@ff1+2
  2387  0A90  1683               	bsf	3,5	;RP0=1, select bank1
  2388  0A91  1303               	bcf	3,6	;RP1=0, select bank1
  2389  0A92  0825               	movf	(log@x+1)^(0+128),w
  2390  0A93  1283               	bcf	3,5	;RP0=0, select bank0
  2391  0A94  1303               	bcf	3,6	;RP1=0, select bank0
  2392  0A95  00A1               	movwf	___fleq@ff1+1
  2393  0A96  1683               	bsf	3,5	;RP0=1, select bank1
  2394  0A97  1303               	bcf	3,6	;RP1=0, select bank1
  2395  0A98  0824               	movf	log@x^(0+128),w
  2396  0A99  1283               	bcf	3,5	;RP0=0, select bank0
  2397  0A9A  1303               	bcf	3,6	;RP1=0, select bank0
  2398  0A9B  00A0               	movwf	___fleq@ff1
  2399  0A9C  3000               	movlw	0
  2400  0A9D  00A7               	movwf	___fleq@ff2+3
  2401  0A9E  3000               	movlw	0
  2402  0A9F  00A6               	movwf	___fleq@ff2+2
  2403  0AA0  3000               	movlw	0
  2404  0AA1  00A5               	movwf	___fleq@ff2+1
  2405  0AA2  3000               	movlw	0
  2406  0AA3  00A4               	movwf	___fleq@ff2
  2407  0AA4  160A  118A  23BB  120A  158A  	fcall	___fleq
  2408  0AA9  1C03               	btfss	3,0
  2409  0AAA  2AAC               	goto	u5181
  2410  0AAB  2AAD               	goto	u5180
  2411  0AAC                     u5181:
  2412  0AAC  2ABC               	goto	l3235
  2413  0AAD                     u5180:
  2414  0AAD                     l3231:
  2415  0AAD  3022               	movlw	34
  2416  0AAE  1683               	bsf	3,5	;RP0=1, select bank1
  2417  0AAF  1303               	bcf	3,6	;RP1=0, select bank1
  2418  0AB0  00D4               	movwf	_errno^(0+128)
  2419  0AB1  3000               	movlw	0
  2420  0AB2  00D5               	movwf	(_errno^(0+128)+1)
  2421  0AB3  3000               	movlw	0
  2422  0AB4  00A7               	movwf	(?_log+3)^(0+128)
  2423  0AB5  3000               	movlw	0
  2424  0AB6  00A6               	movwf	(?_log+2)^(0+128)
  2425  0AB7  3000               	movlw	0
  2426  0AB8  00A5               	movwf	(?_log+1)^(0+128)
  2427  0AB9  3000               	movlw	0
  2428  0ABA  00A4               	movwf	?_log^(0+128)
  2429  0ABB  2BCD               	goto	l717
  2430  0ABC                     l3235:
  2431  0ABC  30BF               	movlw	191
  2432  0ABD  1283               	bcf	3,5	;RP0=0, select bank0
  2433  0ABE  1303               	bcf	3,6	;RP1=0, select bank0
  2434  0ABF  00D0               	movwf	___fladd@b+3
  2435  0AC0  3080               	movlw	128
  2436  0AC1  00CF               	movwf	___fladd@b+2
  2437  0AC2  3000               	movlw	0
  2438  0AC3  00CE               	movwf	___fladd@b+1
  2439  0AC4  3000               	movlw	0
  2440  0AC5  00CD               	movwf	___fladd@b
  2441  0AC6  3040               	movlw	64
  2442  0AC7  00B6               	movwf	___flmul@b+3
  2443  0AC8  3000               	movlw	0
  2444  0AC9  00B5               	movwf	___flmul@b+2
  2445  0ACA  3000               	movlw	0
  2446  0ACB  00B4               	movwf	___flmul@b+1
  2447  0ACC  3000               	movlw	0
  2448  0ACD  00B3               	movwf	___flmul@b
  2449  0ACE  306E               	movlw	(low (log@exponent| 0))& (0+255)
  2450  0ACF  00ED               	movwf	??_log
  2451  0AD0  086D               	movf	??_log,w
  2452  0AD1  00B0               	movwf	frexp@eptr
  2453  0AD2  1683               	bsf	3,5	;RP0=1, select bank1
  2454  0AD3  1303               	bcf	3,6	;RP1=0, select bank1
  2455  0AD4  0827               	movf	(log@x+3)^(0+128),w
  2456  0AD5  1283               	bcf	3,5	;RP0=0, select bank0
  2457  0AD6  1303               	bcf	3,6	;RP1=0, select bank0
  2458  0AD7  00AF               	movwf	frexp@value+3
  2459  0AD8  1683               	bsf	3,5	;RP0=1, select bank1
  2460  0AD9  1303               	bcf	3,6	;RP1=0, select bank1
  2461  0ADA  0826               	movf	(log@x+2)^(0+128),w
  2462  0ADB  1283               	bcf	3,5	;RP0=0, select bank0
  2463  0ADC  1303               	bcf	3,6	;RP1=0, select bank0
  2464  0ADD  00AE               	movwf	frexp@value+2
  2465  0ADE  1683               	bsf	3,5	;RP0=1, select bank1
  2466  0ADF  1303               	bcf	3,6	;RP1=0, select bank1
  2467  0AE0  0825               	movf	(log@x+1)^(0+128),w
  2468  0AE1  1283               	bcf	3,5	;RP0=0, select bank0
  2469  0AE2  1303               	bcf	3,6	;RP1=0, select bank0
  2470  0AE3  00AD               	movwf	frexp@value+1
  2471  0AE4  1683               	bsf	3,5	;RP0=1, select bank1
  2472  0AE5  1303               	bcf	3,6	;RP1=0, select bank1
  2473  0AE6  0824               	movf	log@x^(0+128),w
  2474  0AE7  1283               	bcf	3,5	;RP0=0, select bank0
  2475  0AE8  1303               	bcf	3,6	;RP1=0, select bank0
  2476  0AE9  00AC               	movwf	frexp@value
  2477  0AEA  160A  118A  240B  120A  158A  	fcall	_frexp
  2478  0AEF  1283               	bcf	3,5	;RP0=0, select bank0
  2479  0AF0  1303               	bcf	3,6	;RP1=0, select bank0
  2480  0AF1  082F               	movf	?_frexp+3,w
  2481  0AF2  00BA               	movwf	___flmul@a+3
  2482  0AF3  082E               	movf	?_frexp+2,w
  2483  0AF4  00B9               	movwf	___flmul@a+2
  2484  0AF5  082D               	movf	?_frexp+1,w
  2485  0AF6  00B8               	movwf	___flmul@a+1
  2486  0AF7  082C               	movf	?_frexp,w
  2487  0AF8  00B7               	movwf	___flmul@a
  2488  0AF9  120A  118A  2492  120A  158A  	fcall	___flmul
  2489  0AFE  1283               	bcf	3,5	;RP0=0, select bank0
  2490  0AFF  1303               	bcf	3,6	;RP1=0, select bank0
  2491  0B00  0836               	movf	?___flmul+3,w
  2492  0B01  00D4               	movwf	___fladd@a+3
  2493  0B02  0835               	movf	?___flmul+2,w
  2494  0B03  00D3               	movwf	___fladd@a+2
  2495  0B04  0834               	movf	?___flmul+1,w
  2496  0B05  00D2               	movwf	___fladd@a+1
  2497  0B06  0833               	movf	?___flmul,w
  2498  0B07  00D1               	movwf	___fladd@a
  2499  0B08  120A  118A  220A  120A  158A  	fcall	___fladd
  2500  0B0D  1283               	bcf	3,5	;RP0=0, select bank0
  2501  0B0E  1303               	bcf	3,6	;RP1=0, select bank0
  2502  0B0F  0850               	movf	?___fladd+3,w
  2503  0B10  1683               	bsf	3,5	;RP0=1, select bank1
  2504  0B11  1303               	bcf	3,6	;RP1=0, select bank1
  2505  0B12  00A7               	movwf	(log@x+3)^(0+128)
  2506  0B13  1283               	bcf	3,5	;RP0=0, select bank0
  2507  0B14  1303               	bcf	3,6	;RP1=0, select bank0
  2508  0B15  084F               	movf	?___fladd+2,w
  2509  0B16  1683               	bsf	3,5	;RP0=1, select bank1
  2510  0B17  1303               	bcf	3,6	;RP1=0, select bank1
  2511  0B18  00A6               	movwf	(log@x+2)^(0+128)
  2512  0B19  1283               	bcf	3,5	;RP0=0, select bank0
  2513  0B1A  1303               	bcf	3,6	;RP1=0, select bank0
  2514  0B1B  084E               	movf	?___fladd+1,w
  2515  0B1C  1683               	bsf	3,5	;RP0=1, select bank1
  2516  0B1D  1303               	bcf	3,6	;RP1=0, select bank1
  2517  0B1E  00A5               	movwf	(log@x+1)^(0+128)
  2518  0B1F  1283               	bcf	3,5	;RP0=0, select bank0
  2519  0B20  1303               	bcf	3,6	;RP1=0, select bank0
  2520  0B21  084D               	movf	?___fladd,w
  2521  0B22  1683               	bsf	3,5	;RP0=1, select bank1
  2522  0B23  1303               	bcf	3,6	;RP1=0, select bank1
  2523  0B24  00A4               	movwf	log@x^(0+128)
  2524  0B25                     l3237:
  2525  0B25  30FF               	movlw	255
  2526  0B26  1283               	bcf	3,5	;RP0=0, select bank0
  2527  0B27  1303               	bcf	3,6	;RP1=0, select bank0
  2528  0B28  07EE               	addwf	log@exponent,f
  2529  0B29  1803               	skipnc
  2530  0B2A  0AEF               	incf	log@exponent+1,f
  2531  0B2B  30FF               	movlw	255
  2532  0B2C  07EF               	addwf	log@exponent+1,f
  2533  0B2D                     l3239:
  2534  0B2D  1683               	bsf	3,5	;RP0=1, select bank1
  2535  0B2E  1303               	bcf	3,6	;RP1=0, select bank1
  2536  0B2F  0827               	movf	(log@x+3)^(0+128),w
  2537  0B30  1283               	bcf	3,5	;RP0=0, select bank0
  2538  0B31  1303               	bcf	3,6	;RP1=0, select bank0
  2539  0B32  00E4               	movwf	eval_poly@x+3
  2540  0B33  1683               	bsf	3,5	;RP0=1, select bank1
  2541  0B34  1303               	bcf	3,6	;RP1=0, select bank1
  2542  0B35  0826               	movf	(log@x+2)^(0+128),w
  2543  0B36  1283               	bcf	3,5	;RP0=0, select bank0
  2544  0B37  1303               	bcf	3,6	;RP1=0, select bank0
  2545  0B38  00E3               	movwf	eval_poly@x+2
  2546  0B39  1683               	bsf	3,5	;RP0=1, select bank1
  2547  0B3A  1303               	bcf	3,6	;RP1=0, select bank1
  2548  0B3B  0825               	movf	(log@x+1)^(0+128),w
  2549  0B3C  1283               	bcf	3,5	;RP0=0, select bank0
  2550  0B3D  1303               	bcf	3,6	;RP1=0, select bank0
  2551  0B3E  00E2               	movwf	eval_poly@x+1
  2552  0B3F  1683               	bsf	3,5	;RP0=1, select bank1
  2553  0B40  1303               	bcf	3,6	;RP1=0, select bank1
  2554  0B41  0824               	movf	log@x^(0+128),w
  2555  0B42  1283               	bcf	3,5	;RP0=0, select bank0
  2556  0B43  1303               	bcf	3,6	;RP1=0, select bank0
  2557  0B44  00E1               	movwf	eval_poly@x
  2558  0B45  3029               	movlw	(low ((log@coeff-__stringbase)| (0+32768)))& (0+255)
  2559  0B46  00ED               	movwf	??_log
  2560  0B47  086D               	movf	??_log,w
  2561  0B48  00E5               	movwf	eval_poly@d
  2562  0B49  3008               	movlw	8
  2563  0B4A  00E6               	movwf	eval_poly@n
  2564  0B4B  3000               	movlw	0
  2565  0B4C  00E7               	movwf	eval_poly@n+1
  2566  0B4D  120A  158A  20A0  120A  158A  	fcall	_eval_poly
  2567  0B52  1283               	bcf	3,5	;RP0=0, select bank0
  2568  0B53  1303               	bcf	3,6	;RP1=0, select bank0
  2569  0B54  0864               	movf	?_eval_poly+3,w
  2570  0B55  1683               	bsf	3,5	;RP0=1, select bank1
  2571  0B56  1303               	bcf	3,6	;RP1=0, select bank1
  2572  0B57  00A7               	movwf	(log@x+3)^(0+128)
  2573  0B58  1283               	bcf	3,5	;RP0=0, select bank0
  2574  0B59  1303               	bcf	3,6	;RP1=0, select bank0
  2575  0B5A  0863               	movf	?_eval_poly+2,w
  2576  0B5B  1683               	bsf	3,5	;RP0=1, select bank1
  2577  0B5C  1303               	bcf	3,6	;RP1=0, select bank1
  2578  0B5D  00A6               	movwf	(log@x+2)^(0+128)
  2579  0B5E  1283               	bcf	3,5	;RP0=0, select bank0
  2580  0B5F  1303               	bcf	3,6	;RP1=0, select bank0
  2581  0B60  0862               	movf	?_eval_poly+1,w
  2582  0B61  1683               	bsf	3,5	;RP0=1, select bank1
  2583  0B62  1303               	bcf	3,6	;RP1=0, select bank1
  2584  0B63  00A5               	movwf	(log@x+1)^(0+128)
  2585  0B64  1283               	bcf	3,5	;RP0=0, select bank0
  2586  0B65  1303               	bcf	3,6	;RP1=0, select bank0
  2587  0B66  0861               	movf	?_eval_poly,w
  2588  0B67  1683               	bsf	3,5	;RP0=1, select bank1
  2589  0B68  1303               	bcf	3,6	;RP1=0, select bank1
  2590  0B69  00A4               	movwf	log@x^(0+128)
  2591  0B6A                     l3241:
  2592  0B6A  0827               	movf	(log@x+3)^(0+128),w
  2593  0B6B  1283               	bcf	3,5	;RP0=0, select bank0
  2594  0B6C  1303               	bcf	3,6	;RP1=0, select bank0
  2595  0B6D  00D0               	movwf	___fladd@b+3
  2596  0B6E  1683               	bsf	3,5	;RP0=1, select bank1
  2597  0B6F  1303               	bcf	3,6	;RP1=0, select bank1
  2598  0B70  0826               	movf	(log@x+2)^(0+128),w
  2599  0B71  1283               	bcf	3,5	;RP0=0, select bank0
  2600  0B72  1303               	bcf	3,6	;RP1=0, select bank0
  2601  0B73  00CF               	movwf	___fladd@b+2
  2602  0B74  1683               	bsf	3,5	;RP0=1, select bank1
  2603  0B75  1303               	bcf	3,6	;RP1=0, select bank1
  2604  0B76  0825               	movf	(log@x+1)^(0+128),w
  2605  0B77  1283               	bcf	3,5	;RP0=0, select bank0
  2606  0B78  1303               	bcf	3,6	;RP1=0, select bank0
  2607  0B79  00CE               	movwf	___fladd@b+1
  2608  0B7A  1683               	bsf	3,5	;RP0=1, select bank1
  2609  0B7B  1303               	bcf	3,6	;RP1=0, select bank1
  2610  0B7C  0824               	movf	log@x^(0+128),w
  2611  0B7D  1283               	bcf	3,5	;RP0=0, select bank0
  2612  0B7E  1303               	bcf	3,6	;RP1=0, select bank0
  2613  0B7F  00CD               	movwf	___fladd@b
  2614  0B80  303F               	movlw	63
  2615  0B81  00B6               	movwf	___flmul@b+3
  2616  0B82  3031               	movlw	49
  2617  0B83  00B5               	movwf	___flmul@b+2
  2618  0B84  3072               	movlw	114
  2619  0B85  00B4               	movwf	___flmul@b+1
  2620  0B86  3018               	movlw	24
  2621  0B87  00B3               	movwf	___flmul@b
  2622  0B88  086E               	movf	log@exponent,w
  2623  0B89  00F0               	movwf	___xxtofl@val
  2624  0B8A  086F               	movf	log@exponent+1,w
  2625  0B8B  00F1               	movwf	___xxtofl@val+1
  2626  0B8C  3000               	movlw	0
  2627  0B8D  1BF1               	btfsc	___xxtofl@val+1,7
  2628  0B8E  30FF               	movlw	255
  2629  0B8F  00F2               	movwf	___xxtofl@val+2
  2630  0B90  00F3               	movwf	___xxtofl@val+3
  2631  0B91  3001               	movlw	1
  2632  0B92  160A  118A  2509  120A  158A  	fcall	___xxtofl
  2633  0B97  0873               	movf	?___xxtofl+3,w
  2634  0B98  1283               	bcf	3,5	;RP0=0, select bank0
  2635  0B99  1303               	bcf	3,6	;RP1=0, select bank0
  2636  0B9A  00BA               	movwf	___flmul@a+3
  2637  0B9B  0872               	movf	?___xxtofl+2,w
  2638  0B9C  00B9               	movwf	___flmul@a+2
  2639  0B9D  0871               	movf	?___xxtofl+1,w
  2640  0B9E  00B8               	movwf	___flmul@a+1
  2641  0B9F  0870               	movf	?___xxtofl,w
  2642  0BA0  00B7               	movwf	___flmul@a
  2643  0BA1  120A  118A  2492  120A  158A  	fcall	___flmul
  2644  0BA6  1283               	bcf	3,5	;RP0=0, select bank0
  2645  0BA7  1303               	bcf	3,6	;RP1=0, select bank0
  2646  0BA8  0836               	movf	?___flmul+3,w
  2647  0BA9  00D4               	movwf	___fladd@a+3
  2648  0BAA  0835               	movf	?___flmul+2,w
  2649  0BAB  00D3               	movwf	___fladd@a+2
  2650  0BAC  0834               	movf	?___flmul+1,w
  2651  0BAD  00D2               	movwf	___fladd@a+1
  2652  0BAE  0833               	movf	?___flmul,w
  2653  0BAF  00D1               	movwf	___fladd@a
  2654  0BB0  120A  118A  220A  120A  158A  	fcall	___fladd
  2655  0BB5  1283               	bcf	3,5	;RP0=0, select bank0
  2656  0BB6  1303               	bcf	3,6	;RP1=0, select bank0
  2657  0BB7  0850               	movf	?___fladd+3,w
  2658  0BB8  1683               	bsf	3,5	;RP0=1, select bank1
  2659  0BB9  1303               	bcf	3,6	;RP1=0, select bank1
  2660  0BBA  00A7               	movwf	(?_log+3)^(0+128)
  2661  0BBB  1283               	bcf	3,5	;RP0=0, select bank0
  2662  0BBC  1303               	bcf	3,6	;RP1=0, select bank0
  2663  0BBD  084F               	movf	?___fladd+2,w
  2664  0BBE  1683               	bsf	3,5	;RP0=1, select bank1
  2665  0BBF  1303               	bcf	3,6	;RP1=0, select bank1
  2666  0BC0  00A6               	movwf	(?_log+2)^(0+128)
  2667  0BC1  1283               	bcf	3,5	;RP0=0, select bank0
  2668  0BC2  1303               	bcf	3,6	;RP1=0, select bank0
  2669  0BC3  084E               	movf	?___fladd+1,w
  2670  0BC4  1683               	bsf	3,5	;RP0=1, select bank1
  2671  0BC5  1303               	bcf	3,6	;RP1=0, select bank1
  2672  0BC6  00A5               	movwf	(?_log+1)^(0+128)
  2673  0BC7  1283               	bcf	3,5	;RP0=0, select bank0
  2674  0BC8  1303               	bcf	3,6	;RP1=0, select bank0
  2675  0BC9  084D               	movf	?___fladd,w
  2676  0BCA  1683               	bsf	3,5	;RP0=1, select bank1
  2677  0BCB  1303               	bcf	3,6	;RP1=0, select bank1
  2678  0BCC  00A4               	movwf	?_log^(0+128)
  2679  0BCD                     l717:
  2680  0BCD  0008               	return
  2681  0BCE                     __end_of_log:
  2682                           
  2683                           	psect	text8
  2684  0DA7                     __ptext8:	
  2685 ;; *************** function _exp *****************
  2686 ;; Defined at:
  2687 ;;		line 12 in file "C:\Program Files\Microchip\xc8\v2.31\pic\sources\c90\common\exp.c"
  2688 ;; Parameters:    Size  Location     Type
  2689 ;;  x               4   10[BANK1 ] int 
  2690 ;; Auto vars:     Size  Location     Type
  2691 ;;  exponent        2   19[BANK1 ] int 
  2692 ;;  sign            1   21[BANK1 ] unsigned char 
  2693 ;; Return value:  Size  Location     Type
  2694 ;;                  4   10[BANK1 ] unsigned char 
  2695 ;; Registers used:
  2696 ;;		wreg, fsr0l, fsr0h, status,2, status,0, btemp+1, pclath, cstack
  2697 ;; Tracked objects:
  2698 ;;		On entry : 0/0
  2699 ;;		On exit  : 0/0
  2700 ;;		Unchanged: 0/0
  2701 ;; Data sizes:     COMMON   BANK0   BANK1   BANK3   BANK2
  2702 ;;      Params:         0       0       4       0       0
  2703 ;;      Locals:         0       0       7       0       0
  2704 ;;      Temps:          0       0       1       0       0
  2705 ;;      Totals:         0       0      12       0       0
  2706 ;;Total ram usage:       12 bytes
  2707 ;; Hardware stack levels used:    1
  2708 ;; Hardware stack levels required when called:    3
  2709 ;; This function calls:
  2710 ;;		___fldiv
  2711 ;;		___fleq
  2712 ;;		___flge
  2713 ;;		___flmul
  2714 ;;		___flneg
  2715 ;;		___flsub
  2716 ;;		___fltol
  2717 ;;		___xxtofl
  2718 ;;		_eval_poly
  2719 ;;		_floor
  2720 ;;		_ldexp
  2721 ;; This function is called by:
  2722 ;;		_pow
  2723 ;; This function uses a non-reentrant model
  2724 ;;
  2725                           
  2726                           
  2727                           ;psect for function _exp
  2728  0DA7                     _exp:
  2729  0DA7                     l3245:	
  2730                           ;incstack = 0
  2731                           ; Regs used in _exp: [wreg-fsr0h+status,2+status,0+btemp+1+pclath+cstack]
  2732                           
  2733  0DA7  1683               	bsf	3,5	;RP0=1, select bank1
  2734  0DA8  1303               	bcf	3,6	;RP1=0, select bank1
  2735  0DA9  082D               	movf	(exp@x+3)^(0+128),w
  2736  0DAA  1283               	bcf	3,5	;RP0=0, select bank0
  2737  0DAB  1303               	bcf	3,6	;RP1=0, select bank0
  2738  0DAC  00A3               	movwf	___fleq@ff1+3
  2739  0DAD  1683               	bsf	3,5	;RP0=1, select bank1
  2740  0DAE  1303               	bcf	3,6	;RP1=0, select bank1
  2741  0DAF  082C               	movf	(exp@x+2)^(0+128),w
  2742  0DB0  1283               	bcf	3,5	;RP0=0, select bank0
  2743  0DB1  1303               	bcf	3,6	;RP1=0, select bank0
  2744  0DB2  00A2               	movwf	___fleq@ff1+2
  2745  0DB3  1683               	bsf	3,5	;RP0=1, select bank1
  2746  0DB4  1303               	bcf	3,6	;RP1=0, select bank1
  2747  0DB5  082B               	movf	(exp@x+1)^(0+128),w
  2748  0DB6  1283               	bcf	3,5	;RP0=0, select bank0
  2749  0DB7  1303               	bcf	3,6	;RP1=0, select bank0
  2750  0DB8  00A1               	movwf	___fleq@ff1+1
  2751  0DB9  1683               	bsf	3,5	;RP0=1, select bank1
  2752  0DBA  1303               	bcf	3,6	;RP1=0, select bank1
  2753  0DBB  082A               	movf	exp@x^(0+128),w
  2754  0DBC  1283               	bcf	3,5	;RP0=0, select bank0
  2755  0DBD  1303               	bcf	3,6	;RP1=0, select bank0
  2756  0DBE  00A0               	movwf	___fleq@ff1
  2757  0DBF  3000               	movlw	0
  2758  0DC0  00A7               	movwf	___fleq@ff2+3
  2759  0DC1  3000               	movlw	0
  2760  0DC2  00A6               	movwf	___fleq@ff2+2
  2761  0DC3  3000               	movlw	0
  2762  0DC4  00A5               	movwf	___fleq@ff2+1
  2763  0DC5  3000               	movlw	0
  2764  0DC6  00A4               	movwf	___fleq@ff2
  2765  0DC7  160A  118A  23BB  120A  158A  	fcall	___fleq
  2766  0DCC  1C03               	btfss	3,0
  2767  0DCD  2DCF               	goto	u5191
  2768  0DCE  2DD0               	goto	u5190
  2769  0DCF                     u5191:
  2770  0DCF  2DDB               	goto	l3251
  2771  0DD0                     u5190:
  2772  0DD0                     l3247:
  2773  0DD0  303F               	movlw	63
  2774  0DD1  1683               	bsf	3,5	;RP0=1, select bank1
  2775  0DD2  1303               	bcf	3,6	;RP1=0, select bank1
  2776  0DD3  00AD               	movwf	(?_exp+3)^(0+128)
  2777  0DD4  3080               	movlw	128
  2778  0DD5  00AC               	movwf	(?_exp+2)^(0+128)
  2779  0DD6  3000               	movlw	0
  2780  0DD7  00AB               	movwf	(?_exp+1)^(0+128)
  2781  0DD8  3000               	movlw	0
  2782  0DD9  00AA               	movwf	?_exp^(0+128)
  2783  0DDA  2FFF               	goto	l669
  2784  0DDB                     l3251:
  2785  0DDB  3044               	movlw	68
  2786  0DDC  00F3               	movwf	___flge@ff1+3
  2787  0DDD  3031               	movlw	49
  2788  0DDE  00F2               	movwf	___flge@ff1+2
  2789  0DDF  3072               	movlw	114
  2790  0DE0  00F1               	movwf	___flge@ff1+1
  2791  0DE1  3018               	movlw	24
  2792  0DE2  00F0               	movwf	___flge@ff1
  2793  0DE3  1683               	bsf	3,5	;RP0=1, select bank1
  2794  0DE4  1303               	bcf	3,6	;RP1=0, select bank1
  2795  0DE5  082D               	movf	(exp@x+3)^(0+128),w
  2796  0DE6  00F7               	movwf	___flge@ff2+3
  2797  0DE7  082C               	movf	(exp@x+2)^(0+128),w
  2798  0DE8  00F6               	movwf	___flge@ff2+2
  2799  0DE9  082B               	movf	(exp@x+1)^(0+128),w
  2800  0DEA  00F5               	movwf	___flge@ff2+1
  2801  0DEB  082A               	movf	exp@x^(0+128),w
  2802  0DEC  00F4               	movwf	___flge@ff2
  2803  0DED  160A  118A  2467  120A  158A  	fcall	___flge
  2804  0DF2  1803               	btfsc	3,0
  2805  0DF3  2DF5               	goto	u5201
  2806  0DF4  2DF6               	goto	u5200
  2807  0DF5                     u5201:
  2808  0DF5  2E05               	goto	l3257
  2809  0DF6                     u5200:
  2810  0DF6                     l3253:
  2811  0DF6  3022               	movlw	34
  2812  0DF7  1683               	bsf	3,5	;RP0=1, select bank1
  2813  0DF8  1303               	bcf	3,6	;RP1=0, select bank1
  2814  0DF9  00D4               	movwf	_errno^(0+128)
  2815  0DFA  3000               	movlw	0
  2816  0DFB  00D5               	movwf	(_errno^(0+128)+1)
  2817  0DFC  307F               	movlw	127
  2818  0DFD  00AD               	movwf	(?_exp+3)^(0+128)
  2819  0DFE  307F               	movlw	127
  2820  0DFF  00AC               	movwf	(?_exp+2)^(0+128)
  2821  0E00  30FF               	movlw	255
  2822  0E01  00AB               	movwf	(?_exp+1)^(0+128)
  2823  0E02  30FF               	movlw	255
  2824  0E03  00AA               	movwf	?_exp^(0+128)
  2825  0E04  2FFF               	goto	l669
  2826  0E05                     l3257:
  2827  0E05  1683               	bsf	3,5	;RP0=1, select bank1
  2828  0E06  1303               	bcf	3,6	;RP1=0, select bank1
  2829  0E07  082D               	movf	(exp@x+3)^(0+128),w
  2830  0E08  00F3               	movwf	___flge@ff1+3
  2831  0E09  082C               	movf	(exp@x+2)^(0+128),w
  2832  0E0A  00F2               	movwf	___flge@ff1+2
  2833  0E0B  082B               	movf	(exp@x+1)^(0+128),w
  2834  0E0C  00F1               	movwf	___flge@ff1+1
  2835  0E0D  082A               	movf	exp@x^(0+128),w
  2836  0E0E  00F0               	movwf	___flge@ff1
  2837  0E0F  30C4               	movlw	196
  2838  0E10  00F7               	movwf	___flge@ff2+3
  2839  0E11  303A               	movlw	58
  2840  0E12  00F6               	movwf	___flge@ff2+2
  2841  0E13  3048               	movlw	72
  2842  0E14  00F5               	movwf	___flge@ff2+1
  2843  0E15  3087               	movlw	135
  2844  0E16  00F4               	movwf	___flge@ff2
  2845  0E17  160A  118A  2467  120A  158A  	fcall	___flge
  2846  0E1C  1803               	btfsc	3,0
  2847  0E1D  2E1F               	goto	u5211
  2848  0E1E  2E20               	goto	u5210
  2849  0E1F                     u5211:
  2850  0E1F  2E2F               	goto	l3263
  2851  0E20                     u5210:
  2852  0E20                     l3259:
  2853  0E20  3022               	movlw	34
  2854  0E21  1683               	bsf	3,5	;RP0=1, select bank1
  2855  0E22  1303               	bcf	3,6	;RP1=0, select bank1
  2856  0E23  00D4               	movwf	_errno^(0+128)
  2857  0E24  3000               	movlw	0
  2858  0E25  00D5               	movwf	(_errno^(0+128)+1)
  2859  0E26  3000               	movlw	0
  2860  0E27  00AD               	movwf	(?_exp+3)^(0+128)
  2861  0E28  3000               	movlw	0
  2862  0E29  00AC               	movwf	(?_exp+2)^(0+128)
  2863  0E2A  3000               	movlw	0
  2864  0E2B  00AB               	movwf	(?_exp+1)^(0+128)
  2865  0E2C  3000               	movlw	0
  2866  0E2D  00AA               	movwf	?_exp^(0+128)
  2867  0E2E  2FFF               	goto	l669
  2868  0E2F                     l3263:
  2869  0E2F  1683               	bsf	3,5	;RP0=1, select bank1
  2870  0E30  1303               	bcf	3,6	;RP1=0, select bank1
  2871  0E31  082D               	movf	(exp@x+3)^(0+128),w
  2872  0E32  00F3               	movwf	___flge@ff1+3
  2873  0E33  082C               	movf	(exp@x+2)^(0+128),w
  2874  0E34  00F2               	movwf	___flge@ff1+2
  2875  0E35  082B               	movf	(exp@x+1)^(0+128),w
  2876  0E36  00F1               	movwf	___flge@ff1+1
  2877  0E37  082A               	movf	exp@x^(0+128),w
  2878  0E38  00F0               	movwf	___flge@ff1
  2879  0E39  3000               	movlw	0
  2880  0E3A  00F7               	movwf	___flge@ff2+3
  2881  0E3B  3000               	movlw	0
  2882  0E3C  00F6               	movwf	___flge@ff2+2
  2883  0E3D  3000               	movlw	0
  2884  0E3E  00F5               	movwf	___flge@ff2+1
  2885  0E3F  3000               	movlw	0
  2886  0E40  00F4               	movwf	___flge@ff2
  2887  0E41  160A  118A  2467  120A  158A  	fcall	___flge
  2888  0E46  1C03               	btfss	3,0
  2889  0E47  2E49               	goto	u5221
  2890  0E48  2E4B               	goto	u5220
  2891  0E49                     u5221:
  2892  0E49  3001               	movlw	1
  2893  0E4A  2E4C               	goto	u5230
  2894  0E4B                     u5220:
  2895  0E4B  3000               	movlw	0
  2896  0E4C                     u5230:
  2897  0E4C  1683               	bsf	3,5	;RP0=1, select bank1
  2898  0E4D  1303               	bcf	3,6	;RP1=0, select bank1
  2899  0E4E  00AE               	movwf	??_exp^(0+128)
  2900  0E4F  082E               	movf	??_exp^(0+128),w
  2901  0E50  00B5               	movwf	exp@sign^(0+128)
  2902  0E51                     l3265:
  2903  0E51  0835               	movf	exp@sign^(0+128),w
  2904  0E52  1903               	btfsc	3,2
  2905  0E53  2E55               	goto	u5241
  2906  0E54  2E56               	goto	u5240
  2907  0E55                     u5241:
  2908  0E55  2E6D               	goto	l3269
  2909  0E56                     u5240:
  2910  0E56                     l3267:
  2911  0E56  082D               	movf	(exp@x+3)^(0+128),w
  2912  0E57  00F3               	movwf	___flneg@f1+3
  2913  0E58  082C               	movf	(exp@x+2)^(0+128),w
  2914  0E59  00F2               	movwf	___flneg@f1+2
  2915  0E5A  082B               	movf	(exp@x+1)^(0+128),w
  2916  0E5B  00F1               	movwf	___flneg@f1+1
  2917  0E5C  082A               	movf	exp@x^(0+128),w
  2918  0E5D  00F0               	movwf	___flneg@f1
  2919  0E5E  160A  118A  2328  120A  158A  	fcall	___flneg
  2920  0E63  0873               	movf	?___flneg+3,w
  2921  0E64  1683               	bsf	3,5	;RP0=1, select bank1
  2922  0E65  1303               	bcf	3,6	;RP1=0, select bank1
  2923  0E66  00AD               	movwf	(exp@x+3)^(0+128)
  2924  0E67  0872               	movf	?___flneg+2,w
  2925  0E68  00AC               	movwf	(exp@x+2)^(0+128)
  2926  0E69  0871               	movf	?___flneg+1,w
  2927  0E6A  00AB               	movwf	(exp@x+1)^(0+128)
  2928  0E6B  0870               	movf	?___flneg,w
  2929  0E6C  00AA               	movwf	exp@x^(0+128)
  2930  0E6D                     l3269:
  2931  0E6D  303F               	movlw	63
  2932  0E6E  1283               	bcf	3,5	;RP0=0, select bank0
  2933  0E6F  1303               	bcf	3,6	;RP1=0, select bank0
  2934  0E70  00B6               	movwf	___flmul@b+3
  2935  0E71  30B8               	movlw	184
  2936  0E72  00B5               	movwf	___flmul@b+2
  2937  0E73  30AA               	movlw	170
  2938  0E74  00B4               	movwf	___flmul@b+1
  2939  0E75  303B               	movlw	59
  2940  0E76  00B3               	movwf	___flmul@b
  2941  0E77  1683               	bsf	3,5	;RP0=1, select bank1
  2942  0E78  1303               	bcf	3,6	;RP1=0, select bank1
  2943  0E79  082D               	movf	(exp@x+3)^(0+128),w
  2944  0E7A  1283               	bcf	3,5	;RP0=0, select bank0
  2945  0E7B  1303               	bcf	3,6	;RP1=0, select bank0
  2946  0E7C  00BA               	movwf	___flmul@a+3
  2947  0E7D  1683               	bsf	3,5	;RP0=1, select bank1
  2948  0E7E  1303               	bcf	3,6	;RP1=0, select bank1
  2949  0E7F  082C               	movf	(exp@x+2)^(0+128),w
  2950  0E80  1283               	bcf	3,5	;RP0=0, select bank0
  2951  0E81  1303               	bcf	3,6	;RP1=0, select bank0
  2952  0E82  00B9               	movwf	___flmul@a+2
  2953  0E83  1683               	bsf	3,5	;RP0=1, select bank1
  2954  0E84  1303               	bcf	3,6	;RP1=0, select bank1
  2955  0E85  082B               	movf	(exp@x+1)^(0+128),w
  2956  0E86  1283               	bcf	3,5	;RP0=0, select bank0
  2957  0E87  1303               	bcf	3,6	;RP1=0, select bank0
  2958  0E88  00B8               	movwf	___flmul@a+1
  2959  0E89  1683               	bsf	3,5	;RP0=1, select bank1
  2960  0E8A  1303               	bcf	3,6	;RP1=0, select bank1
  2961  0E8B  082A               	movf	exp@x^(0+128),w
  2962  0E8C  1283               	bcf	3,5	;RP0=0, select bank0
  2963  0E8D  1303               	bcf	3,6	;RP1=0, select bank0
  2964  0E8E  00B7               	movwf	___flmul@a
  2965  0E8F  120A  118A  2492  120A  158A  	fcall	___flmul
  2966  0E94  1283               	bcf	3,5	;RP0=0, select bank0
  2967  0E95  1303               	bcf	3,6	;RP1=0, select bank0
  2968  0E96  0836               	movf	?___flmul+3,w
  2969  0E97  1683               	bsf	3,5	;RP0=1, select bank1
  2970  0E98  1303               	bcf	3,6	;RP1=0, select bank1
  2971  0E99  00AD               	movwf	(exp@x+3)^(0+128)
  2972  0E9A  1283               	bcf	3,5	;RP0=0, select bank0
  2973  0E9B  1303               	bcf	3,6	;RP1=0, select bank0
  2974  0E9C  0835               	movf	?___flmul+2,w
  2975  0E9D  1683               	bsf	3,5	;RP0=1, select bank1
  2976  0E9E  1303               	bcf	3,6	;RP1=0, select bank1
  2977  0E9F  00AC               	movwf	(exp@x+2)^(0+128)
  2978  0EA0  1283               	bcf	3,5	;RP0=0, select bank0
  2979  0EA1  1303               	bcf	3,6	;RP1=0, select bank0
  2980  0EA2  0834               	movf	?___flmul+1,w
  2981  0EA3  1683               	bsf	3,5	;RP0=1, select bank1
  2982  0EA4  1303               	bcf	3,6	;RP1=0, select bank1
  2983  0EA5  00AB               	movwf	(exp@x+1)^(0+128)
  2984  0EA6  1283               	bcf	3,5	;RP0=0, select bank0
  2985  0EA7  1303               	bcf	3,6	;RP1=0, select bank0
  2986  0EA8  0833               	movf	?___flmul,w
  2987  0EA9  1683               	bsf	3,5	;RP0=1, select bank1
  2988  0EAA  1303               	bcf	3,6	;RP1=0, select bank1
  2989  0EAB  00AA               	movwf	exp@x^(0+128)
  2990  0EAC                     l3271:
  2991  0EAC  082D               	movf	(exp@x+3)^(0+128),w
  2992  0EAD  1283               	bcf	3,5	;RP0=0, select bank0
  2993  0EAE  1303               	bcf	3,6	;RP1=0, select bank0
  2994  0EAF  00E4               	movwf	floor@x+3
  2995  0EB0  1683               	bsf	3,5	;RP0=1, select bank1
  2996  0EB1  1303               	bcf	3,6	;RP1=0, select bank1
  2997  0EB2  082C               	movf	(exp@x+2)^(0+128),w
  2998  0EB3  1283               	bcf	3,5	;RP0=0, select bank0
  2999  0EB4  1303               	bcf	3,6	;RP1=0, select bank0
  3000  0EB5  00E3               	movwf	floor@x+2
  3001  0EB6  1683               	bsf	3,5	;RP0=1, select bank1
  3002  0EB7  1303               	bcf	3,6	;RP1=0, select bank1
  3003  0EB8  082B               	movf	(exp@x+1)^(0+128),w
  3004  0EB9  1283               	bcf	3,5	;RP0=0, select bank0
  3005  0EBA  1303               	bcf	3,6	;RP1=0, select bank0
  3006  0EBB  00E2               	movwf	floor@x+1
  3007  0EBC  1683               	bsf	3,5	;RP0=1, select bank1
  3008  0EBD  1303               	bcf	3,6	;RP1=0, select bank1
  3009  0EBE  082A               	movf	exp@x^(0+128),w
  3010  0EBF  1283               	bcf	3,5	;RP0=0, select bank0
  3011  0EC0  1303               	bcf	3,6	;RP1=0, select bank0
  3012  0EC1  00E1               	movwf	floor@x
  3013  0EC2  160A  118A  25C3  120A  158A  	fcall	_floor
  3014  0EC7  1283               	bcf	3,5	;RP0=0, select bank0
  3015  0EC8  1303               	bcf	3,6	;RP1=0, select bank0
  3016  0EC9  0864               	movf	?_floor+3,w
  3017  0ECA  1683               	bsf	3,5	;RP0=1, select bank1
  3018  0ECB  1303               	bcf	3,6	;RP1=0, select bank1
  3019  0ECC  00B2               	movwf	(_exp$859+3)^(0+128)
  3020  0ECD  1283               	bcf	3,5	;RP0=0, select bank0
  3021  0ECE  1303               	bcf	3,6	;RP1=0, select bank0
  3022  0ECF  0863               	movf	?_floor+2,w
  3023  0ED0  1683               	bsf	3,5	;RP0=1, select bank1
  3024  0ED1  1303               	bcf	3,6	;RP1=0, select bank1
  3025  0ED2  00B1               	movwf	(_exp$859+2)^(0+128)
  3026  0ED3  1283               	bcf	3,5	;RP0=0, select bank0
  3027  0ED4  1303               	bcf	3,6	;RP1=0, select bank0
  3028  0ED5  0862               	movf	?_floor+1,w
  3029  0ED6  1683               	bsf	3,5	;RP0=1, select bank1
  3030  0ED7  1303               	bcf	3,6	;RP1=0, select bank1
  3031  0ED8  00B0               	movwf	(_exp$859+1)^(0+128)
  3032  0ED9  1283               	bcf	3,5	;RP0=0, select bank0
  3033  0EDA  1303               	bcf	3,6	;RP1=0, select bank0
  3034  0EDB  0861               	movf	?_floor,w
  3035  0EDC  1683               	bsf	3,5	;RP0=1, select bank1
  3036  0EDD  1303               	bcf	3,6	;RP1=0, select bank1
  3037  0EDE  00AF               	movwf	_exp$859^(0+128)
  3038  0EDF                     l3273:
  3039  0EDF  0832               	movf	(_exp$859+3)^(0+128),w
  3040  0EE0  1283               	bcf	3,5	;RP0=0, select bank0
  3041  0EE1  1303               	bcf	3,6	;RP1=0, select bank0
  3042  0EE2  00A3               	movwf	___fltol@f1+3
  3043  0EE3  1683               	bsf	3,5	;RP0=1, select bank1
  3044  0EE4  1303               	bcf	3,6	;RP1=0, select bank1
  3045  0EE5  0831               	movf	(_exp$859+2)^(0+128),w
  3046  0EE6  1283               	bcf	3,5	;RP0=0, select bank0
  3047  0EE7  1303               	bcf	3,6	;RP1=0, select bank0
  3048  0EE8  00A2               	movwf	___fltol@f1+2
  3049  0EE9  1683               	bsf	3,5	;RP0=1, select bank1
  3050  0EEA  1303               	bcf	3,6	;RP1=0, select bank1
  3051  0EEB  0830               	movf	(_exp$859+1)^(0+128),w
  3052  0EEC  1283               	bcf	3,5	;RP0=0, select bank0
  3053  0EED  1303               	bcf	3,6	;RP1=0, select bank0
  3054  0EEE  00A1               	movwf	___fltol@f1+1
  3055  0EEF  1683               	bsf	3,5	;RP0=1, select bank1
  3056  0EF0  1303               	bcf	3,6	;RP1=0, select bank1
  3057  0EF1  082F               	movf	_exp$859^(0+128),w
  3058  0EF2  1283               	bcf	3,5	;RP0=0, select bank0
  3059  0EF3  1303               	bcf	3,6	;RP1=0, select bank0
  3060  0EF4  00A0               	movwf	___fltol@f1
  3061  0EF5  120A  158A  2024  120A  158A  	fcall	___fltol
  3062  0EFA  1283               	bcf	3,5	;RP0=0, select bank0
  3063  0EFB  1303               	bcf	3,6	;RP1=0, select bank0
  3064  0EFC  0821               	movf	?___fltol+1,w
  3065  0EFD  1683               	bsf	3,5	;RP0=1, select bank1
  3066  0EFE  1303               	bcf	3,6	;RP1=0, select bank1
  3067  0EFF  00B4               	movwf	(exp@exponent+1)^(0+128)
  3068  0F00  1283               	bcf	3,5	;RP0=0, select bank0
  3069  0F01  1303               	bcf	3,6	;RP1=0, select bank0
  3070  0F02  0820               	movf	?___fltol,w
  3071  0F03  1683               	bsf	3,5	;RP0=1, select bank1
  3072  0F04  1303               	bcf	3,6	;RP1=0, select bank1
  3073  0F05  00B3               	movwf	exp@exponent^(0+128)
  3074  0F06                     l3275:
  3075  0F06  0833               	movf	exp@exponent^(0+128),w
  3076  0F07  00F0               	movwf	___xxtofl@val
  3077  0F08  0834               	movf	(exp@exponent+1)^(0+128),w
  3078  0F09  00F1               	movwf	___xxtofl@val+1
  3079  0F0A  3000               	movlw	0
  3080  0F0B  1BF1               	btfsc	___xxtofl@val+1,7
  3081  0F0C  30FF               	movlw	255
  3082  0F0D  00F2               	movwf	___xxtofl@val+2
  3083  0F0E  00F3               	movwf	___xxtofl@val+3
  3084  0F0F  3001               	movlw	1
  3085  0F10  160A  118A  2509  120A  158A  	fcall	___xxtofl
  3086  0F15  0873               	movf	?___xxtofl+3,w
  3087  0F16  1283               	bcf	3,5	;RP0=0, select bank0
  3088  0F17  1303               	bcf	3,6	;RP1=0, select bank0
  3089  0F18  00E4               	movwf	___flsub@a+3
  3090  0F19  0872               	movf	?___xxtofl+2,w
  3091  0F1A  00E3               	movwf	___flsub@a+2
  3092  0F1B  0871               	movf	?___xxtofl+1,w
  3093  0F1C  00E2               	movwf	___flsub@a+1
  3094  0F1D  0870               	movf	?___xxtofl,w
  3095  0F1E  00E1               	movwf	___flsub@a
  3096  0F1F  1683               	bsf	3,5	;RP0=1, select bank1
  3097  0F20  1303               	bcf	3,6	;RP1=0, select bank1
  3098  0F21  082D               	movf	(exp@x+3)^(0+128),w
  3099  0F22  1283               	bcf	3,5	;RP0=0, select bank0
  3100  0F23  1303               	bcf	3,6	;RP1=0, select bank0
  3101  0F24  00E8               	movwf	___flsub@b+3
  3102  0F25  1683               	bsf	3,5	;RP0=1, select bank1
  3103  0F26  1303               	bcf	3,6	;RP1=0, select bank1
  3104  0F27  082C               	movf	(exp@x+2)^(0+128),w
  3105  0F28  1283               	bcf	3,5	;RP0=0, select bank0
  3106  0F29  1303               	bcf	3,6	;RP1=0, select bank0
  3107  0F2A  00E7               	movwf	___flsub@b+2
  3108  0F2B  1683               	bsf	3,5	;RP0=1, select bank1
  3109  0F2C  1303               	bcf	3,6	;RP1=0, select bank1
  3110  0F2D  082B               	movf	(exp@x+1)^(0+128),w
  3111  0F2E  1283               	bcf	3,5	;RP0=0, select bank0
  3112  0F2F  1303               	bcf	3,6	;RP1=0, select bank0
  3113  0F30  00E6               	movwf	___flsub@b+1
  3114  0F31  1683               	bsf	3,5	;RP0=1, select bank1
  3115  0F32  1303               	bcf	3,6	;RP1=0, select bank1
  3116  0F33  082A               	movf	exp@x^(0+128),w
  3117  0F34  1283               	bcf	3,5	;RP0=0, select bank0
  3118  0F35  1303               	bcf	3,6	;RP1=0, select bank0
  3119  0F36  00E5               	movwf	___flsub@b
  3120  0F37  120A  158A  2000  120A  158A  	fcall	___flsub
  3121  0F3C  1283               	bcf	3,5	;RP0=0, select bank0
  3122  0F3D  1303               	bcf	3,6	;RP1=0, select bank0
  3123  0F3E  0864               	movf	?___flsub+3,w
  3124  0F3F  1683               	bsf	3,5	;RP0=1, select bank1
  3125  0F40  1303               	bcf	3,6	;RP1=0, select bank1
  3126  0F41  00AD               	movwf	(exp@x+3)^(0+128)
  3127  0F42  1283               	bcf	3,5	;RP0=0, select bank0
  3128  0F43  1303               	bcf	3,6	;RP1=0, select bank0
  3129  0F44  0863               	movf	?___flsub+2,w
  3130  0F45  1683               	bsf	3,5	;RP0=1, select bank1
  3131  0F46  1303               	bcf	3,6	;RP1=0, select bank1
  3132  0F47  00AC               	movwf	(exp@x+2)^(0+128)
  3133  0F48  1283               	bcf	3,5	;RP0=0, select bank0
  3134  0F49  1303               	bcf	3,6	;RP1=0, select bank0
  3135  0F4A  0862               	movf	?___flsub+1,w
  3136  0F4B  1683               	bsf	3,5	;RP0=1, select bank1
  3137  0F4C  1303               	bcf	3,6	;RP1=0, select bank1
  3138  0F4D  00AB               	movwf	(exp@x+1)^(0+128)
  3139  0F4E  1283               	bcf	3,5	;RP0=0, select bank0
  3140  0F4F  1303               	bcf	3,6	;RP1=0, select bank0
  3141  0F50  0861               	movf	?___flsub,w
  3142  0F51  1683               	bsf	3,5	;RP0=1, select bank1
  3143  0F52  1303               	bcf	3,6	;RP1=0, select bank1
  3144  0F53  00AA               	movwf	exp@x^(0+128)
  3145  0F54                     l3277:
  3146  0F54  082D               	movf	(exp@x+3)^(0+128),w
  3147  0F55  1283               	bcf	3,5	;RP0=0, select bank0
  3148  0F56  1303               	bcf	3,6	;RP1=0, select bank0
  3149  0F57  00E4               	movwf	eval_poly@x+3
  3150  0F58  1683               	bsf	3,5	;RP0=1, select bank1
  3151  0F59  1303               	bcf	3,6	;RP1=0, select bank1
  3152  0F5A  082C               	movf	(exp@x+2)^(0+128),w
  3153  0F5B  1283               	bcf	3,5	;RP0=0, select bank0
  3154  0F5C  1303               	bcf	3,6	;RP1=0, select bank0
  3155  0F5D  00E3               	movwf	eval_poly@x+2
  3156  0F5E  1683               	bsf	3,5	;RP0=1, select bank1
  3157  0F5F  1303               	bcf	3,6	;RP1=0, select bank1
  3158  0F60  082B               	movf	(exp@x+1)^(0+128),w
  3159  0F61  1283               	bcf	3,5	;RP0=0, select bank0
  3160  0F62  1303               	bcf	3,6	;RP1=0, select bank0
  3161  0F63  00E2               	movwf	eval_poly@x+1
  3162  0F64  1683               	bsf	3,5	;RP0=1, select bank1
  3163  0F65  1303               	bcf	3,6	;RP1=0, select bank1
  3164  0F66  082A               	movf	exp@x^(0+128),w
  3165  0F67  1283               	bcf	3,5	;RP0=0, select bank0
  3166  0F68  1303               	bcf	3,6	;RP1=0, select bank0
  3167  0F69  00E1               	movwf	eval_poly@x
  3168  0F6A  3001               	movlw	(low ((exp@coeff-__stringbase)| (0+32768)))& (0+255)
  3169  0F6B  1683               	bsf	3,5	;RP0=1, select bank1
  3170  0F6C  1303               	bcf	3,6	;RP1=0, select bank1
  3171  0F6D  00AE               	movwf	??_exp^(0+128)
  3172  0F6E  082E               	movf	??_exp^(0+128),w
  3173  0F6F  1283               	bcf	3,5	;RP0=0, select bank0
  3174  0F70  1303               	bcf	3,6	;RP1=0, select bank0
  3175  0F71  00E5               	movwf	eval_poly@d
  3176  0F72  3009               	movlw	9
  3177  0F73  00E6               	movwf	eval_poly@n
  3178  0F74  3000               	movlw	0
  3179  0F75  00E7               	movwf	eval_poly@n+1
  3180  0F76  120A  158A  20A0  120A  158A  	fcall	_eval_poly
  3181  0F7B  1283               	bcf	3,5	;RP0=0, select bank0
  3182  0F7C  1303               	bcf	3,6	;RP1=0, select bank0
  3183  0F7D  0864               	movf	?_eval_poly+3,w
  3184  0F7E  1683               	bsf	3,5	;RP0=1, select bank1
  3185  0F7F  1303               	bcf	3,6	;RP1=0, select bank1
  3186  0F80  00A7               	movwf	(ldexp@value+3)^(0+128)
  3187  0F81  1283               	bcf	3,5	;RP0=0, select bank0
  3188  0F82  1303               	bcf	3,6	;RP1=0, select bank0
  3189  0F83  0863               	movf	?_eval_poly+2,w
  3190  0F84  1683               	bsf	3,5	;RP0=1, select bank1
  3191  0F85  1303               	bcf	3,6	;RP1=0, select bank1
  3192  0F86  00A6               	movwf	(ldexp@value+2)^(0+128)
  3193  0F87  1283               	bcf	3,5	;RP0=0, select bank0
  3194  0F88  1303               	bcf	3,6	;RP1=0, select bank0
  3195  0F89  0862               	movf	?_eval_poly+1,w
  3196  0F8A  1683               	bsf	3,5	;RP0=1, select bank1
  3197  0F8B  1303               	bcf	3,6	;RP1=0, select bank1
  3198  0F8C  00A5               	movwf	(ldexp@value+1)^(0+128)
  3199  0F8D  1283               	bcf	3,5	;RP0=0, select bank0
  3200  0F8E  1303               	bcf	3,6	;RP1=0, select bank0
  3201  0F8F  0861               	movf	?_eval_poly,w
  3202  0F90  1683               	bsf	3,5	;RP0=1, select bank1
  3203  0F91  1303               	bcf	3,6	;RP1=0, select bank1
  3204  0F92  00A4               	movwf	ldexp@value^(0+128)
  3205  0F93  0834               	movf	(exp@exponent+1)^(0+128),w
  3206  0F94  00A9               	movwf	(ldexp@newexp+1)^(0+128)
  3207  0F95  0833               	movf	exp@exponent^(0+128),w
  3208  0F96  00A8               	movwf	ldexp@newexp^(0+128)
  3209  0F97  120A  158A  217C  120A  158A  	fcall	_ldexp
  3210  0F9C  1683               	bsf	3,5	;RP0=1, select bank1
  3211  0F9D  1303               	bcf	3,6	;RP1=0, select bank1
  3212  0F9E  0827               	movf	(?_ldexp+3)^(0+128),w
  3213  0F9F  00AD               	movwf	(exp@x+3)^(0+128)
  3214  0FA0  0826               	movf	(?_ldexp+2)^(0+128),w
  3215  0FA1  00AC               	movwf	(exp@x+2)^(0+128)
  3216  0FA2  0825               	movf	(?_ldexp+1)^(0+128),w
  3217  0FA3  00AB               	movwf	(exp@x+1)^(0+128)
  3218  0FA4  0824               	movf	?_ldexp^(0+128),w
  3219  0FA5  00AA               	movwf	exp@x^(0+128)
  3220  0FA6                     l3279:
  3221  0FA6  0835               	movf	exp@sign^(0+128),w
  3222  0FA7  1903               	btfsc	3,2
  3223  0FA8  2FAA               	goto	u5251
  3224  0FA9  2FAB               	goto	u5250
  3225  0FAA                     u5251:
  3226  0FAA  2FFF               	goto	l673
  3227  0FAB                     u5250:
  3228  0FAB                     l3281:
  3229  0FAB  082D               	movf	(exp@x+3)^(0+128),w
  3230  0FAC  1283               	bcf	3,5	;RP0=0, select bank0
  3231  0FAD  1303               	bcf	3,6	;RP1=0, select bank0
  3232  0FAE  00A3               	movwf	___fleq@ff1+3
  3233  0FAF  1683               	bsf	3,5	;RP0=1, select bank1
  3234  0FB0  1303               	bcf	3,6	;RP1=0, select bank1
  3235  0FB1  082C               	movf	(exp@x+2)^(0+128),w
  3236  0FB2  1283               	bcf	3,5	;RP0=0, select bank0
  3237  0FB3  1303               	bcf	3,6	;RP1=0, select bank0
  3238  0FB4  00A2               	movwf	___fleq@ff1+2
  3239  0FB5  1683               	bsf	3,5	;RP0=1, select bank1
  3240  0FB6  1303               	bcf	3,6	;RP1=0, select bank1
  3241  0FB7  082B               	movf	(exp@x+1)^(0+128),w
  3242  0FB8  1283               	bcf	3,5	;RP0=0, select bank0
  3243  0FB9  1303               	bcf	3,6	;RP1=0, select bank0
  3244  0FBA  00A1               	movwf	___fleq@ff1+1
  3245  0FBB  1683               	bsf	3,5	;RP0=1, select bank1
  3246  0FBC  1303               	bcf	3,6	;RP1=0, select bank1
  3247  0FBD  082A               	movf	exp@x^(0+128),w
  3248  0FBE  1283               	bcf	3,5	;RP0=0, select bank0
  3249  0FBF  1303               	bcf	3,6	;RP1=0, select bank0
  3250  0FC0  00A0               	movwf	___fleq@ff1
  3251  0FC1  307F               	movlw	127
  3252  0FC2  00A7               	movwf	___fleq@ff2+3
  3253  0FC3  307F               	movlw	127
  3254  0FC4  00A6               	movwf	___fleq@ff2+2
  3255  0FC5  30FF               	movlw	255
  3256  0FC6  00A5               	movwf	___fleq@ff2+1
  3257  0FC7  30FF               	movlw	255
  3258  0FC8  00A4               	movwf	___fleq@ff2
  3259  0FC9  160A  118A  23BB  120A  158A  	fcall	___fleq
  3260  0FCE  1C03               	btfss	3,0
  3261  0FCF  2FD1               	goto	u5261
  3262  0FD0  2FD2               	goto	u5260
  3263  0FD1                     u5261:
  3264  0FD1  2FDD               	goto	l3287
  3265  0FD2                     u5260:
  3266  0FD2                     l3283:
  3267  0FD2  3000               	movlw	0
  3268  0FD3  1683               	bsf	3,5	;RP0=1, select bank1
  3269  0FD4  1303               	bcf	3,6	;RP1=0, select bank1
  3270  0FD5  00AD               	movwf	(?_exp+3)^(0+128)
  3271  0FD6  3000               	movlw	0
  3272  0FD7  00AC               	movwf	(?_exp+2)^(0+128)
  3273  0FD8  3000               	movlw	0
  3274  0FD9  00AB               	movwf	(?_exp+1)^(0+128)
  3275  0FDA  3000               	movlw	0
  3276  0FDB  00AA               	movwf	?_exp^(0+128)
  3277  0FDC  2FFF               	goto	l669
  3278  0FDD                     l3287:
  3279  0FDD  1683               	bsf	3,5	;RP0=1, select bank1
  3280  0FDE  1303               	bcf	3,6	;RP1=0, select bank1
  3281  0FDF  082D               	movf	(exp@x+3)^(0+128),w
  3282  0FE0  00F3               	movwf	___fldiv@a+3
  3283  0FE1  082C               	movf	(exp@x+2)^(0+128),w
  3284  0FE2  00F2               	movwf	___fldiv@a+2
  3285  0FE3  082B               	movf	(exp@x+1)^(0+128),w
  3286  0FE4  00F1               	movwf	___fldiv@a+1
  3287  0FE5  082A               	movf	exp@x^(0+128),w
  3288  0FE6  00F0               	movwf	___fldiv@a
  3289  0FE7  303F               	movlw	63
  3290  0FE8  00F7               	movwf	___fldiv@b+3
  3291  0FE9  3080               	movlw	128
  3292  0FEA  00F6               	movwf	___fldiv@b+2
  3293  0FEB  3000               	movlw	0
  3294  0FEC  00F5               	movwf	___fldiv@b+1
  3295  0FED  3000               	movlw	0
  3296  0FEE  00F4               	movwf	___fldiv@b
  3297  0FEF  120A  118A  2027  120A  158A  	fcall	___fldiv
  3298  0FF4  0873               	movf	?___fldiv+3,w
  3299  0FF5  1683               	bsf	3,5	;RP0=1, select bank1
  3300  0FF6  1303               	bcf	3,6	;RP1=0, select bank1
  3301  0FF7  00AD               	movwf	(?_exp+3)^(0+128)
  3302  0FF8  0872               	movf	?___fldiv+2,w
  3303  0FF9  00AC               	movwf	(?_exp+2)^(0+128)
  3304  0FFA  0871               	movf	?___fldiv+1,w
  3305  0FFB  00AB               	movwf	(?_exp+1)^(0+128)
  3306  0FFC  0870               	movf	?___fldiv,w
  3307  0FFD  00AA               	movwf	?_exp^(0+128)
  3308  0FFE  2FFF               	goto	l669
  3309  0FFF                     l673:
  3310  0FFF                     l669:
  3311  0FFF  0008               	return
  3312  1000                     __end_of_exp:
  3313                           
  3314                           	psect	text9
  3315  097C                     __ptext9:	
  3316 ;; *************** function _ldexp *****************
  3317 ;; Defined at:
  3318 ;;		line 277 in file "C:\Program Files\Microchip\xc8\v2.31\pic\sources\c90\common\frexp.c"
  3319 ;; Parameters:    Size  Location     Type
  3320 ;;  value           4    4[BANK1 ] unsigned char 
  3321 ;;  newexp          2    8[BANK1 ] int 
  3322 ;; Auto vars:     Size  Location     Type
  3323 ;;		None
  3324 ;; Return value:  Size  Location     Type
  3325 ;;                  4    4[BANK1 ] int 
  3326 ;; Registers used:
  3327 ;;		wreg, status,2, status,0, btemp+1, pclath, cstack
  3328 ;; Tracked objects:
  3329 ;;		On entry : 0/0
  3330 ;;		On exit  : 0/0
  3331 ;;		Unchanged: 0/0
  3332 ;; Data sizes:     COMMON   BANK0   BANK1   BANK3   BANK2
  3333 ;;      Params:         0       0       6       0       0
  3334 ;;      Locals:         0       0       0       0       0
  3335 ;;      Temps:          0       2       0       0       0
  3336 ;;      Totals:         0       2       6       0       0
  3337 ;;Total ram usage:        8 bytes
  3338 ;; Hardware stack levels used:    1
  3339 ;; Hardware stack levels required when called:    1
  3340 ;; This function calls:
  3341 ;;		___fleq
  3342 ;;		___flge
  3343 ;; This function is called by:
  3344 ;;		_exp
  3345 ;; This function uses a non-reentrant model
  3346 ;;
  3347                           
  3348                           
  3349                           ;psect for function _ldexp
  3350  097C                     _ldexp:
  3351  097C                     l3185:	
  3352                           ;incstack = 0
  3353                           ; Regs used in _ldexp: [wreg+status,2+status,0+btemp+1+pclath+cstack]
  3354                           
  3355  097C  1683               	bsf	3,5	;RP0=1, select bank1
  3356  097D  1303               	bcf	3,6	;RP1=0, select bank1
  3357  097E  0827               	movf	(ldexp@value+3)^(0+128),w
  3358  097F  1283               	bcf	3,5	;RP0=0, select bank0
  3359  0980  1303               	bcf	3,6	;RP1=0, select bank0
  3360  0981  00A3               	movwf	___fleq@ff1+3
  3361  0982  1683               	bsf	3,5	;RP0=1, select bank1
  3362  0983  1303               	bcf	3,6	;RP1=0, select bank1
  3363  0984  0826               	movf	(ldexp@value+2)^(0+128),w
  3364  0985  1283               	bcf	3,5	;RP0=0, select bank0
  3365  0986  1303               	bcf	3,6	;RP1=0, select bank0
  3366  0987  00A2               	movwf	___fleq@ff1+2
  3367  0988  1683               	bsf	3,5	;RP0=1, select bank1
  3368  0989  1303               	bcf	3,6	;RP1=0, select bank1
  3369  098A  0825               	movf	(ldexp@value+1)^(0+128),w
  3370  098B  1283               	bcf	3,5	;RP0=0, select bank0
  3371  098C  1303               	bcf	3,6	;RP1=0, select bank0
  3372  098D  00A1               	movwf	___fleq@ff1+1
  3373  098E  1683               	bsf	3,5	;RP0=1, select bank1
  3374  098F  1303               	bcf	3,6	;RP1=0, select bank1
  3375  0990  0824               	movf	ldexp@value^(0+128),w
  3376  0991  1283               	bcf	3,5	;RP0=0, select bank0
  3377  0992  1303               	bcf	3,6	;RP1=0, select bank0
  3378  0993  00A0               	movwf	___fleq@ff1
  3379  0994  3000               	movlw	0
  3380  0995  00A7               	movwf	___fleq@ff2+3
  3381  0996  3000               	movlw	0
  3382  0997  00A6               	movwf	___fleq@ff2+2
  3383  0998  3000               	movlw	0
  3384  0999  00A5               	movwf	___fleq@ff2+1
  3385  099A  3000               	movlw	0
  3386  099B  00A4               	movwf	___fleq@ff2
  3387  099C  160A  118A  23BB  120A  158A  	fcall	___fleq
  3388  09A1  1C03               	btfss	3,0
  3389  09A2  29A4               	goto	u5131
  3390  09A3  29A5               	goto	u5130
  3391  09A4                     u5131:
  3392  09A4  29B0               	goto	l3191
  3393  09A5                     u5130:
  3394  09A5                     l3187:
  3395  09A5  3000               	movlw	0
  3396  09A6  1683               	bsf	3,5	;RP0=1, select bank1
  3397  09A7  1303               	bcf	3,6	;RP1=0, select bank1
  3398  09A8  00A7               	movwf	(?_ldexp+3)^(0+128)
  3399  09A9  3000               	movlw	0
  3400  09AA  00A6               	movwf	(?_ldexp+2)^(0+128)
  3401  09AB  3000               	movlw	0
  3402  09AC  00A5               	movwf	(?_ldexp+1)^(0+128)
  3403  09AD  3000               	movlw	0
  3404  09AE  00A4               	movwf	?_ldexp^(0+128)
  3405  09AF  2A59               	goto	l699
  3406  09B0                     l3191:
  3407  09B0  1683               	bsf	3,5	;RP0=1, select bank1
  3408  09B1  1303               	bcf	3,6	;RP1=0, select bank1
  3409  09B2  0827               	movf	(ldexp@value^(0+128)+3),w
  3410  09B3  397F               	andlw	127
  3411  09B4  1283               	bcf	3,5	;RP0=0, select bank0
  3412  09B5  1303               	bcf	3,6	;RP1=0, select bank0
  3413  09B6  00ED               	movwf	??_ldexp
  3414  09B7  01EE               	clrf	??_ldexp+1
  3415  09B8  1003               	clrc
  3416  09B9  0DED               	rlf	??_ldexp,f
  3417  09BA  0DEE               	rlf	??_ldexp+1,f
  3418  09BB  086D               	movf	??_ldexp,w
  3419  09BC  1683               	bsf	3,5	;RP0=1, select bank1
  3420  09BD  1303               	bcf	3,6	;RP1=0, select bank1
  3421  09BE  07A8               	addwf	ldexp@newexp^(0+128),f
  3422  09BF  1803               	skipnc
  3423  09C0  0AA9               	incf	(ldexp@newexp+1)^(0+128),f
  3424  09C1  1283               	bcf	3,5	;RP0=0, select bank0
  3425  09C2  1303               	bcf	3,6	;RP1=0, select bank0
  3426  09C3  086E               	movf	??_ldexp+1,w
  3427  09C4  1683               	bsf	3,5	;RP0=1, select bank1
  3428  09C5  1303               	bcf	3,6	;RP1=0, select bank1
  3429  09C6  07A9               	addwf	(ldexp@newexp+1)^(0+128),f
  3430  09C7  0D26               	rlf	(ldexp@value^(0+128)+2),w
  3431  09C8  0D26               	rlf	(ldexp@value^(0+128)+2),w
  3432  09C9  3901               	andlw	1
  3433  09CA  1283               	bcf	3,5	;RP0=0, select bank0
  3434  09CB  1303               	bcf	3,6	;RP1=0, select bank0
  3435  09CC  00ED               	movwf	??_ldexp
  3436  09CD  01EE               	clrf	??_ldexp+1
  3437  09CE  086D               	movf	??_ldexp,w
  3438  09CF  1683               	bsf	3,5	;RP0=1, select bank1
  3439  09D0  1303               	bcf	3,6	;RP1=0, select bank1
  3440  09D1  07A8               	addwf	ldexp@newexp^(0+128),f
  3441  09D2  1803               	skipnc
  3442  09D3  0AA9               	incf	(ldexp@newexp+1)^(0+128),f
  3443  09D4  1283               	bcf	3,5	;RP0=0, select bank0
  3444  09D5  1303               	bcf	3,6	;RP1=0, select bank0
  3445  09D6  086E               	movf	??_ldexp+1,w
  3446  09D7  1683               	bsf	3,5	;RP0=1, select bank1
  3447  09D8  1303               	bcf	3,6	;RP1=0, select bank1
  3448  09D9  07A9               	addwf	(ldexp@newexp+1)^(0+128),f
  3449  09DA                     l3193:
  3450  09DA  1FA9               	btfss	(ldexp@newexp+1)^(0+128),7
  3451  09DB  29DD               	goto	u5141
  3452  09DC  29DE               	goto	u5140
  3453  09DD                     u5141:
  3454  09DD  29EB               	goto	l3201
  3455  09DE                     u5140:
  3456  09DE                     l3195:
  3457  09DE  3022               	movlw	34
  3458  09DF  00D4               	movwf	_errno^(0+128)
  3459  09E0  3000               	movlw	0
  3460  09E1  00D5               	movwf	(_errno^(0+128)+1)
  3461  09E2  3000               	movlw	0
  3462  09E3  00A7               	movwf	(?_ldexp+3)^(0+128)
  3463  09E4  3000               	movlw	0
  3464  09E5  00A6               	movwf	(?_ldexp+2)^(0+128)
  3465  09E6  3000               	movlw	0
  3466  09E7  00A5               	movwf	(?_ldexp+1)^(0+128)
  3467  09E8  3000               	movlw	0
  3468  09E9  00A4               	movwf	?_ldexp^(0+128)
  3469  09EA  2A59               	goto	l699
  3470  09EB                     l3201:
  3471  09EB  0829               	movf	(ldexp@newexp+1)^(0+128),w
  3472  09EC  3A80               	xorlw	128
  3473  09ED  00FF               	movwf	btemp+1
  3474  09EE  3081               	movlw	129
  3475  09EF  027F               	subwf	btemp+1,w
  3476  09F0  1D03               	skipz
  3477  09F1  29F4               	goto	u5155
  3478  09F2  3000               	movlw	0
  3479  09F3  0228               	subwf	ldexp@newexp^(0+128),w
  3480  09F4                     u5155:
  3481  09F4  1C03               	skipc
  3482  09F5  29F7               	goto	u5151
  3483  09F6  29F8               	goto	u5150
  3484  09F7                     u5151:
  3485  09F7  2A2D               	goto	l3217
  3486  09F8                     u5150:
  3487  09F8                     l3203:
  3488  09F8  3022               	movlw	34
  3489  09F9  1683               	bsf	3,5	;RP0=1, select bank1
  3490  09FA  1303               	bcf	3,6	;RP1=0, select bank1
  3491  09FB  00D4               	movwf	_errno^(0+128)
  3492  09FC  3000               	movlw	0
  3493  09FD  00D5               	movwf	(_errno^(0+128)+1)
  3494  09FE                     l3205:
  3495  09FE  0827               	movf	(ldexp@value+3)^(0+128),w
  3496  09FF  00F3               	movwf	___flge@ff1+3
  3497  0A00  0826               	movf	(ldexp@value+2)^(0+128),w
  3498  0A01  00F2               	movwf	___flge@ff1+2
  3499  0A02  0825               	movf	(ldexp@value+1)^(0+128),w
  3500  0A03  00F1               	movwf	___flge@ff1+1
  3501  0A04  0824               	movf	ldexp@value^(0+128),w
  3502  0A05  00F0               	movwf	___flge@ff1
  3503  0A06  3000               	movlw	0
  3504  0A07  00F7               	movwf	___flge@ff2+3
  3505  0A08  3000               	movlw	0
  3506  0A09  00F6               	movwf	___flge@ff2+2
  3507  0A0A  3000               	movlw	0
  3508  0A0B  00F5               	movwf	___flge@ff2+1
  3509  0A0C  3000               	movlw	0
  3510  0A0D  00F4               	movwf	___flge@ff2
  3511  0A0E  160A  118A  2467  120A  158A  	fcall	___flge
  3512  0A13  1803               	btfsc	3,0
  3513  0A14  2A16               	goto	u5161
  3514  0A15  2A17               	goto	u5160
  3515  0A16                     u5161:
  3516  0A16  2A22               	goto	l3213
  3517  0A17                     u5160:
  3518  0A17                     l3207:
  3519  0A17  30FF               	movlw	255
  3520  0A18  1683               	bsf	3,5	;RP0=1, select bank1
  3521  0A19  1303               	bcf	3,6	;RP1=0, select bank1
  3522  0A1A  00A7               	movwf	(?_ldexp+3)^(0+128)
  3523  0A1B  307F               	movlw	127
  3524  0A1C  00A6               	movwf	(?_ldexp+2)^(0+128)
  3525  0A1D  30FF               	movlw	255
  3526  0A1E  00A5               	movwf	(?_ldexp+1)^(0+128)
  3527  0A1F  30FF               	movlw	255
  3528  0A20  00A4               	movwf	?_ldexp^(0+128)
  3529  0A21  2A59               	goto	l699
  3530  0A22                     l3213:
  3531  0A22  307F               	movlw	127
  3532  0A23  1683               	bsf	3,5	;RP0=1, select bank1
  3533  0A24  1303               	bcf	3,6	;RP1=0, select bank1
  3534  0A25  00A7               	movwf	(?_ldexp+3)^(0+128)
  3535  0A26  307F               	movlw	127
  3536  0A27  00A6               	movwf	(?_ldexp+2)^(0+128)
  3537  0A28  30FF               	movlw	255
  3538  0A29  00A5               	movwf	(?_ldexp+1)^(0+128)
  3539  0A2A  30FF               	movlw	255
  3540  0A2B  00A4               	movwf	?_ldexp^(0+128)
  3541  0A2C  2A59               	goto	l699
  3542  0A2D                     l3217:
  3543  0A2D  1683               	bsf	3,5	;RP0=1, select bank1
  3544  0A2E  1303               	bcf	3,6	;RP1=0, select bank1
  3545  0A2F  0829               	movf	(ldexp@newexp+1)^(0+128),w
  3546  0A30  1283               	bcf	3,5	;RP0=0, select bank0
  3547  0A31  1303               	bcf	3,6	;RP1=0, select bank0
  3548  0A32  00EE               	movwf	??_ldexp+1
  3549  0A33  1683               	bsf	3,5	;RP0=1, select bank1
  3550  0A34  1303               	bcf	3,6	;RP1=0, select bank1
  3551  0A35  0828               	movf	ldexp@newexp^(0+128),w
  3552  0A36  1283               	bcf	3,5	;RP0=0, select bank0
  3553  0A37  1303               	bcf	3,6	;RP1=0, select bank0
  3554  0A38  00ED               	movwf	??_ldexp
  3555  0A39  0D6E               	rlf	??_ldexp+1,w
  3556  0A3A  0CEE               	rrf	??_ldexp+1,f
  3557  0A3B  0CED               	rrf	??_ldexp,f
  3558  0A3C  1683               	bsf	3,5	;RP0=1, select bank1
  3559  0A3D  1303               	bcf	3,6	;RP1=0, select bank1
  3560  0A3E  0827               	movf	(ldexp@value^(0+128)+3),w
  3561  0A3F  1283               	bcf	3,5	;RP0=0, select bank0
  3562  0A40  1303               	bcf	3,6	;RP1=0, select bank0
  3563  0A41  066D               	xorwf	??_ldexp,w
  3564  0A42  3980               	andlw	-128
  3565  0A43  066D               	xorwf	??_ldexp,w
  3566  0A44  1683               	bsf	3,5	;RP0=1, select bank1
  3567  0A45  1303               	bcf	3,6	;RP1=0, select bank1
  3568  0A46  00A7               	movwf	(ldexp@value^(0+128)+3)
  3569  0A47  0828               	movf	ldexp@newexp^(0+128),w
  3570  0A48  3901               	andlw	1
  3571  0A49  1283               	bcf	3,5	;RP0=0, select bank0
  3572  0A4A  1303               	bcf	3,6	;RP1=0, select bank0
  3573  0A4B  00ED               	movwf	??_ldexp
  3574  0A4C  0CED               	rrf	??_ldexp,f
  3575  0A4D  0CED               	rrf	??_ldexp,f
  3576  0A4E  1683               	bsf	3,5	;RP0=1, select bank1
  3577  0A4F  1303               	bcf	3,6	;RP1=0, select bank1
  3578  0A50  0826               	movf	(ldexp@value^(0+128)+2),w
  3579  0A51  1283               	bcf	3,5	;RP0=0, select bank0
  3580  0A52  1303               	bcf	3,6	;RP1=0, select bank0
  3581  0A53  066D               	xorwf	??_ldexp,w
  3582  0A54  397F               	andlw	-129
  3583  0A55  066D               	xorwf	??_ldexp,w
  3584  0A56  1683               	bsf	3,5	;RP0=1, select bank1
  3585  0A57  1303               	bcf	3,6	;RP1=0, select bank1
  3586  0A58  00A6               	movwf	(ldexp@value^(0+128)+2)
  3587  0A59                     l3219:
  3588  0A59                     l699:
  3589  0A59  0008               	return
  3590  0A5A                     __end_of_ldexp:
  3591                           
  3592                           	psect	text10
  3593  15C3                     __ptext10:	
  3594 ;; *************** function _floor *****************
  3595 ;; Defined at:
  3596 ;;		line 13 in file "C:\Program Files\Microchip\xc8\v2.31\pic\sources\c90\common\floor.c"
  3597 ;; Parameters:    Size  Location     Type
  3598 ;;  x               4   65[BANK0 ] int 
  3599 ;; Auto vars:     Size  Location     Type
  3600 ;;  i               4   70[BANK0 ] int 
  3601 ;;  expon           2   74[BANK0 ] int 
  3602 ;; Return value:  Size  Location     Type
  3603 ;;                  4   65[BANK0 ] int 
  3604 ;; Registers used:
  3605 ;;		wreg, fsr0l, fsr0h, status,2, status,0, btemp+1, pclath, cstack
  3606 ;; Tracked objects:
  3607 ;;		On entry : 0/0
  3608 ;;		On exit  : 0/0
  3609 ;;		Unchanged: 0/0
  3610 ;; Data sizes:     COMMON   BANK0   BANK1   BANK3   BANK2
  3611 ;;      Params:         0       4       0       0       0
  3612 ;;      Locals:         0       6       0       0       0
  3613 ;;      Temps:          0       1       0       0       0
  3614 ;;      Totals:         0      11       0       0       0
  3615 ;;Total ram usage:       11 bytes
  3616 ;; Hardware stack levels used:    1
  3617 ;; Hardware stack levels required when called:    2
  3618 ;; This function calls:
  3619 ;;		___fladd
  3620 ;;		___flge
  3621 ;;		___fltol
  3622 ;;		___xxtofl
  3623 ;;		_frexp
  3624 ;; This function is called by:
  3625 ;;		_exp
  3626 ;; This function uses a non-reentrant model
  3627 ;;
  3628                           
  3629                           
  3630                           ;psect for function _floor
  3631  15C3                     _floor:
  3632  15C3                     l3147:	
  3633                           ;incstack = 0
  3634                           ; Regs used in _floor: [wreg-fsr0h+status,2+status,0+btemp+1+pclath+cstack]
  3635                           
  3636  15C3  1283               	bcf	3,5	;RP0=0, select bank0
  3637  15C4  1303               	bcf	3,6	;RP1=0, select bank0
  3638  15C5  0864               	movf	floor@x+3,w
  3639  15C6  00AF               	movwf	frexp@value+3
  3640  15C7  0863               	movf	floor@x+2,w
  3641  15C8  00AE               	movwf	frexp@value+2
  3642  15C9  0862               	movf	floor@x+1,w
  3643  15CA  00AD               	movwf	frexp@value+1
  3644  15CB  0861               	movf	floor@x,w
  3645  15CC  00AC               	movwf	frexp@value
  3646  15CD  306A               	movlw	(low (floor@expon| 0))& (0+255)
  3647  15CE  00E5               	movwf	??_floor
  3648  15CF  0865               	movf	??_floor,w
  3649  15D0  00B0               	movwf	frexp@eptr
  3650  15D1  160A  118A  240B  160A  118A  	fcall	_frexp
  3651  15D6                     l3149:
  3652  15D6  1283               	bcf	3,5	;RP0=0, select bank0
  3653  15D7  1303               	bcf	3,6	;RP1=0, select bank0
  3654  15D8  1FEB               	btfss	floor@expon+1,7
  3655  15D9  2DDB               	goto	u5061
  3656  15DA  2DDC               	goto	u5060
  3657  15DB                     u5061:
  3658  15DB  2E0B               	goto	l3161
  3659  15DC                     u5060:
  3660  15DC                     l3151:
  3661  15DC  0864               	movf	floor@x+3,w
  3662  15DD  00F3               	movwf	___flge@ff1+3
  3663  15DE  0863               	movf	floor@x+2,w
  3664  15DF  00F2               	movwf	___flge@ff1+2
  3665  15E0  0862               	movf	floor@x+1,w
  3666  15E1  00F1               	movwf	___flge@ff1+1
  3667  15E2  0861               	movf	floor@x,w
  3668  15E3  00F0               	movwf	___flge@ff1
  3669  15E4  3000               	movlw	0
  3670  15E5  00F7               	movwf	___flge@ff2+3
  3671  15E6  3000               	movlw	0
  3672  15E7  00F6               	movwf	___flge@ff2+2
  3673  15E8  3000               	movlw	0
  3674  15E9  00F5               	movwf	___flge@ff2+1
  3675  15EA  3000               	movlw	0
  3676  15EB  00F4               	movwf	___flge@ff2
  3677  15EC  160A  118A  2467  160A  118A  	fcall	___flge
  3678  15F1  1803               	btfsc	3,0
  3679  15F2  2DF4               	goto	u5071
  3680  15F3  2DF5               	goto	u5070
  3681  15F4                     u5071:
  3682  15F4  2E00               	goto	l3157
  3683  15F5                     u5070:
  3684  15F5                     l3153:
  3685  15F5  30BF               	movlw	191
  3686  15F6  1283               	bcf	3,5	;RP0=0, select bank0
  3687  15F7  1303               	bcf	3,6	;RP1=0, select bank0
  3688  15F8  00E4               	movwf	?_floor+3
  3689  15F9  3080               	movlw	128
  3690  15FA  00E3               	movwf	?_floor+2
  3691  15FB  3000               	movlw	0
  3692  15FC  00E2               	movwf	?_floor+1
  3693  15FD  3000               	movlw	0
  3694  15FE  00E1               	movwf	?_floor
  3695  15FF  2E81               	goto	l687
  3696  1600                     l3157:
  3697  1600  3000               	movlw	0
  3698  1601  1283               	bcf	3,5	;RP0=0, select bank0
  3699  1602  1303               	bcf	3,6	;RP1=0, select bank0
  3700  1603  00E4               	movwf	?_floor+3
  3701  1604  3000               	movlw	0
  3702  1605  00E3               	movwf	?_floor+2
  3703  1606  3000               	movlw	0
  3704  1607  00E2               	movwf	?_floor+1
  3705  1608  3000               	movlw	0
  3706  1609  00E1               	movwf	?_floor
  3707  160A  2E81               	goto	l687
  3708  160B                     l3161:
  3709  160B  3000               	movlw	0
  3710  160C  026B               	subwf	floor@expon+1,w
  3711  160D  301D               	movlw	29
  3712  160E  1903               	skipnz
  3713  160F  026A               	subwf	floor@expon,w
  3714  1610  1C03               	skipc
  3715  1611  2E13               	goto	u5081
  3716  1612  2E14               	goto	u5080
  3717  1613                     u5081:
  3718  1613  2E15               	goto	l3165
  3719  1614                     u5080:
  3720  1614                     l3163:
  3721  1614  2E81               	goto	l687
  3722  1615                     l3165:
  3723  1615  0864               	movf	floor@x+3,w
  3724  1616  00A3               	movwf	___fltol@f1+3
  3725  1617  0863               	movf	floor@x+2,w
  3726  1618  00A2               	movwf	___fltol@f1+2
  3727  1619  0862               	movf	floor@x+1,w
  3728  161A  00A1               	movwf	___fltol@f1+1
  3729  161B  0861               	movf	floor@x,w
  3730  161C  00A0               	movwf	___fltol@f1
  3731  161D  120A  158A  2024  160A  118A  	fcall	___fltol
  3732  1622  1283               	bcf	3,5	;RP0=0, select bank0
  3733  1623  1303               	bcf	3,6	;RP1=0, select bank0
  3734  1624  0823               	movf	?___fltol+3,w
  3735  1625  00F3               	movwf	___xxtofl@val+3
  3736  1626  0822               	movf	?___fltol+2,w
  3737  1627  00F2               	movwf	___xxtofl@val+2
  3738  1628  0821               	movf	?___fltol+1,w
  3739  1629  00F1               	movwf	___xxtofl@val+1
  3740  162A  0820               	movf	?___fltol,w
  3741  162B  00F0               	movwf	___xxtofl@val
  3742  162C  3001               	movlw	1
  3743  162D  160A  118A  2509  160A  118A  	fcall	___xxtofl
  3744  1632  0873               	movf	?___xxtofl+3,w
  3745  1633  1283               	bcf	3,5	;RP0=0, select bank0
  3746  1634  1303               	bcf	3,6	;RP1=0, select bank0
  3747  1635  00E9               	movwf	floor@i+3
  3748  1636  0872               	movf	?___xxtofl+2,w
  3749  1637  00E8               	movwf	floor@i+2
  3750  1638  0871               	movf	?___xxtofl+1,w
  3751  1639  00E7               	movwf	floor@i+1
  3752  163A  0870               	movf	?___xxtofl,w
  3753  163B  00E6               	movwf	floor@i
  3754  163C  0864               	movf	floor@x+3,w
  3755  163D  00F3               	movwf	___flge@ff1+3
  3756  163E  0863               	movf	floor@x+2,w
  3757  163F  00F2               	movwf	___flge@ff1+2
  3758  1640  0862               	movf	floor@x+1,w
  3759  1641  00F1               	movwf	___flge@ff1+1
  3760  1642  0861               	movf	floor@x,w
  3761  1643  00F0               	movwf	___flge@ff1
  3762  1644  0869               	movf	floor@i+3,w
  3763  1645  00F7               	movwf	___flge@ff2+3
  3764  1646  0868               	movf	floor@i+2,w
  3765  1647  00F6               	movwf	___flge@ff2+2
  3766  1648  0867               	movf	floor@i+1,w
  3767  1649  00F5               	movwf	___flge@ff2+1
  3768  164A  0866               	movf	floor@i,w
  3769  164B  00F4               	movwf	___flge@ff2
  3770  164C  160A  118A  2467  160A  118A  	fcall	___flge
  3771  1651  1803               	btfsc	3,0
  3772  1652  2E54               	goto	u5091
  3773  1653  2E55               	goto	u5090
  3774  1654                     u5091:
  3775  1654  2E77               	goto	l3171
  3776  1655                     u5090:
  3777  1655                     l3167:
  3778  1655  30BF               	movlw	191
  3779  1656  1283               	bcf	3,5	;RP0=0, select bank0
  3780  1657  1303               	bcf	3,6	;RP1=0, select bank0
  3781  1658  00D0               	movwf	___fladd@b+3
  3782  1659  3080               	movlw	128
  3783  165A  00CF               	movwf	___fladd@b+2
  3784  165B  3000               	movlw	0
  3785  165C  00CE               	movwf	___fladd@b+1
  3786  165D  3000               	movlw	0
  3787  165E  00CD               	movwf	___fladd@b
  3788  165F  0869               	movf	floor@i+3,w
  3789  1660  00D4               	movwf	___fladd@a+3
  3790  1661  0868               	movf	floor@i+2,w
  3791  1662  00D3               	movwf	___fladd@a+2
  3792  1663  0867               	movf	floor@i+1,w
  3793  1664  00D2               	movwf	___fladd@a+1
  3794  1665  0866               	movf	floor@i,w
  3795  1666  00D1               	movwf	___fladd@a
  3796  1667  120A  118A  220A  160A  118A  	fcall	___fladd
  3797  166C  1283               	bcf	3,5	;RP0=0, select bank0
  3798  166D  1303               	bcf	3,6	;RP1=0, select bank0
  3799  166E  0850               	movf	?___fladd+3,w
  3800  166F  00E4               	movwf	?_floor+3
  3801  1670  084F               	movf	?___fladd+2,w
  3802  1671  00E3               	movwf	?_floor+2
  3803  1672  084E               	movf	?___fladd+1,w
  3804  1673  00E2               	movwf	?_floor+1
  3805  1674  084D               	movf	?___fladd,w
  3806  1675  00E1               	movwf	?_floor
  3807  1676  2E81               	goto	l687
  3808  1677                     l3171:
  3809  1677  1283               	bcf	3,5	;RP0=0, select bank0
  3810  1678  1303               	bcf	3,6	;RP1=0, select bank0
  3811  1679  0869               	movf	floor@i+3,w
  3812  167A  00E4               	movwf	?_floor+3
  3813  167B  0868               	movf	floor@i+2,w
  3814  167C  00E3               	movwf	?_floor+2
  3815  167D  0867               	movf	floor@i+1,w
  3816  167E  00E2               	movwf	?_floor+1
  3817  167F  0866               	movf	floor@i,w
  3818  1680  00E1               	movwf	?_floor
  3819  1681                     l687:
  3820  1681  0008               	return
  3821  1682                     __end_of_floor:
  3822                           
  3823                           	psect	text11
  3824  140B                     __ptext11:	
  3825 ;; *************** function _frexp *****************
  3826 ;; Defined at:
  3827 ;;		line 254 in file "C:\Program Files\Microchip\xc8\v2.31\pic\sources\c90\common\frexp.c"
  3828 ;; Parameters:    Size  Location     Type
  3829 ;;  value           4   12[BANK0 ] int 
  3830 ;;  eptr            1   16[BANK0 ] PTR int 
  3831 ;;		 -> log@exponent(2), floor@expon(2), 
  3832 ;; Auto vars:     Size  Location     Type
  3833 ;;		None
  3834 ;; Return value:  Size  Location     Type
  3835 ;;                  4   12[BANK0 ] PTR int 
  3836 ;; Registers used:
  3837 ;;		wreg, fsr0l, fsr0h, status,2, status,0, btemp+1, pclath, cstack
  3838 ;; Tracked objects:
  3839 ;;		On entry : 0/0
  3840 ;;		On exit  : 0/0
  3841 ;;		Unchanged: 0/0
  3842 ;; Data sizes:     COMMON   BANK0   BANK1   BANK3   BANK2
  3843 ;;      Params:         0       5       0       0       0
  3844 ;;      Locals:         0       0       0       0       0
  3845 ;;      Temps:          0       2       0       0       0
  3846 ;;      Totals:         0       7       0       0       0
  3847 ;;Total ram usage:        7 bytes
  3848 ;; Hardware stack levels used:    1
  3849 ;; Hardware stack levels required when called:    1
  3850 ;; This function calls:
  3851 ;;		___fleq
  3852 ;; This function is called by:
  3853 ;;		_floor
  3854 ;;		_log
  3855 ;; This function uses a non-reentrant model
  3856 ;;
  3857                           
  3858                           
  3859                           ;psect for function _frexp
  3860  140B                     _frexp:
  3861  140B                     l3121:	
  3862                           ;incstack = 0
  3863                           ; Regs used in _frexp: [wreg-fsr0h+status,2+status,0+btemp+1+pclath+cstack]
  3864                           
  3865  140B  1283               	bcf	3,5	;RP0=0, select bank0
  3866  140C  1303               	bcf	3,6	;RP1=0, select bank0
  3867  140D  082F               	movf	frexp@value+3,w
  3868  140E  00A3               	movwf	___fleq@ff1+3
  3869  140F  082E               	movf	frexp@value+2,w
  3870  1410  00A2               	movwf	___fleq@ff1+2
  3871  1411  082D               	movf	frexp@value+1,w
  3872  1412  00A1               	movwf	___fleq@ff1+1
  3873  1413  082C               	movf	frexp@value,w
  3874  1414  00A0               	movwf	___fleq@ff1
  3875  1415  3000               	movlw	0
  3876  1416  00A7               	movwf	___fleq@ff2+3
  3877  1417  3000               	movlw	0
  3878  1418  00A6               	movwf	___fleq@ff2+2
  3879  1419  3000               	movlw	0
  3880  141A  00A5               	movwf	___fleq@ff2+1
  3881  141B  3000               	movlw	0
  3882  141C  00A4               	movwf	___fleq@ff2
  3883  141D  160A  118A  23BB  160A  118A  	fcall	___fleq
  3884  1422  1C03               	btfss	3,0
  3885  1423  2C25               	goto	u5051
  3886  1424  2C26               	goto	u5050
  3887  1425                     u5051:
  3888  1425  2C37               	goto	l3129
  3889  1426                     u5050:
  3890  1426                     l3123:
  3891  1426  1283               	bcf	3,5	;RP0=0, select bank0
  3892  1427  1303               	bcf	3,6	;RP1=0, select bank0
  3893  1428  0830               	movf	frexp@eptr,w
  3894  1429  0084               	movwf	4
  3895  142A  1383               	bcf	3,7	;select IRP bank0
  3896  142B  0180               	clrf	0
  3897  142C  0A84               	incf	4,f
  3898  142D  0180               	clrf	0
  3899  142E                     l3125:
  3900  142E  3000               	movlw	0
  3901  142F  00AF               	movwf	?_frexp+3
  3902  1430  3000               	movlw	0
  3903  1431  00AE               	movwf	?_frexp+2
  3904  1432  3000               	movlw	0
  3905  1433  00AD               	movwf	?_frexp+1
  3906  1434  3000               	movlw	0
  3907  1435  00AC               	movwf	?_frexp
  3908  1436  2C66               	goto	l695
  3909  1437                     l3129:
  3910  1437  1283               	bcf	3,5	;RP0=0, select bank0
  3911  1438  1303               	bcf	3,6	;RP1=0, select bank0
  3912  1439  082F               	movf	frexp@value+3,w
  3913  143A  397F               	andlw	127
  3914  143B  00B1               	movwf	??_frexp
  3915  143C  01B2               	clrf	??_frexp+1
  3916  143D  1003               	clrc
  3917  143E  0DB1               	rlf	??_frexp,f
  3918  143F  0DB2               	rlf	??_frexp+1,f
  3919  1440  0830               	movf	frexp@eptr,w
  3920  1441  0084               	movwf	4
  3921  1442  0831               	movf	??_frexp,w
  3922  1443  1383               	bcf	3,7	;select IRP bank0
  3923  1444  0080               	movwf	0
  3924  1445  0A84               	incf	4,f
  3925  1446  0832               	movf	??_frexp+1,w
  3926  1447  0080               	movwf	0
  3927  1448  0D2E               	rlf	frexp@value+2,w
  3928  1449  0D2E               	rlf	frexp@value+2,w
  3929  144A  3901               	andlw	1
  3930  144B  00B1               	movwf	??_frexp
  3931  144C  01B2               	clrf	??_frexp+1
  3932  144D  0830               	movf	frexp@eptr,w
  3933  144E  0084               	movwf	4
  3934  144F  0831               	movf	??_frexp,w
  3935  1450  0480               	iorwf	0,f
  3936  1451  0A84               	incf	4,f
  3937  1452  0832               	movf	??_frexp+1,w
  3938  1453  0480               	iorwf	0,f
  3939  1454                     l3131:
  3940  1454  0830               	movf	frexp@eptr,w
  3941  1455  0084               	movwf	4
  3942  1456  3082               	movlw	130
  3943  1457  0780               	addwf	0,f
  3944  1458  0F84               	incfsz	4,f
  3945  1459  0800               	movf	0,w
  3946  145A  1803               	skipnc
  3947  145B  0A00               	incf	0,w
  3948  145C  00FF               	movwf	btemp+1
  3949  145D  30FF               	movlw	255
  3950  145E  077F               	addwf	btemp+1,w
  3951  145F  0080               	movwf	0
  3952  1460  0384               	decf	4,f
  3953  1461                     l3133:
  3954  1461  082F               	movf	frexp@value+3,w
  3955  1462  3980               	andlw	-128
  3956  1463  383F               	iorlw	63
  3957  1464  00AF               	movwf	frexp@value+3
  3958  1465                     l3135:
  3959  1465  13AE               	bcf	frexp@value+2,7
  3960  1466                     l3137:
  3961  1466                     l695:
  3962  1466  0008               	return
  3963  1467                     __end_of_frexp:
  3964                           
  3965                           	psect	text12
  3966  13BB                     __ptext12:	
  3967 ;; *************** function ___fleq *****************
  3968 ;; Defined at:
  3969 ;;		line 4 in file "C:\Program Files\Microchip\xc8\v2.31\pic\sources\c90\common\fleq.c"
  3970 ;; Parameters:    Size  Location     Type
  3971 ;;  ff1             4    0[BANK0 ] PTR int 
  3972 ;;  ff2             4    4[BANK0 ] PTR int 
  3973 ;; Auto vars:     Size  Location     Type
  3974 ;;		None
  3975 ;; Return value:  Size  Location     Type
  3976 ;;		None               void
  3977 ;; Registers used:
  3978 ;;		wreg, status,2, status,0
  3979 ;; Tracked objects:
  3980 ;;		On entry : 0/0
  3981 ;;		On exit  : 0/0
  3982 ;;		Unchanged: 0/0
  3983 ;; Data sizes:     COMMON   BANK0   BANK1   BANK3   BANK2
  3984 ;;      Params:         0       8       0       0       0
  3985 ;;      Locals:         0       0       0       0       0
  3986 ;;      Temps:          0       4       0       0       0
  3987 ;;      Totals:         0      12       0       0       0
  3988 ;;Total ram usage:       12 bytes
  3989 ;; Hardware stack levels used:    1
  3990 ;; This function calls:
  3991 ;;		Nothing
  3992 ;; This function is called by:
  3993 ;;		_pow
  3994 ;;		_exp
  3995 ;;		_frexp
  3996 ;;		_ldexp
  3997 ;;		_log
  3998 ;; This function uses a non-reentrant model
  3999 ;;
  4000                           
  4001                           
  4002                           ;psect for function ___fleq
  4003  13BB                     ___fleq:
  4004  13BB                     l2697:	
  4005                           ;incstack = 0
  4006                           ; Regs used in ___fleq: [wreg+status,2+status,0]
  4007                           
  4008  13BB  3000               	movlw	0
  4009  13BC  1283               	bcf	3,5	;RP0=0, select bank0
  4010  13BD  1303               	bcf	3,6	;RP1=0, select bank0
  4011  13BE  0520               	andwf	___fleq@ff1,w
  4012  13BF  00A8               	movwf	??___fleq
  4013  13C0  3000               	movlw	0
  4014  13C1  0521               	andwf	___fleq@ff1+1,w
  4015  13C2  00A9               	movwf	??___fleq+1
  4016  13C3  3080               	movlw	128
  4017  13C4  0522               	andwf	___fleq@ff1+2,w
  4018  13C5  00AA               	movwf	??___fleq+2
  4019  13C6  307F               	movlw	127
  4020  13C7  0523               	andwf	___fleq@ff1+3,w
  4021  13C8  00AB               	movwf	??___fleq+3
  4022  13C9  082B               	movf	??___fleq+3,w
  4023  13CA  042A               	iorwf	??___fleq+2,w
  4024  13CB  0429               	iorwf	??___fleq+1,w
  4025  13CC  0428               	iorwf	??___fleq,w
  4026  13CD  1D03               	skipz
  4027  13CE  2BD0               	goto	u3951
  4028  13CF  2BD1               	goto	u3950
  4029  13D0                     u3951:
  4030  13D0  2BD9               	goto	l359
  4031  13D1                     u3950:
  4032  13D1                     l2699:
  4033  13D1  3000               	movlw	0
  4034  13D2  00A3               	movwf	___fleq@ff1+3
  4035  13D3  3000               	movlw	0
  4036  13D4  00A2               	movwf	___fleq@ff1+2
  4037  13D5  3000               	movlw	0
  4038  13D6  00A1               	movwf	___fleq@ff1+1
  4039  13D7  3000               	movlw	0
  4040  13D8  00A0               	movwf	___fleq@ff1
  4041  13D9                     l359:
  4042  13D9  3000               	movlw	0
  4043  13DA  0524               	andwf	___fleq@ff2,w
  4044  13DB  00A8               	movwf	??___fleq
  4045  13DC  3000               	movlw	0
  4046  13DD  0525               	andwf	___fleq@ff2+1,w
  4047  13DE  00A9               	movwf	??___fleq+1
  4048  13DF  3080               	movlw	128
  4049  13E0  0526               	andwf	___fleq@ff2+2,w
  4050  13E1  00AA               	movwf	??___fleq+2
  4051  13E2  307F               	movlw	127
  4052  13E3  0527               	andwf	___fleq@ff2+3,w
  4053  13E4  00AB               	movwf	??___fleq+3
  4054  13E5  082B               	movf	??___fleq+3,w
  4055  13E6  042A               	iorwf	??___fleq+2,w
  4056  13E7  0429               	iorwf	??___fleq+1,w
  4057  13E8  0428               	iorwf	??___fleq,w
  4058  13E9  1D03               	skipz
  4059  13EA  2BEC               	goto	u3961
  4060  13EB  2BED               	goto	u3960
  4061  13EC                     u3961:
  4062  13EC  2BF5               	goto	l360
  4063  13ED                     u3960:
  4064  13ED                     l2701:
  4065  13ED  3000               	movlw	0
  4066  13EE  00A7               	movwf	___fleq@ff2+3
  4067  13EF  3000               	movlw	0
  4068  13F0  00A6               	movwf	___fleq@ff2+2
  4069  13F1  3000               	movlw	0
  4070  13F2  00A5               	movwf	___fleq@ff2+1
  4071  13F3  3000               	movlw	0
  4072  13F4  00A4               	movwf	___fleq@ff2
  4073  13F5                     l360:
  4074  13F5  0827               	movf	___fleq@ff2+3,w
  4075  13F6  0623               	xorwf	___fleq@ff1+3,w
  4076  13F7  1D03               	skipz
  4077  13F8  2C03               	goto	u3975
  4078  13F9  0826               	movf	___fleq@ff2+2,w
  4079  13FA  0622               	xorwf	___fleq@ff1+2,w
  4080  13FB  1D03               	skipz
  4081  13FC  2C03               	goto	u3975
  4082  13FD  0825               	movf	___fleq@ff2+1,w
  4083  13FE  0621               	xorwf	___fleq@ff1+1,w
  4084  13FF  1D03               	skipz
  4085  1400  2C03               	goto	u3975
  4086  1401  0824               	movf	___fleq@ff2,w
  4087  1402  0620               	xorwf	___fleq@ff1,w
  4088  1403                     u3975:
  4089  1403  1903               	skipnz
  4090  1404  2C06               	goto	u3971
  4091  1405  2C07               	goto	u3970
  4092  1406                     u3971:
  4093  1406  2C09               	goto	l2705
  4094  1407                     u3970:
  4095  1407                     l2703:
  4096  1407  1003               	clrc
  4097  1408  2C0A               	goto	l361
  4098  1409                     l2705:
  4099  1409  1403               	setc
  4100  140A                     l361:
  4101  140A  0008               	return
  4102  140B                     __end_of___fleq:
  4103                           
  4104                           	psect	text13
  4105  1509                     __ptext13:	
  4106 ;; *************** function ___xxtofl *****************
  4107 ;; Defined at:
  4108 ;;		line 10 in file "C:\Program Files\Microchip\xc8\v2.31\pic\sources\c90\common\xxtofl.c"
  4109 ;; Parameters:    Size  Location     Type
  4110 ;;  sign            1    wreg     unsigned char 
  4111 ;;  val             4    0[COMMON] long 
  4112 ;; Auto vars:     Size  Location     Type
  4113 ;;  sign            1    8[COMMON] unsigned char 
  4114 ;;  arg             4   10[COMMON] unsigned long 
  4115 ;;  exp             1    9[COMMON] unsigned char 
  4116 ;; Return value:  Size  Location     Type
  4117 ;;                  4    0[COMMON] unsigned char 
  4118 ;; Registers used:
  4119 ;;		wreg, status,2, status,0
  4120 ;; Tracked objects:
  4121 ;;		On entry : 0/0
  4122 ;;		On exit  : 0/0
  4123 ;;		Unchanged: 0/0
  4124 ;; Data sizes:     COMMON   BANK0   BANK1   BANK3   BANK2
  4125 ;;      Params:         4       0       0       0       0
  4126 ;;      Locals:         6       0       0       0       0
  4127 ;;      Temps:          4       0       0       0       0
  4128 ;;      Totals:        14       0       0       0       0
  4129 ;;Total ram usage:       14 bytes
  4130 ;; Hardware stack levels used:    1
  4131 ;; This function calls:
  4132 ;;		Nothing
  4133 ;; This function is called by:
  4134 ;;		_jugador_1
  4135 ;;		_jugador_2
  4136 ;;		_pow
  4137 ;;		_exp
  4138 ;;		_floor
  4139 ;;		_log
  4140 ;; This function uses a non-reentrant model
  4141 ;;
  4142                           
  4143                           
  4144                           ;psect for function ___xxtofl
  4145  1509                     ___xxtofl:
  4146                           
  4147                           ;incstack = 0
  4148                           ; Regs used in ___xxtofl: [wreg+status,2+status,0]
  4149                           ;___xxtofl@sign stored from wreg
  4150  1509  00F8               	movwf	___xxtofl@sign
  4151  150A                     l3077:
  4152  150A  0878               	movf	___xxtofl@sign,w
  4153  150B  1903               	btfsc	3,2
  4154  150C  2D0E               	goto	u4911
  4155  150D  2D0F               	goto	u4910
  4156  150E                     u4911:
  4157  150E  2D23               	goto	l3083
  4158  150F                     u4910:
  4159  150F                     l3079:
  4160  150F  1FF3               	btfss	___xxtofl@val+3,7
  4161  1510  2D12               	goto	u4921
  4162  1511  2D13               	goto	u4920
  4163  1512                     u4921:
  4164  1512  2D23               	goto	l3083
  4165  1513                     u4920:
  4166  1513                     l3081:
  4167  1513  0970               	comf	___xxtofl@val,w
  4168  1514  00FA               	movwf	___xxtofl@arg
  4169  1515  0971               	comf	___xxtofl@val+1,w
  4170  1516  00FB               	movwf	___xxtofl@arg+1
  4171  1517  0972               	comf	___xxtofl@val+2,w
  4172  1518  00FC               	movwf	___xxtofl@arg+2
  4173  1519  0973               	comf	___xxtofl@val+3,w
  4174  151A  00FD               	movwf	___xxtofl@arg+3
  4175  151B  0AFA               	incf	___xxtofl@arg,f
  4176  151C  1903               	skipnz
  4177  151D  0AFB               	incf	___xxtofl@arg+1,f
  4178  151E  1903               	skipnz
  4179  151F  0AFC               	incf	___xxtofl@arg+2,f
  4180  1520  1903               	skipnz
  4181  1521  0AFD               	incf	___xxtofl@arg+3,f
  4182  1522  2D2B               	goto	l623
  4183  1523                     l3083:
  4184  1523  0873               	movf	___xxtofl@val+3,w
  4185  1524  00FD               	movwf	___xxtofl@arg+3
  4186  1525  0872               	movf	___xxtofl@val+2,w
  4187  1526  00FC               	movwf	___xxtofl@arg+2
  4188  1527  0871               	movf	___xxtofl@val+1,w
  4189  1528  00FB               	movwf	___xxtofl@arg+1
  4190  1529  0870               	movf	___xxtofl@val,w
  4191  152A  00FA               	movwf	___xxtofl@arg
  4192  152B                     l623:
  4193  152B  0873               	movf	___xxtofl@val+3,w
  4194  152C  0472               	iorwf	___xxtofl@val+2,w
  4195  152D  0471               	iorwf	___xxtofl@val+1,w
  4196  152E  0470               	iorwf	___xxtofl@val,w
  4197  152F  1D03               	skipz
  4198  1530  2D32               	goto	u4931
  4199  1531  2D33               	goto	u4930
  4200  1532                     u4931:
  4201  1532  2D3C               	goto	l3089
  4202  1533                     u4930:
  4203  1533                     l3085:
  4204  1533  3000               	movlw	0
  4205  1534  00F3               	movwf	?___xxtofl+3
  4206  1535  3000               	movlw	0
  4207  1536  00F2               	movwf	?___xxtofl+2
  4208  1537  3000               	movlw	0
  4209  1538  00F1               	movwf	?___xxtofl+1
  4210  1539  3000               	movlw	0
  4211  153A  00F0               	movwf	?___xxtofl
  4212  153B  2DC2               	goto	l625
  4213  153C                     l3089:
  4214  153C  3096               	movlw	150
  4215  153D  00F4               	movwf	??___xxtofl
  4216  153E  0874               	movf	??___xxtofl,w
  4217  153F  00F9               	movwf	___xxtofl@exp
  4218  1540  2D4E               	goto	l3093
  4219  1541                     l3091:
  4220  1541  3001               	movlw	1
  4221  1542  00F4               	movwf	??___xxtofl
  4222  1543  0874               	movf	??___xxtofl,w
  4223  1544  07F9               	addwf	___xxtofl@exp,f
  4224  1545  3001               	movlw	1
  4225  1546                     u4945:
  4226  1546  1003               	clrc
  4227  1547  0CFD               	rrf	___xxtofl@arg+3,f
  4228  1548  0CFC               	rrf	___xxtofl@arg+2,f
  4229  1549  0CFB               	rrf	___xxtofl@arg+1,f
  4230  154A  0CFA               	rrf	___xxtofl@arg,f
  4231  154B  3EFF               	addlw	-1
  4232  154C  1D03               	skipz
  4233  154D  2D46               	goto	u4945
  4234  154E                     l3093:
  4235  154E  30FE               	movlw	254
  4236  154F  057D               	andwf	___xxtofl@arg+3,w
  4237  1550  1D03               	btfss	3,2
  4238  1551  2D53               	goto	u4951
  4239  1552  2D54               	goto	u4950
  4240  1553                     u4951:
  4241  1553  2D41               	goto	l3091
  4242  1554                     u4950:
  4243  1554  2D70               	goto	l629
  4244  1555                     l3095:
  4245  1555  3001               	movlw	1
  4246  1556  00F4               	movwf	??___xxtofl
  4247  1557  0874               	movf	??___xxtofl,w
  4248  1558  07F9               	addwf	___xxtofl@exp,f
  4249  1559                     l3097:
  4250  1559  3001               	movlw	1
  4251  155A  07FA               	addwf	___xxtofl@arg,f
  4252  155B  3000               	movlw	0
  4253  155C  1803               	skipnc
  4254  155D  3001               	movlw	1
  4255  155E  07FB               	addwf	___xxtofl@arg+1,f
  4256  155F  3000               	movlw	0
  4257  1560  1803               	skipnc
  4258  1561  3001               	movlw	1
  4259  1562  07FC               	addwf	___xxtofl@arg+2,f
  4260  1563  3000               	movlw	0
  4261  1564  1803               	skipnc
  4262  1565  3001               	movlw	1
  4263  1566  07FD               	addwf	___xxtofl@arg+3,f
  4264  1567                     l3099:
  4265  1567  3001               	movlw	1
  4266  1568                     u4965:
  4267  1568  1003               	clrc
  4268  1569  0CFD               	rrf	___xxtofl@arg+3,f
  4269  156A  0CFC               	rrf	___xxtofl@arg+2,f
  4270  156B  0CFB               	rrf	___xxtofl@arg+1,f
  4271  156C  0CFA               	rrf	___xxtofl@arg,f
  4272  156D  3EFF               	addlw	-1
  4273  156E  1D03               	skipz
  4274  156F  2D68               	goto	u4965
  4275  1570                     l629:
  4276  1570  30FF               	movlw	255
  4277  1571  057D               	andwf	___xxtofl@arg+3,w
  4278  1572  1D03               	btfss	3,2
  4279  1573  2D75               	goto	u4971
  4280  1574  2D76               	goto	u4970
  4281  1575                     u4971:
  4282  1575  2D55               	goto	l3095
  4283  1576                     u4970:
  4284  1576  2D82               	goto	l3103
  4285  1577                     l3101:
  4286  1577  3001               	movlw	1
  4287  1578  02F9               	subwf	___xxtofl@exp,f
  4288  1579  3001               	movlw	1
  4289  157A  00F4               	movwf	??___xxtofl
  4290  157B                     u4985:
  4291  157B  1003               	clrc
  4292  157C  0DFA               	rlf	___xxtofl@arg,f
  4293  157D  0DFB               	rlf	___xxtofl@arg+1,f
  4294  157E  0DFC               	rlf	___xxtofl@arg+2,f
  4295  157F  0DFD               	rlf	___xxtofl@arg+3,f
  4296  1580  0BF4               	decfsz	??___xxtofl,f
  4297  1581  2D7B               	goto	u4985
  4298  1582                     l3103:
  4299  1582  1BFC               	btfsc	___xxtofl@arg+2,7
  4300  1583  2D85               	goto	u4991
  4301  1584  2D86               	goto	u4990
  4302  1585                     u4991:
  4303  1585  2D8C               	goto	l636
  4304  1586                     u4990:
  4305  1586                     l3105:
  4306  1586  3002               	movlw	2
  4307  1587  0279               	subwf	___xxtofl@exp,w
  4308  1588  1803               	skipnc
  4309  1589  2D8B               	goto	u5001
  4310  158A  2D8C               	goto	u5000
  4311  158B                     u5001:
  4312  158B  2D77               	goto	l3101
  4313  158C                     u5000:
  4314  158C                     l636:
  4315  158C  1879               	btfsc	___xxtofl@exp,0
  4316  158D  2D8F               	goto	u5011
  4317  158E  2D90               	goto	u5010
  4318  158F                     u5011:
  4319  158F  2D98               	goto	l637
  4320  1590                     u5010:
  4321  1590                     l3107:
  4322  1590  30FF               	movlw	255
  4323  1591  05FA               	andwf	___xxtofl@arg,f
  4324  1592  30FF               	movlw	255
  4325  1593  05FB               	andwf	___xxtofl@arg+1,f
  4326  1594  307F               	movlw	127
  4327  1595  05FC               	andwf	___xxtofl@arg+2,f
  4328  1596  30FF               	movlw	255
  4329  1597  05FD               	andwf	___xxtofl@arg+3,f
  4330  1598                     l637:
  4331  1598  1003               	clrc
  4332  1599  0CF9               	rrf	___xxtofl@exp,f
  4333  159A                     l3109:
  4334  159A  0879               	movf	___xxtofl@exp,w
  4335  159B  00F4               	movwf	??___xxtofl
  4336  159C  01F5               	clrf	??___xxtofl+1
  4337  159D  01F6               	clrf	??___xxtofl+2
  4338  159E  01F7               	clrf	??___xxtofl+3
  4339  159F  3018               	movlw	24
  4340  15A0                     u5025:
  4341  15A0  1003               	clrc
  4342  15A1  0DF4               	rlf	??___xxtofl,f
  4343  15A2  0DF5               	rlf	??___xxtofl+1,f
  4344  15A3  0DF6               	rlf	??___xxtofl+2,f
  4345  15A4  0DF7               	rlf	??___xxtofl+3,f
  4346  15A5                     u5020:
  4347  15A5  3EFF               	addlw	-1
  4348  15A6  1D03               	skipz
  4349  15A7  2DA0               	goto	u5025
  4350  15A8  0874               	movf	??___xxtofl,w
  4351  15A9  04FA               	iorwf	___xxtofl@arg,f
  4352  15AA  0875               	movf	??___xxtofl+1,w
  4353  15AB  04FB               	iorwf	___xxtofl@arg+1,f
  4354  15AC  0876               	movf	??___xxtofl+2,w
  4355  15AD  04FC               	iorwf	___xxtofl@arg+2,f
  4356  15AE  0877               	movf	??___xxtofl+3,w
  4357  15AF  04FD               	iorwf	___xxtofl@arg+3,f
  4358  15B0                     l3111:
  4359  15B0  0878               	movf	___xxtofl@sign,w
  4360  15B1  1903               	btfsc	3,2
  4361  15B2  2DB4               	goto	u5031
  4362  15B3  2DB5               	goto	u5030
  4363  15B4                     u5031:
  4364  15B4  2DBA               	goto	l3117
  4365  15B5                     u5030:
  4366  15B5                     l3113:
  4367  15B5  1FF3               	btfss	___xxtofl@val+3,7
  4368  15B6  2DB8               	goto	u5041
  4369  15B7  2DB9               	goto	u5040
  4370  15B8                     u5041:
  4371  15B8  2DBA               	goto	l3117
  4372  15B9                     u5040:
  4373  15B9                     l3115:
  4374  15B9  17FD               	bsf	___xxtofl@arg+3,7
  4375  15BA                     l3117:
  4376  15BA  087D               	movf	___xxtofl@arg+3,w
  4377  15BB  00F3               	movwf	?___xxtofl+3
  4378  15BC  087C               	movf	___xxtofl@arg+2,w
  4379  15BD  00F2               	movwf	?___xxtofl+2
  4380  15BE  087B               	movf	___xxtofl@arg+1,w
  4381  15BF  00F1               	movwf	?___xxtofl+1
  4382  15C0  087A               	movf	___xxtofl@arg,w
  4383  15C1  00F0               	movwf	?___xxtofl
  4384  15C2                     l625:
  4385  15C2  0008               	return
  4386  15C3                     __end_of___xxtofl:
  4387                           
  4388                           	psect	text14
  4389  0824                     __ptext14:	
  4390 ;; *************** function ___fltol *****************
  4391 ;; Defined at:
  4392 ;;		line 43 in file "C:\Program Files\Microchip\xc8\v2.31\pic\sources\c90\common\fltol.c"
  4393 ;; Parameters:    Size  Location     Type
  4394 ;;  f1              4    0[BANK0 ] unsigned char 
  4395 ;; Auto vars:     Size  Location     Type
  4396 ;;  exp1            1   10[BANK0 ] unsigned char 
  4397 ;;  sign1           1    9[BANK0 ] unsigned char 
  4398 ;; Return value:  Size  Location     Type
  4399 ;;                  4    0[BANK0 ] long 
  4400 ;; Registers used:
  4401 ;;		wreg, status,2, status,0
  4402 ;; Tracked objects:
  4403 ;;		On entry : 0/0
  4404 ;;		On exit  : 0/0
  4405 ;;		Unchanged: 0/0
  4406 ;; Data sizes:     COMMON   BANK0   BANK1   BANK3   BANK2
  4407 ;;      Params:         0       4       0       0       0
  4408 ;;      Locals:         0       2       0       0       0
  4409 ;;      Temps:          0       5       0       0       0
  4410 ;;      Totals:         0      11       0       0       0
  4411 ;;Total ram usage:       11 bytes
  4412 ;; Hardware stack levels used:    1
  4413 ;; This function calls:
  4414 ;;		Nothing
  4415 ;; This function is called by:
  4416 ;;		_jugador_1
  4417 ;;		_jugador_2
  4418 ;;		_pow
  4419 ;;		_exp
  4420 ;;		_floor
  4421 ;; This function uses a non-reentrant model
  4422 ;;
  4423                           
  4424                           
  4425                           ;psect for function ___fltol
  4426  0824                     ___fltol:
  4427  0824                     l1819:	
  4428                           ;incstack = 0
  4429                           ; Regs used in ___fltol: [wreg+status,2+status,0]
  4430                           
  4431  0824  1003               	clrc
  4432  0825  1283               	bcf	3,5	;RP0=0, select bank0
  4433  0826  1303               	bcf	3,6	;RP1=0, select bank0
  4434  0827  0D22               	rlf	___fltol@f1+2,w
  4435  0828  0D23               	rlf	___fltol@f1+3,w
  4436  0829  00A4               	movwf	??___fltol
  4437  082A  0824               	movf	??___fltol,w
  4438  082B  00AA               	movwf	___fltol@exp1
  4439  082C  082A               	movf	___fltol@exp1,w
  4440  082D  1D03               	btfss	3,2
  4441  082E  2830               	goto	u2111
  4442  082F  2831               	goto	u2110
  4443  0830                     u2111:
  4444  0830  283A               	goto	l1825
  4445  0831                     u2110:
  4446  0831                     l1821:
  4447  0831  3000               	movlw	0
  4448  0832  00A3               	movwf	?___fltol+3
  4449  0833  3000               	movlw	0
  4450  0834  00A2               	movwf	?___fltol+2
  4451  0835  3000               	movlw	0
  4452  0836  00A1               	movwf	?___fltol+1
  4453  0837  3000               	movlw	0
  4454  0838  00A0               	movwf	?___fltol
  4455  0839  289F               	goto	l376
  4456  083A                     l1825:
  4457  083A  0820               	movf	___fltol@f1,w
  4458  083B  00A4               	movwf	??___fltol
  4459  083C  0821               	movf	___fltol@f1+1,w
  4460  083D  00A5               	movwf	??___fltol+1
  4461  083E  0822               	movf	___fltol@f1+2,w
  4462  083F  00A6               	movwf	??___fltol+2
  4463  0840  0823               	movf	___fltol@f1+3,w
  4464  0841  00A7               	movwf	??___fltol+3
  4465  0842  301F               	movlw	31
  4466  0843                     u2125:
  4467  0843  1003               	clrc
  4468  0844  0CA7               	rrf	??___fltol+3,f
  4469  0845  0CA6               	rrf	??___fltol+2,f
  4470  0846  0CA5               	rrf	??___fltol+1,f
  4471  0847  0CA4               	rrf	??___fltol,f
  4472  0848                     u2120:
  4473  0848  3EFF               	addlw	-1
  4474  0849  1D03               	skipz
  4475  084A  2843               	goto	u2125
  4476  084B  0824               	movf	??___fltol,w
  4477  084C  00A8               	movwf	??___fltol+4
  4478  084D  0828               	movf	??___fltol+4,w
  4479  084E  00A9               	movwf	___fltol@sign1
  4480  084F                     l1827:
  4481  084F  17A2               	bsf	___fltol@f1+2,7
  4482  0850                     l1829:
  4483  0850  30FF               	movlw	255
  4484  0851  05A0               	andwf	___fltol@f1,f
  4485  0852  30FF               	movlw	255
  4486  0853  05A1               	andwf	___fltol@f1+1,f
  4487  0854  30FF               	movlw	255
  4488  0855  05A2               	andwf	___fltol@f1+2,f
  4489  0856  3000               	movlw	0
  4490  0857  05A3               	andwf	___fltol@f1+3,f
  4491  0858                     l1831:
  4492  0858  3096               	movlw	150
  4493  0859  02AA               	subwf	___fltol@exp1,f
  4494  085A                     l1833:
  4495  085A  1FAA               	btfss	___fltol@exp1,7
  4496  085B  285D               	goto	u2131
  4497  085C  285E               	goto	u2130
  4498  085D                     u2131:
  4499  085D  2878               	goto	l1843
  4500  085E                     u2130:
  4501  085E                     l1835:
  4502  085E  082A               	movf	___fltol@exp1,w
  4503  085F  3A80               	xorlw	128
  4504  0860  3E97               	addlw	151
  4505  0861  1803               	skipnc
  4506  0862  2864               	goto	u2141
  4507  0863  2865               	goto	u2140
  4508  0864                     u2141:
  4509  0864  2866               	goto	l1841
  4510  0865                     u2140:
  4511  0865  2831               	goto	l1821
  4512  0866                     l1841:
  4513  0866  3001               	movlw	1
  4514  0867                     u2155:
  4515  0867  1003               	clrc
  4516  0868  0CA3               	rrf	___fltol@f1+3,f
  4517  0869  0CA2               	rrf	___fltol@f1+2,f
  4518  086A  0CA1               	rrf	___fltol@f1+1,f
  4519  086B  0CA0               	rrf	___fltol@f1,f
  4520  086C  3EFF               	addlw	-1
  4521  086D  1D03               	skipz
  4522  086E  2867               	goto	u2155
  4523  086F  3001               	movlw	1
  4524  0870  00A4               	movwf	??___fltol
  4525  0871  0824               	movf	??___fltol,w
  4526  0872  07AA               	addwf	___fltol@exp1,f
  4527  0873  1D03               	btfss	3,2
  4528  0874  2876               	goto	u2161
  4529  0875  2877               	goto	u2160
  4530  0876                     u2161:
  4531  0876  2866               	goto	l1841
  4532  0877                     u2160:
  4533  0877  288F               	goto	l1851
  4534  0878                     l1843:
  4535  0878  3020               	movlw	32
  4536  0879  022A               	subwf	___fltol@exp1,w
  4537  087A  1C03               	skipc
  4538  087B  287D               	goto	u2171
  4539  087C  287E               	goto	u2170
  4540  087D                     u2171:
  4541  087D  288A               	goto	l383
  4542  087E                     u2170:
  4543  087E  2831               	goto	l1821
  4544  087F                     l1849:
  4545  087F  3001               	movlw	1
  4546  0880  00A4               	movwf	??___fltol
  4547  0881                     u2185:
  4548  0881  1003               	clrc
  4549  0882  0DA0               	rlf	___fltol@f1,f
  4550  0883  0DA1               	rlf	___fltol@f1+1,f
  4551  0884  0DA2               	rlf	___fltol@f1+2,f
  4552  0885  0DA3               	rlf	___fltol@f1+3,f
  4553  0886  0BA4               	decfsz	??___fltol,f
  4554  0887  2881               	goto	u2185
  4555  0888  3001               	movlw	1
  4556  0889  02AA               	subwf	___fltol@exp1,f
  4557  088A                     l383:
  4558  088A  082A               	movf	___fltol@exp1,w
  4559  088B  1D03               	btfss	3,2
  4560  088C  288E               	goto	u2191
  4561  088D  288F               	goto	u2190
  4562  088E                     u2191:
  4563  088E  287F               	goto	l1849
  4564  088F                     u2190:
  4565  088F                     l1851:
  4566  088F  0829               	movf	___fltol@sign1,w
  4567  0890  1903               	btfsc	3,2
  4568  0891  2893               	goto	u2201
  4569  0892  2894               	goto	u2200
  4570  0893                     u2201:
  4571  0893  289F               	goto	l386
  4572  0894                     u2200:
  4573  0894                     l1853:
  4574  0894  09A0               	comf	___fltol@f1,f
  4575  0895  09A1               	comf	___fltol@f1+1,f
  4576  0896  09A2               	comf	___fltol@f1+2,f
  4577  0897  09A3               	comf	___fltol@f1+3,f
  4578  0898  0AA0               	incf	___fltol@f1,f
  4579  0899  1903               	skipnz
  4580  089A  0AA1               	incf	___fltol@f1+1,f
  4581  089B  1903               	skipnz
  4582  089C  0AA2               	incf	___fltol@f1+2,f
  4583  089D  1903               	skipnz
  4584  089E  0AA3               	incf	___fltol@f1+3,f
  4585  089F                     l386:
  4586  089F                     l376:
  4587  089F  0008               	return
  4588  08A0                     __end_of___fltol:
  4589                           
  4590                           	psect	text15
  4591  1467                     __ptext15:	
  4592 ;; *************** function ___flge *****************
  4593 ;; Defined at:
  4594 ;;		line 4 in file "C:\Program Files\Microchip\xc8\v2.31\pic\sources\c90\common\flge.c"
  4595 ;; Parameters:    Size  Location     Type
  4596 ;;  ff1             4    0[COMMON] long 
  4597 ;;  ff2             4    4[COMMON] long 
  4598 ;; Auto vars:     Size  Location     Type
  4599 ;;		None
  4600 ;; Return value:  Size  Location     Type
  4601 ;;		None               void
  4602 ;; Registers used:
  4603 ;;		wreg, status,2, status,0
  4604 ;; Tracked objects:
  4605 ;;		On entry : 0/0
  4606 ;;		On exit  : 0/0
  4607 ;;		Unchanged: 0/0
  4608 ;; Data sizes:     COMMON   BANK0   BANK1   BANK3   BANK2
  4609 ;;      Params:         8       0       0       0       0
  4610 ;;      Locals:         0       0       0       0       0
  4611 ;;      Temps:          4       0       0       0       0
  4612 ;;      Totals:        12       0       0       0       0
  4613 ;;Total ram usage:       12 bytes
  4614 ;; Hardware stack levels used:    1
  4615 ;; This function calls:
  4616 ;;		Nothing
  4617 ;; This function is called by:
  4618 ;;		_pow
  4619 ;;		_exp
  4620 ;;		_floor
  4621 ;;		_ldexp
  4622 ;;		_log
  4623 ;; This function uses a non-reentrant model
  4624 ;;
  4625                           
  4626                           
  4627                           ;psect for function ___flge
  4628  1467                     ___flge:
  4629  1467                     l2723:	
  4630                           ;incstack = 0
  4631                           ; Regs used in ___flge: [wreg+status,2+status,0]
  4632                           
  4633  1467  3000               	movlw	0
  4634  1468  0570               	andwf	___flge@ff1,w
  4635  1469  00F8               	movwf	??___flge
  4636  146A  3000               	movlw	0
  4637  146B  0571               	andwf	___flge@ff1+1,w
  4638  146C  00F9               	movwf	??___flge+1
  4639  146D  3080               	movlw	128
  4640  146E  0572               	andwf	___flge@ff1+2,w
  4641  146F  00FA               	movwf	??___flge+2
  4642  1470  307F               	movlw	127
  4643  1471  0573               	andwf	___flge@ff1+3,w
  4644  1472  00FB               	movwf	??___flge+3
  4645  1473  087B               	movf	??___flge+3,w
  4646  1474  047A               	iorwf	??___flge+2,w
  4647  1475  0479               	iorwf	??___flge+1,w
  4648  1476  0478               	iorwf	??___flge,w
  4649  1477  1D03               	skipz
  4650  1478  2C7A               	goto	u4011
  4651  1479  2C7B               	goto	u4010
  4652  147A                     u4011:
  4653  147A  2C83               	goto	l364
  4654  147B                     u4010:
  4655  147B                     l2725:
  4656  147B  3000               	movlw	0
  4657  147C  00F3               	movwf	___flge@ff1+3
  4658  147D  3000               	movlw	0
  4659  147E  00F2               	movwf	___flge@ff1+2
  4660  147F  3000               	movlw	0
  4661  1480  00F1               	movwf	___flge@ff1+1
  4662  1481  3000               	movlw	0
  4663  1482  00F0               	movwf	___flge@ff1
  4664  1483                     l364:
  4665  1483  3000               	movlw	0
  4666  1484  0574               	andwf	___flge@ff2,w
  4667  1485  00F8               	movwf	??___flge
  4668  1486  3000               	movlw	0
  4669  1487  0575               	andwf	___flge@ff2+1,w
  4670  1488  00F9               	movwf	??___flge+1
  4671  1489  3080               	movlw	128
  4672  148A  0576               	andwf	___flge@ff2+2,w
  4673  148B  00FA               	movwf	??___flge+2
  4674  148C  307F               	movlw	127
  4675  148D  0577               	andwf	___flge@ff2+3,w
  4676  148E  00FB               	movwf	??___flge+3
  4677  148F  087B               	movf	??___flge+3,w
  4678  1490  047A               	iorwf	??___flge+2,w
  4679  1491  0479               	iorwf	??___flge+1,w
  4680  1492  0478               	iorwf	??___flge,w
  4681  1493  1D03               	skipz
  4682  1494  2C96               	goto	u4021
  4683  1495  2C97               	goto	u4020
  4684  1496                     u4021:
  4685  1496  2C9F               	goto	l2729
  4686  1497                     u4020:
  4687  1497                     l2727:
  4688  1497  3000               	movlw	0
  4689  1498  00F7               	movwf	___flge@ff2+3
  4690  1499  3000               	movlw	0
  4691  149A  00F6               	movwf	___flge@ff2+2
  4692  149B  3000               	movlw	0
  4693  149C  00F5               	movwf	___flge@ff2+1
  4694  149D  3000               	movlw	0
  4695  149E  00F4               	movwf	___flge@ff2
  4696  149F                     l2729:
  4697  149F  1FF3               	btfss	___flge@ff1+3,7
  4698  14A0  2CA2               	goto	u4031
  4699  14A1  2CA3               	goto	u4030
  4700  14A2                     u4031:
  4701  14A2  2CC7               	goto	l2733
  4702  14A3                     u4030:
  4703  14A3                     l2731:
  4704  14A3  3000               	movlw	0
  4705  14A4  00F8               	movwf	??___flge
  4706  14A5  3000               	movlw	0
  4707  14A6  00F9               	movwf	??___flge+1
  4708  14A7  3000               	movlw	0
  4709  14A8  00FA               	movwf	??___flge+2
  4710  14A9  3080               	movlw	128
  4711  14AA  00FB               	movwf	??___flge+3
  4712  14AB  0870               	movf	___flge@ff1,w
  4713  14AC  02F8               	subwf	??___flge,f
  4714  14AD  0871               	movf	___flge@ff1+1,w
  4715  14AE  1C03               	skipc
  4716  14AF  0F71               	incfsz	___flge@ff1+1,w
  4717  14B0  2CB2               	goto	u4041
  4718  14B1  2CB3               	goto	u4042
  4719  14B2                     u4041:
  4720  14B2  02F9               	subwf	??___flge+1,f
  4721  14B3                     u4042:
  4722  14B3  0872               	movf	___flge@ff1+2,w
  4723  14B4  1C03               	skipc
  4724  14B5  0F72               	incfsz	___flge@ff1+2,w
  4725  14B6  2CB8               	goto	u4043
  4726  14B7  2CB9               	goto	u4044
  4727  14B8                     u4043:
  4728  14B8  02FA               	subwf	??___flge+2,f
  4729  14B9                     u4044:
  4730  14B9  0873               	movf	___flge@ff1+3,w
  4731  14BA  1C03               	skipc
  4732  14BB  0F73               	incfsz	___flge@ff1+3,w
  4733  14BC  2CBE               	goto	u4045
  4734  14BD  2CBF               	goto	u4046
  4735  14BE                     u4045:
  4736  14BE  02FB               	subwf	??___flge+3,f
  4737  14BF                     u4046:
  4738  14BF  087B               	movf	??___flge+3,w
  4739  14C0  00F3               	movwf	___flge@ff1+3
  4740  14C1  087A               	movf	??___flge+2,w
  4741  14C2  00F2               	movwf	___flge@ff1+2
  4742  14C3  0879               	movf	??___flge+1,w
  4743  14C4  00F1               	movwf	___flge@ff1+1
  4744  14C5  0878               	movf	??___flge,w
  4745  14C6  00F0               	movwf	___flge@ff1
  4746  14C7                     l2733:
  4747  14C7  1FF7               	btfss	___flge@ff2+3,7
  4748  14C8  2CCA               	goto	u4051
  4749  14C9  2CCB               	goto	u4050
  4750  14CA                     u4051:
  4751  14CA  2CEF               	goto	l367
  4752  14CB                     u4050:
  4753  14CB                     l2735:
  4754  14CB  3000               	movlw	0
  4755  14CC  00F8               	movwf	??___flge
  4756  14CD  3000               	movlw	0
  4757  14CE  00F9               	movwf	??___flge+1
  4758  14CF  3000               	movlw	0
  4759  14D0  00FA               	movwf	??___flge+2
  4760  14D1  3080               	movlw	128
  4761  14D2  00FB               	movwf	??___flge+3
  4762  14D3  0874               	movf	___flge@ff2,w
  4763  14D4  02F8               	subwf	??___flge,f
  4764  14D5  0875               	movf	___flge@ff2+1,w
  4765  14D6  1C03               	skipc
  4766  14D7  0F75               	incfsz	___flge@ff2+1,w
  4767  14D8  2CDA               	goto	u4061
  4768  14D9  2CDB               	goto	u4062
  4769  14DA                     u4061:
  4770  14DA  02F9               	subwf	??___flge+1,f
  4771  14DB                     u4062:
  4772  14DB  0876               	movf	___flge@ff2+2,w
  4773  14DC  1C03               	skipc
  4774  14DD  0F76               	incfsz	___flge@ff2+2,w
  4775  14DE  2CE0               	goto	u4063
  4776  14DF  2CE1               	goto	u4064
  4777  14E0                     u4063:
  4778  14E0  02FA               	subwf	??___flge+2,f
  4779  14E1                     u4064:
  4780  14E1  0877               	movf	___flge@ff2+3,w
  4781  14E2  1C03               	skipc
  4782  14E3  0F77               	incfsz	___flge@ff2+3,w
  4783  14E4  2CE6               	goto	u4065
  4784  14E5  2CE7               	goto	u4066
  4785  14E6                     u4065:
  4786  14E6  02FB               	subwf	??___flge+3,f
  4787  14E7                     u4066:
  4788  14E7  087B               	movf	??___flge+3,w
  4789  14E8  00F7               	movwf	___flge@ff2+3
  4790  14E9  087A               	movf	??___flge+2,w
  4791  14EA  00F6               	movwf	___flge@ff2+2
  4792  14EB  0879               	movf	??___flge+1,w
  4793  14EC  00F5               	movwf	___flge@ff2+1
  4794  14ED  0878               	movf	??___flge,w
  4795  14EE  00F4               	movwf	___flge@ff2
  4796  14EF                     l367:
  4797  14EF  3080               	movlw	128
  4798  14F0  06F3               	xorwf	___flge@ff1+3,f
  4799  14F1  3080               	movlw	128
  4800  14F2  06F7               	xorwf	___flge@ff2+3,f
  4801  14F3  0877               	movf	___flge@ff2+3,w
  4802  14F4  0273               	subwf	___flge@ff1+3,w
  4803  14F5  1D03               	skipz
  4804  14F6  2D01               	goto	u4075
  4805  14F7  0876               	movf	___flge@ff2+2,w
  4806  14F8  0272               	subwf	___flge@ff1+2,w
  4807  14F9  1D03               	skipz
  4808  14FA  2D01               	goto	u4075
  4809  14FB  0875               	movf	___flge@ff2+1,w
  4810  14FC  0271               	subwf	___flge@ff1+1,w
  4811  14FD  1D03               	skipz
  4812  14FE  2D01               	goto	u4075
  4813  14FF  0874               	movf	___flge@ff2,w
  4814  1500  0270               	subwf	___flge@ff1,w
  4815  1501                     u4075:
  4816  1501  1803               	skipnc
  4817  1502  2D04               	goto	u4071
  4818  1503  2D05               	goto	u4070
  4819  1504                     u4071:
  4820  1504  2D07               	goto	l2739
  4821  1505                     u4070:
  4822  1505                     l2737:
  4823  1505  1003               	clrc
  4824  1506  2D08               	goto	l368
  4825  1507                     l2739:
  4826  1507  1403               	setc
  4827  1508                     l368:
  4828  1508  0008               	return
  4829  1509                     __end_of___flge:
  4830                           
  4831                           	psect	text16
  4832  08A0                     __ptext16:	
  4833 ;; *************** function _eval_poly *****************
  4834 ;; Defined at:
  4835 ;;		line 4 in file "C:\Program Files\Microchip\xc8\v2.31\pic\sources\c90\common\evalpoly.c"
  4836 ;; Parameters:    Size  Location     Type
  4837 ;;  x               4   65[BANK0 ] long 
  4838 ;;  d               1   69[BANK0 ] PTR const 
  4839 ;;		 -> log@coeff(36), exp@coeff(40), 
  4840 ;;  n               2   70[BANK0 ] int 
  4841 ;; Auto vars:     Size  Location     Type
  4842 ;;  res             4    0[BANK1 ] int 
  4843 ;; Return value:  Size  Location     Type
  4844 ;;                  4   65[BANK0 ] int 
  4845 ;; Registers used:
  4846 ;;		wreg, fsr0l, fsr0h, status,2, status,0, btemp+1, pclath, cstack
  4847 ;; Tracked objects:
  4848 ;;		On entry : 0/0
  4849 ;;		On exit  : 0/0
  4850 ;;		Unchanged: 0/0
  4851 ;; Data sizes:     COMMON   BANK0   BANK1   BANK3   BANK2
  4852 ;;      Params:         0       7       0       0       0
  4853 ;;      Locals:         0       0       4       0       0
  4854 ;;      Temps:          0       5       0       0       0
  4855 ;;      Totals:         0      12       4       0       0
  4856 ;;Total ram usage:       16 bytes
  4857 ;; Hardware stack levels used:    1
  4858 ;; Hardware stack levels required when called:    2
  4859 ;; This function calls:
  4860 ;;		___fladd
  4861 ;;		___flmul
  4862 ;; This function is called by:
  4863 ;;		_exp
  4864 ;;		_log
  4865 ;; This function uses a non-reentrant model
  4866 ;;
  4867                           
  4868                           
  4869                           ;psect for function _eval_poly
  4870  08A0                     _eval_poly:
  4871  08A0                     l3175:	
  4872                           ;incstack = 0
  4873                           ; Regs used in _eval_poly: [wreg-fsr0h+status,2+status,0+btemp+1+pclath+cstack]
  4874                           
  4875  08A0  1283               	bcf	3,5	;RP0=0, select bank0
  4876  08A1  1303               	bcf	3,6	;RP1=0, select bank0
  4877  08A2  0866               	movf	eval_poly@n,w
  4878  08A3  00E8               	movwf	??_eval_poly
  4879  08A4  3001               	movlw	1
  4880  08A5                     u5105:
  4881  08A5  1003               	clrc
  4882  08A6  0DE8               	rlf	??_eval_poly,f
  4883  08A7  3EFF               	addlw	-1
  4884  08A8  1D03               	skipz
  4885  08A9  28A5               	goto	u5105
  4886  08AA  1003               	clrc
  4887  08AB  0D68               	rlf	??_eval_poly,w
  4888  08AC  0765               	addwf	eval_poly@d,w
  4889  08AD  0084               	movwf	4
  4890  08AE  160A  118A  2000  120A  158A  	fcall	stringdir
  4891  08B3  00E9               	movwf	??_eval_poly+1
  4892  08B4  160A  118A  2000  120A  158A  	fcall	stringdir
  4893  08B9  00EA               	movwf	??_eval_poly+2
  4894  08BA  160A  118A  2000  120A  158A  	fcall	stringdir
  4895  08BF  00EB               	movwf	??_eval_poly+3
  4896  08C0  160A  118A  2000  120A  158A  	fcall	stringdir
  4897  08C5  00EC               	movwf	??_eval_poly+4
  4898  08C6  086C               	movf	??_eval_poly+4,w
  4899  08C7  1683               	bsf	3,5	;RP0=1, select bank1
  4900  08C8  1303               	bcf	3,6	;RP1=0, select bank1
  4901  08C9  00A3               	movwf	(eval_poly@res+3)^(0+128)
  4902  08CA  1283               	bcf	3,5	;RP0=0, select bank0
  4903  08CB  1303               	bcf	3,6	;RP1=0, select bank0
  4904  08CC  086B               	movf	??_eval_poly+3,w
  4905  08CD  1683               	bsf	3,5	;RP0=1, select bank1
  4906  08CE  1303               	bcf	3,6	;RP1=0, select bank1
  4907  08CF  00A2               	movwf	(eval_poly@res+2)^(0+128)
  4908  08D0  1283               	bcf	3,5	;RP0=0, select bank0
  4909  08D1  1303               	bcf	3,6	;RP1=0, select bank0
  4910  08D2  086A               	movf	??_eval_poly+2,w
  4911  08D3  1683               	bsf	3,5	;RP0=1, select bank1
  4912  08D4  1303               	bcf	3,6	;RP1=0, select bank1
  4913  08D5  00A1               	movwf	(eval_poly@res+1)^(0+128)
  4914  08D6  1283               	bcf	3,5	;RP0=0, select bank0
  4915  08D7  1303               	bcf	3,6	;RP1=0, select bank0
  4916  08D8  0869               	movf	??_eval_poly+1,w
  4917  08D9  1683               	bsf	3,5	;RP0=1, select bank1
  4918  08DA  1303               	bcf	3,6	;RP1=0, select bank1
  4919  08DB  00A0               	movwf	eval_poly@res^(0+128)
  4920  08DC  295B               	goto	l3179
  4921  08DD                     l3177:
  4922  08DD  30FF               	movlw	255
  4923  08DE  07E6               	addwf	eval_poly@n,f
  4924  08DF  1803               	skipnc
  4925  08E0  0AE7               	incf	eval_poly@n+1,f
  4926  08E1  30FF               	movlw	255
  4927  08E2  07E7               	addwf	eval_poly@n+1,f
  4928  08E3  0866               	movf	eval_poly@n,w
  4929  08E4  00E8               	movwf	??_eval_poly
  4930  08E5  3001               	movlw	1
  4931  08E6                     u5115:
  4932  08E6  1003               	clrc
  4933  08E7  0DE8               	rlf	??_eval_poly,f
  4934  08E8  3EFF               	addlw	-1
  4935  08E9  1D03               	skipz
  4936  08EA  28E6               	goto	u5115
  4937  08EB  1003               	clrc
  4938  08EC  0D68               	rlf	??_eval_poly,w
  4939  08ED  0765               	addwf	eval_poly@d,w
  4940  08EE  0084               	movwf	4
  4941  08EF  160A  118A  2000  120A  158A  	fcall	stringdir
  4942  08F4  00E9               	movwf	??_eval_poly+1
  4943  08F5  160A  118A  2000  120A  158A  	fcall	stringdir
  4944  08FA  00EA               	movwf	??_eval_poly+2
  4945  08FB  160A  118A  2000  120A  158A  	fcall	stringdir
  4946  0900  00EB               	movwf	??_eval_poly+3
  4947  0901  160A  118A  2000  120A  158A  	fcall	stringdir
  4948  0906  00EC               	movwf	??_eval_poly+4
  4949  0907  086C               	movf	??_eval_poly+4,w
  4950  0908  00D0               	movwf	___fladd@b+3
  4951  0909  086B               	movf	??_eval_poly+3,w
  4952  090A  00CF               	movwf	___fladd@b+2
  4953  090B  086A               	movf	??_eval_poly+2,w
  4954  090C  00CE               	movwf	___fladd@b+1
  4955  090D  0869               	movf	??_eval_poly+1,w
  4956  090E  00CD               	movwf	___fladd@b
  4957  090F  1683               	bsf	3,5	;RP0=1, select bank1
  4958  0910  1303               	bcf	3,6	;RP1=0, select bank1
  4959  0911  0823               	movf	(eval_poly@res+3)^(0+128),w
  4960  0912  1283               	bcf	3,5	;RP0=0, select bank0
  4961  0913  1303               	bcf	3,6	;RP1=0, select bank0
  4962  0914  00B6               	movwf	___flmul@b+3
  4963  0915  1683               	bsf	3,5	;RP0=1, select bank1
  4964  0916  1303               	bcf	3,6	;RP1=0, select bank1
  4965  0917  0822               	movf	(eval_poly@res+2)^(0+128),w
  4966  0918  1283               	bcf	3,5	;RP0=0, select bank0
  4967  0919  1303               	bcf	3,6	;RP1=0, select bank0
  4968  091A  00B5               	movwf	___flmul@b+2
  4969  091B  1683               	bsf	3,5	;RP0=1, select bank1
  4970  091C  1303               	bcf	3,6	;RP1=0, select bank1
  4971  091D  0821               	movf	(eval_poly@res+1)^(0+128),w
  4972  091E  1283               	bcf	3,5	;RP0=0, select bank0
  4973  091F  1303               	bcf	3,6	;RP1=0, select bank0
  4974  0920  00B4               	movwf	___flmul@b+1
  4975  0921  1683               	bsf	3,5	;RP0=1, select bank1
  4976  0922  1303               	bcf	3,6	;RP1=0, select bank1
  4977  0923  0820               	movf	eval_poly@res^(0+128),w
  4978  0924  1283               	bcf	3,5	;RP0=0, select bank0
  4979  0925  1303               	bcf	3,6	;RP1=0, select bank0
  4980  0926  00B3               	movwf	___flmul@b
  4981  0927  0864               	movf	eval_poly@x+3,w
  4982  0928  00BA               	movwf	___flmul@a+3
  4983  0929  0863               	movf	eval_poly@x+2,w
  4984  092A  00B9               	movwf	___flmul@a+2
  4985  092B  0862               	movf	eval_poly@x+1,w
  4986  092C  00B8               	movwf	___flmul@a+1
  4987  092D  0861               	movf	eval_poly@x,w
  4988  092E  00B7               	movwf	___flmul@a
  4989  092F  120A  118A  2492  120A  158A  	fcall	___flmul
  4990  0934  1283               	bcf	3,5	;RP0=0, select bank0
  4991  0935  1303               	bcf	3,6	;RP1=0, select bank0
  4992  0936  0836               	movf	?___flmul+3,w
  4993  0937  00D4               	movwf	___fladd@a+3
  4994  0938  0835               	movf	?___flmul+2,w
  4995  0939  00D3               	movwf	___fladd@a+2
  4996  093A  0834               	movf	?___flmul+1,w
  4997  093B  00D2               	movwf	___fladd@a+1
  4998  093C  0833               	movf	?___flmul,w
  4999  093D  00D1               	movwf	___fladd@a
  5000  093E  120A  118A  220A  120A  158A  	fcall	___fladd
  5001  0943  1283               	bcf	3,5	;RP0=0, select bank0
  5002  0944  1303               	bcf	3,6	;RP1=0, select bank0
  5003  0945  0850               	movf	?___fladd+3,w
  5004  0946  1683               	bsf	3,5	;RP0=1, select bank1
  5005  0947  1303               	bcf	3,6	;RP1=0, select bank1
  5006  0948  00A3               	movwf	(eval_poly@res+3)^(0+128)
  5007  0949  1283               	bcf	3,5	;RP0=0, select bank0
  5008  094A  1303               	bcf	3,6	;RP1=0, select bank0
  5009  094B  084F               	movf	?___fladd+2,w
  5010  094C  1683               	bsf	3,5	;RP0=1, select bank1
  5011  094D  1303               	bcf	3,6	;RP1=0, select bank1
  5012  094E  00A2               	movwf	(eval_poly@res+2)^(0+128)
  5013  094F  1283               	bcf	3,5	;RP0=0, select bank0
  5014  0950  1303               	bcf	3,6	;RP1=0, select bank0
  5015  0951  084E               	movf	?___fladd+1,w
  5016  0952  1683               	bsf	3,5	;RP0=1, select bank1
  5017  0953  1303               	bcf	3,6	;RP1=0, select bank1
  5018  0954  00A1               	movwf	(eval_poly@res+1)^(0+128)
  5019  0955  1283               	bcf	3,5	;RP0=0, select bank0
  5020  0956  1303               	bcf	3,6	;RP1=0, select bank0
  5021  0957  084D               	movf	?___fladd,w
  5022  0958  1683               	bsf	3,5	;RP0=1, select bank1
  5023  0959  1303               	bcf	3,6	;RP1=0, select bank1
  5024  095A  00A0               	movwf	eval_poly@res^(0+128)
  5025  095B                     l3179:
  5026  095B  1283               	bcf	3,5	;RP0=0, select bank0
  5027  095C  1303               	bcf	3,6	;RP1=0, select bank0
  5028  095D  0866               	movf	eval_poly@n,w
  5029  095E  0467               	iorwf	eval_poly@n+1,w
  5030  095F  1D03               	btfss	3,2
  5031  0960  2962               	goto	u5121
  5032  0961  2963               	goto	u5120
  5033  0962                     u5121:
  5034  0962  28DD               	goto	l3177
  5035  0963                     u5120:
  5036  0963                     l3181:
  5037  0963  1683               	bsf	3,5	;RP0=1, select bank1
  5038  0964  1303               	bcf	3,6	;RP1=0, select bank1
  5039  0965  0823               	movf	(eval_poly@res+3)^(0+128),w
  5040  0966  1283               	bcf	3,5	;RP0=0, select bank0
  5041  0967  1303               	bcf	3,6	;RP1=0, select bank0
  5042  0968  00E4               	movwf	?_eval_poly+3
  5043  0969  1683               	bsf	3,5	;RP0=1, select bank1
  5044  096A  1303               	bcf	3,6	;RP1=0, select bank1
  5045  096B  0822               	movf	(eval_poly@res+2)^(0+128),w
  5046  096C  1283               	bcf	3,5	;RP0=0, select bank0
  5047  096D  1303               	bcf	3,6	;RP1=0, select bank0
  5048  096E  00E3               	movwf	?_eval_poly+2
  5049  096F  1683               	bsf	3,5	;RP0=1, select bank1
  5050  0970  1303               	bcf	3,6	;RP1=0, select bank1
  5051  0971  0821               	movf	(eval_poly@res+1)^(0+128),w
  5052  0972  1283               	bcf	3,5	;RP0=0, select bank0
  5053  0973  1303               	bcf	3,6	;RP1=0, select bank0
  5054  0974  00E2               	movwf	?_eval_poly+1
  5055  0975  1683               	bsf	3,5	;RP0=1, select bank1
  5056  0976  1303               	bcf	3,6	;RP1=0, select bank1
  5057  0977  0820               	movf	eval_poly@res^(0+128),w
  5058  0978  1283               	bcf	3,5	;RP0=0, select bank0
  5059  0979  1303               	bcf	3,6	;RP1=0, select bank0
  5060  097A  00E1               	movwf	?_eval_poly
  5061  097B                     l680:
  5062  097B  0008               	return
  5063  097C                     __end_of_eval_poly:
  5064                           
  5065                           	psect	text17
  5066  0492                     __ptext17:	
  5067 ;; *************** function ___flmul *****************
  5068 ;; Defined at:
  5069 ;;		line 8 in file "C:\Program Files\Microchip\xc8\v2.31\pic\sources\c90\common\sprcmul.c"
  5070 ;; Parameters:    Size  Location     Type
  5071 ;;  b               4   19[BANK0 ] int 
  5072 ;;  a               4   23[BANK0 ] int 
  5073 ;; Auto vars:     Size  Location     Type
  5074 ;;  prod            4   39[BANK0 ] struct .
  5075 ;;  grs             4   34[BANK0 ] unsigned long 
  5076 ;;  temp            2   43[BANK0 ] struct .
  5077 ;;  bexp            1   38[BANK0 ] unsigned char 
  5078 ;;  aexp            1   33[BANK0 ] unsigned char 
  5079 ;;  sign            1   32[BANK0 ] unsigned char 
  5080 ;; Return value:  Size  Location     Type
  5081 ;;                  4   19[BANK0 ] unsigned char 
  5082 ;; Registers used:
  5083 ;;		wreg, status,2, status,0, btemp+1, pclath, cstack
  5084 ;; Tracked objects:
  5085 ;;		On entry : 0/0
  5086 ;;		On exit  : 0/0
  5087 ;;		Unchanged: 0/0
  5088 ;; Data sizes:     COMMON   BANK0   BANK1   BANK3   BANK2
  5089 ;;      Params:         0       8       0       0       0
  5090 ;;      Locals:         0      13       0       0       0
  5091 ;;      Temps:          0       5       0       0       0
  5092 ;;      Totals:         0      26       0       0       0
  5093 ;;Total ram usage:       26 bytes
  5094 ;; Hardware stack levels used:    1
  5095 ;; Hardware stack levels required when called:    1
  5096 ;; This function calls:
  5097 ;;		__Umul8_16
  5098 ;; This function is called by:
  5099 ;;		_pow
  5100 ;;		_exp
  5101 ;;		_eval_poly
  5102 ;;		_log
  5103 ;; This function uses a non-reentrant model
  5104 ;;
  5105                           
  5106                           
  5107                           ;psect for function ___flmul
  5108  0492                     ___flmul:
  5109  0492                     l2937:	
  5110                           ;incstack = 0
  5111                           ; Regs used in ___flmul: [wreg+status,2+status,0+btemp+1+pclath+cstack]
  5112                           
  5113  0492  1283               	bcf	3,5	;RP0=0, select bank0
  5114  0493  1303               	bcf	3,6	;RP1=0, select bank0
  5115  0494  0836               	movf	___flmul@b+3,w
  5116  0495  3980               	andlw	128
  5117  0496  00BB               	movwf	??___flmul
  5118  0497  083B               	movf	??___flmul,w
  5119  0498  00C0               	movwf	___flmul@sign
  5120  0499                     l2939:
  5121  0499  0836               	movf	___flmul@b+3,w
  5122  049A  00BB               	movwf	??___flmul
  5123  049B  073B               	addwf	??___flmul,w
  5124  049C  00BC               	movwf	??___flmul+1
  5125  049D  083C               	movf	??___flmul+1,w
  5126  049E  00C6               	movwf	___flmul@bexp
  5127  049F                     l2941:
  5128  049F  1FB5               	btfss	___flmul@b+2,7
  5129  04A0  2CA2               	goto	u4541
  5130  04A1  2CA3               	goto	u4540
  5131  04A2                     u4541:
  5132  04A2  2CA4               	goto	l2945
  5133  04A3                     u4540:
  5134  04A3                     l2943:
  5135  04A3  1446               	bsf	___flmul@bexp,0
  5136  04A4                     l2945:
  5137  04A4  0846               	movf	___flmul@bexp,w
  5138  04A5  1903               	btfsc	3,2
  5139  04A6  2CA8               	goto	u4551
  5140  04A7  2CA9               	goto	u4550
  5141  04A8                     u4551:
  5142  04A8  2CB8               	goto	l2953
  5143  04A9                     u4550:
  5144  04A9                     l2947:
  5145  04A9  0A46               	incf	___flmul@bexp,w
  5146  04AA  1D03               	btfss	3,2
  5147  04AB  2CAD               	goto	u4561
  5148  04AC  2CAE               	goto	u4560
  5149  04AD                     u4561:
  5150  04AD  2CB6               	goto	l2951
  5151  04AE                     u4560:
  5152  04AE                     l2949:
  5153  04AE  3000               	movlw	0
  5154  04AF  00B6               	movwf	___flmul@b+3
  5155  04B0  3000               	movlw	0
  5156  04B1  00B5               	movwf	___flmul@b+2
  5157  04B2  3000               	movlw	0
  5158  04B3  00B4               	movwf	___flmul@b+1
  5159  04B4  3000               	movlw	0
  5160  04B5  00B3               	movwf	___flmul@b
  5161  04B6                     l2951:
  5162  04B6  17B5               	bsf	___flmul@b+2,7
  5163  04B7  2CC0               	goto	l2955
  5164  04B8                     l2953:
  5165  04B8  3000               	movlw	0
  5166  04B9  00B6               	movwf	___flmul@b+3
  5167  04BA  3000               	movlw	0
  5168  04BB  00B5               	movwf	___flmul@b+2
  5169  04BC  3000               	movlw	0
  5170  04BD  00B4               	movwf	___flmul@b+1
  5171  04BE  3000               	movlw	0
  5172  04BF  00B3               	movwf	___flmul@b
  5173  04C0                     l2955:
  5174  04C0  083A               	movf	___flmul@a+3,w
  5175  04C1  3980               	andlw	128
  5176  04C2  00BB               	movwf	??___flmul
  5177  04C3  083B               	movf	??___flmul,w
  5178  04C4  06C0               	xorwf	___flmul@sign,f
  5179  04C5                     l2957:
  5180  04C5  083A               	movf	___flmul@a+3,w
  5181  04C6  00BB               	movwf	??___flmul
  5182  04C7  073B               	addwf	??___flmul,w
  5183  04C8  00BC               	movwf	??___flmul+1
  5184  04C9  083C               	movf	??___flmul+1,w
  5185  04CA  00C1               	movwf	___flmul@aexp
  5186  04CB                     l2959:
  5187  04CB  1FB9               	btfss	___flmul@a+2,7
  5188  04CC  2CCE               	goto	u4571
  5189  04CD  2CCF               	goto	u4570
  5190  04CE                     u4571:
  5191  04CE  2CD0               	goto	l2963
  5192  04CF                     u4570:
  5193  04CF                     l2961:
  5194  04CF  1441               	bsf	___flmul@aexp,0
  5195  04D0                     l2963:
  5196  04D0  0841               	movf	___flmul@aexp,w
  5197  04D1  1903               	btfsc	3,2
  5198  04D2  2CD4               	goto	u4581
  5199  04D3  2CD5               	goto	u4580
  5200  04D4                     u4581:
  5201  04D4  2CE4               	goto	l2971
  5202  04D5                     u4580:
  5203  04D5                     l2965:
  5204  04D5  0A41               	incf	___flmul@aexp,w
  5205  04D6  1D03               	btfss	3,2
  5206  04D7  2CD9               	goto	u4591
  5207  04D8  2CDA               	goto	u4590
  5208  04D9                     u4591:
  5209  04D9  2CE2               	goto	l2969
  5210  04DA                     u4590:
  5211  04DA                     l2967:
  5212  04DA  3000               	movlw	0
  5213  04DB  00BA               	movwf	___flmul@a+3
  5214  04DC  3000               	movlw	0
  5215  04DD  00B9               	movwf	___flmul@a+2
  5216  04DE  3000               	movlw	0
  5217  04DF  00B8               	movwf	___flmul@a+1
  5218  04E0  3000               	movlw	0
  5219  04E1  00B7               	movwf	___flmul@a
  5220  04E2                     l2969:
  5221  04E2  17B9               	bsf	___flmul@a+2,7
  5222  04E3  2CEC               	goto	l2973
  5223  04E4                     l2971:
  5224  04E4  3000               	movlw	0
  5225  04E5  00BA               	movwf	___flmul@a+3
  5226  04E6  3000               	movlw	0
  5227  04E7  00B9               	movwf	___flmul@a+2
  5228  04E8  3000               	movlw	0
  5229  04E9  00B8               	movwf	___flmul@a+1
  5230  04EA  3000               	movlw	0
  5231  04EB  00B7               	movwf	___flmul@a
  5232  04EC                     l2973:
  5233  04EC  0841               	movf	___flmul@aexp,w
  5234  04ED  1903               	btfsc	3,2
  5235  04EE  2CF0               	goto	u4601
  5236  04EF  2CF1               	goto	u4600
  5237  04F0                     u4601:
  5238  04F0  2CF6               	goto	l2977
  5239  04F1                     u4600:
  5240  04F1                     l2975:
  5241  04F1  0846               	movf	___flmul@bexp,w
  5242  04F2  1D03               	btfss	3,2
  5243  04F3  2CF5               	goto	u4611
  5244  04F4  2CF6               	goto	u4610
  5245  04F5                     u4611:
  5246  04F5  2CFF               	goto	l2981
  5247  04F6                     u4610:
  5248  04F6                     l2977:
  5249  04F6  3000               	movlw	0
  5250  04F7  00B6               	movwf	?___flmul+3
  5251  04F8  3000               	movlw	0
  5252  04F9  00B5               	movwf	?___flmul+2
  5253  04FA  3000               	movlw	0
  5254  04FB  00B4               	movwf	?___flmul+1
  5255  04FC  3000               	movlw	0
  5256  04FD  00B3               	movwf	?___flmul
  5257  04FE  2FF2               	goto	l579
  5258  04FF                     l2981:
  5259  04FF  0833               	movf	___flmul@b,w
  5260  0500  00BB               	movwf	??___flmul
  5261  0501  083B               	movf	??___flmul,w
  5262  0502  00F0               	movwf	__Umul8_16@multiplicand
  5263  0503  0839               	movf	___flmul@a+2,w
  5264  0504  160A  118A  2356  120A  118A  	fcall	__Umul8_16
  5265  0509  0871               	movf	?__Umul8_16+1,w
  5266  050A  1283               	bcf	3,5	;RP0=0, select bank0
  5267  050B  1303               	bcf	3,6	;RP1=0, select bank0
  5268  050C  00CC               	movwf	___flmul@temp+1
  5269  050D  0870               	movf	?__Umul8_16,w
  5270  050E  00CB               	movwf	___flmul@temp
  5271  050F                     l2983:
  5272  050F  084B               	movf	___flmul@temp,w
  5273  0510  00BB               	movwf	??___flmul
  5274  0511  01BC               	clrf	??___flmul+1
  5275  0512  01BD               	clrf	??___flmul+2
  5276  0513  01BE               	clrf	??___flmul+3
  5277  0514  083E               	movf	??___flmul+3,w
  5278  0515  00C5               	movwf	___flmul@grs+3
  5279  0516  083D               	movf	??___flmul+2,w
  5280  0517  00C4               	movwf	___flmul@grs+2
  5281  0518  083C               	movf	??___flmul+1,w
  5282  0519  00C3               	movwf	___flmul@grs+1
  5283  051A  083B               	movf	??___flmul,w
  5284  051B  00C2               	movwf	___flmul@grs
  5285  051C                     l2985:
  5286  051C  084C               	movf	___flmul@temp+1,w
  5287  051D  00BB               	movwf	??___flmul
  5288  051E  01BC               	clrf	??___flmul+1
  5289  051F  01BD               	clrf	??___flmul+2
  5290  0520  01BE               	clrf	??___flmul+3
  5291  0521  083E               	movf	??___flmul+3,w
  5292  0522  00CA               	movwf	___flmul@prod+3
  5293  0523  083D               	movf	??___flmul+2,w
  5294  0524  00C9               	movwf	___flmul@prod+2
  5295  0525  083C               	movf	??___flmul+1,w
  5296  0526  00C8               	movwf	___flmul@prod+1
  5297  0527  083B               	movf	??___flmul,w
  5298  0528  00C7               	movwf	___flmul@prod
  5299  0529  0834               	movf	___flmul@b+1,w
  5300  052A  00BB               	movwf	??___flmul
  5301  052B  083B               	movf	??___flmul,w
  5302  052C  00F0               	movwf	__Umul8_16@multiplicand
  5303  052D  0838               	movf	___flmul@a+1,w
  5304  052E  160A  118A  2356  120A  118A  	fcall	__Umul8_16
  5305  0533  0871               	movf	?__Umul8_16+1,w
  5306  0534  1283               	bcf	3,5	;RP0=0, select bank0
  5307  0535  1303               	bcf	3,6	;RP1=0, select bank0
  5308  0536  00CC               	movwf	___flmul@temp+1
  5309  0537  0870               	movf	?__Umul8_16,w
  5310  0538  00CB               	movwf	___flmul@temp
  5311  0539                     l2987:
  5312  0539  084B               	movf	___flmul@temp,w
  5313  053A  00BB               	movwf	??___flmul
  5314  053B  01BC               	clrf	??___flmul+1
  5315  053C  01BD               	clrf	??___flmul+2
  5316  053D  01BE               	clrf	??___flmul+3
  5317  053E  083B               	movf	??___flmul,w
  5318  053F  07C2               	addwf	___flmul@grs,f
  5319  0540  083C               	movf	??___flmul+1,w
  5320  0541  1103               	clrz
  5321  0542  1803               	skipnc
  5322  0543  3E01               	addlw	1
  5323  0544  1903               	skipnz
  5324  0545  2D47               	goto	u4621
  5325  0546  07C3               	addwf	___flmul@grs+1,f
  5326  0547                     u4621:
  5327  0547  083D               	movf	??___flmul+2,w
  5328  0548  1103               	clrz
  5329  0549  1803               	skipnc
  5330  054A  3E01               	addlw	1
  5331  054B  1903               	skipnz
  5332  054C  2D4E               	goto	u4622
  5333  054D  07C4               	addwf	___flmul@grs+2,f
  5334  054E                     u4622:
  5335  054E  083E               	movf	??___flmul+3,w
  5336  054F  1103               	clrz
  5337  0550  1803               	skipnc
  5338  0551  3E01               	addlw	1
  5339  0552  1903               	skipnz
  5340  0553  2D55               	goto	u4623
  5341  0554  07C5               	addwf	___flmul@grs+3,f
  5342  0555                     u4623:
  5343  0555                     l2989:
  5344  0555  084C               	movf	___flmul@temp+1,w
  5345  0556  00BB               	movwf	??___flmul
  5346  0557  01BC               	clrf	??___flmul+1
  5347  0558  01BD               	clrf	??___flmul+2
  5348  0559  01BE               	clrf	??___flmul+3
  5349  055A  083B               	movf	??___flmul,w
  5350  055B  07C7               	addwf	___flmul@prod,f
  5351  055C  083C               	movf	??___flmul+1,w
  5352  055D  1103               	clrz
  5353  055E  1803               	skipnc
  5354  055F  3E01               	addlw	1
  5355  0560  1903               	skipnz
  5356  0561  2D63               	goto	u4631
  5357  0562  07C8               	addwf	___flmul@prod+1,f
  5358  0563                     u4631:
  5359  0563  083D               	movf	??___flmul+2,w
  5360  0564  1103               	clrz
  5361  0565  1803               	skipnc
  5362  0566  3E01               	addlw	1
  5363  0567  1903               	skipnz
  5364  0568  2D6A               	goto	u4632
  5365  0569  07C9               	addwf	___flmul@prod+2,f
  5366  056A                     u4632:
  5367  056A  083E               	movf	??___flmul+3,w
  5368  056B  1103               	clrz
  5369  056C  1803               	skipnc
  5370  056D  3E01               	addlw	1
  5371  056E  1903               	skipnz
  5372  056F  2D71               	goto	u4633
  5373  0570  07CA               	addwf	___flmul@prod+3,f
  5374  0571                     u4633:
  5375  0571  0835               	movf	___flmul@b+2,w
  5376  0572  00BB               	movwf	??___flmul
  5377  0573  083B               	movf	??___flmul,w
  5378  0574  00F0               	movwf	__Umul8_16@multiplicand
  5379  0575  0837               	movf	___flmul@a,w
  5380  0576  160A  118A  2356  120A  118A  	fcall	__Umul8_16
  5381  057B  0871               	movf	?__Umul8_16+1,w
  5382  057C  1283               	bcf	3,5	;RP0=0, select bank0
  5383  057D  1303               	bcf	3,6	;RP1=0, select bank0
  5384  057E  00CC               	movwf	___flmul@temp+1
  5385  057F  0870               	movf	?__Umul8_16,w
  5386  0580  00CB               	movwf	___flmul@temp
  5387  0581                     l2991:
  5388  0581  084B               	movf	___flmul@temp,w
  5389  0582  00BB               	movwf	??___flmul
  5390  0583  01BC               	clrf	??___flmul+1
  5391  0584  01BD               	clrf	??___flmul+2
  5392  0585  01BE               	clrf	??___flmul+3
  5393  0586  083B               	movf	??___flmul,w
  5394  0587  07C2               	addwf	___flmul@grs,f
  5395  0588  083C               	movf	??___flmul+1,w
  5396  0589  1103               	clrz
  5397  058A  1803               	skipnc
  5398  058B  3E01               	addlw	1
  5399  058C  1903               	skipnz
  5400  058D  2D8F               	goto	u4641
  5401  058E  07C3               	addwf	___flmul@grs+1,f
  5402  058F                     u4641:
  5403  058F  083D               	movf	??___flmul+2,w
  5404  0590  1103               	clrz
  5405  0591  1803               	skipnc
  5406  0592  3E01               	addlw	1
  5407  0593  1903               	skipnz
  5408  0594  2D96               	goto	u4642
  5409  0595  07C4               	addwf	___flmul@grs+2,f
  5410  0596                     u4642:
  5411  0596  083E               	movf	??___flmul+3,w
  5412  0597  1103               	clrz
  5413  0598  1803               	skipnc
  5414  0599  3E01               	addlw	1
  5415  059A  1903               	skipnz
  5416  059B  2D9D               	goto	u4643
  5417  059C  07C5               	addwf	___flmul@grs+3,f
  5418  059D                     u4643:
  5419  059D                     l2993:
  5420  059D  084C               	movf	___flmul@temp+1,w
  5421  059E  00BB               	movwf	??___flmul
  5422  059F  01BC               	clrf	??___flmul+1
  5423  05A0  01BD               	clrf	??___flmul+2
  5424  05A1  01BE               	clrf	??___flmul+3
  5425  05A2  083B               	movf	??___flmul,w
  5426  05A3  07C7               	addwf	___flmul@prod,f
  5427  05A4  083C               	movf	??___flmul+1,w
  5428  05A5  1103               	clrz
  5429  05A6  1803               	skipnc
  5430  05A7  3E01               	addlw	1
  5431  05A8  1903               	skipnz
  5432  05A9  2DAB               	goto	u4651
  5433  05AA  07C8               	addwf	___flmul@prod+1,f
  5434  05AB                     u4651:
  5435  05AB  083D               	movf	??___flmul+2,w
  5436  05AC  1103               	clrz
  5437  05AD  1803               	skipnc
  5438  05AE  3E01               	addlw	1
  5439  05AF  1903               	skipnz
  5440  05B0  2DB2               	goto	u4652
  5441  05B1  07C9               	addwf	___flmul@prod+2,f
  5442  05B2                     u4652:
  5443  05B2  083E               	movf	??___flmul+3,w
  5444  05B3  1103               	clrz
  5445  05B4  1803               	skipnc
  5446  05B5  3E01               	addlw	1
  5447  05B6  1903               	skipnz
  5448  05B7  2DB9               	goto	u4653
  5449  05B8  07CA               	addwf	___flmul@prod+3,f
  5450  05B9                     u4653:
  5451  05B9                     l2995:
  5452  05B9  3008               	movlw	8
  5453  05BA  00BB               	movwf	??___flmul
  5454  05BB                     u4665:
  5455  05BB  1003               	clrc
  5456  05BC  0DC2               	rlf	___flmul@grs,f
  5457  05BD  0DC3               	rlf	___flmul@grs+1,f
  5458  05BE  0DC4               	rlf	___flmul@grs+2,f
  5459  05BF  0DC5               	rlf	___flmul@grs+3,f
  5460  05C0  0BBB               	decfsz	??___flmul,f
  5461  05C1  2DBB               	goto	u4665
  5462  05C2                     l2997:
  5463  05C2  0834               	movf	___flmul@b+1,w
  5464  05C3  00BB               	movwf	??___flmul
  5465  05C4  083B               	movf	??___flmul,w
  5466  05C5  00F0               	movwf	__Umul8_16@multiplicand
  5467  05C6  0837               	movf	___flmul@a,w
  5468  05C7  160A  118A  2356  120A  118A  	fcall	__Umul8_16
  5469  05CC  0871               	movf	?__Umul8_16+1,w
  5470  05CD  1283               	bcf	3,5	;RP0=0, select bank0
  5471  05CE  1303               	bcf	3,6	;RP1=0, select bank0
  5472  05CF  00CC               	movwf	___flmul@temp+1
  5473  05D0  0870               	movf	?__Umul8_16,w
  5474  05D1  00CB               	movwf	___flmul@temp
  5475  05D2                     l2999:
  5476  05D2  084B               	movf	___flmul@temp,w
  5477  05D3  00BB               	movwf	??___flmul
  5478  05D4  084C               	movf	___flmul@temp+1,w
  5479  05D5  00BC               	movwf	??___flmul+1
  5480  05D6  01BD               	clrf	??___flmul+2
  5481  05D7  01BE               	clrf	??___flmul+3
  5482  05D8  083B               	movf	??___flmul,w
  5483  05D9  07C2               	addwf	___flmul@grs,f
  5484  05DA  083C               	movf	??___flmul+1,w
  5485  05DB  1103               	clrz
  5486  05DC  1803               	skipnc
  5487  05DD  3E01               	addlw	1
  5488  05DE  1903               	skipnz
  5489  05DF  2DE1               	goto	u4671
  5490  05E0  07C3               	addwf	___flmul@grs+1,f
  5491  05E1                     u4671:
  5492  05E1  083D               	movf	??___flmul+2,w
  5493  05E2  1103               	clrz
  5494  05E3  1803               	skipnc
  5495  05E4  3E01               	addlw	1
  5496  05E5  1903               	skipnz
  5497  05E6  2DE8               	goto	u4672
  5498  05E7  07C4               	addwf	___flmul@grs+2,f
  5499  05E8                     u4672:
  5500  05E8  083E               	movf	??___flmul+3,w
  5501  05E9  1103               	clrz
  5502  05EA  1803               	skipnc
  5503  05EB  3E01               	addlw	1
  5504  05EC  1903               	skipnz
  5505  05ED  2DEF               	goto	u4673
  5506  05EE  07C5               	addwf	___flmul@grs+3,f
  5507  05EF                     u4673:
  5508  05EF                     l3001:
  5509  05EF  0833               	movf	___flmul@b,w
  5510  05F0  00BB               	movwf	??___flmul
  5511  05F1  083B               	movf	??___flmul,w
  5512  05F2  00F0               	movwf	__Umul8_16@multiplicand
  5513  05F3  0838               	movf	___flmul@a+1,w
  5514  05F4  160A  118A  2356  120A  118A  	fcall	__Umul8_16
  5515  05F9  0871               	movf	?__Umul8_16+1,w
  5516  05FA  1283               	bcf	3,5	;RP0=0, select bank0
  5517  05FB  1303               	bcf	3,6	;RP1=0, select bank0
  5518  05FC  00CC               	movwf	___flmul@temp+1
  5519  05FD  0870               	movf	?__Umul8_16,w
  5520  05FE  00CB               	movwf	___flmul@temp
  5521  05FF                     l3003:
  5522  05FF  084B               	movf	___flmul@temp,w
  5523  0600  00BB               	movwf	??___flmul
  5524  0601  084C               	movf	___flmul@temp+1,w
  5525  0602  00BC               	movwf	??___flmul+1
  5526  0603  01BD               	clrf	??___flmul+2
  5527  0604  01BE               	clrf	??___flmul+3
  5528  0605  083B               	movf	??___flmul,w
  5529  0606  07C2               	addwf	___flmul@grs,f
  5530  0607  083C               	movf	??___flmul+1,w
  5531  0608  1103               	clrz
  5532  0609  1803               	skipnc
  5533  060A  3E01               	addlw	1
  5534  060B  1903               	skipnz
  5535  060C  2E0E               	goto	u4681
  5536  060D  07C3               	addwf	___flmul@grs+1,f
  5537  060E                     u4681:
  5538  060E  083D               	movf	??___flmul+2,w
  5539  060F  1103               	clrz
  5540  0610  1803               	skipnc
  5541  0611  3E01               	addlw	1
  5542  0612  1903               	skipnz
  5543  0613  2E15               	goto	u4682
  5544  0614  07C4               	addwf	___flmul@grs+2,f
  5545  0615                     u4682:
  5546  0615  083E               	movf	??___flmul+3,w
  5547  0616  1103               	clrz
  5548  0617  1803               	skipnc
  5549  0618  3E01               	addlw	1
  5550  0619  1903               	skipnz
  5551  061A  2E1C               	goto	u4683
  5552  061B  07C5               	addwf	___flmul@grs+3,f
  5553  061C                     u4683:
  5554  061C                     l3005:
  5555  061C  3008               	movlw	8
  5556  061D  00BB               	movwf	??___flmul
  5557  061E                     u4695:
  5558  061E  1003               	clrc
  5559  061F  0DC2               	rlf	___flmul@grs,f
  5560  0620  0DC3               	rlf	___flmul@grs+1,f
  5561  0621  0DC4               	rlf	___flmul@grs+2,f
  5562  0622  0DC5               	rlf	___flmul@grs+3,f
  5563  0623  0BBB               	decfsz	??___flmul,f
  5564  0624  2E1E               	goto	u4695
  5565  0625  0833               	movf	___flmul@b,w
  5566  0626  00BB               	movwf	??___flmul
  5567  0627  083B               	movf	??___flmul,w
  5568  0628  00F0               	movwf	__Umul8_16@multiplicand
  5569  0629  0837               	movf	___flmul@a,w
  5570  062A  160A  118A  2356  120A  118A  	fcall	__Umul8_16
  5571  062F  0871               	movf	?__Umul8_16+1,w
  5572  0630  1283               	bcf	3,5	;RP0=0, select bank0
  5573  0631  1303               	bcf	3,6	;RP1=0, select bank0
  5574  0632  00CC               	movwf	___flmul@temp+1
  5575  0633  0870               	movf	?__Umul8_16,w
  5576  0634  00CB               	movwf	___flmul@temp
  5577  0635                     l3007:
  5578  0635  084B               	movf	___flmul@temp,w
  5579  0636  00BB               	movwf	??___flmul
  5580  0637  084C               	movf	___flmul@temp+1,w
  5581  0638  00BC               	movwf	??___flmul+1
  5582  0639  01BD               	clrf	??___flmul+2
  5583  063A  01BE               	clrf	??___flmul+3
  5584  063B  083B               	movf	??___flmul,w
  5585  063C  07C2               	addwf	___flmul@grs,f
  5586  063D  083C               	movf	??___flmul+1,w
  5587  063E  1103               	clrz
  5588  063F  1803               	skipnc
  5589  0640  3E01               	addlw	1
  5590  0641  1903               	skipnz
  5591  0642  2E44               	goto	u4701
  5592  0643  07C3               	addwf	___flmul@grs+1,f
  5593  0644                     u4701:
  5594  0644  083D               	movf	??___flmul+2,w
  5595  0645  1103               	clrz
  5596  0646  1803               	skipnc
  5597  0647  3E01               	addlw	1
  5598  0648  1903               	skipnz
  5599  0649  2E4B               	goto	u4702
  5600  064A  07C4               	addwf	___flmul@grs+2,f
  5601  064B                     u4702:
  5602  064B  083E               	movf	??___flmul+3,w
  5603  064C  1103               	clrz
  5604  064D  1803               	skipnc
  5605  064E  3E01               	addlw	1
  5606  064F  1903               	skipnz
  5607  0650  2E52               	goto	u4703
  5608  0651  07C5               	addwf	___flmul@grs+3,f
  5609  0652                     u4703:
  5610  0652                     l3009:
  5611  0652  0834               	movf	___flmul@b+1,w
  5612  0653  00BB               	movwf	??___flmul
  5613  0654  083B               	movf	??___flmul,w
  5614  0655  00F0               	movwf	__Umul8_16@multiplicand
  5615  0656  0839               	movf	___flmul@a+2,w
  5616  0657  160A  118A  2356  120A  118A  	fcall	__Umul8_16
  5617  065C  0871               	movf	?__Umul8_16+1,w
  5618  065D  1283               	bcf	3,5	;RP0=0, select bank0
  5619  065E  1303               	bcf	3,6	;RP1=0, select bank0
  5620  065F  00CC               	movwf	___flmul@temp+1
  5621  0660  0870               	movf	?__Umul8_16,w
  5622  0661  00CB               	movwf	___flmul@temp
  5623  0662  084B               	movf	___flmul@temp,w
  5624  0663  00BB               	movwf	??___flmul
  5625  0664  084C               	movf	___flmul@temp+1,w
  5626  0665  00BC               	movwf	??___flmul+1
  5627  0666  01BD               	clrf	??___flmul+2
  5628  0667  01BE               	clrf	??___flmul+3
  5629  0668  083B               	movf	??___flmul,w
  5630  0669  07C7               	addwf	___flmul@prod,f
  5631  066A  083C               	movf	??___flmul+1,w
  5632  066B  1103               	clrz
  5633  066C  1803               	skipnc
  5634  066D  3E01               	addlw	1
  5635  066E  1903               	skipnz
  5636  066F  2E71               	goto	u4711
  5637  0670  07C8               	addwf	___flmul@prod+1,f
  5638  0671                     u4711:
  5639  0671  083D               	movf	??___flmul+2,w
  5640  0672  1103               	clrz
  5641  0673  1803               	skipnc
  5642  0674  3E01               	addlw	1
  5643  0675  1903               	skipnz
  5644  0676  2E78               	goto	u4712
  5645  0677  07C9               	addwf	___flmul@prod+2,f
  5646  0678                     u4712:
  5647  0678  083E               	movf	??___flmul+3,w
  5648  0679  1103               	clrz
  5649  067A  1803               	skipnc
  5650  067B  3E01               	addlw	1
  5651  067C  1903               	skipnz
  5652  067D  2E7F               	goto	u4713
  5653  067E  07CA               	addwf	___flmul@prod+3,f
  5654  067F                     u4713:
  5655  067F                     l3011:
  5656  067F  0835               	movf	___flmul@b+2,w
  5657  0680  00BB               	movwf	??___flmul
  5658  0681  083B               	movf	??___flmul,w
  5659  0682  00F0               	movwf	__Umul8_16@multiplicand
  5660  0683  0838               	movf	___flmul@a+1,w
  5661  0684  160A  118A  2356  120A  118A  	fcall	__Umul8_16
  5662  0689  0871               	movf	?__Umul8_16+1,w
  5663  068A  1283               	bcf	3,5	;RP0=0, select bank0
  5664  068B  1303               	bcf	3,6	;RP1=0, select bank0
  5665  068C  00CC               	movwf	___flmul@temp+1
  5666  068D  0870               	movf	?__Umul8_16,w
  5667  068E  00CB               	movwf	___flmul@temp
  5668  068F                     l3013:
  5669  068F  084B               	movf	___flmul@temp,w
  5670  0690  00BB               	movwf	??___flmul
  5671  0691  084C               	movf	___flmul@temp+1,w
  5672  0692  00BC               	movwf	??___flmul+1
  5673  0693  01BD               	clrf	??___flmul+2
  5674  0694  01BE               	clrf	??___flmul+3
  5675  0695  083B               	movf	??___flmul,w
  5676  0696  07C7               	addwf	___flmul@prod,f
  5677  0697  083C               	movf	??___flmul+1,w
  5678  0698  1103               	clrz
  5679  0699  1803               	skipnc
  5680  069A  3E01               	addlw	1
  5681  069B  1903               	skipnz
  5682  069C  2E9E               	goto	u4721
  5683  069D  07C8               	addwf	___flmul@prod+1,f
  5684  069E                     u4721:
  5685  069E  083D               	movf	??___flmul+2,w
  5686  069F  1103               	clrz
  5687  06A0  1803               	skipnc
  5688  06A1  3E01               	addlw	1
  5689  06A2  1903               	skipnz
  5690  06A3  2EA5               	goto	u4722
  5691  06A4  07C9               	addwf	___flmul@prod+2,f
  5692  06A5                     u4722:
  5693  06A5  083E               	movf	??___flmul+3,w
  5694  06A6  1103               	clrz
  5695  06A7  1803               	skipnc
  5696  06A8  3E01               	addlw	1
  5697  06A9  1903               	skipnz
  5698  06AA  2EAC               	goto	u4723
  5699  06AB  07CA               	addwf	___flmul@prod+3,f
  5700  06AC                     u4723:
  5701  06AC  0835               	movf	___flmul@b+2,w
  5702  06AD  00BB               	movwf	??___flmul
  5703  06AE  083B               	movf	??___flmul,w
  5704  06AF  00F0               	movwf	__Umul8_16@multiplicand
  5705  06B0  0839               	movf	___flmul@a+2,w
  5706  06B1  160A  118A  2356  120A  118A  	fcall	__Umul8_16
  5707  06B6  0871               	movf	?__Umul8_16+1,w
  5708  06B7  1283               	bcf	3,5	;RP0=0, select bank0
  5709  06B8  1303               	bcf	3,6	;RP1=0, select bank0
  5710  06B9  00CC               	movwf	___flmul@temp+1
  5711  06BA  0870               	movf	?__Umul8_16,w
  5712  06BB  00CB               	movwf	___flmul@temp
  5713  06BC                     l3015:
  5714  06BC  084B               	movf	___flmul@temp,w
  5715  06BD  00BB               	movwf	??___flmul
  5716  06BE  084C               	movf	___flmul@temp+1,w
  5717  06BF  00BC               	movwf	??___flmul+1
  5718  06C0  01BD               	clrf	??___flmul+2
  5719  06C1  01BE               	clrf	??___flmul+3
  5720  06C2  3008               	movlw	8
  5721  06C3                     u4735:
  5722  06C3  1003               	clrc
  5723  06C4  0DBB               	rlf	??___flmul,f
  5724  06C5  0DBC               	rlf	??___flmul+1,f
  5725  06C6  0DBD               	rlf	??___flmul+2,f
  5726  06C7  0DBE               	rlf	??___flmul+3,f
  5727  06C8                     u4730:
  5728  06C8  3EFF               	addlw	-1
  5729  06C9  1D03               	skipz
  5730  06CA  2EC3               	goto	u4735
  5731  06CB  083B               	movf	??___flmul,w
  5732  06CC  07C7               	addwf	___flmul@prod,f
  5733  06CD  083C               	movf	??___flmul+1,w
  5734  06CE  1103               	clrz
  5735  06CF  1803               	skipnc
  5736  06D0  3E01               	addlw	1
  5737  06D1  1903               	skipnz
  5738  06D2  2ED4               	goto	u4741
  5739  06D3  07C8               	addwf	___flmul@prod+1,f
  5740  06D4                     u4741:
  5741  06D4  083D               	movf	??___flmul+2,w
  5742  06D5  1103               	clrz
  5743  06D6  1803               	skipnc
  5744  06D7  3E01               	addlw	1
  5745  06D8  1903               	skipnz
  5746  06D9  2EDB               	goto	u4742
  5747  06DA  07C9               	addwf	___flmul@prod+2,f
  5748  06DB                     u4742:
  5749  06DB  083E               	movf	??___flmul+3,w
  5750  06DC  1103               	clrz
  5751  06DD  1803               	skipnc
  5752  06DE  3E01               	addlw	1
  5753  06DF  1903               	skipnz
  5754  06E0  2EE2               	goto	u4743
  5755  06E1  07CA               	addwf	___flmul@prod+3,f
  5756  06E2                     u4743:
  5757  06E2                     l3017:
  5758  06E2  0842               	movf	___flmul@grs,w
  5759  06E3  00BB               	movwf	??___flmul
  5760  06E4  0843               	movf	___flmul@grs+1,w
  5761  06E5  00BC               	movwf	??___flmul+1
  5762  06E6  0844               	movf	___flmul@grs+2,w
  5763  06E7  00BD               	movwf	??___flmul+2
  5764  06E8  0845               	movf	___flmul@grs+3,w
  5765  06E9  00BE               	movwf	??___flmul+3
  5766  06EA  3018               	movlw	24
  5767  06EB                     u4755:
  5768  06EB  1003               	clrc
  5769  06EC  0CBE               	rrf	??___flmul+3,f
  5770  06ED  0CBD               	rrf	??___flmul+2,f
  5771  06EE  0CBC               	rrf	??___flmul+1,f
  5772  06EF  0CBB               	rrf	??___flmul,f
  5773  06F0                     u4750:
  5774  06F0  3EFF               	addlw	-1
  5775  06F1  1D03               	skipz
  5776  06F2  2EEB               	goto	u4755
  5777  06F3  083B               	movf	??___flmul,w
  5778  06F4  07C7               	addwf	___flmul@prod,f
  5779  06F5  083C               	movf	??___flmul+1,w
  5780  06F6  1103               	clrz
  5781  06F7  1803               	skipnc
  5782  06F8  3E01               	addlw	1
  5783  06F9  1903               	skipnz
  5784  06FA  2EFC               	goto	u4761
  5785  06FB  07C8               	addwf	___flmul@prod+1,f
  5786  06FC                     u4761:
  5787  06FC  083D               	movf	??___flmul+2,w
  5788  06FD  1103               	clrz
  5789  06FE  1803               	skipnc
  5790  06FF  3E01               	addlw	1
  5791  0700  1903               	skipnz
  5792  0701  2F03               	goto	u4762
  5793  0702  07C9               	addwf	___flmul@prod+2,f
  5794  0703                     u4762:
  5795  0703  083E               	movf	??___flmul+3,w
  5796  0704  1103               	clrz
  5797  0705  1803               	skipnc
  5798  0706  3E01               	addlw	1
  5799  0707  1903               	skipnz
  5800  0708  2F0A               	goto	u4763
  5801  0709  07CA               	addwf	___flmul@prod+3,f
  5802  070A                     u4763:
  5803  070A                     l3019:
  5804  070A  3008               	movlw	8
  5805  070B  00BB               	movwf	??___flmul
  5806  070C                     u4775:
  5807  070C  1003               	clrc
  5808  070D  0DC2               	rlf	___flmul@grs,f
  5809  070E  0DC3               	rlf	___flmul@grs+1,f
  5810  070F  0DC4               	rlf	___flmul@grs+2,f
  5811  0710  0DC5               	rlf	___flmul@grs+3,f
  5812  0711  0BBB               	decfsz	??___flmul,f
  5813  0712  2F0C               	goto	u4775
  5814  0713                     l3021:
  5815  0713  0846               	movf	___flmul@bexp,w
  5816  0714  0741               	addwf	___flmul@aexp,w
  5817  0715  00BB               	movwf	??___flmul
  5818  0716  01BC               	clrf	??___flmul+1
  5819  0717  0DBC               	rlf	??___flmul+1,f
  5820  0718  083B               	movf	??___flmul,w
  5821  0719  3E82               	addlw	130
  5822  071A  00CB               	movwf	___flmul@temp
  5823  071B  083C               	movf	??___flmul+1,w
  5824  071C  1803               	skipnc
  5825  071D  3E01               	addlw	1
  5826  071E  3EFF               	addlw	255
  5827  071F  00CC               	movwf	___flmul@temp+1
  5828  0720  2F3E               	goto	l3033
  5829  0721                     l3023:
  5830  0721  3001               	movlw	1
  5831  0722  00BB               	movwf	??___flmul
  5832  0723                     u4785:
  5833  0723  1003               	clrc
  5834  0724  0DC7               	rlf	___flmul@prod,f
  5835  0725  0DC8               	rlf	___flmul@prod+1,f
  5836  0726  0DC9               	rlf	___flmul@prod+2,f
  5837  0727  0DCA               	rlf	___flmul@prod+3,f
  5838  0728  0BBB               	decfsz	??___flmul,f
  5839  0729  2F23               	goto	u4785
  5840  072A                     l3025:
  5841  072A  1FC5               	btfss	___flmul@grs+3,7
  5842  072B  2F2D               	goto	u4791
  5843  072C  2F2E               	goto	u4790
  5844  072D                     u4791:
  5845  072D  2F2F               	goto	l3029
  5846  072E                     u4790:
  5847  072E                     l3027:
  5848  072E  1447               	bsf	___flmul@prod,0
  5849  072F                     l3029:
  5850  072F  3001               	movlw	1
  5851  0730  00BB               	movwf	??___flmul
  5852  0731                     u4805:
  5853  0731  1003               	clrc
  5854  0732  0DC2               	rlf	___flmul@grs,f
  5855  0733  0DC3               	rlf	___flmul@grs+1,f
  5856  0734  0DC4               	rlf	___flmul@grs+2,f
  5857  0735  0DC5               	rlf	___flmul@grs+3,f
  5858  0736  0BBB               	decfsz	??___flmul,f
  5859  0737  2F31               	goto	u4805
  5860  0738                     l3031:
  5861  0738  30FF               	movlw	255
  5862  0739  07CB               	addwf	___flmul@temp,f
  5863  073A  1803               	skipnc
  5864  073B  0ACC               	incf	___flmul@temp+1,f
  5865  073C  30FF               	movlw	255
  5866  073D  07CC               	addwf	___flmul@temp+1,f
  5867  073E                     l3033:
  5868  073E  1FC9               	btfss	___flmul@prod+2,7
  5869  073F  2F41               	goto	u4811
  5870  0740  2F42               	goto	u4810
  5871  0741                     u4811:
  5872  0741  2F21               	goto	l3023
  5873  0742                     u4810:
  5874  0742                     l3035:
  5875  0742  01C1               	clrf	___flmul@aexp
  5876  0743                     l3037:
  5877  0743  1FC5               	btfss	___flmul@grs+3,7
  5878  0744  2F46               	goto	u4821
  5879  0745  2F47               	goto	u4820
  5880  0746                     u4821:
  5881  0746  2F63               	goto	l3045
  5882  0747                     u4820:
  5883  0747                     l3039:
  5884  0747  30FF               	movlw	255
  5885  0748  0542               	andwf	___flmul@grs,w
  5886  0749  00BB               	movwf	??___flmul
  5887  074A  30FF               	movlw	255
  5888  074B  0543               	andwf	___flmul@grs+1,w
  5889  074C  00BC               	movwf	??___flmul+1
  5890  074D  30FF               	movlw	255
  5891  074E  0544               	andwf	___flmul@grs+2,w
  5892  074F  00BD               	movwf	??___flmul+2
  5893  0750  307F               	movlw	127
  5894  0751  0545               	andwf	___flmul@grs+3,w
  5895  0752  00BE               	movwf	??___flmul+3
  5896  0753  083E               	movf	??___flmul+3,w
  5897  0754  043D               	iorwf	??___flmul+2,w
  5898  0755  043C               	iorwf	??___flmul+1,w
  5899  0756  043B               	iorwf	??___flmul,w
  5900  0757  1903               	skipnz
  5901  0758  2F5A               	goto	u4831
  5902  0759  2F5B               	goto	u4830
  5903  075A                     u4831:
  5904  075A  2F5E               	goto	l585
  5905  075B                     u4830:
  5906  075B                     l3041:
  5907  075B  01C1               	clrf	___flmul@aexp
  5908  075C  0AC1               	incf	___flmul@aexp,f
  5909  075D  2F63               	goto	l3045
  5910  075E                     l585:
  5911  075E  1C47               	btfss	___flmul@prod,0
  5912  075F  2F61               	goto	u4841
  5913  0760  2F62               	goto	u4840
  5914  0761                     u4841:
  5915  0761  2F63               	goto	l3045
  5916  0762                     u4840:
  5917  0762  2F5B               	goto	l3041
  5918  0763                     l3045:
  5919  0763  0841               	movf	___flmul@aexp,w
  5920  0764  1903               	btfsc	3,2
  5921  0765  2F67               	goto	u4851
  5922  0766  2F68               	goto	u4850
  5923  0767                     u4851:
  5924  0767  2F99               	goto	l3055
  5925  0768                     u4850:
  5926  0768                     l3047:
  5927  0768  3001               	movlw	1
  5928  0769  07C7               	addwf	___flmul@prod,f
  5929  076A  3000               	movlw	0
  5930  076B  1803               	skipnc
  5931  076C  3001               	movlw	1
  5932  076D  07C8               	addwf	___flmul@prod+1,f
  5933  076E  3000               	movlw	0
  5934  076F  1803               	skipnc
  5935  0770  3001               	movlw	1
  5936  0771  07C9               	addwf	___flmul@prod+2,f
  5937  0772  3000               	movlw	0
  5938  0773  1803               	skipnc
  5939  0774  3001               	movlw	1
  5940  0775  07CA               	addwf	___flmul@prod+3,f
  5941  0776                     l3049:
  5942  0776  1C4A               	btfss	___flmul@prod+3,0
  5943  0777  2F79               	goto	u4861
  5944  0778  2F7A               	goto	u4860
  5945  0779                     u4861:
  5946  0779  2F99               	goto	l3055
  5947  077A                     u4860:
  5948  077A                     l3051:
  5949  077A  0847               	movf	___flmul@prod,w
  5950  077B  00BB               	movwf	??___flmul
  5951  077C  0848               	movf	___flmul@prod+1,w
  5952  077D  00BC               	movwf	??___flmul+1
  5953  077E  0849               	movf	___flmul@prod+2,w
  5954  077F  00BD               	movwf	??___flmul+2
  5955  0780  084A               	movf	___flmul@prod+3,w
  5956  0781  00BE               	movwf	??___flmul+3
  5957  0782  3001               	movlw	1
  5958  0783  00BF               	movwf	??___flmul+4
  5959  0784                     u4875:
  5960  0784  0D3E               	rlf	??___flmul+3,w
  5961  0785  0CBE               	rrf	??___flmul+3,f
  5962  0786  0CBD               	rrf	??___flmul+2,f
  5963  0787  0CBC               	rrf	??___flmul+1,f
  5964  0788  0CBB               	rrf	??___flmul,f
  5965  0789                     u4870:
  5966  0789  0BBF               	decfsz	??___flmul+4,f
  5967  078A  2F84               	goto	u4875
  5968  078B  083E               	movf	??___flmul+3,w
  5969  078C  00CA               	movwf	___flmul@prod+3
  5970  078D  083D               	movf	??___flmul+2,w
  5971  078E  00C9               	movwf	___flmul@prod+2
  5972  078F  083C               	movf	??___flmul+1,w
  5973  0790  00C8               	movwf	___flmul@prod+1
  5974  0791  083B               	movf	??___flmul,w
  5975  0792  00C7               	movwf	___flmul@prod
  5976  0793                     l3053:
  5977  0793  3001               	movlw	1
  5978  0794  07CB               	addwf	___flmul@temp,f
  5979  0795  1803               	skipnc
  5980  0796  0ACC               	incf	___flmul@temp+1,f
  5981  0797  3000               	movlw	0
  5982  0798  07CC               	addwf	___flmul@temp+1,f
  5983  0799                     l3055:
  5984  0799  084C               	movf	___flmul@temp+1,w
  5985  079A  3A80               	xorlw	128
  5986  079B  00FF               	movwf	btemp+1
  5987  079C  3080               	movlw	128
  5988  079D  027F               	subwf	btemp+1,w
  5989  079E  1D03               	skipz
  5990  079F  2FA2               	goto	u4885
  5991  07A0  30FF               	movlw	255
  5992  07A1  024B               	subwf	___flmul@temp,w
  5993  07A2                     u4885:
  5994  07A2  1C03               	skipc
  5995  07A3  2FA5               	goto	u4881
  5996  07A4  2FA6               	goto	u4880
  5997  07A5                     u4881:
  5998  07A5  2FB1               	goto	l3059
  5999  07A6                     u4880:
  6000  07A6                     l3057:
  6001  07A6  307F               	movlw	127
  6002  07A7  1283               	bcf	3,5	;RP0=0, select bank0
  6003  07A8  1303               	bcf	3,6	;RP1=0, select bank0
  6004  07A9  00CA               	movwf	___flmul@prod+3
  6005  07AA  3080               	movlw	128
  6006  07AB  00C9               	movwf	___flmul@prod+2
  6007  07AC  3000               	movlw	0
  6008  07AD  00C8               	movwf	___flmul@prod+1
  6009  07AE  3000               	movlw	0
  6010  07AF  00C7               	movwf	___flmul@prod
  6011  07B0  2FE6               	goto	l591
  6012  07B1                     l3059:
  6013  07B1  1283               	bcf	3,5	;RP0=0, select bank0
  6014  07B2  1303               	bcf	3,6	;RP1=0, select bank0
  6015  07B3  084C               	movf	___flmul@temp+1,w
  6016  07B4  3A80               	xorlw	128
  6017  07B5  00FF               	movwf	btemp+1
  6018  07B6  3080               	movlw	128
  6019  07B7  027F               	subwf	btemp+1,w
  6020  07B8  1D03               	skipz
  6021  07B9  2FBC               	goto	u4895
  6022  07BA  3001               	movlw	1
  6023  07BB  024B               	subwf	___flmul@temp,w
  6024  07BC                     u4895:
  6025  07BC  1803               	skipnc
  6026  07BD  2FBF               	goto	u4891
  6027  07BE  2FC0               	goto	u4890
  6028  07BF                     u4891:
  6029  07BF  2FCC               	goto	l3065
  6030  07C0                     u4890:
  6031  07C0                     l3061:
  6032  07C0  3000               	movlw	0
  6033  07C1  1283               	bcf	3,5	;RP0=0, select bank0
  6034  07C2  1303               	bcf	3,6	;RP1=0, select bank0
  6035  07C3  00CA               	movwf	___flmul@prod+3
  6036  07C4  3000               	movlw	0
  6037  07C5  00C9               	movwf	___flmul@prod+2
  6038  07C6  3000               	movlw	0
  6039  07C7  00C8               	movwf	___flmul@prod+1
  6040  07C8  3000               	movlw	0
  6041  07C9  00C7               	movwf	___flmul@prod
  6042  07CA                     l3063:
  6043  07CA  01C0               	clrf	___flmul@sign
  6044  07CB  2FE6               	goto	l591
  6045  07CC                     l3065:
  6046  07CC  1283               	bcf	3,5	;RP0=0, select bank0
  6047  07CD  1303               	bcf	3,6	;RP1=0, select bank0
  6048  07CE  084B               	movf	___flmul@temp,w
  6049  07CF  00BB               	movwf	??___flmul
  6050  07D0  083B               	movf	??___flmul,w
  6051  07D1  00C6               	movwf	___flmul@bexp
  6052  07D2  30FF               	movlw	255
  6053  07D3  05C7               	andwf	___flmul@prod,f
  6054  07D4  30FF               	movlw	255
  6055  07D5  05C8               	andwf	___flmul@prod+1,f
  6056  07D6  307F               	movlw	127
  6057  07D7  05C9               	andwf	___flmul@prod+2,f
  6058  07D8  3000               	movlw	0
  6059  07D9  05CA               	andwf	___flmul@prod+3,f
  6060  07DA                     l3067:
  6061  07DA  1C46               	btfss	___flmul@bexp,0
  6062  07DB  2FDD               	goto	u4901
  6063  07DC  2FDE               	goto	u4900
  6064  07DD                     u4901:
  6065  07DD  2FDF               	goto	l3071
  6066  07DE                     u4900:
  6067  07DE                     l3069:
  6068  07DE  17C9               	bsf	___flmul@prod+2,7
  6069  07DF                     l3071:
  6070  07DF  0846               	movf	___flmul@bexp,w
  6071  07E0  00BB               	movwf	??___flmul
  6072  07E1  1003               	clrc
  6073  07E2  0C3B               	rrf	??___flmul,w
  6074  07E3  00BC               	movwf	??___flmul+1
  6075  07E4  083C               	movf	??___flmul+1,w
  6076  07E5  00CA               	movwf	___flmul@prod+3
  6077  07E6                     l591:
  6078  07E6  0840               	movf	___flmul@sign,w
  6079  07E7  00BB               	movwf	??___flmul
  6080  07E8  083B               	movf	??___flmul,w
  6081  07E9  04CA               	iorwf	___flmul@prod+3,f
  6082  07EA                     l3073:
  6083  07EA  084A               	movf	___flmul@prod+3,w
  6084  07EB  00B6               	movwf	?___flmul+3
  6085  07EC  0849               	movf	___flmul@prod+2,w
  6086  07ED  00B5               	movwf	?___flmul+2
  6087  07EE  0848               	movf	___flmul@prod+1,w
  6088  07EF  00B4               	movwf	?___flmul+1
  6089  07F0  0847               	movf	___flmul@prod,w
  6090  07F1  00B3               	movwf	?___flmul
  6091  07F2                     l579:
  6092  07F2  0008               	return
  6093  07F3                     __end_of___flmul:
  6094                           
  6095                           	psect	text18
  6096  1356                     __ptext18:	
  6097 ;; *************** function __Umul8_16 *****************
  6098 ;; Defined at:
  6099 ;;		line 4 in file "C:\Program Files\Microchip\xc8\v2.31\pic\sources\c90\common\Umul8_16.c"
  6100 ;; Parameters:    Size  Location     Type
  6101 ;;  multiplier      1    wreg     unsigned char 
  6102 ;;  multiplicand    1    0[COMMON] unsigned char 
  6103 ;; Auto vars:     Size  Location     Type
  6104 ;;  multiplier      1    8[COMMON] unsigned char 
  6105 ;;  word_mpld       2    6[COMMON] unsigned int 
  6106 ;;  product         2    4[COMMON] unsigned int 
  6107 ;; Return value:  Size  Location     Type
  6108 ;;                  2    0[COMMON] unsigned int 
  6109 ;; Registers used:
  6110 ;;		wreg, status,2, status,0
  6111 ;; Tracked objects:
  6112 ;;		On entry : 0/0
  6113 ;;		On exit  : 0/0
  6114 ;;		Unchanged: 0/0
  6115 ;; Data sizes:     COMMON   BANK0   BANK1   BANK3   BANK2
  6116 ;;      Params:         2       0       0       0       0
  6117 ;;      Locals:         5       0       0       0       0
  6118 ;;      Temps:          2       0       0       0       0
  6119 ;;      Totals:         9       0       0       0       0
  6120 ;;Total ram usage:        9 bytes
  6121 ;; Hardware stack levels used:    1
  6122 ;; This function calls:
  6123 ;;		Nothing
  6124 ;; This function is called by:
  6125 ;;		___flmul
  6126 ;; This function uses a non-reentrant model
  6127 ;;
  6128                           
  6129                           
  6130                           ;psect for function __Umul8_16
  6131  1356                     __Umul8_16:
  6132                           
  6133                           ;incstack = 0
  6134                           ; Regs used in __Umul8_16: [wreg+status,2+status,0]
  6135                           ;__Umul8_16@multiplier stored from wreg
  6136  1356  00F8               	movwf	__Umul8_16@multiplier
  6137  1357                     l2709:
  6138  1357  01F4               	clrf	__Umul8_16@product
  6139  1358  01F5               	clrf	__Umul8_16@product+1
  6140  1359                     l2711:
  6141  1359  0870               	movf	__Umul8_16@multiplicand,w
  6142  135A  00F2               	movwf	??__Umul8_16
  6143  135B  01F3               	clrf	??__Umul8_16+1
  6144  135C  0872               	movf	??__Umul8_16,w
  6145  135D  00F6               	movwf	__Umul8_16@word_mpld
  6146  135E  0873               	movf	??__Umul8_16+1,w
  6147  135F  00F7               	movwf	__Umul8_16@word_mpld+1
  6148  1360                     l2713:
  6149  1360  1C78               	btfss	__Umul8_16@multiplier,0
  6150  1361  2B63               	goto	u3981
  6151  1362  2B64               	goto	u3980
  6152  1363                     u3981:
  6153  1363  2B6A               	goto	l598
  6154  1364                     u3980:
  6155  1364                     l2715:
  6156  1364  0876               	movf	__Umul8_16@word_mpld,w
  6157  1365  07F4               	addwf	__Umul8_16@product,f
  6158  1366  1803               	skipnc
  6159  1367  0AF5               	incf	__Umul8_16@product+1,f
  6160  1368  0877               	movf	__Umul8_16@word_mpld+1,w
  6161  1369  07F5               	addwf	__Umul8_16@product+1,f
  6162  136A                     l598:
  6163  136A  3001               	movlw	1
  6164  136B                     u3995:
  6165  136B  1003               	clrc
  6166  136C  0DF6               	rlf	__Umul8_16@word_mpld,f
  6167  136D  0DF7               	rlf	__Umul8_16@word_mpld+1,f
  6168  136E  3EFF               	addlw	-1
  6169  136F  1D03               	skipz
  6170  1370  2B6B               	goto	u3995
  6171  1371  1003               	clrc
  6172  1372  0CF8               	rrf	__Umul8_16@multiplier,f
  6173  1373                     l2717:
  6174  1373  0878               	movf	__Umul8_16@multiplier,w
  6175  1374  1D03               	btfss	3,2
  6176  1375  2B77               	goto	u4001
  6177  1376  2B78               	goto	u4000
  6178  1377                     u4001:
  6179  1377  2B60               	goto	l2713
  6180  1378                     u4000:
  6181  1378                     l2719:
  6182  1378  0875               	movf	__Umul8_16@product+1,w
  6183  1379  00F1               	movwf	?__Umul8_16+1
  6184  137A  0874               	movf	__Umul8_16@product,w
  6185  137B  00F0               	movwf	?__Umul8_16
  6186  137C                     l600:
  6187  137C  0008               	return
  6188  137D                     __end_of__Umul8_16:
  6189                           
  6190                           	psect	text19
  6191  0800                     __ptext19:	
  6192 ;; *************** function ___flsub *****************
  6193 ;; Defined at:
  6194 ;;		line 242 in file "C:\Program Files\Microchip\xc8\v2.31\pic\sources\c90\common\sprcadd.c"
  6195 ;; Parameters:    Size  Location     Type
  6196 ;;  a               4   65[BANK0 ] unsigned int 
  6197 ;;  b               4   69[BANK0 ] unsigned int 
  6198 ;; Auto vars:     Size  Location     Type
  6199 ;;		None
  6200 ;; Return value:  Size  Location     Type
  6201 ;;                  4   65[BANK0 ] unsigned int 
  6202 ;; Registers used:
  6203 ;;		wreg, status,2, status,0, btemp+1, pclath, cstack
  6204 ;; Tracked objects:
  6205 ;;		On entry : 0/0
  6206 ;;		On exit  : 0/0
  6207 ;;		Unchanged: 0/0
  6208 ;; Data sizes:     COMMON   BANK0   BANK1   BANK3   BANK2
  6209 ;;      Params:         0       8       0       0       0
  6210 ;;      Locals:         0       0       0       0       0
  6211 ;;      Temps:          0       0       0       0       0
  6212 ;;      Totals:         0       8       0       0       0
  6213 ;;Total ram usage:        8 bytes
  6214 ;; Hardware stack levels used:    1
  6215 ;; Hardware stack levels required when called:    1
  6216 ;; This function calls:
  6217 ;;		___fladd
  6218 ;; This function is called by:
  6219 ;;		_exp
  6220 ;; This function uses a non-reentrant model
  6221 ;;
  6222                           
  6223                           
  6224                           ;psect for function ___flsub
  6225  0800                     ___flsub:
  6226  0800                     l3141:	
  6227                           ;incstack = 0
  6228                           ; Regs used in ___flsub: [wreg+status,2+status,0+btemp+1+pclath+cstack]
  6229                           
  6230  0800  3080               	movlw	128
  6231  0801  1283               	bcf	3,5	;RP0=0, select bank0
  6232  0802  1303               	bcf	3,6	;RP1=0, select bank0
  6233  0803  06E4               	xorwf	___flsub@a+3,f
  6234  0804                     l3143:
  6235  0804  0868               	movf	___flsub@b+3,w
  6236  0805  00D0               	movwf	___fladd@b+3
  6237  0806  0867               	movf	___flsub@b+2,w
  6238  0807  00CF               	movwf	___fladd@b+2
  6239  0808  0866               	movf	___flsub@b+1,w
  6240  0809  00CE               	movwf	___fladd@b+1
  6241  080A  0865               	movf	___flsub@b,w
  6242  080B  00CD               	movwf	___fladd@b
  6243  080C  0864               	movf	___flsub@a+3,w
  6244  080D  00D4               	movwf	___fladd@a+3
  6245  080E  0863               	movf	___flsub@a+2,w
  6246  080F  00D3               	movwf	___fladd@a+2
  6247  0810  0862               	movf	___flsub@a+1,w
  6248  0811  00D2               	movwf	___fladd@a+1
  6249  0812  0861               	movf	___flsub@a,w
  6250  0813  00D1               	movwf	___fladd@a
  6251  0814  120A  118A  220A  120A  158A  	fcall	___fladd
  6252  0819  1283               	bcf	3,5	;RP0=0, select bank0
  6253  081A  1303               	bcf	3,6	;RP1=0, select bank0
  6254  081B  0850               	movf	?___fladd+3,w
  6255  081C  00E4               	movwf	?___flsub+3
  6256  081D  084F               	movf	?___fladd+2,w
  6257  081E  00E3               	movwf	?___flsub+2
  6258  081F  084E               	movf	?___fladd+1,w
  6259  0820  00E2               	movwf	?___flsub+1
  6260  0821  084D               	movf	?___fladd,w
  6261  0822  00E1               	movwf	?___flsub
  6262  0823                     l529:
  6263  0823  0008               	return
  6264  0824                     __end_of___flsub:
  6265                           
  6266                           	psect	text20
  6267  020A                     __ptext20:	
  6268 ;; *************** function ___fladd *****************
  6269 ;; Defined at:
  6270 ;;		line 10 in file "C:\Program Files\Microchip\xc8\v2.31\pic\sources\c90\common\sprcadd.c"
  6271 ;; Parameters:    Size  Location     Type
  6272 ;;  b               4   45[BANK0 ] unsigned int 
  6273 ;;  a               4   49[BANK0 ] unsigned int 
  6274 ;; Auto vars:     Size  Location     Type
  6275 ;;  grs             1   64[BANK0 ] unsigned char 
  6276 ;;  bexp            1   63[BANK0 ] unsigned char 
  6277 ;;  aexp            1   62[BANK0 ] unsigned char 
  6278 ;;  signs           1   61[BANK0 ] unsigned char 
  6279 ;; Return value:  Size  Location     Type
  6280 ;;                  4   45[BANK0 ] unsigned char 
  6281 ;; Registers used:
  6282 ;;		wreg, status,2, status,0, btemp+1
  6283 ;; Tracked objects:
  6284 ;;		On entry : 0/0
  6285 ;;		On exit  : 0/0
  6286 ;;		Unchanged: 0/0
  6287 ;; Data sizes:     COMMON   BANK0   BANK1   BANK3   BANK2
  6288 ;;      Params:         0       8       0       0       0
  6289 ;;      Locals:         0       4       0       0       0
  6290 ;;      Temps:          0       8       0       0       0
  6291 ;;      Totals:         0      20       0       0       0
  6292 ;;Total ram usage:       20 bytes
  6293 ;; Hardware stack levels used:    1
  6294 ;; This function calls:
  6295 ;;		Nothing
  6296 ;; This function is called by:
  6297 ;;		___flsub
  6298 ;;		_eval_poly
  6299 ;;		_floor
  6300 ;;		_log
  6301 ;; This function uses a non-reentrant model
  6302 ;;
  6303                           
  6304                           
  6305                           ;psect for function ___fladd
  6306  020A                     ___fladd:
  6307  020A                     l2743:	
  6308                           ;incstack = 0
  6309                           ; Regs used in ___fladd: [wreg+status,2+status,0+btemp+1]
  6310                           
  6311  020A  1283               	bcf	3,5	;RP0=0, select bank0
  6312  020B  1303               	bcf	3,6	;RP1=0, select bank0
  6313  020C  0850               	movf	___fladd@b+3,w
  6314  020D  3980               	andlw	128
  6315  020E  00D5               	movwf	??___fladd
  6316  020F  0855               	movf	??___fladd,w
  6317  0210  00DD               	movwf	___fladd@signs
  6318  0211                     l2745:
  6319  0211  0850               	movf	___fladd@b+3,w
  6320  0212  00D5               	movwf	??___fladd
  6321  0213  0755               	addwf	??___fladd,w
  6322  0214  00D6               	movwf	??___fladd+1
  6323  0215  0856               	movf	??___fladd+1,w
  6324  0216  00DF               	movwf	___fladd@bexp
  6325  0217                     l2747:
  6326  0217  1FCF               	btfss	___fladd@b+2,7
  6327  0218  2A1A               	goto	u4081
  6328  0219  2A1B               	goto	u4080
  6329  021A                     u4081:
  6330  021A  2A1C               	goto	l2751
  6331  021B                     u4080:
  6332  021B                     l2749:
  6333  021B  145F               	bsf	___fladd@bexp,0
  6334  021C                     l2751:
  6335  021C  085F               	movf	___fladd@bexp,w
  6336  021D  1903               	btfsc	3,2
  6337  021E  2A20               	goto	u4091
  6338  021F  2A21               	goto	u4090
  6339  0220                     u4091:
  6340  0220  2A31               	goto	l2761
  6341  0221                     u4090:
  6342  0221                     l2753:
  6343  0221  0A5F               	incf	___fladd@bexp,w
  6344  0222  1D03               	btfss	3,2
  6345  0223  2A25               	goto	u4101
  6346  0224  2A26               	goto	u4100
  6347  0225                     u4101:
  6348  0225  2A2E               	goto	l2757
  6349  0226                     u4100:
  6350  0226                     l2755:
  6351  0226  3000               	movlw	0
  6352  0227  00D0               	movwf	___fladd@b+3
  6353  0228  3000               	movlw	0
  6354  0229  00CF               	movwf	___fladd@b+2
  6355  022A  3000               	movlw	0
  6356  022B  00CE               	movwf	___fladd@b+1
  6357  022C  3000               	movlw	0
  6358  022D  00CD               	movwf	___fladd@b
  6359  022E                     l2757:
  6360  022E  17CF               	bsf	___fladd@b+2,7
  6361  022F                     l2759:
  6362  022F  01D0               	clrf	___fladd@b+3
  6363  0230  2A39               	goto	l2763
  6364  0231                     l2761:
  6365  0231  3000               	movlw	0
  6366  0232  00D0               	movwf	___fladd@b+3
  6367  0233  3000               	movlw	0
  6368  0234  00CF               	movwf	___fladd@b+2
  6369  0235  3000               	movlw	0
  6370  0236  00CE               	movwf	___fladd@b+1
  6371  0237  3000               	movlw	0
  6372  0238  00CD               	movwf	___fladd@b
  6373  0239                     l2763:
  6374  0239  0854               	movf	___fladd@a+3,w
  6375  023A  3980               	andlw	128
  6376  023B  00D5               	movwf	??___fladd
  6377  023C  0855               	movf	??___fladd,w
  6378  023D  00DE               	movwf	___fladd@aexp
  6379  023E                     l2765:
  6380  023E  085E               	movf	___fladd@aexp,w
  6381  023F  065D               	xorwf	___fladd@signs,w
  6382  0240  1903               	skipnz
  6383  0241  2A43               	goto	u4111
  6384  0242  2A44               	goto	u4110
  6385  0243                     u4111:
  6386  0243  2A45               	goto	l2769
  6387  0244                     u4110:
  6388  0244                     l2767:
  6389  0244  175D               	bsf	___fladd@signs,6
  6390  0245                     l2769:
  6391  0245  0854               	movf	___fladd@a+3,w
  6392  0246  00D5               	movwf	??___fladd
  6393  0247  0755               	addwf	??___fladd,w
  6394  0248  00D6               	movwf	??___fladd+1
  6395  0249  0856               	movf	??___fladd+1,w
  6396  024A  00DE               	movwf	___fladd@aexp
  6397  024B                     l2771:
  6398  024B  1FD3               	btfss	___fladd@a+2,7
  6399  024C  2A4E               	goto	u4121
  6400  024D  2A4F               	goto	u4120
  6401  024E                     u4121:
  6402  024E  2A50               	goto	l2775
  6403  024F                     u4120:
  6404  024F                     l2773:
  6405  024F  145E               	bsf	___fladd@aexp,0
  6406  0250                     l2775:
  6407  0250  085E               	movf	___fladd@aexp,w
  6408  0251  1903               	btfsc	3,2
  6409  0252  2A54               	goto	u4131
  6410  0253  2A55               	goto	u4130
  6411  0254                     u4131:
  6412  0254  2A65               	goto	l2785
  6413  0255                     u4130:
  6414  0255                     l2777:
  6415  0255  0A5E               	incf	___fladd@aexp,w
  6416  0256  1D03               	btfss	3,2
  6417  0257  2A59               	goto	u4141
  6418  0258  2A5A               	goto	u4140
  6419  0259                     u4141:
  6420  0259  2A62               	goto	l2781
  6421  025A                     u4140:
  6422  025A                     l2779:
  6423  025A  3000               	movlw	0
  6424  025B  00D4               	movwf	___fladd@a+3
  6425  025C  3000               	movlw	0
  6426  025D  00D3               	movwf	___fladd@a+2
  6427  025E  3000               	movlw	0
  6428  025F  00D2               	movwf	___fladd@a+1
  6429  0260  3000               	movlw	0
  6430  0261  00D1               	movwf	___fladd@a
  6431  0262                     l2781:
  6432  0262  17D3               	bsf	___fladd@a+2,7
  6433  0263                     l2783:
  6434  0263  01D4               	clrf	___fladd@a+3
  6435  0264  2A6D               	goto	l483
  6436  0265                     l2785:
  6437  0265  3000               	movlw	0
  6438  0266  00D4               	movwf	___fladd@a+3
  6439  0267  3000               	movlw	0
  6440  0268  00D3               	movwf	___fladd@a+2
  6441  0269  3000               	movlw	0
  6442  026A  00D2               	movwf	___fladd@a+1
  6443  026B  3000               	movlw	0
  6444  026C  00D1               	movwf	___fladd@a
  6445  026D                     l483:
  6446  026D  085F               	movf	___fladd@bexp,w
  6447  026E  025E               	subwf	___fladd@aexp,w
  6448  026F  1803               	skipnc
  6449  0270  2A72               	goto	u4151
  6450  0271  2A73               	goto	u4150
  6451  0272                     u4151:
  6452  0272  2AB7               	goto	l2821
  6453  0273                     u4150:
  6454  0273                     l2787:
  6455  0273  1F5D               	btfss	___fladd@signs,6
  6456  0274  2A76               	goto	u4161
  6457  0275  2A77               	goto	u4160
  6458  0276                     u4161:
  6459  0276  2A7B               	goto	l2791
  6460  0277                     u4160:
  6461  0277                     l2789:
  6462  0277  3080               	movlw	128
  6463  0278  00D5               	movwf	??___fladd
  6464  0279  0855               	movf	??___fladd,w
  6465  027A  06DD               	xorwf	___fladd@signs,f
  6466  027B                     l2791:
  6467  027B  085F               	movf	___fladd@bexp,w
  6468  027C  00D5               	movwf	??___fladd
  6469  027D  0855               	movf	??___fladd,w
  6470  027E  00E0               	movwf	___fladd@grs
  6471  027F                     l2793:
  6472  027F  085E               	movf	___fladd@aexp,w
  6473  0280  00D5               	movwf	??___fladd
  6474  0281  0855               	movf	??___fladd,w
  6475  0282  00DF               	movwf	___fladd@bexp
  6476  0283                     l2795:
  6477  0283  0860               	movf	___fladd@grs,w
  6478  0284  00D5               	movwf	??___fladd
  6479  0285  0855               	movf	??___fladd,w
  6480  0286  00DE               	movwf	___fladd@aexp
  6481  0287                     l2797:
  6482  0287  084D               	movf	___fladd@b,w
  6483  0288  00D5               	movwf	??___fladd
  6484  0289  0855               	movf	??___fladd,w
  6485  028A  00E0               	movwf	___fladd@grs
  6486  028B                     l2799:
  6487  028B  0851               	movf	___fladd@a,w
  6488  028C  00D5               	movwf	??___fladd
  6489  028D  0855               	movf	??___fladd,w
  6490  028E  00CD               	movwf	___fladd@b
  6491  028F                     l2801:
  6492  028F  0860               	movf	___fladd@grs,w
  6493  0290  00D5               	movwf	??___fladd
  6494  0291  0855               	movf	??___fladd,w
  6495  0292  00D1               	movwf	___fladd@a
  6496  0293                     l2803:
  6497  0293  084E               	movf	___fladd@b+1,w
  6498  0294  00D5               	movwf	??___fladd
  6499  0295  0855               	movf	??___fladd,w
  6500  0296  00E0               	movwf	___fladd@grs
  6501  0297                     l2805:
  6502  0297  0852               	movf	___fladd@a+1,w
  6503  0298  00D5               	movwf	??___fladd
  6504  0299  0855               	movf	??___fladd,w
  6505  029A  00CE               	movwf	___fladd@b+1
  6506  029B                     l2807:
  6507  029B  0860               	movf	___fladd@grs,w
  6508  029C  00D5               	movwf	??___fladd
  6509  029D  0855               	movf	??___fladd,w
  6510  029E  00D2               	movwf	___fladd@a+1
  6511  029F                     l2809:
  6512  029F  084F               	movf	___fladd@b+2,w
  6513  02A0  00D5               	movwf	??___fladd
  6514  02A1  0855               	movf	??___fladd,w
  6515  02A2  00E0               	movwf	___fladd@grs
  6516  02A3                     l2811:
  6517  02A3  0853               	movf	___fladd@a+2,w
  6518  02A4  00D5               	movwf	??___fladd
  6519  02A5  0855               	movf	??___fladd,w
  6520  02A6  00CF               	movwf	___fladd@b+2
  6521  02A7                     l2813:
  6522  02A7  0860               	movf	___fladd@grs,w
  6523  02A8  00D5               	movwf	??___fladd
  6524  02A9  0855               	movf	??___fladd,w
  6525  02AA  00D3               	movwf	___fladd@a+2
  6526  02AB                     l2815:
  6527  02AB  0850               	movf	___fladd@b+3,w
  6528  02AC  00D5               	movwf	??___fladd
  6529  02AD  0855               	movf	??___fladd,w
  6530  02AE  00E0               	movwf	___fladd@grs
  6531  02AF                     l2817:
  6532  02AF  0854               	movf	___fladd@a+3,w
  6533  02B0  00D5               	movwf	??___fladd
  6534  02B1  0855               	movf	??___fladd,w
  6535  02B2  00D0               	movwf	___fladd@b+3
  6536  02B3                     l2819:
  6537  02B3  0860               	movf	___fladd@grs,w
  6538  02B4  00D5               	movwf	??___fladd
  6539  02B5  0855               	movf	??___fladd,w
  6540  02B6  00D4               	movwf	___fladd@a+3
  6541  02B7                     l2821:
  6542  02B7  01E0               	clrf	___fladd@grs
  6543  02B8                     l2823:
  6544  02B8  085E               	movf	___fladd@aexp,w
  6545  02B9  00D5               	movwf	??___fladd
  6546  02BA  01D6               	clrf	??___fladd+1
  6547  02BB  0856               	movf	??___fladd+1,w
  6548  02BC  00D8               	movwf	??___fladd+3
  6549  02BD  085F               	movf	___fladd@bexp,w
  6550  02BE  0255               	subwf	??___fladd,w
  6551  02BF  00D7               	movwf	??___fladd+2
  6552  02C0  1C03               	skipc
  6553  02C1  03D8               	decf	??___fladd+3,f
  6554  02C2  0858               	movf	??___fladd+3,w
  6555  02C3  3A80               	xorlw	128
  6556  02C4  00FF               	movwf	btemp+1
  6557  02C5  3080               	movlw	128
  6558  02C6  027F               	subwf	btemp+1,w
  6559  02C7  1D03               	skipz
  6560  02C8  2ACB               	goto	u4175
  6561  02C9  301A               	movlw	26
  6562  02CA  0257               	subwf	??___fladd+2,w
  6563  02CB                     u4175:
  6564  02CB  1C03               	skipc
  6565  02CC  2ACE               	goto	u4171
  6566  02CD  2ACF               	goto	u4170
  6567  02CE                     u4171:
  6568  02CE  2B0C               	goto	l2839
  6569  02CF                     u4170:
  6570  02CF                     l2825:
  6571  02CF  1283               	bcf	3,5	;RP0=0, select bank0
  6572  02D0  1303               	bcf	3,6	;RP1=0, select bank0
  6573  02D1  0850               	movf	___fladd@b+3,w
  6574  02D2  044F               	iorwf	___fladd@b+2,w
  6575  02D3  044E               	iorwf	___fladd@b+1,w
  6576  02D4  044D               	iorwf	___fladd@b,w
  6577  02D5  1D03               	skipz
  6578  02D6  2AD8               	goto	u4181
  6579  02D7  2ADA               	goto	u4180
  6580  02D8                     u4181:
  6581  02D8  3001               	movlw	1
  6582  02D9  2ADB               	goto	u4190
  6583  02DA                     u4180:
  6584  02DA  3000               	movlw	0
  6585  02DB                     u4190:
  6586  02DB  00D5               	movwf	??___fladd
  6587  02DC  0855               	movf	??___fladd,w
  6588  02DD  00E0               	movwf	___fladd@grs
  6589  02DE  3000               	movlw	0
  6590  02DF  00D0               	movwf	___fladd@b+3
  6591  02E0  3000               	movlw	0
  6592  02E1  00CF               	movwf	___fladd@b+2
  6593  02E2  3000               	movlw	0
  6594  02E3  00CE               	movwf	___fladd@b+1
  6595  02E4  3000               	movlw	0
  6596  02E5  00CD               	movwf	___fladd@b
  6597  02E6  085E               	movf	___fladd@aexp,w
  6598  02E7  00D5               	movwf	??___fladd
  6599  02E8  0855               	movf	??___fladd,w
  6600  02E9  00DF               	movwf	___fladd@bexp
  6601  02EA  2B14               	goto	l487
  6602  02EB                     l489:
  6603  02EB  1C60               	btfss	___fladd@grs,0
  6604  02EC  2AEE               	goto	u4201
  6605  02ED  2AEF               	goto	u4200
  6606  02EE                     u4201:
  6607  02EE  2AF8               	goto	l2829
  6608  02EF                     u4200:
  6609  02EF                     l2827:
  6610  02EF  0860               	movf	___fladd@grs,w
  6611  02F0  00D5               	movwf	??___fladd
  6612  02F1  1003               	clrc
  6613  02F2  0C55               	rrf	??___fladd,w
  6614  02F3  3801               	iorlw	1
  6615  02F4  00D6               	movwf	??___fladd+1
  6616  02F5  0856               	movf	??___fladd+1,w
  6617  02F6  00E0               	movwf	___fladd@grs
  6618  02F7  2AFA               	goto	l2831
  6619  02F8                     l2829:
  6620  02F8  1003               	clrc
  6621  02F9  0CE0               	rrf	___fladd@grs,f
  6622  02FA                     l2831:
  6623  02FA  1C4D               	btfss	___fladd@b,0
  6624  02FB  2AFD               	goto	u4211
  6625  02FC  2AFE               	goto	u4210
  6626  02FD                     u4211:
  6627  02FD  2AFF               	goto	l2835
  6628  02FE                     u4210:
  6629  02FE                     l2833:
  6630  02FE  17E0               	bsf	___fladd@grs,7
  6631  02FF                     l2835:
  6632  02FF  3001               	movlw	1
  6633  0300  00D5               	movwf	??___fladd
  6634  0301                     u4225:
  6635  0301  0D50               	rlf	___fladd@b+3,w
  6636  0302  0CD0               	rrf	___fladd@b+3,f
  6637  0303  0CCF               	rrf	___fladd@b+2,f
  6638  0304  0CCE               	rrf	___fladd@b+1,f
  6639  0305  0CCD               	rrf	___fladd@b,f
  6640  0306  0BD5               	decfsz	??___fladd& (0+127),f
  6641  0307  2B01               	goto	u4225
  6642  0308                     l2837:
  6643  0308  3001               	movlw	1
  6644  0309  00D5               	movwf	??___fladd
  6645  030A  0855               	movf	??___fladd,w
  6646  030B  07DF               	addwf	___fladd@bexp,f
  6647  030C                     l2839:
  6648  030C  1283               	bcf	3,5	;RP0=0, select bank0
  6649  030D  1303               	bcf	3,6	;RP1=0, select bank0
  6650  030E  085E               	movf	___fladd@aexp,w
  6651  030F  025F               	subwf	___fladd@bexp,w
  6652  0310  1C03               	skipc
  6653  0311  2B13               	goto	u4231
  6654  0312  2B14               	goto	u4230
  6655  0313                     u4231:
  6656  0313  2AEB               	goto	l489
  6657  0314                     u4230:
  6658  0314                     l487:
  6659  0314  1B5D               	btfsc	___fladd@signs,6
  6660  0315  2B17               	goto	u4241
  6661  0316  2B18               	goto	u4240
  6662  0317                     u4241:
  6663  0317  2B63               	goto	l2865
  6664  0318                     u4240:
  6665  0318                     l2841:
  6666  0318  085F               	movf	___fladd@bexp,w
  6667  0319  1D03               	btfss	3,2
  6668  031A  2B1C               	goto	u4251
  6669  031B  2B1D               	goto	u4250
  6670  031C                     u4251:
  6671  031C  2B26               	goto	l2847
  6672  031D                     u4250:
  6673  031D                     l2843:
  6674  031D  3000               	movlw	0
  6675  031E  00D0               	movwf	?___fladd+3
  6676  031F  3000               	movlw	0
  6677  0320  00CF               	movwf	?___fladd+2
  6678  0321  3000               	movlw	0
  6679  0322  00CE               	movwf	?___fladd+1
  6680  0323  3000               	movlw	0
  6681  0324  00CD               	movwf	?___fladd
  6682  0325  2C91               	goto	l496
  6683  0326                     l2847:
  6684  0326  0851               	movf	___fladd@a,w
  6685  0327  07CD               	addwf	___fladd@b,f
  6686  0328  0852               	movf	___fladd@a+1,w
  6687  0329  1103               	clrz
  6688  032A  1803               	skipnc
  6689  032B  3E01               	addlw	1
  6690  032C  1903               	skipnz
  6691  032D  2B2F               	goto	u4261
  6692  032E  07CE               	addwf	___fladd@b+1,f
  6693  032F                     u4261:
  6694  032F  0853               	movf	___fladd@a+2,w
  6695  0330  1103               	clrz
  6696  0331  1803               	skipnc
  6697  0332  3E01               	addlw	1
  6698  0333  1903               	skipnz
  6699  0334  2B36               	goto	u4262
  6700  0335  07CF               	addwf	___fladd@b+2,f
  6701  0336                     u4262:
  6702  0336  0854               	movf	___fladd@a+3,w
  6703  0337  1103               	clrz
  6704  0338  1803               	skipnc
  6705  0339  3E01               	addlw	1
  6706  033A  1903               	skipnz
  6707  033B  2B3D               	goto	u4263
  6708  033C  07D0               	addwf	___fladd@b+3,f
  6709  033D                     u4263:
  6710  033D                     l2849:
  6711  033D  1C50               	btfss	___fladd@b+3,0
  6712  033E  2B40               	goto	u4271
  6713  033F  2B41               	goto	u4270
  6714  0340                     u4271:
  6715  0340  2C17               	goto	l2899
  6716  0341                     u4270:
  6717  0341                     l2851:
  6718  0341  1C60               	btfss	___fladd@grs,0
  6719  0342  2B44               	goto	u4281
  6720  0343  2B45               	goto	u4280
  6721  0344                     u4281:
  6722  0344  2B4E               	goto	l2855
  6723  0345                     u4280:
  6724  0345                     l2853:
  6725  0345  0860               	movf	___fladd@grs,w
  6726  0346  00D5               	movwf	??___fladd
  6727  0347  1003               	clrc
  6728  0348  0C55               	rrf	??___fladd,w
  6729  0349  3801               	iorlw	1
  6730  034A  00D6               	movwf	??___fladd+1
  6731  034B  0856               	movf	??___fladd+1,w
  6732  034C  00E0               	movwf	___fladd@grs
  6733  034D  2B50               	goto	l2857
  6734  034E                     l2855:
  6735  034E  1003               	clrc
  6736  034F  0CE0               	rrf	___fladd@grs,f
  6737  0350                     l2857:
  6738  0350  1C4D               	btfss	___fladd@b,0
  6739  0351  2B53               	goto	u4291
  6740  0352  2B54               	goto	u4290
  6741  0353                     u4291:
  6742  0353  2B55               	goto	l2861
  6743  0354                     u4290:
  6744  0354                     l2859:
  6745  0354  17E0               	bsf	___fladd@grs,7
  6746  0355                     l2861:
  6747  0355  3001               	movlw	1
  6748  0356  00D5               	movwf	??___fladd
  6749  0357                     u4305:
  6750  0357  0D50               	rlf	___fladd@b+3,w
  6751  0358  0CD0               	rrf	___fladd@b+3,f
  6752  0359  0CCF               	rrf	___fladd@b+2,f
  6753  035A  0CCE               	rrf	___fladd@b+1,f
  6754  035B  0CCD               	rrf	___fladd@b,f
  6755  035C  0BD5               	decfsz	??___fladd& (0+127),f
  6756  035D  2B57               	goto	u4305
  6757  035E                     l2863:
  6758  035E  3001               	movlw	1
  6759  035F  00D5               	movwf	??___fladd
  6760  0360  0855               	movf	??___fladd,w
  6761  0361  07DF               	addwf	___fladd@bexp,f
  6762  0362  2C17               	goto	l2899
  6763  0363                     l2865:
  6764  0363  0850               	movf	___fladd@b+3,w
  6765  0364  3A80               	xorlw	128
  6766  0365  00FF               	movwf	btemp+1
  6767  0366  0854               	movf	___fladd@a+3,w
  6768  0367  3A80               	xorlw	128
  6769  0368  027F               	subwf	btemp+1,w
  6770  0369  1D03               	skipz
  6771  036A  2B75               	goto	u4313
  6772  036B  0853               	movf	___fladd@a+2,w
  6773  036C  024F               	subwf	___fladd@b+2,w
  6774  036D  1D03               	skipz
  6775  036E  2B75               	goto	u4313
  6776  036F  0852               	movf	___fladd@a+1,w
  6777  0370  024E               	subwf	___fladd@b+1,w
  6778  0371  1D03               	skipz
  6779  0372  2B75               	goto	u4313
  6780  0373  0851               	movf	___fladd@a,w
  6781  0374  024D               	subwf	___fladd@b,w
  6782  0375                     u4313:
  6783  0375  1803               	skipnc
  6784  0376  2B78               	goto	u4311
  6785  0377  2B79               	goto	u4310
  6786  0378                     u4311:
  6787  0378  2BD1               	goto	l2875
  6788  0379                     u4310:
  6789  0379                     l2867:
  6790  0379  30FF               	movlw	255
  6791  037A  00D5               	movwf	??___fladd
  6792  037B  30FF               	movlw	255
  6793  037C  00D6               	movwf	??___fladd+1
  6794  037D  30FF               	movlw	255
  6795  037E  00D7               	movwf	??___fladd+2
  6796  037F  30FF               	movlw	255
  6797  0380  00D8               	movwf	??___fladd+3
  6798  0381  0851               	movf	___fladd@a,w
  6799  0382  00D9               	movwf	??___fladd+4
  6800  0383  0852               	movf	___fladd@a+1,w
  6801  0384  00DA               	movwf	??___fladd+5
  6802  0385  0853               	movf	___fladd@a+2,w
  6803  0386  00DB               	movwf	??___fladd+6
  6804  0387  0854               	movf	___fladd@a+3,w
  6805  0388  00DC               	movwf	??___fladd+7
  6806  0389  084D               	movf	___fladd@b,w
  6807  038A  02D9               	subwf	??___fladd+4,f
  6808  038B  084E               	movf	___fladd@b+1,w
  6809  038C  1C03               	skipc
  6810  038D  0F4E               	incfsz	___fladd@b+1,w
  6811  038E  2B90               	goto	u4321
  6812  038F  2B91               	goto	u4322
  6813  0390                     u4321:
  6814  0390  02DA               	subwf	??___fladd+5,f
  6815  0391                     u4322:
  6816  0391  084F               	movf	___fladd@b+2,w
  6817  0392  1C03               	skipc
  6818  0393  0F4F               	incfsz	___fladd@b+2,w
  6819  0394  2B96               	goto	u4323
  6820  0395  2B97               	goto	u4324
  6821  0396                     u4323:
  6822  0396  02DB               	subwf	??___fladd+6,f
  6823  0397                     u4324:
  6824  0397  0850               	movf	___fladd@b+3,w
  6825  0398  1C03               	skipc
  6826  0399  0F50               	incfsz	___fladd@b+3,w
  6827  039A  2B9C               	goto	u4325
  6828  039B  2B9D               	goto	u4326
  6829  039C                     u4325:
  6830  039C  02DC               	subwf	??___fladd+7,f
  6831  039D                     u4326:
  6832  039D  0859               	movf	??___fladd+4,w
  6833  039E  07D5               	addwf	??___fladd,f
  6834  039F  085A               	movf	??___fladd+5,w
  6835  03A0  1803               	skipnc
  6836  03A1  0F5A               	incfsz	??___fladd+5,w
  6837  03A2  2BA4               	goto	u4330
  6838  03A3  2BA5               	goto	u4331
  6839  03A4                     u4330:
  6840  03A4  07D6               	addwf	??___fladd+1,f
  6841  03A5                     u4331:
  6842  03A5  085B               	movf	??___fladd+6,w
  6843  03A6  1803               	skipnc
  6844  03A7  0F5B               	incfsz	??___fladd+6,w
  6845  03A8  2BAA               	goto	u4332
  6846  03A9  2BAB               	goto	u4333
  6847  03AA                     u4332:
  6848  03AA  07D7               	addwf	??___fladd+2,f
  6849  03AB                     u4333:
  6850  03AB  085C               	movf	??___fladd+7,w
  6851  03AC  1803               	skipnc
  6852  03AD  0A5C               	incf	??___fladd+7,w
  6853  03AE  07D8               	addwf	??___fladd+3,f
  6854  03AF  0858               	movf	??___fladd+3,w
  6855  03B0  00D0               	movwf	___fladd@b+3
  6856  03B1  0857               	movf	??___fladd+2,w
  6857  03B2  00CF               	movwf	___fladd@b+2
  6858  03B3  0856               	movf	??___fladd+1,w
  6859  03B4  00CE               	movwf	___fladd@b+1
  6860  03B5  0855               	movf	??___fladd,w
  6861  03B6  00CD               	movwf	___fladd@b
  6862  03B7                     l2869:
  6863  03B7  3080               	movlw	128
  6864  03B8  00D5               	movwf	??___fladd
  6865  03B9  0855               	movf	??___fladd,w
  6866  03BA  06DD               	xorwf	___fladd@signs,f
  6867  03BB  09E0               	comf	___fladd@grs,f
  6868  03BC  0AE0               	incf	___fladd@grs,f
  6869  03BD                     l2871:
  6870  03BD  0860               	movf	___fladd@grs,w
  6871  03BE  1D03               	btfss	3,2
  6872  03BF  2BC1               	goto	u4341
  6873  03C0  2BC2               	goto	u4340
  6874  03C1                     u4341:
  6875  03C1  2BDF               	goto	l504
  6876  03C2                     u4340:
  6877  03C2                     l2873:
  6878  03C2  3001               	movlw	1
  6879  03C3  07CD               	addwf	___fladd@b,f
  6880  03C4  3000               	movlw	0
  6881  03C5  1803               	skipnc
  6882  03C6  3001               	movlw	1
  6883  03C7  07CE               	addwf	___fladd@b+1,f
  6884  03C8  3000               	movlw	0
  6885  03C9  1803               	skipnc
  6886  03CA  3001               	movlw	1
  6887  03CB  07CF               	addwf	___fladd@b+2,f
  6888  03CC  3000               	movlw	0
  6889  03CD  1803               	skipnc
  6890  03CE  3001               	movlw	1
  6891  03CF  07D0               	addwf	___fladd@b+3,f
  6892  03D0  2BDF               	goto	l504
  6893  03D1                     l2875:
  6894  03D1  0851               	movf	___fladd@a,w
  6895  03D2  02CD               	subwf	___fladd@b,f
  6896  03D3  0852               	movf	___fladd@a+1,w
  6897  03D4  1C03               	skipc
  6898  03D5  0F52               	incfsz	___fladd@a+1,w
  6899  03D6  02CE               	subwf	___fladd@b+1,f
  6900  03D7  0853               	movf	___fladd@a+2,w
  6901  03D8  1C03               	skipc
  6902  03D9  0F53               	incfsz	___fladd@a+2,w
  6903  03DA  02CF               	subwf	___fladd@b+2,f
  6904  03DB  0854               	movf	___fladd@a+3,w
  6905  03DC  1C03               	skipc
  6906  03DD  0F54               	incfsz	___fladd@a+3,w
  6907  03DE  02D0               	subwf	___fladd@b+3,f
  6908  03DF                     l504:
  6909  03DF  0850               	movf	___fladd@b+3,w
  6910  03E0  044F               	iorwf	___fladd@b+2,w
  6911  03E1  044E               	iorwf	___fladd@b+1,w
  6912  03E2  044D               	iorwf	___fladd@b,w
  6913  03E3  1D03               	skipz
  6914  03E4  2BE6               	goto	u4351
  6915  03E5  2BE7               	goto	u4350
  6916  03E6                     u4351:
  6917  03E6  2C13               	goto	l2897
  6918  03E7                     u4350:
  6919  03E7                     l2877:
  6920  03E7  0860               	movf	___fladd@grs,w
  6921  03E8  1D03               	btfss	3,2
  6922  03E9  2BEB               	goto	u4361
  6923  03EA  2BEC               	goto	u4360
  6924  03EB                     u4361:
  6925  03EB  2C13               	goto	l2897
  6926  03EC                     u4360:
  6927  03EC                     l2879:
  6928  03EC  3000               	movlw	0
  6929  03ED  00D0               	movwf	?___fladd+3
  6930  03EE  3000               	movlw	0
  6931  03EF  00CF               	movwf	?___fladd+2
  6932  03F0  3000               	movlw	0
  6933  03F1  00CE               	movwf	?___fladd+1
  6934  03F2  3000               	movlw	0
  6935  03F3  00CD               	movwf	?___fladd
  6936  03F4  2C91               	goto	l496
  6937  03F5                     l2883:
  6938  03F5  3001               	movlw	1
  6939  03F6  00D5               	movwf	??___fladd
  6940  03F7                     u4375:
  6941  03F7  1003               	clrc
  6942  03F8  0DCD               	rlf	___fladd@b,f
  6943  03F9  0DCE               	rlf	___fladd@b+1,f
  6944  03FA  0DCF               	rlf	___fladd@b+2,f
  6945  03FB  0DD0               	rlf	___fladd@b+3,f
  6946  03FC  0BD5               	decfsz	??___fladd,f
  6947  03FD  2BF7               	goto	u4375
  6948  03FE                     l2885:
  6949  03FE  1FE0               	btfss	___fladd@grs,7
  6950  03FF  2C01               	goto	u4381
  6951  0400  2C02               	goto	u4380
  6952  0401                     u4381:
  6953  0401  2C03               	goto	l508
  6954  0402                     u4380:
  6955  0402                     l2887:
  6956  0402  144D               	bsf	___fladd@b,0
  6957  0403                     l508:
  6958  0403  1C60               	btfss	___fladd@grs,0
  6959  0404  2C06               	goto	u4391
  6960  0405  2C07               	goto	u4390
  6961  0406                     u4391:
  6962  0406  2C0A               	goto	l2891
  6963  0407                     u4390:
  6964  0407                     l2889:
  6965  0407  1403               	setc
  6966  0408  0DE0               	rlf	___fladd@grs,f
  6967  0409  2C0C               	goto	l2893
  6968  040A                     l2891:
  6969  040A  1003               	clrc
  6970  040B  0DE0               	rlf	___fladd@grs,f
  6971  040C                     l2893:
  6972  040C  085F               	movf	___fladd@bexp,w
  6973  040D  1903               	btfsc	3,2
  6974  040E  2C10               	goto	u4401
  6975  040F  2C11               	goto	u4400
  6976  0410                     u4401:
  6977  0410  2C13               	goto	l2897
  6978  0411                     u4400:
  6979  0411                     l2895:
  6980  0411  3001               	movlw	1
  6981  0412  02DF               	subwf	___fladd@bexp,f
  6982  0413                     l2897:
  6983  0413  1FCF               	btfss	___fladd@b+2,7
  6984  0414  2C16               	goto	u4411
  6985  0415  2C17               	goto	u4410
  6986  0416                     u4411:
  6987  0416  2BF5               	goto	l2883
  6988  0417                     u4410:
  6989  0417                     l2899:
  6990  0417  01DE               	clrf	___fladd@aexp
  6991  0418                     l2901:
  6992  0418  1FE0               	btfss	___fladd@grs,7
  6993  0419  2C1B               	goto	u4421
  6994  041A  2C1C               	goto	u4420
  6995  041B                     u4421:
  6996  041B  2C2A               	goto	l2909
  6997  041C                     u4420:
  6998  041C                     l2903:
  6999  041C  0860               	movf	___fladd@grs,w
  7000  041D  397F               	andlw	127
  7001  041E  1903               	btfsc	3,2
  7002  041F  2C21               	goto	u4431
  7003  0420  2C22               	goto	u4430
  7004  0421                     u4431:
  7005  0421  2C25               	goto	l514
  7006  0422                     u4430:
  7007  0422                     l2905:
  7008  0422  01DE               	clrf	___fladd@aexp
  7009  0423  0ADE               	incf	___fladd@aexp,f
  7010  0424  2C2A               	goto	l2909
  7011  0425                     l514:
  7012  0425  1C4D               	btfss	___fladd@b,0
  7013  0426  2C28               	goto	u4441
  7014  0427  2C29               	goto	u4440
  7015  0428                     u4441:
  7016  0428  2C2A               	goto	l2909
  7017  0429                     u4440:
  7018  0429  2C22               	goto	l2905
  7019  042A                     l2909:
  7020  042A  085E               	movf	___fladd@aexp,w
  7021  042B  1903               	btfsc	3,2
  7022  042C  2C2E               	goto	u4451
  7023  042D  2C2F               	goto	u4450
  7024  042E                     u4451:
  7025  042E  2C63               	goto	l517
  7026  042F                     u4450:
  7027  042F                     l2911:
  7028  042F  3001               	movlw	1
  7029  0430  07CD               	addwf	___fladd@b,f
  7030  0431  3000               	movlw	0
  7031  0432  1803               	skipnc
  7032  0433  3001               	movlw	1
  7033  0434  07CE               	addwf	___fladd@b+1,f
  7034  0435  3000               	movlw	0
  7035  0436  1803               	skipnc
  7036  0437  3001               	movlw	1
  7037  0438  07CF               	addwf	___fladd@b+2,f
  7038  0439  3000               	movlw	0
  7039  043A  1803               	skipnc
  7040  043B  3001               	movlw	1
  7041  043C  07D0               	addwf	___fladd@b+3,f
  7042  043D                     l2913:
  7043  043D  1C50               	btfss	___fladd@b+3,0
  7044  043E  2C40               	goto	u4461
  7045  043F  2C41               	goto	u4460
  7046  0440                     u4461:
  7047  0440  2C63               	goto	l517
  7048  0441                     u4460:
  7049  0441                     l2915:
  7050  0441  084D               	movf	___fladd@b,w
  7051  0442  00D5               	movwf	??___fladd
  7052  0443  084E               	movf	___fladd@b+1,w
  7053  0444  00D6               	movwf	??___fladd+1
  7054  0445  084F               	movf	___fladd@b+2,w
  7055  0446  00D7               	movwf	??___fladd+2
  7056  0447  0850               	movf	___fladd@b+3,w
  7057  0448  00D8               	movwf	??___fladd+3
  7058  0449  3001               	movlw	1
  7059  044A  00D9               	movwf	??___fladd+4
  7060  044B                     u4475:
  7061  044B  0D58               	rlf	??___fladd+3,w
  7062  044C  0CD8               	rrf	??___fladd+3,f
  7063  044D  0CD7               	rrf	??___fladd+2,f
  7064  044E  0CD6               	rrf	??___fladd+1,f
  7065  044F  0CD5               	rrf	??___fladd,f
  7066  0450                     u4470:
  7067  0450  0BD9               	decfsz	??___fladd+4,f
  7068  0451  2C4B               	goto	u4475
  7069  0452  0858               	movf	??___fladd+3,w
  7070  0453  00D0               	movwf	___fladd@b+3
  7071  0454  0857               	movf	??___fladd+2,w
  7072  0455  00CF               	movwf	___fladd@b+2
  7073  0456  0856               	movf	??___fladd+1,w
  7074  0457  00CE               	movwf	___fladd@b+1
  7075  0458  0855               	movf	??___fladd,w
  7076  0459  00CD               	movwf	___fladd@b
  7077  045A  0A5F               	incf	___fladd@bexp,w
  7078  045B  1903               	btfsc	3,2
  7079  045C  2C5E               	goto	u4481
  7080  045D  2C5F               	goto	u4480
  7081  045E                     u4481:
  7082  045E  2C63               	goto	l517
  7083  045F                     u4480:
  7084  045F                     l2917:
  7085  045F  3001               	movlw	1
  7086  0460  00D5               	movwf	??___fladd
  7087  0461  0855               	movf	??___fladd,w
  7088  0462  07DF               	addwf	___fladd@bexp,f
  7089  0463                     l517:
  7090  0463  0A5F               	incf	___fladd@bexp,w
  7091  0464  1903               	btfsc	3,2
  7092  0465  2C67               	goto	u4491
  7093  0466  2C68               	goto	u4490
  7094  0467                     u4491:
  7095  0467  2C6D               	goto	l2921
  7096  0468                     u4490:
  7097  0468                     l2919:
  7098  0468  085F               	movf	___fladd@bexp,w
  7099  0469  1D03               	btfss	3,2
  7100  046A  2C6C               	goto	u4501
  7101  046B  2C6D               	goto	u4500
  7102  046C                     u4501:
  7103  046C  2C7B               	goto	l2927
  7104  046D                     u4500:
  7105  046D                     l2921:
  7106  046D  3000               	movlw	0
  7107  046E  00D0               	movwf	___fladd@b+3
  7108  046F  3000               	movlw	0
  7109  0470  00CF               	movwf	___fladd@b+2
  7110  0471  3000               	movlw	0
  7111  0472  00CE               	movwf	___fladd@b+1
  7112  0473  3000               	movlw	0
  7113  0474  00CD               	movwf	___fladd@b
  7114  0475                     l2923:
  7115  0475  085F               	movf	___fladd@bexp,w
  7116  0476  1D03               	btfss	3,2
  7117  0477  2C79               	goto	u4511
  7118  0478  2C7A               	goto	u4510
  7119  0479                     u4511:
  7120  0479  2C7B               	goto	l2927
  7121  047A                     u4510:
  7122  047A                     l2925:
  7123  047A  01DD               	clrf	___fladd@signs
  7124  047B                     l2927:
  7125  047B  1C5F               	btfss	___fladd@bexp,0
  7126  047C  2C7E               	goto	u4521
  7127  047D  2C7F               	goto	u4520
  7128  047E                     u4521:
  7129  047E  2C81               	goto	l2931
  7130  047F                     u4520:
  7131  047F                     l2929:
  7132  047F  17CF               	bsf	___fladd@b+2,7
  7133  0480  2C85               	goto	l525
  7134  0481                     l2931:
  7135  0481  307F               	movlw	127
  7136  0482  00D5               	movwf	??___fladd
  7137  0483  0855               	movf	??___fladd,w
  7138  0484  05CF               	andwf	___fladd@b+2,f
  7139  0485                     l525:
  7140  0485  085F               	movf	___fladd@bexp,w
  7141  0486  00D5               	movwf	??___fladd
  7142  0487  1003               	clrc
  7143  0488  0C55               	rrf	??___fladd,w
  7144  0489  00D6               	movwf	??___fladd+1
  7145  048A  0856               	movf	??___fladd+1,w
  7146  048B  00D0               	movwf	___fladd@b+3
  7147  048C                     l2933:
  7148  048C  1FDD               	btfss	___fladd@signs,7
  7149  048D  2C8F               	goto	u4531
  7150  048E  2C90               	goto	u4530
  7151  048F                     u4531:
  7152  048F  2C91               	goto	l526
  7153  0490                     u4530:
  7154  0490                     l2935:
  7155  0490  17D0               	bsf	___fladd@b+3,7
  7156  0491                     l526:
  7157  0491                     l496:
  7158  0491  0008               	return
  7159  0492                     __end_of___fladd:
  7160                           
  7161                           	psect	text21
  7162  1328                     __ptext21:	
  7163 ;; *************** function ___flneg *****************
  7164 ;; Defined at:
  7165 ;;		line 15 in file "C:\Program Files\Microchip\xc8\v2.31\pic\sources\c90\common\flneg.c"
  7166 ;; Parameters:    Size  Location     Type
  7167 ;;  f1              4    0[COMMON] unsigned char 
  7168 ;; Auto vars:     Size  Location     Type
  7169 ;;		None
  7170 ;; Return value:  Size  Location     Type
  7171 ;;                  4    0[COMMON] unsigned char 
  7172 ;; Registers used:
  7173 ;;		wreg
  7174 ;; Tracked objects:
  7175 ;;		On entry : 0/0
  7176 ;;		On exit  : 0/0
  7177 ;;		Unchanged: 0/0
  7178 ;; Data sizes:     COMMON   BANK0   BANK1   BANK3   BANK2
  7179 ;;      Params:         4       0       0       0       0
  7180 ;;      Locals:         0       0       0       0       0
  7181 ;;      Temps:          0       0       0       0       0
  7182 ;;      Totals:         4       0       0       0       0
  7183 ;;Total ram usage:        4 bytes
  7184 ;; Hardware stack levels used:    1
  7185 ;; This function calls:
  7186 ;;		Nothing
  7187 ;; This function is called by:
  7188 ;;		_pow
  7189 ;;		_exp
  7190 ;; This function uses a non-reentrant model
  7191 ;;
  7192                           
  7193                           
  7194                           ;psect for function ___flneg
  7195  1328                     ___flneg:
  7196  1328                     l2253:	
  7197                           ;incstack = 0
  7198                           ; Regs used in ___flneg: [wreg]
  7199                           
  7200  1328  0873               	movf	___flneg@f1+3,w
  7201  1329  0472               	iorwf	___flneg@f1+2,w
  7202  132A  0471               	iorwf	___flneg@f1+1,w
  7203  132B  0470               	iorwf	___flneg@f1,w
  7204  132C  1903               	skipnz
  7205  132D  2B2F               	goto	u3191
  7206  132E  2B30               	goto	u3190
  7207  132F                     u3191:
  7208  132F  2B32               	goto	l2257
  7209  1330                     u3190:
  7210  1330                     l2255:
  7211  1330  3080               	movlw	128
  7212  1331  06F3               	xorwf	___flneg@f1+3,f
  7213  1332                     l2257:
  7214  1332                     l372:
  7215  1332  0008               	return
  7216  1333                     __end_of___flneg:
  7217                           
  7218                           	psect	text22
  7219  0027                     __ptext22:	
  7220 ;; *************** function ___fldiv *****************
  7221 ;; Defined at:
  7222 ;;		line 8 in file "C:\Program Files\Microchip\xc8\v2.31\pic\sources\c90\common\sprcdiv.c"
  7223 ;; Parameters:    Size  Location     Type
  7224 ;;  a               4    0[COMMON] unsigned char 
  7225 ;;  b               4    4[COMMON] unsigned char 
  7226 ;; Auto vars:     Size  Location     Type
  7227 ;;  grs             4    7[BANK0 ] unsigned long 
  7228 ;;  rem             4    0[BANK0 ] unsigned long 
  7229 ;;  new_exp         2    5[BANK0 ] int 
  7230 ;;  aexp            1   12[BANK0 ] unsigned char 
  7231 ;;  bexp            1   11[BANK0 ] unsigned char 
  7232 ;;  sign            1    4[BANK0 ] unsigned char 
  7233 ;; Return value:  Size  Location     Type
  7234 ;;                  4    0[COMMON] unsigned char 
  7235 ;; Registers used:
  7236 ;;		wreg, status,2, status,0, btemp+1
  7237 ;; Tracked objects:
  7238 ;;		On entry : 0/0
  7239 ;;		On exit  : 0/0
  7240 ;;		Unchanged: 0/0
  7241 ;; Data sizes:     COMMON   BANK0   BANK1   BANK3   BANK2
  7242 ;;      Params:         8       0       0       0       0
  7243 ;;      Locals:         0      13       0       0       0
  7244 ;;      Temps:          5       0       0       0       0
  7245 ;;      Totals:        13      13       0       0       0
  7246 ;;Total ram usage:       26 bytes
  7247 ;; Hardware stack levels used:    1
  7248 ;; This function calls:
  7249 ;;		Nothing
  7250 ;; This function is called by:
  7251 ;;		_exp
  7252 ;; This function uses a non-reentrant model
  7253 ;;
  7254                           
  7255                           
  7256                           ;psect for function ___fldiv
  7257  0027                     ___fldiv:
  7258  0027                     l2267:	
  7259                           ;incstack = 0
  7260                           ; Regs used in ___fldiv: [wreg+status,2+status,0+btemp+1]
  7261                           
  7262  0027  0877               	movf	___fldiv@b+3,w
  7263  0028  3980               	andlw	128
  7264  0029  00F8               	movwf	??___fldiv
  7265  002A  0878               	movf	??___fldiv,w
  7266  002B  1283               	bcf	3,5	;RP0=0, select bank0
  7267  002C  1303               	bcf	3,6	;RP1=0, select bank0
  7268  002D  00A4               	movwf	___fldiv@sign
  7269  002E                     l2269:
  7270  002E  0877               	movf	___fldiv@b+3,w
  7271  002F  00F8               	movwf	??___fldiv
  7272  0030  0778               	addwf	??___fldiv,w
  7273  0031  00F9               	movwf	??___fldiv+1
  7274  0032  0879               	movf	??___fldiv+1,w
  7275  0033  00AB               	movwf	___fldiv@bexp
  7276  0034                     l2271:
  7277  0034  1FF6               	btfss	___fldiv@b+2,7
  7278  0035  2837               	goto	u3201
  7279  0036  2838               	goto	u3200
  7280  0037                     u3201:
  7281  0037  2839               	goto	l2275
  7282  0038                     u3200:
  7283  0038                     l2273:
  7284  0038  142B               	bsf	___fldiv@bexp,0
  7285  0039                     l2275:
  7286  0039  082B               	movf	___fldiv@bexp,w
  7287  003A  1903               	btfsc	3,2
  7288  003B  283D               	goto	u3211
  7289  003C  283E               	goto	u3210
  7290  003D                     u3211:
  7291  003D  284E               	goto	l2285
  7292  003E                     u3210:
  7293  003E                     l2277:
  7294  003E  0A2B               	incf	___fldiv@bexp,w
  7295  003F  1D03               	btfss	3,2
  7296  0040  2842               	goto	u3221
  7297  0041  2843               	goto	u3220
  7298  0042                     u3221:
  7299  0042  284B               	goto	l2281
  7300  0043                     u3220:
  7301  0043                     l2279:
  7302  0043  3000               	movlw	0
  7303  0044  00F7               	movwf	___fldiv@b+3
  7304  0045  3000               	movlw	0
  7305  0046  00F6               	movwf	___fldiv@b+2
  7306  0047  3000               	movlw	0
  7307  0048  00F5               	movwf	___fldiv@b+1
  7308  0049  3000               	movlw	0
  7309  004A  00F4               	movwf	___fldiv@b
  7310  004B                     l2281:
  7311  004B  17F6               	bsf	___fldiv@b+2,7
  7312  004C                     l2283:
  7313  004C  01F7               	clrf	___fldiv@b+3
  7314  004D  2856               	goto	l2287
  7315  004E                     l2285:
  7316  004E  3000               	movlw	0
  7317  004F  00F7               	movwf	___fldiv@b+3
  7318  0050  3000               	movlw	0
  7319  0051  00F6               	movwf	___fldiv@b+2
  7320  0052  3000               	movlw	0
  7321  0053  00F5               	movwf	___fldiv@b+1
  7322  0054  3000               	movlw	0
  7323  0055  00F4               	movwf	___fldiv@b
  7324  0056                     l2287:
  7325  0056  0873               	movf	___fldiv@a+3,w
  7326  0057  3980               	andlw	128
  7327  0058  00F8               	movwf	??___fldiv
  7328  0059  0878               	movf	??___fldiv,w
  7329  005A  06A4               	xorwf	___fldiv@sign,f
  7330  005B                     l2289:
  7331  005B  0873               	movf	___fldiv@a+3,w
  7332  005C  00F8               	movwf	??___fldiv
  7333  005D  0778               	addwf	??___fldiv,w
  7334  005E  00F9               	movwf	??___fldiv+1
  7335  005F  0879               	movf	??___fldiv+1,w
  7336  0060  00AC               	movwf	___fldiv@aexp
  7337  0061                     l2291:
  7338  0061  1FF2               	btfss	___fldiv@a+2,7
  7339  0062  2864               	goto	u3231
  7340  0063  2865               	goto	u3230
  7341  0064                     u3231:
  7342  0064  2866               	goto	l2295
  7343  0065                     u3230:
  7344  0065                     l2293:
  7345  0065  142C               	bsf	___fldiv@aexp,0
  7346  0066                     l2295:
  7347  0066  082C               	movf	___fldiv@aexp,w
  7348  0067  1903               	btfsc	3,2
  7349  0068  286A               	goto	u3241
  7350  0069  286B               	goto	u3240
  7351  006A                     u3241:
  7352  006A  287B               	goto	l2305
  7353  006B                     u3240:
  7354  006B                     l2297:
  7355  006B  0A2C               	incf	___fldiv@aexp,w
  7356  006C  1D03               	btfss	3,2
  7357  006D  286F               	goto	u3251
  7358  006E  2870               	goto	u3250
  7359  006F                     u3251:
  7360  006F  2878               	goto	l2301
  7361  0070                     u3250:
  7362  0070                     l2299:
  7363  0070  3000               	movlw	0
  7364  0071  00F3               	movwf	___fldiv@a+3
  7365  0072  3000               	movlw	0
  7366  0073  00F2               	movwf	___fldiv@a+2
  7367  0074  3000               	movlw	0
  7368  0075  00F1               	movwf	___fldiv@a+1
  7369  0076  3000               	movlw	0
  7370  0077  00F0               	movwf	___fldiv@a
  7371  0078                     l2301:
  7372  0078  17F2               	bsf	___fldiv@a+2,7
  7373  0079                     l2303:
  7374  0079  01F3               	clrf	___fldiv@a+3
  7375  007A  2883               	goto	l539
  7376  007B                     l2305:
  7377  007B  3000               	movlw	0
  7378  007C  00F3               	movwf	___fldiv@a+3
  7379  007D  3000               	movlw	0
  7380  007E  00F2               	movwf	___fldiv@a+2
  7381  007F  3000               	movlw	0
  7382  0080  00F1               	movwf	___fldiv@a+1
  7383  0081  3000               	movlw	0
  7384  0082  00F0               	movwf	___fldiv@a
  7385  0083                     l539:
  7386  0083  0873               	movf	___fldiv@a+3,w
  7387  0084  0472               	iorwf	___fldiv@a+2,w
  7388  0085  0471               	iorwf	___fldiv@a+1,w
  7389  0086  0470               	iorwf	___fldiv@a,w
  7390  0087  1D03               	skipz
  7391  0088  288A               	goto	u3261
  7392  0089  288B               	goto	u3260
  7393  008A                     u3261:
  7394  008A  28A4               	goto	l2315
  7395  008B                     u3260:
  7396  008B                     l2307:
  7397  008B  3000               	movlw	0
  7398  008C  00F7               	movwf	___fldiv@b+3
  7399  008D  3000               	movlw	0
  7400  008E  00F6               	movwf	___fldiv@b+2
  7401  008F  3000               	movlw	0
  7402  0090  00F5               	movwf	___fldiv@b+1
  7403  0091  3000               	movlw	0
  7404  0092  00F4               	movwf	___fldiv@b
  7405  0093  3080               	movlw	128
  7406  0094  04F6               	iorwf	___fldiv@b+2,f
  7407  0095  307F               	movlw	127
  7408  0096  04F7               	iorwf	___fldiv@b+3,f
  7409  0097                     l2309:
  7410  0097  0824               	movf	___fldiv@sign,w
  7411  0098  00F8               	movwf	??___fldiv
  7412  0099  0878               	movf	??___fldiv,w
  7413  009A  04F7               	iorwf	___fldiv@b+3,f
  7414  009B                     l2311:
  7415  009B  0877               	movf	___fldiv@b+3,w
  7416  009C  00F3               	movwf	?___fldiv+3
  7417  009D  0876               	movf	___fldiv@b+2,w
  7418  009E  00F2               	movwf	?___fldiv+2
  7419  009F  0875               	movf	___fldiv@b+1,w
  7420  00A0  00F1               	movwf	?___fldiv+1
  7421  00A1  0874               	movf	___fldiv@b,w
  7422  00A2  00F0               	movwf	?___fldiv
  7423  00A3  2A09               	goto	l541
  7424  00A4                     l2315:
  7425  00A4  082B               	movf	___fldiv@bexp,w
  7426  00A5  1D03               	btfss	3,2
  7427  00A6  28A8               	goto	u3271
  7428  00A7  28A9               	goto	u3270
  7429  00A8                     u3271:
  7430  00A8  28B2               	goto	l2321
  7431  00A9                     u3270:
  7432  00A9                     l2317:
  7433  00A9  3000               	movlw	0
  7434  00AA  00F3               	movwf	?___fldiv+3
  7435  00AB  3000               	movlw	0
  7436  00AC  00F2               	movwf	?___fldiv+2
  7437  00AD  3000               	movlw	0
  7438  00AE  00F1               	movwf	?___fldiv+1
  7439  00AF  3000               	movlw	0
  7440  00B0  00F0               	movwf	?___fldiv
  7441  00B1  2A09               	goto	l541
  7442  00B2                     l2321:
  7443  00B2  082B               	movf	___fldiv@bexp,w
  7444  00B3  00F8               	movwf	??___fldiv
  7445  00B4  01F9               	clrf	??___fldiv+1
  7446  00B5  0879               	movf	??___fldiv+1,w
  7447  00B6  00FB               	movwf	??___fldiv+3
  7448  00B7  082C               	movf	___fldiv@aexp,w
  7449  00B8  0278               	subwf	??___fldiv,w
  7450  00B9  00FA               	movwf	??___fldiv+2
  7451  00BA  1C03               	skipc
  7452  00BB  03FB               	decf	??___fldiv+3,f
  7453  00BC  087A               	movf	??___fldiv+2,w
  7454  00BD  3E7F               	addlw	127
  7455  00BE  00A5               	movwf	___fldiv@new_exp
  7456  00BF  087B               	movf	??___fldiv+3,w
  7457  00C0  1803               	skipnc
  7458  00C1  3E01               	addlw	1
  7459  00C2  3E00               	addlw	0
  7460  00C3  00A6               	movwf	___fldiv@new_exp+1
  7461  00C4                     l2323:
  7462  00C4  0877               	movf	___fldiv@b+3,w
  7463  00C5  00A3               	movwf	___fldiv@rem+3
  7464  00C6  0876               	movf	___fldiv@b+2,w
  7465  00C7  00A2               	movwf	___fldiv@rem+2
  7466  00C8  0875               	movf	___fldiv@b+1,w
  7467  00C9  00A1               	movwf	___fldiv@rem+1
  7468  00CA  0874               	movf	___fldiv@b,w
  7469  00CB  00A0               	movwf	___fldiv@rem
  7470  00CC                     l2325:
  7471  00CC  3000               	movlw	0
  7472  00CD  00F7               	movwf	___fldiv@b+3
  7473  00CE  3000               	movlw	0
  7474  00CF  00F6               	movwf	___fldiv@b+2
  7475  00D0  3000               	movlw	0
  7476  00D1  00F5               	movwf	___fldiv@b+1
  7477  00D2  3000               	movlw	0
  7478  00D3  00F4               	movwf	___fldiv@b
  7479  00D4                     l2327:
  7480  00D4  3000               	movlw	0
  7481  00D5  00AA               	movwf	___fldiv@grs+3
  7482  00D6  3000               	movlw	0
  7483  00D7  00A9               	movwf	___fldiv@grs+2
  7484  00D8  3000               	movlw	0
  7485  00D9  00A8               	movwf	___fldiv@grs+1
  7486  00DA  3000               	movlw	0
  7487  00DB  00A7               	movwf	___fldiv@grs
  7488  00DC                     l2329:
  7489  00DC  01AC               	clrf	___fldiv@aexp
  7490  00DD  292E               	goto	l2349
  7491  00DE                     l2331:
  7492  00DE  082C               	movf	___fldiv@aexp,w
  7493  00DF  1903               	btfsc	3,2
  7494  00E0  28E2               	goto	u3281
  7495  00E1  28E3               	goto	u3280
  7496  00E2                     u3281:
  7497  00E2  2903               	goto	l2341
  7498  00E3                     u3280:
  7499  00E3                     l2333:
  7500  00E3  3001               	movlw	1
  7501  00E4  00F8               	movwf	??___fldiv
  7502  00E5                     u3295:
  7503  00E5  1003               	clrc
  7504  00E6  0DA0               	rlf	___fldiv@rem,f
  7505  00E7  0DA1               	rlf	___fldiv@rem+1,f
  7506  00E8  0DA2               	rlf	___fldiv@rem+2,f
  7507  00E9  0DA3               	rlf	___fldiv@rem+3,f
  7508  00EA  0BF8               	decfsz	??___fldiv,f
  7509  00EB  28E5               	goto	u3295
  7510  00EC  3001               	movlw	1
  7511  00ED  00F8               	movwf	??___fldiv
  7512  00EE                     u3305:
  7513  00EE  1003               	clrc
  7514  00EF  0DF4               	rlf	___fldiv@b,f
  7515  00F0  0DF5               	rlf	___fldiv@b+1,f
  7516  00F1  0DF6               	rlf	___fldiv@b+2,f
  7517  00F2  0DF7               	rlf	___fldiv@b+3,f
  7518  00F3  0BF8               	decfsz	??___fldiv,f
  7519  00F4  28EE               	goto	u3305
  7520  00F5                     l2335:
  7521  00F5  1FAA               	btfss	___fldiv@grs+3,7
  7522  00F6  28F8               	goto	u3311
  7523  00F7  28F9               	goto	u3310
  7524  00F8                     u3311:
  7525  00F8  28FA               	goto	l2339
  7526  00F9                     u3310:
  7527  00F9                     l2337:
  7528  00F9  1474               	bsf	___fldiv@b,0
  7529  00FA                     l2339:
  7530  00FA  3001               	movlw	1
  7531  00FB  00F8               	movwf	??___fldiv
  7532  00FC                     u3325:
  7533  00FC  1003               	clrc
  7534  00FD  0DA7               	rlf	___fldiv@grs,f
  7535  00FE  0DA8               	rlf	___fldiv@grs+1,f
  7536  00FF  0DA9               	rlf	___fldiv@grs+2,f
  7537  0100  0DAA               	rlf	___fldiv@grs+3,f
  7538  0101  0BF8               	decfsz	??___fldiv,f
  7539  0102  28FC               	goto	u3325
  7540  0103                     l2341:
  7541  0103  0873               	movf	___fldiv@a+3,w
  7542  0104  0223               	subwf	___fldiv@rem+3,w
  7543  0105  1D03               	skipz
  7544  0106  2911               	goto	u3335
  7545  0107  0872               	movf	___fldiv@a+2,w
  7546  0108  0222               	subwf	___fldiv@rem+2,w
  7547  0109  1D03               	skipz
  7548  010A  2911               	goto	u3335
  7549  010B  0871               	movf	___fldiv@a+1,w
  7550  010C  0221               	subwf	___fldiv@rem+1,w
  7551  010D  1D03               	skipz
  7552  010E  2911               	goto	u3335
  7553  010F  0870               	movf	___fldiv@a,w
  7554  0110  0220               	subwf	___fldiv@rem,w
  7555  0111                     u3335:
  7556  0111  1C03               	skipc
  7557  0112  2914               	goto	u3331
  7558  0113  2915               	goto	u3330
  7559  0114                     u3331:
  7560  0114  292A               	goto	l2347
  7561  0115                     u3330:
  7562  0115                     l2343:
  7563  0115  172A               	bsf	___fldiv@grs+3,6
  7564  0116                     l2345:
  7565  0116  0870               	movf	___fldiv@a,w
  7566  0117  02A0               	subwf	___fldiv@rem,f
  7567  0118  0871               	movf	___fldiv@a+1,w
  7568  0119  1C03               	skipc
  7569  011A  0F71               	incfsz	___fldiv@a+1,w
  7570  011B  291D               	goto	u3345
  7571  011C  291E               	goto	u3346
  7572  011D                     u3345:
  7573  011D  02A1               	subwf	___fldiv@rem+1,f
  7574  011E                     u3346:
  7575  011E  0872               	movf	___fldiv@a+2,w
  7576  011F  1C03               	skipc
  7577  0120  0F72               	incfsz	___fldiv@a+2,w
  7578  0121  2923               	goto	u3347
  7579  0122  2924               	goto	u3348
  7580  0123                     u3347:
  7581  0123  02A2               	subwf	___fldiv@rem+2,f
  7582  0124                     u3348:
  7583  0124  0873               	movf	___fldiv@a+3,w
  7584  0125  1C03               	skipc
  7585  0126  0F73               	incfsz	___fldiv@a+3,w
  7586  0127  2929               	goto	u3349
  7587  0128  292A               	goto	u3340
  7588  0129                     u3349:
  7589  0129  02A3               	subwf	___fldiv@rem+3,f
  7590  012A                     u3340:
  7591  012A                     l2347:
  7592  012A  3001               	movlw	1
  7593  012B  00F8               	movwf	??___fldiv
  7594  012C  0878               	movf	??___fldiv,w
  7595  012D  07AC               	addwf	___fldiv@aexp,f
  7596  012E                     l2349:
  7597  012E  301A               	movlw	26
  7598  012F  022C               	subwf	___fldiv@aexp,w
  7599  0130  1C03               	skipc
  7600  0131  2933               	goto	u3351
  7601  0132  2934               	goto	u3350
  7602  0133                     u3351:
  7603  0133  28DE               	goto	l2331
  7604  0134                     u3350:
  7605  0134                     l2351:
  7606  0134  0823               	movf	___fldiv@rem+3,w
  7607  0135  0422               	iorwf	___fldiv@rem+2,w
  7608  0136  0421               	iorwf	___fldiv@rem+1,w
  7609  0137  0420               	iorwf	___fldiv@rem,w
  7610  0138  1903               	skipnz
  7611  0139  293B               	goto	u3361
  7612  013A  293C               	goto	u3360
  7613  013B                     u3361:
  7614  013B  295B               	goto	l2365
  7615  013C                     u3360:
  7616  013C                     l2353:
  7617  013C  1427               	bsf	___fldiv@grs,0
  7618  013D  295B               	goto	l2365
  7619  013E                     l2355:
  7620  013E  3001               	movlw	1
  7621  013F  00F8               	movwf	??___fldiv
  7622  0140                     u3375:
  7623  0140  1003               	clrc
  7624  0141  0DF4               	rlf	___fldiv@b,f
  7625  0142  0DF5               	rlf	___fldiv@b+1,f
  7626  0143  0DF6               	rlf	___fldiv@b+2,f
  7627  0144  0DF7               	rlf	___fldiv@b+3,f
  7628  0145  0BF8               	decfsz	??___fldiv,f
  7629  0146  2940               	goto	u3375
  7630  0147                     l2357:
  7631  0147  1FAA               	btfss	___fldiv@grs+3,7
  7632  0148  294A               	goto	u3381
  7633  0149  294B               	goto	u3380
  7634  014A                     u3381:
  7635  014A  294C               	goto	l2361
  7636  014B                     u3380:
  7637  014B                     l2359:
  7638  014B  1474               	bsf	___fldiv@b,0
  7639  014C                     l2361:
  7640  014C  3001               	movlw	1
  7641  014D  00F8               	movwf	??___fldiv
  7642  014E                     u3395:
  7643  014E  1003               	clrc
  7644  014F  0DA7               	rlf	___fldiv@grs,f
  7645  0150  0DA8               	rlf	___fldiv@grs+1,f
  7646  0151  0DA9               	rlf	___fldiv@grs+2,f
  7647  0152  0DAA               	rlf	___fldiv@grs+3,f
  7648  0153  0BF8               	decfsz	??___fldiv,f
  7649  0154  294E               	goto	u3395
  7650  0155                     l2363:
  7651  0155  30FF               	movlw	255
  7652  0156  07A5               	addwf	___fldiv@new_exp,f
  7653  0157  1803               	skipnc
  7654  0158  0AA6               	incf	___fldiv@new_exp+1,f
  7655  0159  30FF               	movlw	255
  7656  015A  07A6               	addwf	___fldiv@new_exp+1,f
  7657  015B                     l2365:
  7658  015B  1FF6               	btfss	___fldiv@b+2,7
  7659  015C  295E               	goto	u3401
  7660  015D  295F               	goto	u3400
  7661  015E                     u3401:
  7662  015E  293E               	goto	l2355
  7663  015F                     u3400:
  7664  015F                     l2367:
  7665  015F  01AC               	clrf	___fldiv@aexp
  7666  0160                     l2369:
  7667  0160  1FAA               	btfss	___fldiv@grs+3,7
  7668  0161  2963               	goto	u3411
  7669  0162  2964               	goto	u3410
  7670  0163                     u3411:
  7671  0163  2980               	goto	l2377
  7672  0164                     u3410:
  7673  0164                     l2371:
  7674  0164  30FF               	movlw	255
  7675  0165  0527               	andwf	___fldiv@grs,w
  7676  0166  00F8               	movwf	??___fldiv
  7677  0167  30FF               	movlw	255
  7678  0168  0528               	andwf	___fldiv@grs+1,w
  7679  0169  00F9               	movwf	??___fldiv+1
  7680  016A  30FF               	movlw	255
  7681  016B  0529               	andwf	___fldiv@grs+2,w
  7682  016C  00FA               	movwf	??___fldiv+2
  7683  016D  307F               	movlw	127
  7684  016E  052A               	andwf	___fldiv@grs+3,w
  7685  016F  00FB               	movwf	??___fldiv+3
  7686  0170  087B               	movf	??___fldiv+3,w
  7687  0171  047A               	iorwf	??___fldiv+2,w
  7688  0172  0479               	iorwf	??___fldiv+1,w
  7689  0173  0478               	iorwf	??___fldiv,w
  7690  0174  1903               	skipnz
  7691  0175  2977               	goto	u3421
  7692  0176  2978               	goto	u3420
  7693  0177                     u3421:
  7694  0177  297B               	goto	l555
  7695  0178                     u3420:
  7696  0178                     l2373:
  7697  0178  01AC               	clrf	___fldiv@aexp
  7698  0179  0AAC               	incf	___fldiv@aexp,f
  7699  017A  2980               	goto	l2377
  7700  017B                     l555:
  7701  017B  1C74               	btfss	___fldiv@b,0
  7702  017C  297E               	goto	u3431
  7703  017D  297F               	goto	u3430
  7704  017E                     u3431:
  7705  017E  2980               	goto	l2377
  7706  017F                     u3430:
  7707  017F  2978               	goto	l2373
  7708  0180                     l2377:
  7709  0180  082C               	movf	___fldiv@aexp,w
  7710  0181  1903               	btfsc	3,2
  7711  0182  2984               	goto	u3441
  7712  0183  2985               	goto	u3440
  7713  0184                     u3441:
  7714  0184  29B6               	goto	l2387
  7715  0185                     u3440:
  7716  0185                     l2379:
  7717  0185  3001               	movlw	1
  7718  0186  07F4               	addwf	___fldiv@b,f
  7719  0187  3000               	movlw	0
  7720  0188  1803               	skipnc
  7721  0189  3001               	movlw	1
  7722  018A  07F5               	addwf	___fldiv@b+1,f
  7723  018B  3000               	movlw	0
  7724  018C  1803               	skipnc
  7725  018D  3001               	movlw	1
  7726  018E  07F6               	addwf	___fldiv@b+2,f
  7727  018F  3000               	movlw	0
  7728  0190  1803               	skipnc
  7729  0191  3001               	movlw	1
  7730  0192  07F7               	addwf	___fldiv@b+3,f
  7731  0193                     l2381:
  7732  0193  1C77               	btfss	___fldiv@b+3,0
  7733  0194  2996               	goto	u3451
  7734  0195  2997               	goto	u3450
  7735  0196                     u3451:
  7736  0196  29B6               	goto	l2387
  7737  0197                     u3450:
  7738  0197                     l2383:
  7739  0197  0874               	movf	___fldiv@b,w
  7740  0198  00F8               	movwf	??___fldiv
  7741  0199  0875               	movf	___fldiv@b+1,w
  7742  019A  00F9               	movwf	??___fldiv+1
  7743  019B  0876               	movf	___fldiv@b+2,w
  7744  019C  00FA               	movwf	??___fldiv+2
  7745  019D  0877               	movf	___fldiv@b+3,w
  7746  019E  00FB               	movwf	??___fldiv+3
  7747  019F  3001               	movlw	1
  7748  01A0  00FC               	movwf	??___fldiv+4
  7749  01A1                     u3465:
  7750  01A1  0D7B               	rlf	??___fldiv+3,w
  7751  01A2  0CFB               	rrf	??___fldiv+3,f
  7752  01A3  0CFA               	rrf	??___fldiv+2,f
  7753  01A4  0CF9               	rrf	??___fldiv+1,f
  7754  01A5  0CF8               	rrf	??___fldiv,f
  7755  01A6                     u3460:
  7756  01A6  0BFC               	decfsz	??___fldiv+4,f
  7757  01A7  29A1               	goto	u3465
  7758  01A8  087B               	movf	??___fldiv+3,w
  7759  01A9  00F7               	movwf	___fldiv@b+3
  7760  01AA  087A               	movf	??___fldiv+2,w
  7761  01AB  00F6               	movwf	___fldiv@b+2
  7762  01AC  0879               	movf	??___fldiv+1,w
  7763  01AD  00F5               	movwf	___fldiv@b+1
  7764  01AE  0878               	movf	??___fldiv,w
  7765  01AF  00F4               	movwf	___fldiv@b
  7766  01B0                     l2385:
  7767  01B0  3001               	movlw	1
  7768  01B1  07A5               	addwf	___fldiv@new_exp,f
  7769  01B2  1803               	skipnc
  7770  01B3  0AA6               	incf	___fldiv@new_exp+1,f
  7771  01B4  3000               	movlw	0
  7772  01B5  07A6               	addwf	___fldiv@new_exp+1,f
  7773  01B6                     l2387:
  7774  01B6  0826               	movf	___fldiv@new_exp+1,w
  7775  01B7  3A80               	xorlw	128
  7776  01B8  00FF               	movwf	btemp+1
  7777  01B9  3080               	movlw	128
  7778  01BA  027F               	subwf	btemp+1,w
  7779  01BB  1D03               	skipz
  7780  01BC  29BF               	goto	u3475
  7781  01BD  30FF               	movlw	255
  7782  01BE  0225               	subwf	___fldiv@new_exp,w
  7783  01BF                     u3475:
  7784  01BF  1C03               	skipc
  7785  01C0  29C2               	goto	u3471
  7786  01C1  29C3               	goto	u3470
  7787  01C2                     u3471:
  7788  01C2  29D1               	goto	l2391
  7789  01C3                     u3470:
  7790  01C3                     l2389:
  7791  01C3  30FF               	movlw	255
  7792  01C4  1283               	bcf	3,5	;RP0=0, select bank0
  7793  01C5  1303               	bcf	3,6	;RP1=0, select bank0
  7794  01C6  00A5               	movwf	___fldiv@new_exp
  7795  01C7  3000               	movlw	0
  7796  01C8  00A6               	movwf	___fldiv@new_exp+1
  7797  01C9  3000               	movlw	0
  7798  01CA  00F7               	movwf	___fldiv@b+3
  7799  01CB  3000               	movlw	0
  7800  01CC  00F6               	movwf	___fldiv@b+2
  7801  01CD  3000               	movlw	0
  7802  01CE  00F5               	movwf	___fldiv@b+1
  7803  01CF  3000               	movlw	0
  7804  01D0  00F4               	movwf	___fldiv@b
  7805  01D1                     l2391:
  7806  01D1  1283               	bcf	3,5	;RP0=0, select bank0
  7807  01D2  1303               	bcf	3,6	;RP1=0, select bank0
  7808  01D3  0826               	movf	___fldiv@new_exp+1,w
  7809  01D4  3A80               	xorlw	128
  7810  01D5  00FF               	movwf	btemp+1
  7811  01D6  3080               	movlw	128
  7812  01D7  027F               	subwf	btemp+1,w
  7813  01D8  1D03               	skipz
  7814  01D9  29DC               	goto	u3485
  7815  01DA  3001               	movlw	1
  7816  01DB  0225               	subwf	___fldiv@new_exp,w
  7817  01DC                     u3485:
  7818  01DC  1803               	skipnc
  7819  01DD  29DF               	goto	u3481
  7820  01DE  29E0               	goto	u3480
  7821  01DF                     u3481:
  7822  01DF  29ED               	goto	l561
  7823  01E0                     u3480:
  7824  01E0                     l2393:
  7825  01E0  1283               	bcf	3,5	;RP0=0, select bank0
  7826  01E1  1303               	bcf	3,6	;RP1=0, select bank0
  7827  01E2  01A5               	clrf	___fldiv@new_exp
  7828  01E3  01A6               	clrf	___fldiv@new_exp+1
  7829  01E4                     l2395:
  7830  01E4  3000               	movlw	0
  7831  01E5  00F7               	movwf	___fldiv@b+3
  7832  01E6  3000               	movlw	0
  7833  01E7  00F6               	movwf	___fldiv@b+2
  7834  01E8  3000               	movlw	0
  7835  01E9  00F5               	movwf	___fldiv@b+1
  7836  01EA  3000               	movlw	0
  7837  01EB  00F4               	movwf	___fldiv@b
  7838  01EC                     l2397:
  7839  01EC  01A4               	clrf	___fldiv@sign
  7840  01ED                     l561:
  7841  01ED  1283               	bcf	3,5	;RP0=0, select bank0
  7842  01EE  1303               	bcf	3,6	;RP1=0, select bank0
  7843  01EF  0825               	movf	___fldiv@new_exp,w
  7844  01F0  00F8               	movwf	??___fldiv
  7845  01F1  0878               	movf	??___fldiv,w
  7846  01F2  00AB               	movwf	___fldiv@bexp
  7847  01F3                     l2399:
  7848  01F3  1C2B               	btfss	___fldiv@bexp,0
  7849  01F4  29F6               	goto	u3491
  7850  01F5  29F7               	goto	u3490
  7851  01F6                     u3491:
  7852  01F6  29F9               	goto	l2403
  7853  01F7                     u3490:
  7854  01F7                     l2401:
  7855  01F7  17F6               	bsf	___fldiv@b+2,7
  7856  01F8  29FD               	goto	l563
  7857  01F9                     l2403:
  7858  01F9  307F               	movlw	127
  7859  01FA  00F8               	movwf	??___fldiv
  7860  01FB  0878               	movf	??___fldiv,w
  7861  01FC  05F6               	andwf	___fldiv@b+2,f
  7862  01FD                     l563:
  7863  01FD  082B               	movf	___fldiv@bexp,w
  7864  01FE  00F8               	movwf	??___fldiv
  7865  01FF  1003               	clrc
  7866  0200  0C78               	rrf	??___fldiv,w
  7867  0201  00F9               	movwf	??___fldiv+1
  7868  0202  0879               	movf	??___fldiv+1,w
  7869  0203  00F7               	movwf	___fldiv@b+3
  7870  0204  0824               	movf	___fldiv@sign,w
  7871  0205  00F8               	movwf	??___fldiv
  7872  0206  0878               	movf	??___fldiv,w
  7873  0207  04F7               	iorwf	___fldiv@b+3,f
  7874  0208  289B               	goto	l2311
  7875  0209                     l541:
  7876  0209  0008               	return
  7877  020A                     __end_of___fldiv:
  7878  007E                     btemp	set	126	;btemp
  7879  007E                     wtemp0	set	126
  7880                           
  7881                           	psect	config
  7882                           
  7883                           ;Config register CONFIG1 @ 0x2007
  7884                           ;	Oscillator Selection bits
  7885                           ;	FOSC = XT, XT oscillator: Crystal/resonator on RA6/OSC2/CLKOUT and RA7/OSC1/CLKIN
  7886                           ;	Watchdog Timer Enable bit
  7887                           ;	WDTE = OFF, WDT disabled and can be enabled by SWDTEN bit of the WDTCON register
  7888                           ;	Power-up Timer Enable bit
  7889                           ;	PWRTE = OFF, PWRT disabled
  7890                           ;	RE3/MCLR pin function select bit
  7891                           ;	MCLRE = OFF, RE3/MCLR pin function is digital input, MCLR internally tied to VDD
  7892                           ;	Code Protection bit
  7893                           ;	CP = OFF, Program memory code protection is disabled
  7894                           ;	Data Code Protection bit
  7895                           ;	CPD = OFF, Data memory code protection is disabled
  7896                           ;	Brown Out Reset Selection bits
  7897                           ;	BOREN = OFF, BOR disabled
  7898                           ;	Internal External Switchover bit
  7899                           ;	IESO = OFF, Internal/External Switchover mode is disabled
  7900                           ;	Fail-Safe Clock Monitor Enabled bit
  7901                           ;	FCMEN = OFF, Fail-Safe Clock Monitor is disabled
  7902                           ;	Low Voltage Programming Enable bit
  7903                           ;	LVP = OFF, RB3 pin has digital I/O, HV on MCLR must be used for programming
  7904                           ;	In-Circuit Debugger Mode bit
  7905                           ;	DEBUG = 0x1, unprogrammed default
  7906  2007                     	org	8199
  7907  2007  20D1               	dw	8401
  7908                           
  7909                           ;Config register CONFIG2 @ 0x2008
  7910                           ;	Brown-out Reset Selection bit
  7911                           ;	BOR4V = BOR40V, Brown-out Reset set to 4.0V
  7912                           ;	Flash Program Memory Self Write Enable bits
  7913                           ;	WRT = OFF, Write protection off
  7914  2008                     	org	8200
  7915  2008  3FFF               	dw	16383

Data Sizes:
    Strings     0
    Constant    76
    Data        0
    BSS         18
    Persistent  0
    Stack       0

Auto Spaces:
    Space          Size  Autos    Used
    COMMON           14     14      14
    BANK0            80     80      80
    BANK1            80     52      70
    BANK3            96      0       0
    BANK2            96      0       0

Pointer List with Targets:

    frexp@eptr	PTR int  size(1) Largest target is 2
		 -> log@exponent(BANK0[2]), floor@expon(BANK0[2]), 

    eval_poly@d	PTR const  size(1) Largest target is 40
		 -> log@coeff(CODE[36]), exp@coeff(CODE[40]), 


Critical Paths under _main in COMMON

    _jugador_2->___xxtofl
    _jugador_1->___xxtofl
    _pow->___xxtofl
    _log->___xxtofl
    _exp->___xxtofl
    _floor->___xxtofl
    ___fleq->___xxtofl
    ___fltol->___xxtofl
    ___flmul->___xxtofl
    ___flsub->___xxtofl
    ___fladd->___xxtofl

Critical Paths under _main in BANK0

    _pow->_log
    _log->_eval_poly
    _exp->_log
    _ldexp->_eval_poly
    _floor->___fladd
    _frexp->___fleq
    _eval_poly->___fladd
    ___flmul->_frexp
    ___flsub->___fladd
    ___fladd->___flmul

Critical Paths under _main in BANK1

    _main->_jugador_1
    _main->_jugador_2
    _jugador_2->_pow
    _jugador_1->_pow
    _pow->_exp
    _log->_eval_poly
    _exp->_ldexp
    _ldexp->_eval_poly

Critical Paths under _main in BANK3

    None.

Critical Paths under _main in BANK2

    None.

Call Graph Tables:

 ---------------------------------------------------------------------------------
 (Depth) Function   	        Calls       Base Space   Used Autos Params    Refs
 ---------------------------------------------------------------------------------
 (0) _main                                                 0     0      0  149294
                          _jugador_1
                          _jugador_2
                           _semaforo
                              _setup
                              _verde
 ---------------------------------------------------------------------------------
 (1) _verde                                                0     0      0       0
 ---------------------------------------------------------------------------------
 (1) _setup                                                0     0      0       0
 ---------------------------------------------------------------------------------
 (1) _semaforo                                             3     3      0       0
                                              0 COMMON     3     3      0
 ---------------------------------------------------------------------------------
 (1) _jugador_2                                            8     8      0   74647
                                             44 BANK1      8     8      0
                            ___fltol
                           ___xxtofl
                                _pow
 ---------------------------------------------------------------------------------
 (1) _jugador_1                                            8     8      0   74647
                                             44 BANK1      8     8      0
                            ___fltol
                           ___xxtofl
                                _pow
 ---------------------------------------------------------------------------------
 (2) _pow                                                 22    14      8   72954
                                             22 BANK1     22    14      8
                             ___fleq
                             ___flge
                            ___flmul
                            ___flneg
                            ___fltol
                           ___xxtofl
                                _exp
                                _log
 ---------------------------------------------------------------------------------
 (3) _log                                                  7     3      4   24038
                                             77 BANK0      3     3      0
                                              4 BANK1      4     0      4
                            ___fladd
                             ___fleq
                             ___flge
                            ___flmul
                           ___xxtofl
                          _eval_poly
                              _frexp
 ---------------------------------------------------------------------------------
 (3) _exp                                                 12     8      4   38472
                                             10 BANK1     12     8      4
                            ___fldiv
                             ___fleq
                             ___flge
                            ___flmul
                            ___flneg
                            ___flsub
                            ___fltol
                           ___xxtofl
                          _eval_poly
                              _floor
                              _ldexp
                                _log (ARG)
 ---------------------------------------------------------------------------------
 (4) _ldexp                                                8     2      6    3995
                                             77 BANK0      2     2      0
                                              4 BANK1      6     0      6
                             ___fleq
                             ___flge
                          _eval_poly (ARG)
 ---------------------------------------------------------------------------------
 (4) _floor                                               11     7      4   10063
                                             65 BANK0     11     7      4
                            ___fladd
                             ___flge
                            ___fltol
                           ___xxtofl
                              _frexp
 ---------------------------------------------------------------------------------
 (4) _frexp                                                7     2      5    2252
                                             12 BANK0      7     2      5
                             ___fleq
 ---------------------------------------------------------------------------------
 (5) ___fleq                                              12     4      8    1570
                                              0 BANK0     12     4      8
                           ___xxtofl (ARG)
 ---------------------------------------------------------------------------------
 (4) ___xxtofl                                            14    10      4    1016
                                              0 COMMON    14    10      4
 ---------------------------------------------------------------------------------
 (5) ___fltol                                             11     7      4     609
                                              0 BANK0     11     7      4
                           ___xxtofl (ARG)
 ---------------------------------------------------------------------------------
 (4) ___flge                                              12     4      8    1886
                                              0 COMMON    12     4      8
 ---------------------------------------------------------------------------------
 (4) _eval_poly                                           16     9      7    8849
                                             65 BANK0     12     5      7
                                              0 BANK1      4     4      0
                            ___fladd
                            ___flmul
 ---------------------------------------------------------------------------------
 (5) ___flmul                                             26    18      8    4213
                                             19 BANK0     26    18      8
                          __Umul8_16
                           ___xxtofl (ARG)
                              _frexp (ARG)
 ---------------------------------------------------------------------------------
 (6) __Umul8_16                                            9     7      2     980
                                              0 COMMON     9     7      2
 ---------------------------------------------------------------------------------
 (4) ___flsub                                              8     0      8    4087
                                             65 BANK0      8     0      8
                            ___fladd
                           ___xxtofl (ARG)
 ---------------------------------------------------------------------------------
 (5) ___fladd                                             20    12      8    3842
                                             45 BANK0     20    12      8
                            ___flmul (ARG)
                           ___xxtofl (ARG)
                              _frexp (ARG)
 ---------------------------------------------------------------------------------
 (4) ___flneg                                              4     0      4     273
                                              0 COMMON     4     0      4
 ---------------------------------------------------------------------------------
 (4) ___fldiv                                             26    18      8    1273
                                              0 COMMON    13     5      8
                                              0 BANK0     13    13      0
 ---------------------------------------------------------------------------------
 Estimated maximum stack depth 6
 ---------------------------------------------------------------------------------

 Call Graph Graphs:

 _main (ROOT)
   _jugador_1
     ___fltol
       ___xxtofl (ARG)
     ___xxtofl
     _pow
       ___fleq
         ___xxtofl (ARG)
       ___flge
       ___flmul
         __Umul8_16
         ___xxtofl (ARG)
         _frexp (ARG)
           ___fleq
             ___xxtofl (ARG)
       ___flneg
       ___fltol
         ___xxtofl (ARG)
       ___xxtofl
       _exp
         ___fldiv
         ___fleq
           ___xxtofl (ARG)
         ___flge
         ___flmul
           __Umul8_16
           ___xxtofl (ARG)
           _frexp (ARG)
             ___fleq
               ___xxtofl (ARG)
         ___flneg
         ___flsub
           ___fladd
             ___flmul (ARG)
               __Umul8_16
               ___xxtofl (ARG)
               _frexp (ARG)
                 ___fleq
                   ___xxtofl (ARG)
             ___xxtofl (ARG)
             _frexp (ARG)
               ___fleq
                 ___xxtofl (ARG)
           ___xxtofl (ARG)
         ___fltol
           ___xxtofl (ARG)
         ___xxtofl
         _eval_poly
           ___fladd
             ___flmul (ARG)
               __Umul8_16
               ___xxtofl (ARG)
               _frexp (ARG)
                 ___fleq
                   ___xxtofl (ARG)
             ___xxtofl (ARG)
             _frexp (ARG)
               ___fleq
                 ___xxtofl (ARG)
           ___flmul
             __Umul8_16
             ___xxtofl (ARG)
             _frexp (ARG)
               ___fleq
                 ___xxtofl (ARG)
         _floor
           ___fladd
             ___flmul (ARG)
               __Umul8_16
               ___xxtofl (ARG)
               _frexp (ARG)
                 ___fleq
                   ___xxtofl (ARG)
             ___xxtofl (ARG)
             _frexp (ARG)
               ___fleq
                 ___xxtofl (ARG)
           ___flge
           ___fltol
             ___xxtofl (ARG)
           ___xxtofl
           _frexp
             ___fleq
               ___xxtofl (ARG)
         _ldexp
           ___fleq
             ___xxtofl (ARG)
           ___flge
           _eval_poly (ARG)
             ___fladd
               ___flmul (ARG)
                 __Umul8_16
                 ___xxtofl (ARG)
                 _frexp (ARG)
                   ___fleq
                     ___xxtofl (ARG)
               ___xxtofl (ARG)
               _frexp (ARG)
                 ___fleq
                   ___xxtofl (ARG)
             ___flmul
               __Umul8_16
               ___xxtofl (ARG)
               _frexp (ARG)
                 ___fleq
                   ___xxtofl (ARG)
         _log (ARG)
           ___fladd
             ___flmul (ARG)
               __Umul8_16
               ___xxtofl (ARG)
               _frexp (ARG)
                 ___fleq
                   ___xxtofl (ARG)
             ___xxtofl (ARG)
             _frexp (ARG)
               ___fleq
                 ___xxtofl (ARG)
           ___fleq
             ___xxtofl (ARG)
           ___flge
           ___flmul
             __Umul8_16
             ___xxtofl (ARG)
             _frexp (ARG)
               ___fleq
                 ___xxtofl (ARG)
           ___xxtofl
           _eval_poly
             ___fladd
               ___flmul (ARG)
                 __Umul8_16
                 ___xxtofl (ARG)
                 _frexp (ARG)
                   ___fleq
                     ___xxtofl (ARG)
               ___xxtofl (ARG)
               _frexp (ARG)
                 ___fleq
                   ___xxtofl (ARG)
             ___flmul
               __Umul8_16
               ___xxtofl (ARG)
               _frexp (ARG)
                 ___fleq
                   ___xxtofl (ARG)
           _frexp
             ___fleq
               ___xxtofl (ARG)
       _log
         ___fladd
           ___flmul (ARG)
             __Umul8_16
             ___xxtofl (ARG)
             _frexp (ARG)
               ___fleq
                 ___xxtofl (ARG)
           ___xxtofl (ARG)
           _frexp (ARG)
             ___fleq
               ___xxtofl (ARG)
         ___fleq
           ___xxtofl (ARG)
         ___flge
         ___flmul
           __Umul8_16
           ___xxtofl (ARG)
           _frexp (ARG)
             ___fleq
               ___xxtofl (ARG)
         ___xxtofl
         _eval_poly
           ___fladd
             ___flmul (ARG)
               __Umul8_16
               ___xxtofl (ARG)
               _frexp (ARG)
                 ___fleq
                   ___xxtofl (ARG)
             ___xxtofl (ARG)
             _frexp (ARG)
               ___fleq
                 ___xxtofl (ARG)
           ___flmul
             __Umul8_16
             ___xxtofl (ARG)
             _frexp (ARG)
               ___fleq
                 ___xxtofl (ARG)
         _frexp
           ___fleq
             ___xxtofl (ARG)
   _jugador_2
     ___fltol
       ___xxtofl (ARG)
     ___xxtofl
     _pow
       ___fleq
         ___xxtofl (ARG)
       ___flge
       ___flmul
         __Umul8_16
         ___xxtofl (ARG)
         _frexp (ARG)
           ___fleq
             ___xxtofl (ARG)
       ___flneg
       ___fltol
         ___xxtofl (ARG)
       ___xxtofl
       _exp
         ___fldiv
         ___fleq
           ___xxtofl (ARG)
         ___flge
         ___flmul
           __Umul8_16
           ___xxtofl (ARG)
           _frexp (ARG)
             ___fleq
               ___xxtofl (ARG)
         ___flneg
         ___flsub
           ___fladd
             ___flmul (ARG)
               __Umul8_16
               ___xxtofl (ARG)
               _frexp (ARG)
                 ___fleq
                   ___xxtofl (ARG)
             ___xxtofl (ARG)
             _frexp (ARG)
               ___fleq
                 ___xxtofl (ARG)
           ___xxtofl (ARG)
         ___fltol
           ___xxtofl (ARG)
         ___xxtofl
         _eval_poly
           ___fladd
             ___flmul (ARG)
               __Umul8_16
               ___xxtofl (ARG)
               _frexp (ARG)
                 ___fleq
                   ___xxtofl (ARG)
             ___xxtofl (ARG)
             _frexp (ARG)
               ___fleq
                 ___xxtofl (ARG)
           ___flmul
             __Umul8_16
             ___xxtofl (ARG)
             _frexp (ARG)
               ___fleq
                 ___xxtofl (ARG)
         _floor
           ___fladd
             ___flmul (ARG)
               __Umul8_16
               ___xxtofl (ARG)
               _frexp (ARG)
                 ___fleq
                   ___xxtofl (ARG)
             ___xxtofl (ARG)
             _frexp (ARG)
               ___fleq
                 ___xxtofl (ARG)
           ___flge
           ___fltol
             ___xxtofl (ARG)
           ___xxtofl
           _frexp
             ___fleq
               ___xxtofl (ARG)
         _ldexp
           ___fleq
             ___xxtofl (ARG)
           ___flge
           _eval_poly (ARG)
             ___fladd
               ___flmul (ARG)
                 __Umul8_16
                 ___xxtofl (ARG)
                 _frexp (ARG)
                   ___fleq
                     ___xxtofl (ARG)
               ___xxtofl (ARG)
               _frexp (ARG)
                 ___fleq
                   ___xxtofl (ARG)
             ___flmul
               __Umul8_16
               ___xxtofl (ARG)
               _frexp (ARG)
                 ___fleq
                   ___xxtofl (ARG)
         _log (ARG)
           ___fladd
             ___flmul (ARG)
               __Umul8_16
               ___xxtofl (ARG)
               _frexp (ARG)
                 ___fleq
                   ___xxtofl (ARG)
             ___xxtofl (ARG)
             _frexp (ARG)
               ___fleq
                 ___xxtofl (ARG)
           ___fleq
             ___xxtofl (ARG)
           ___flge
           ___flmul
             __Umul8_16
             ___xxtofl (ARG)
             _frexp (ARG)
               ___fleq
                 ___xxtofl (ARG)
           ___xxtofl
           _eval_poly
             ___fladd
               ___flmul (ARG)
                 __Umul8_16
                 ___xxtofl (ARG)
                 _frexp (ARG)
                   ___fleq
                     ___xxtofl (ARG)
               ___xxtofl (ARG)
               _frexp (ARG)
                 ___fleq
                   ___xxtofl (ARG)
             ___flmul
               __Umul8_16
               ___xxtofl (ARG)
               _frexp (ARG)
                 ___fleq
                   ___xxtofl (ARG)
           _frexp
             ___fleq
               ___xxtofl (ARG)
       _log
         ___fladd
           ___flmul (ARG)
             __Umul8_16
             ___xxtofl (ARG)
             _frexp (ARG)
               ___fleq
                 ___xxtofl (ARG)
           ___xxtofl (ARG)
           _frexp (ARG)
             ___fleq
               ___xxtofl (ARG)
         ___fleq
           ___xxtofl (ARG)
         ___flge
         ___flmul
           __Umul8_16
           ___xxtofl (ARG)
           _frexp (ARG)
             ___fleq
               ___xxtofl (ARG)
         ___xxtofl
         _eval_poly
           ___fladd
             ___flmul (ARG)
               __Umul8_16
               ___xxtofl (ARG)
               _frexp (ARG)
                 ___fleq
                   ___xxtofl (ARG)
             ___xxtofl (ARG)
             _frexp (ARG)
               ___fleq
                 ___xxtofl (ARG)
           ___flmul
             __Umul8_16
             ___xxtofl (ARG)
             _frexp (ARG)
               ___fleq
                 ___xxtofl (ARG)
         _frexp
           ___fleq
             ___xxtofl (ARG)
   _semaforo
   _setup
   _verde

 Address spaces:
Name               Size   Autos  Total    Cost      Usage
BITCOMMON            E      0       0       0        0.0%
EEDATA             100      0       0       0        0.0%
NULL                 0      0       0       0        0.0%
CODE                 0      0       0       0        0.0%
COMMON               E      E       E       1      100.0%
BITSFR0              0      0       0       1        0.0%
SFR0                 0      0       0       1        0.0%
BITSFR1              0      0       0       2        0.0%
SFR1                 0      0       0       2        0.0%
STACK                0      0       0       2        0.0%
ABS                  0      0      A4       3        0.0%
BITBANK0            50      0       0       4        0.0%
BITSFR3              0      0       0       4        0.0%
SFR3                 0      0       0       4        0.0%
BANK0               50     50      50       5      100.0%
BITSFR2              0      0       0       5        0.0%
SFR2                 0      0       0       5        0.0%
BITBANK1            50      0       0       6        0.0%
BANK1               50     34      46       7       87.5%
BITBANK3            60      0       0       8        0.0%
BANK3               60      0       0       9        0.0%
BITBANK2            60      0       0      10        0.0%
BANK2               60      0       0      11        0.0%
DATA                 0      0      A4      12        0.0%


Microchip Technology PIC Macro Assembler V2.31 build 20201012212115 
Symbol Table                                                                                   Thu Jan 28 23:06:06 2021

           ___fldiv@aexp 002C             ___fldiv@bexp 002B                        _i 00DE  
                      pc 0002             ___fldiv@sign 0024                       l47 0026  
                     l72 13A7                       l81 1355                       l84 131F  
                     l94 1740                       _i2 00D6                       fsr 0004  
    __Umul8_16@word_mpld 0076                      l104 17FF                      l504 03DF  
                    l600 137C                      l360 13F5                      l361 140A  
                    l514 0425                      l372 1332                      l508 0403  
                    l364 1483                      l541 0209                      l525 0485  
                    l517 0463                      l526 0491                      l367 14EF  
                    l383 088A                      l623 152B                      l359 13D9  
                    l368 1508                      l376 089F                      l561 01ED  
                    l529 0823                      l625 15C2                      l386 089F  
                    l563 01FD                      l555 017B                      l539 0083  
                    l483 026D                      l636 158C                      l637 1598  
                    l629 1570                      l717 0BCD                      l653 0DA6  
                    l487 0314                      l591 07E6                      l496 0491  
                    l680 097B                      l648 0C19                      l489 02EB  
                    l585 075E                      l673 0FFF                      l649 0DA6  
                    l579 07F2                      l669 0FFF                      l598 136A  
                    l695 1466                      l687 1681                      l699 0A59  
                    _exp 0DA7                      _log 0A5A                      _pow 0BCE  
                    fsr0 0004                      indf 0000             ___flmul@aexp 0041  
           ___flmul@bexp 0046             ___flmul@sign 0040             ___flmul@temp 004B  
           ___flmul@prod 0047             ___fltol@exp1 002A                     l3001 05EF  
                   l3011 067F                     l3003 05FF                     l2301 0078  
                   l3021 0713                     l3013 068F                     l3005 061C  
                   l3101 1577                     l2311 009B                     l2303 0079  
                   l3031 0738                     l3023 0721                     l3015 06BC  
                   l3007 0635                     l3111 15B0                     l3103 1582  
                   l2401 01F7                     l2321 00B2                     l2305 007B  
                   l3041 075B                     l3025 072A                     l3033 073E  
                   l3017 06E2                     l3009 0652                     l3113 15B5  
                   l3105 1586                     l3121 140B                     l3201 09EB  
                   l2403 01F9                     l2331 00DE                     l2323 00C4  
                   l2307 008B                     l2315 00A4                     l3051 077A  
                   l3035 0742                     l3027 072E                     l3019 070A  
                   l3115 15B9                     l3107 1590                     l3131 1454  
                   l3123 1426                     l3203 09F8                     l2333 00E3  
                   l2341 0103                     l2325 00CC                     l2317 00A9  
                   l2309 0097                     l2253 1328                     l3141 0800  
                   l3061 07C0                     l3053 0793                     l3045 0763  
                   l3037 0743                     l3029 072F                     l3117 15BA  
                   l3109 159A                     l3133 1461                     l3125 142E  
                   l3213 0A22                     l3205 09FE                     l3301 0C24  
                   l2351 0134                     l2343 0115                     l2335 00F5  
                   l2327 00D4                     l2271 0034                     l2255 1330  
                   l3143 0804                     l3071 07DF                     l3063 07CA  
                   l3047 0768                     l3055 0799                     l3039 0747  
                   l3135 1465                     l3151 15DC                     l3207 0A17  
                   l3231 0AAD                     l3223 0A5A                     l3311 0CE1  
                   l3303 0C4D                     l2361 014C                     l2353 013C  
                   l2345 0116                     l2337 00F9                     l2329 00DC  
                   l2281 004B                     l2273 0038                     l2257 1332  
                   l3073 07EA                     l3065 07CC                     l3057 07A6  
                   l3049 0776                     l3081 1513                     l3137 1466  
                   l3129 1437                     l3153 15F5                     l3161 160B  
                   l3217 0A2D                     l3241 0B6A                     l3225 0A75  
                   l3321 0D27                     l3401 17F9                     l1641 0011  
                   l2371 0164                     l2363 0155                     l2355 013E  
                   l2347 012A                     l2339 00FA                     l2291 0061  
                   l2283 004C                     l2275 0039                     l2267 0027  
                   l3067 07DA                     l3059 07B1                     l3091 1541  
                   l3083 1523                     l3171 1677                     l3163 1614  
                   l3147 15C3                     l3219 0A59                     l3251 0DDB  
                   l3235 0ABC                     l3323 0D72                     l3315 0CF0  
                   l3307 0C58                     l3331 1682                     l1651 0020  
                   l1643 0014                     l3411 1391                     l3403 137D  
                   l2381 0193                     l2373 0178                     l2357 0147  
                   l2365 015B                     l2349 012E                     l2293 0065  
                   l2277 003E                     l2285 004E                     l2269 002E  
                   l3069 07DE                     l3181 0963                     l1821 0831  
                   l3093 154E                     l3085 1533                     l3077 150A  
                   l2701 13ED                     l3165 1615                     l3157 1600  
                   l3149 15D6                     l3253 0DF6                     l3245 0DA7  
                   l3237 0B25                     l3229 0A84                     l3325 0D89  
                   l3317 0CF7                     l3309 0C73                     l3341 16A5  
                   l3333 1688                     l1661 1345                     l1653 0023  
                   l1645 0017                     l1637 0003                     l3421 13A5  
                   l3413 1396                     l3405 1382                     l2391 01D1  
                   l2383 0197                     l2367 015F                     l2359 014B  
                   l2295 0066                     l2287 0056                     l2279 0043  
                   l2711 1359                     l3175 08A0                     l1831 0858  
                   l3095 1555                     l3079 150F                     l2703 1407  
                   l3167 1655                     l3191 09B0                     l3271 0EAC  
                   l3263 0E2F                     l3247 0DD0                     l3239 0B2D  
                   l3327 0D8E                     l3319 0D0E                     l3351 170E  
                   l3343 16AD                     l3335 168C                     l1663 1352  
                   l1655 1333                     l1647 001A                     l1639 000D  
                   l3423 13AB                     l3407 1388                     l3415 1399  
                   l2393 01E0                     l2385 01B0                     l2377 0180  
                   l2369 0160                     l2297 006B                     l2289 005B  
                   l2801 028F                     l2713 1360                     l3177 08DD  
                   l1841 0866                     l1833 085A                     l1825 083A  
                   l3097 1559                     l3089 153C                     l2705 1409  
                   l3193 09DA                     l3185 097C                     l3281 0FAB  
                   l3273 0EDF                     l3265 0E51                     l3257 0E05  
                   l3361 172B                     l3353 1712                     l3345 16C6  
                   l3337 1696                     l1657 1336                     l1649 001D  
                   l3425 13AD                     l3417 139D                     l3409 138C  
                   l2395 01E4                     l2379 0185                     l2387 01B6  
                   l2299 0070                     l2811 02A3                     l2803 0293  
                   l2715 1364                     l3179 095B                     l2731 14A3  
                   l2723 1467                     l1851 088F                     l1835 085E  
                   l1843 0878                     l1827 084F                     l1819 0824  
                   l3099 1567                     l3195 09DE                     l3187 09A5  
                   l3283 0FD2                     l3275 0F06                     l3267 0E56  
                   l3259 0E20                     l3291 0BCE                     l3363 172D  
                   l3355 1719                     l3347 16E5                     l3339 1698  
                   l3371 174B                     l1659 1342                     l1667 131A  
                   l3419 13A1                     l2397 01EC                     l2389 01C3  
                   l2901 0418                     l2813 02A7                     l2805 0297  
                   l2821 02B7                     l2717 1373                     l2709 1357  
                   l2733 14C7                     l2725 147B                     l1853 0894  
                   l1829 0850                     l3277 0F54                     l3269 0E6D  
                   l3293 0BD1                     l3365 173A                     l3349 1704  
                   l3357 171C                     l3381 1785                     l3373 1755  
                   l2399 01F3                     l2911 042F                     l2903 041C  
                   l2831 02FA                     l2823 02B8                     l2815 02AB  
                   l2807 029B                     l2751 021C                     l2743 020A  
                   l2719 1378                     l2735 14CB                     l2727 1497  
                   l3287 0FDD                     l3279 0FA6                     l3295 0BF8  
                   l3359 1721                     l3391 17D8                     l3383 17A4  
                   l3375 1757                     l3367 1741                     l2921 046D  
                   l2913 043D                     l2905 0422                     l2841 0318  
                   l2833 02FE                     l2825 02CF                     l2817 02AF  
                   l2809 029F                     l2753 0221                     l2761 0231  
                   l2745 0211                     l2737 1505                     l2729 149F  
                   l1849 087F                     l3297 0C13                     l3385 17C3  
                   l3393 17DB                     l3377 1764                     l3369 1747  
                   l2931 0481                     l2923 0475                     l2915 0441  
                   l2851 0341                     l2843 031D                     l2835 02FF  
                   l2827 02EF                     l2819 02B3                     l2771 024B  
                   l2763 0239                     l2755 0226                     l2747 0217  
                   l2739 1507                     l3387 17CD                     l3379 176C  
                   l3395 17E0                     l2933 048C                     l2925 047A  
                   l2917 045F                     l2909 042A                     l2861 0355  
                   l2853 0345                     l2837 0308                     l2829 02F8  
                   l2781 0262                     l2773 024F                     l2765 023E  
                   l2757 022E                     l2749 021B                     l2941 049F  
                   l3397 17EA                     l3389 17D1                     l2935 0490  
                   l2927 047B                     l2919 0468                     l2871 03BD  
                   l2863 035E                     l2855 034E                     l2847 0326  
                   l2839 030C                     l2791 027B                     l2783 0263  
                   l2775 0250                     l2767 0244                     l2759 022F  
                   l2951 04B6                     l2943 04A3                     l3399 17EC  
                   l2929 047F                     l2873 03C2                     l2857 0350  
                   l2849 033D                     l2865 0363                     l2793 027F  
                   l2777 0255                     l2785 0265                     l2769 0245  
                   l2961 04CF                     l2953 04B8                     l2945 04A4  
                   l2937 0492                     l2697 13BB                     l2891 040A  
                   l2883 03F5                     l2867 0379                     l2875 03D1  
                   l2859 0354                     l2795 0283                     l2787 0273  
                   l2779 025A                     l2971 04E4                     l2963 04D0  
                   l2955 04C0                     l2947 04A9                     l2939 0499  
                   l2699 13D1                     l2893 040C                     l2885 03FE  
                   l2877 03E7                     l2869 03B7                     l2797 0287  
                   l2789 0277                     l2981 04FF                     l2973 04EC  
                   l2965 04D5                     l2957 04C5                     l2949 04AE  
                   l2895 0411                     l2887 0402                     l2879 03EC  
                   l2799 028B                     l2991 0581                     l2983 050F  
                   l2975 04F1                     l2967 04DA                     l2959 04CB  
                   l2889 0407                     l2897 0413                     l2993 059D  
                   l2985 051C                     l2977 04F6                     l2969 04E2  
                   l2899 0417                     l2995 05B9                     l2987 0539  
                   ?_exp 00AA                     l2997 05C2                     l2989 0555  
                   ?_log 00A4                     l2999 05D2                     ?_pow 00B6  
                   u2110 0831                     u2111 0830                     u2200 0894  
                   u2120 0848                     u2201 0893                     u2130 085E  
                   u2131 085D                     u2140 0865                     u2141 0864  
                   u2125 0843                     u3200 0038                     u4000 1378  
                   u2160 0877                     u3201 0037                     u4001 1377  
                   u2161 0876                     u3210 003E                     u4010 147B  
                   u2170 087E                     u3211 003D                     u4011 147A  
                   u2171 087D                     u2155 0867                     u3220 0043  
                   u4100 0226                     u4020 1497                     u3221 0042  
                   u4101 0225                     u4021 1496                     u3310 00F9  
                   u3230 0065                     u4110 0244                     u4030 14A3  
                   u2190 088F                     u3311 00F8                     u3231 0064  
                   u4111 0243                     u4031 14A2                     u2191 088E  
                   u3400 015F                     u3240 006B                     u4200 02EF  
                   u4120 024F                     u5000 158C                     u3401 015E  
                   u3305 00EE                     u3241 006A                     u4201 02EE  
                   u4121 024E                     u4041 14B2                     u2185 0881  
                   u5001 158B                     u3410 0164                     u3330 0115  
                   u3250 0070                     u4210 02FE                     u4130 0255  
                   u4050 14CB                     u4042 14B3                     u5010 1590  
                   u3411 0163                     u3331 0114                     u3251 006F  
                   u4211 02FD                     u4131 0254                     u4051 14CA  
                   u4043 14B8                     u5011 158F                     u3420 0178  
                   u3340 012A                     u3260 008B                     u4140 025A  
                   u4044 14B9                     u5020 15A5                     u3421 0177  
                   u3325 00FC                     u3261 008A                     u4141 0259  
                   u4061 14DA                     u4045 14BE                     u3430 017F  
                   u3350 0134                     u3270 00A9                     u3190 1330  
                   u4310 0379                     u4230 0314                     u4150 0273  
                   u4070 1505                     u4062 14DB                     u4046 14BF  
                   u5030 15B5                     u3431 017E                     u3351 0133  
                   u3335 0111                     u3271 00A8                     u3191 132F  
                   u4311 0378                     u4231 0313                     u4151 0272  
                   u4071 1504                     u4063 14E0                     u5031 15B4  
                   u3440 0185                     u3360 013C                     u3280 00E3  
                   u4400 0411                     u4240 0318                     u4160 0277  
                   u4080 021B                     u5120 0963                     u4064 14E1  
                   u5040 15B9                     u5200 0DF6                     u3441 0184  
                   u3361 013B                     u3345 011D                     u3281 00E2  
                   u4401 0410                     u4321 0390                     u4313 0375  
                   u4305 0357                     u4241 0317                     u4225 0301  
                   u4161 0276                     u4081 021A                     u5121 0962  
                   u5105 08A5                     u4065 14E6                     u5041 15B8  
                   u5025 15A0                     u5201 0DF5                     u3450 0197  
                   u3346 011E                     u4410 0417                     u4330 03A4  
                   u4322 0391                     u4250 031D                     u4170 02CF  
                   u4090 0221                     u4066 14E7                     u5050 1426  
                   u5130 09A5                     u5210 0E20                     u3451 0196  
                   u3347 0123                     u4411 0416                     u4331 03A5  
                   u4323 0396                     u4251 031C                     u4171 02CE  
                   u4091 0220                     u5115 08E6                     u4075 1501  
                   u5051 1425                     u5131 09A4                     u5211 0E1F  
                   u3460 01A6                     u3380 014B                     u3348 0124  
                   u4500 046D                     u4420 041C                     u4340 03C2  
                   u4332 03AA                     u4324 0397                     u4180 02DA  
                   u5060 15DC                     u5140 09DE                     u5220 0E4B  
                   u5300 0C73                     u3381 014A                     u3349 0129  
                   u4501 046C                     u4421 041B                     u4341 03C1  
                   u4333 03AB                     u4325 039C                     u4261 032F  
                   u4181 02D8                     u5061 15DB                     u5141 09DD  
                   u5221 0E49                     u5301 0C72                     u3470 01C3  
                   u4510 047A                     u4430 0422                     u4350 03E7  
                   u4326 039D                     u4270 0341                     u4262 0336  
                   u4190 02DB                     u5070 15F5                     u5150 09F8  
                   u5230 0E4C                     u5310 0CE1                     u3471 01C2  
                   u3375 0140                     u3295 00E5                     u4511 0479  
                   u4431 0421                     u4351 03E6                     u4271 0340  
                   u4263 033D                     u4175 02CB                     u5071 15F4  
                   u5151 09F7                     u5311 0CE0                     u3480 01E0  
                   u4520 047F                     u4440 0429                     u4360 03EC  
                   u4280 0345                     u4600 04F1                     u5080 1614  
                   u5160 0A17                     u5240 0E56                     u5320 0D8E  
                   u5400 174B                     u3481 01DF                     u3465 01A1  
                   u4521 047E                     u4441 0428                     u4361 03EB  
                   u4281 0344                     u4601 04F0                     u5081 1613  
                   u5161 0A16                     u5241 0E55                     u5321 0D8D  
                   u5401 174A                     u3490 01F7                     u4530 0490  
                   u4450 042F                     u4290 0354                     u4610 04F6  
                   u5090 1655                     u5250 0FAB                     u5170 0A75  
                   u5330 1688                     u5410 1764                     u3491 01F6  
                   u3475 01BF                     u3395 014E                     u4531 048F  
                   u4451 042E                     u4291 0353                     u4611 04F5  
                   u5091 1654                     u5155 09F4                     u5251 0FAA  
                   u5171 0A74                     u5331 1687                     u5411 1763  
                   u4460 0441                     u4380 0402                     u4540 04A3  
                   u5260 0FD2                     u5180 0AAD                     u5340 168C  
                   u5420 176C                     u5500 13AB                     u3485 01DC  
                   u4461 0440                     u4381 0401                     u4701 0644  
                   u4621 0547                     u4541 04A2                     u5261 0FD1  
                   u5181 0AAC                     u5341 168B                     u5421 176B  
                   u5501 13AA                     u4470 0450                     u4390 0407  
                   u4702 064B                     u4622 054E                     u4550 04A9  
                   u5190 0DD0                     u5270 0BF8                     u5350 16A5  
                   u5430 17D8                     u4391 0406                     u4375 03F7  
                   u4711 0671                     u4703 0652                     u4631 0563  
                   u4623 0555                     u4551 04A8                     u5191 0DCF  
                   u5271 0BF7                     u5351 16A4                     u5431 17D7  
                   u5415 1760                     u4480 045F                     u4712 0678  
                   u4632 056A                     u4560 04AE                     u5280 0C13  
                   u5360 16AD                     u5440 17F9                     u4481 045E  
                   u4721 069E                     u4713 067F                     u4641 058F  
                   u4633 0571                     u4561 04AD                     u5281 0C12  
                   u5361 16AC                     u5441 17F8                     u4490 0468  
                   u4810 0742                     u4730 06C8                     u4722 06A5  
                   u4642 0596                     u4570 04CF                     u5290 0C4D  
                   u5370 1719                     u5450 1388                     u4491 0467  
                   u4475 044B                     u4811 0741                     u4723 06AC  
                   u4651 05AB                     u4643 059D                     u4571 04CE  
                   u5291 0C4C                     u5371 1718                     u5355 16A1  
                   u5451 1387                     u4900 07DE                     u4820 0747  
                   u4652 05B2                     u4580 04D5                     u5380 173A  
                   u5460 138C                     u4901 07DD                     u4821 0746  
                   u4805 0731                     u4741 06D4                     u4653 05B9  
                   u4581 04D4                     u5381 1739                     u5445 17F5  
                   u5517 133C                     u5461 138B                     u4830 075B  
                   u4750 06F0                     u4742 06DB                     u4590 04DA  
                   u4910 150F                     u3950 13D1                     u5390 1747  
                   u5470 139D                     u4831 075A                     u4743 06E2  
                   u4735 06C3                     u4671 05E1                     u4591 04D9  
                   u4911 150E                     u3951 13D0                     u5391 1746  
                   u5527 134C                     u5471 139C                     u4840 0762  
                   u4672 05E8                     u4920 1513                     u3960 13ED  
                   u5480 13A1                     u4841 0761                     u4761 06FC  
                   u4681 060E                     u4673 05EF                     u4665 05BB  
                   u4921 1512                     u3961 13EC                     u5385 1736  
                   u5481 13A0                     u4850 0768                     u4762 0703  
                   u4682 0615                     u4930 1533                     u3970 1407  
                   u5490 13A5                     u4851 0767                     u4763 070A  
                   u4755 06EB                     u4683 061C                     u4931 1532  
                   u3971 1406                     u5491 13A4                     u3980 1364  
                   u4860 077A                     u3981 1363                     u4861 0779  
                   u4870 0789                     u4790 072E                     u4950 1554  
                   u4791 072D                     u4775 070C                     u4695 061E  
                   u4951 1553                     u3975 1403                     u4880 07A6  
                   u4881 07A5                     u4785 0723                     u4945 1546  
                   u4890 07C0                     u4970 1576                     u3995 136B  
                   u4891 07BF                     u4875 0784                     u4971 1575  
                   u4885 07A2                     u4965 1568                     u4990 1586  
                   u4895 07BC                     u4991 1585                     u4985 157B  
                   _main 137D                     btemp 007E                     exp@x 00AA  
                   log@x 00A4                     pow@x 00B6                     pow@y 00BA  
                   start 0000          ___fldiv@new_exp 0025                    ??_exp 00AE  
                  ??_log 006D                    ??_pow 00BE            ___fltol@sign1 0029  
        __end_of___fladd 0492                    ?_main 0070          __end_of___fldiv 020A  
        __end_of___flneg 1333          __end_of___flmul 07F3          __end_of___flsub 0824  
        __end_of___fltol 08A0                    _ANSEL 0188                    _PORTA 0005  
                  _PORTB 0006                    _PORTC 0007                    _PORTD 0008  
                  _PORTE 0009                    _TRISA 0085                    _TRISB 0086  
                  _TRISC 0087                    _TRISD 0088                    _TRISE 0089  
                  _floor 15C3                    _ldexp 097C                    _frexp 140B  
                  _errno 00D4                    _verde 131A                    _setup 0003  
                  pclath 000A                    pow@yi 00C8                    status 0003  
                  wtemp0 007E              exp@exponent 00B3              ldexp@newexp 00A8  
        __initialization 07F3              log@exponent 006E             __end_of_main 13BB  
                 ??_main 007E                   ?_floor 0061                   ?_ldexp 00A4  
                 ?_frexp 002C                   ?_verde 0070                   ?_setup 0070  
                 _ANSELH 0189         __end_of___xxtofl 15C3                   ___flge 1467  
                 ___fleq 13BB                ??___fladd 0055                ??___fldiv 0078  
              ??___flneg 0074                ??___flmul 003B                ??___flsub 007E  
              ??___fltol 0024                   floor@i 0066                   floor@x 0061  
       __end_of_semaforo 1356       __size_of__Umul8_16 0027               ___flge@ff1 0070  
             ___flge@ff2 0074             ___xxtofl@arg 007A         __end_ofexp@coeff 102E  
           ___xxtofl@exp 0079             ___xxtofl@val 0070               ___fleq@ff1 0020  
             ___fleq@ff2 0024         __end_oflog@coeff 1052  __end_of__initialization 07FC  
             ___flneg@f1 0070             eval_poly@res 00A0               ___fltol@f1 0020  
         __pcstackCOMMON 0070            __end_of_floor 1682            __end_of_ldexp 0A5A  
          __end_of_frexp 1467            __end_of_verde 1320            __end_of_setup 0027  
                ??_floor 0065                  ??_ldexp 006D                  ??_frexp 0031  
                ??_verde 0070                  ??_setup 0070               __pbssBANK1 00D4  
     __size_of_eval_poly 00DC        __end_of__Umul8_16 137D       __size_of_jugador_1 00BF  
     __size_of_jugador_2 00BF               __pmaintext 137D                  ?___flge 0070  
                ?___fleq 0020                ?___xxtofl 0070               __stringtab 1000  
              ?_semaforo 0070          __size_of___flge 00A2          __size_of___fleq 0050  
                ___fladd 020A                  ___fldiv 0027                  ___flneg 1328  
                ___flmul 0492                  ___flsub 0800                  ___fltol 0824  
                _exp$859 00AF        __end_of_eval_poly 097C                  __ptext1 131A  
                __ptext2 0003                  __ptext3 1333                  __ptext4 1741  
                __ptext5 1682                  __ptext6 0BCE                  __ptext7 0A5A  
                __ptext8 0DA7                  __ptext9 097C            _jugador_1$853 00CC  
          _jugador_1$854 00D0                  _pow$857 00BF                  _pow$858 00C3  
          _jugador_2$855 00CC            _jugador_2$856 00D0             __size_of_exp 0259  
           __size_of_log 0174             __size_of_pow 01D9               ??___xxtofl 0074  
      __end_of_jugador_1 1741        __end_of_jugador_2 1800                  clrloop0 1321  
   end_of_initialization 07FC                  exp@sign 00B5               ??_semaforo 0070  
                pow@sign 00C7                _PORTAbits 0005                _PORTBbits 0006  
              _PORTEbits 0009               _presionado 00E0               _pressed_ok 00E4  
            ___fladd@grs 0060            ___xxtofl@sign 0078              ___fldiv@grs 0027  
            ___fldiv@rem 0020              ___flmul@grs 0042           __end_of___flge 1509  
         __end_of___fleq 140B               floor@expon 006A      start_initialization 07F3  
             eval_poly@d 0065               eval_poly@n 0066               eval_poly@x 0061  
             ldexp@value 00A4              __end_of_exp 1000              __end_of_log 0BCE  
            __end_of_pow 0DA7               frexp@value 002C                 ??___flge 0078  
               ??___fleq 0028                __Umul8_16 1356                ___fladd@a 0051  
              ___fladd@b 004D                ___fldiv@a 0070                ___fldiv@b 0074  
              ___flmul@a 0037                ___flmul@b 0033                ___flsub@a 0061  
              ___flsub@b 0065                ___latbits 0002            __pcstackBANK0 0020  
          __pcstackBANK1 00A0        __size_of___xxtofl 00BA                 ?___fladd 004D  
      __size_of_semaforo 0023                 ?___fldiv 0070                 ?___flneg 0070  
               ?___flmul 0033                 ?___flsub 0061                 ?___fltol 0020  
             ?__Umul8_16 0070                __pstrings 1000                _eval_poly 08A0  
         __size_of_floor 00BF           __size_of_ldexp 00DE           __size_of_frexp 005C  
         __size_of_verde 0006           __size_of_setup 0024                _jugador_1 1682  
              _jugador_2 1741                clear_ram0 1320              __stringbase 1005  
             ?_eval_poly 0061             _released_ok2 00DA               ?_jugador_1 0070  
             ?_jugador_2 0070                frexp@eptr 0030              ??__Umul8_16 0072  
       __size_of___fladd 0288         __size_of___fldiv 01E3         __size_of___flneg 000B  
       __size_of___flmul 0361         __size_of___flsub 0024         __size_of___fltol 007C  
     __end_of__stringtab 1006                 ___xxtofl 1509                 __ptext10 15C3  
               __ptext11 140B                 __ptext20 020A                 __ptext12 13BB  
               __ptext21 1328                 __ptext13 1509                 __ptext22 0027  
               __ptext14 0824                 __ptext15 1467                 __ptext16 08A0  
               __ptext17 0492                 __ptext18 1356                 __ptext19 0800  
          __size_of_main 003E                 _semaforo 1333                 exp@coeff 1006  
            _released_ok 00E2                 log@coeff 102E              ??_eval_poly 0068  
            ??_jugador_1 007E              ??_jugador_2 007E                stringcode 1000  
 __Umul8_16@multiplicand 0070                 stringdir 1000                 stringtab 1000  
            _presionado2 00D8            ___fladd@signs 005D              _pressed_ok2 00DC  
           ___fladd@aexp 005E             ___fladd@bexp 005F     __Umul8_16@multiplier 0078  
      __Umul8_16@product 0074  
