

Microchip MPLAB XC8 Assembler V2.31 build 20201012212115 
                                                                                               Thu Jan 28 00:56:11 2021

Microchip MPLAB XC8 C Compiler v2.31 (Free license) build 20201012212115 Og1 
     1                           	processor	16F887
     2                           	pagewidth 120
     3                           	opt	flic
     4                           	psect	strings,global,class=STRING,delta=2,noexec
     5                           	psect	cinit,global,class=CODE,merge=1,delta=2
     6                           	psect	bssBANK0,global,class=BANK0,space=1,delta=1,noexec
     7                           	psect	bssBANK1,global,class=BANK1,space=1,delta=1,noexec
     8                           	psect	cstackBANK1,global,class=BANK1,space=1,delta=1,noexec
     9                           	psect	cstackCOMMON,global,class=COMMON,space=1,delta=1,noexec
    10                           	psect	cstackBANK0,global,class=BANK0,space=1,delta=1,noexec
    11                           	psect	maintext,global,class=CODE,split=1,delta=2
    12                           	psect	text1,local,class=CODE,merge=1,delta=2
    13                           	psect	text2,local,class=CODE,merge=1,delta=2
    14                           	psect	text3,local,class=CODE,merge=1,delta=2
    15                           	psect	text4,local,class=CODE,merge=1,delta=2
    16                           	psect	text5,local,class=CODE,merge=1,delta=2
    17                           	psect	text6,local,class=CODE,merge=1,delta=2,group=2
    18                           	psect	text7,local,class=CODE,merge=1,delta=2,group=2
    19                           	psect	text8,local,class=CODE,merge=1,delta=2,group=2
    20                           	psect	text9,local,class=CODE,merge=1,delta=2,group=2
    21                           	psect	text10,local,class=CODE,merge=1,delta=2,group=2
    22                           	psect	text11,local,class=CODE,merge=1,delta=2,group=2
    23                           	psect	text12,local,class=CODE,merge=1,delta=2,group=1
    24                           	psect	text13,local,class=CODE,merge=1,delta=2,group=1
    25                           	psect	text14,local,class=CODE,merge=1,delta=2,group=1
    26                           	psect	text15,local,class=CODE,merge=1,delta=2,group=1
    27                           	psect	text16,local,class=CODE,merge=1,delta=2,group=2
    28                           	psect	text17,local,class=CODE,merge=1,delta=2,group=1
    29                           	psect	text18,local,class=CODE,merge=1,delta=2,group=1
    30                           	psect	text19,local,class=CODE,merge=1,delta=2,group=1
    31                           	psect	text20,local,class=CODE,merge=1,delta=2,group=1
    32                           	psect	text21,local,class=CODE,merge=1,delta=2,group=1
    33                           	psect	text22,local,class=CODE,merge=1,delta=2,group=1
    34                           	psect	config,global,abs,ovrld,class=CONFIG,space=4,delta=2,noexec
    35                           	dabs	1,0x7E,2
    36  0000                     
    37                           ; Version 2.20
    38                           ; Generated 12/02/2020 GMT
    39                           ; 
    40                           ; Copyright © 2020, Microchip Technology Inc. and its subsidiaries ("Microchip")
    41                           ; All rights reserved.
    42                           ; 
    43                           ; This software is developed by Microchip Technology Inc. and its subsidiaries ("Microch
      +                          ip").
    44                           ; 
    45                           ; Redistribution and use in source and binary forms, with or without modification, are
    46                           ; permitted provided that the following conditions are met:
    47                           ; 
    48                           ;     1. Redistributions of source code must retain the above copyright notice, this lis
      +                          t of
    49                           ;        conditions and the following disclaimer.
    50                           ; 
    51                           ;     2. Redistributions in binary form must reproduce the above copyright notice, this 
      +                          list
    52                           ;        of conditions and the following disclaimer in the documentation and/or other
    53                           ;        materials provided with the distribution.
    54                           ; 
    55                           ;     3. Microchip's name may not be used to endorse or promote products derived from th
      +                          is
    56                           ;        software without specific prior written permission.
    57                           ; 
    58                           ; THIS SOFTWARE IS PROVIDED BY MICROCHIP "AS IS" AND ANY EXPRESS OR IMPLIED WARRANTIES,
    59                           ; INCLUDING, BUT NOT LIMITED TO, THE IMPLIED WARRANTIES OF MERCHANTABILITY AND FITNESS F
      +                          OR
    60                           ; PURPOSE ARE DISCLAIMED.  IN NO EVENT SHALL MICROCHIP BE LIABLE FOR ANY DIRECT, INDIREC
      +                          T,
    61                           ; INCIDENTAL, SPECIAL, EXEMPLARY, OR CONSEQUENTIAL DAMAGES (INCLUDING BUT NOT LIMITED TO
    62                           ; PROCUREMENT OF SUBSTITUTE GOODS OR SERVICES; LOSS OF USE, DATA OR PROFITS; OR BUSINESS
    63                           ; INTERRUPTION) HOWSOEVER CAUSED AND ON ANY THEORY OF LIABILITY, WHETHER IN CONTRACT, ST
      +                          RICT
    64                           ; LIABILITY, OR TORT (INCLUDING NEGLIGENCE OR OTHERWISE) ARISING IN ANY WAY OUT OF THE U
      +                          SE OF
    65                           ; THIS SOFTWARE, EVEN IF ADVISED OF THE POSSIBILITY OF SUCH DAMAGE.
    66                           ; 
    67                           ; 
    68                           ; Code-generator required, PIC16F887 Definitions
    69                           ; 
    70                           ; SFR Addresses
    71  0000                     	;# 
    72  0001                     	;# 
    73  0002                     	;# 
    74  0003                     	;# 
    75  0004                     	;# 
    76  0005                     	;# 
    77  0006                     	;# 
    78  0007                     	;# 
    79  0008                     	;# 
    80  0009                     	;# 
    81  000A                     	;# 
    82  000B                     	;# 
    83  000C                     	;# 
    84  000D                     	;# 
    85  000E                     	;# 
    86  000E                     	;# 
    87  000F                     	;# 
    88  0010                     	;# 
    89  0011                     	;# 
    90  0012                     	;# 
    91  0013                     	;# 
    92  0014                     	;# 
    93  0015                     	;# 
    94  0015                     	;# 
    95  0016                     	;# 
    96  0017                     	;# 
    97  0018                     	;# 
    98  0019                     	;# 
    99  001A                     	;# 
   100  001B                     	;# 
   101  001B                     	;# 
   102  001C                     	;# 
   103  001D                     	;# 
   104  001E                     	;# 
   105  001F                     	;# 
   106  0081                     	;# 
   107  0085                     	;# 
   108  0086                     	;# 
   109  0087                     	;# 
   110  0088                     	;# 
   111  0089                     	;# 
   112  008C                     	;# 
   113  008D                     	;# 
   114  008E                     	;# 
   115  008F                     	;# 
   116  0090                     	;# 
   117  0091                     	;# 
   118  0092                     	;# 
   119  0093                     	;# 
   120  0093                     	;# 
   121  0093                     	;# 
   122  0094                     	;# 
   123  0095                     	;# 
   124  0096                     	;# 
   125  0097                     	;# 
   126  0098                     	;# 
   127  0099                     	;# 
   128  009A                     	;# 
   129  009B                     	;# 
   130  009C                     	;# 
   131  009D                     	;# 
   132  009E                     	;# 
   133  009F                     	;# 
   134  0105                     	;# 
   135  0107                     	;# 
   136  0108                     	;# 
   137  0109                     	;# 
   138  010C                     	;# 
   139  010C                     	;# 
   140  010D                     	;# 
   141  010E                     	;# 
   142  010F                     	;# 
   143  0185                     	;# 
   144  0187                     	;# 
   145  0188                     	;# 
   146  0189                     	;# 
   147  018C                     	;# 
   148  018D                     	;# 
   149  0000                     	;# 
   150  0001                     	;# 
   151  0002                     	;# 
   152  0003                     	;# 
   153  0004                     	;# 
   154  0005                     	;# 
   155  0006                     	;# 
   156  0007                     	;# 
   157  0008                     	;# 
   158  0009                     	;# 
   159  000A                     	;# 
   160  000B                     	;# 
   161  000C                     	;# 
   162  000D                     	;# 
   163  000E                     	;# 
   164  000E                     	;# 
   165  000F                     	;# 
   166  0010                     	;# 
   167  0011                     	;# 
   168  0012                     	;# 
   169  0013                     	;# 
   170  0014                     	;# 
   171  0015                     	;# 
   172  0015                     	;# 
   173  0016                     	;# 
   174  0017                     	;# 
   175  0018                     	;# 
   176  0019                     	;# 
   177  001A                     	;# 
   178  001B                     	;# 
   179  001B                     	;# 
   180  001C                     	;# 
   181  001D                     	;# 
   182  001E                     	;# 
   183  001F                     	;# 
   184  0081                     	;# 
   185  0085                     	;# 
   186  0086                     	;# 
   187  0087                     	;# 
   188  0088                     	;# 
   189  0089                     	;# 
   190  008C                     	;# 
   191  008D                     	;# 
   192  008E                     	;# 
   193  008F                     	;# 
   194  0090                     	;# 
   195  0091                     	;# 
   196  0092                     	;# 
   197  0093                     	;# 
   198  0093                     	;# 
   199  0093                     	;# 
   200  0094                     	;# 
   201  0095                     	;# 
   202  0096                     	;# 
   203  0097                     	;# 
   204  0098                     	;# 
   205  0099                     	;# 
   206  009A                     	;# 
   207  009B                     	;# 
   208  009C                     	;# 
   209  009D                     	;# 
   210  009E                     	;# 
   211  009F                     	;# 
   212  0105                     	;# 
   213  0107                     	;# 
   214  0108                     	;# 
   215  0109                     	;# 
   216  010C                     	;# 
   217  010C                     	;# 
   218  010D                     	;# 
   219  010E                     	;# 
   220  010F                     	;# 
   221  0185                     	;# 
   222  0187                     	;# 
   223  0188                     	;# 
   224  0189                     	;# 
   225  018C                     	;# 
   226  018D                     	;# 
   227                           
   228                           	psect	strings
   229  1000                     __pstrings:
   230  1000                     stringtab:
   231  1000                     __stringtab:
   232  1000                     stringcode:	
   233                           ;	String table - string pointers are 1 byte each
   234                           
   235  1000                     stringdir:
   236  1000  3010               	movlw	high stringdir
   237  1001  008A               	movwf	10
   238  1002  0804               	movf	4,w
   239  1003  0A84               	incf	4,f
   240  1004  0782               	addwf	2,f
   241  1005                     __stringbase:
   242  1005  3400               	retlw	0
   243  1006                     __end_of__stringtab:
   244  1006                     exp@coeff:
   245  1006  3400               	retlw	0
   246  1007  3400               	retlw	0
   247  1008  3480               	retlw	128
   248  1009  343F               	retlw	63
   249  100A  3418               	retlw	24
   250  100B  3472               	retlw	114
   251  100C  3431               	retlw	49
   252  100D  343F               	retlw	63
   253  100E  34F0               	retlw	240
   254  100F  34FD               	retlw	253
   255  1010  3475               	retlw	117
   256  1011  343E               	retlw	62
   257  1012  3447               	retlw	71
   258  1013  3458               	retlw	88
   259  1014  3463               	retlw	99
   260  1015  343D               	retlw	61
   261  1016  3458               	retlw	88
   262  1017  3495               	retlw	149
   263  1018  341D               	retlw	29
   264  1019  343C               	retlw	60
   265  101A  3482               	retlw	130
   266  101B  34C4               	retlw	196
   267  101C  34AE               	retlw	174
   268  101D  343A               	retlw	58
   269  101E  34A8               	retlw	168
   270  101F  3478               	retlw	120
   271  1020  3421               	retlw	33
   272  1021  3439               	retlw	57
   273  1022  34EF               	retlw	239
   274  1023  3493               	retlw	147
   275  1024  3480               	retlw	128
   276  1025  3437               	retlw	55
   277  1026  34A0               	retlw	160
   278  1027  3492               	retlw	146
   279  1028  34A7               	retlw	167
   280  1029  3435               	retlw	53
   281  102A  3446               	retlw	70
   282  102B  3456               	retlw	86
   283  102C  3415               	retlw	21
   284  102D  3434               	retlw	52
   285  102E                     __end_ofexp@coeff:
   286  102E                     log@coeff:
   287  102E  3400               	retlw	0
   288  102F  3400               	retlw	0
   289  1030  3400               	retlw	0
   290  1031  3400               	retlw	0
   291  1032  34C4               	retlw	196
   292  1033  34FF               	retlw	255
   293  1034  347F               	retlw	127
   294  1035  343F               	retlw	63
   295  1036  3480               	retlw	128
   296  1037  34EF               	retlw	239
   297  1038  34FF               	retlw	255
   298  1039  34BE               	retlw	190
   299  103A  3490               	retlw	144
   300  103B  34E1               	retlw	225
   301  103C  34A9               	retlw	169
   302  103D  343E               	retlw	62
   303  103E  34EC               	retlw	236
   304  103F  3482               	retlw	130
   305  1040  3476               	retlw	118
   306  1041  34BE               	retlw	190
   307  1042  3482               	retlw	130
   308  1043  34AD               	retlw	173
   309  1044  342B               	retlw	43
   310  1045  343E               	retlw	62
   311  1046  340E               	retlw	14
   312  1047  343C               	retlw	60
   313  1048  34C3               	retlw	195
   314  1049  34BD               	retlw	189
   315  104A  3487               	retlw	135
   316  104B  34D1               	retlw	209
   317  104C  3413               	retlw	19
   318  104D  343D               	retlw	61
   319  104E  3441               	retlw	65
   320  104F  3478               	retlw	120
   321  1050  34D3               	retlw	211
   322  1051  34BB               	retlw	187
   323  1052                     __end_oflog@coeff:
   324  0009                     _PORTEbits	set	9
   325  0005                     _PORTAbits	set	5
   326  0006                     _PORTBbits	set	6
   327  0005                     _PORTA	set	5
   328  0008                     _PORTD	set	8
   329  0007                     _PORTC	set	7
   330  0006                     _PORTB	set	6
   331  0009                     _PORTE	set	9
   332  0085                     _TRISA	set	133
   333  0088                     _TRISD	set	136
   334  0087                     _TRISC	set	135
   335  0086                     _TRISB	set	134
   336  0089                     _TRISE	set	137
   337  0189                     _ANSELH	set	393
   338  0188                     _ANSEL	set	392
   339                           
   340                           	psect	cinit
   341  07F5                     start_initialization:	
   342                           ; #config settings
   343                           
   344  07F5                     __initialization:
   345                           
   346                           ; Clear objects allocated to BANK0
   347  07F5  1283               	bcf	3,5	;RP0=0, select bank0
   348  07F6  1303               	bcf	3,6	;RP1=0, select bank0
   349  07F7  01EF               	clrf	__pbssBANK0& (0+127)
   350                           
   351                           ; Clear objects allocated to BANK1
   352  07F8  1683               	bsf	3,5	;RP0=1, select bank1
   353  07F9  1303               	bcf	3,6	;RP1=0, select bank1
   354  07FA  01D6               	clrf	__pbssBANK1& (0+127)
   355  07FB  01D7               	clrf	(__pbssBANK1+1)& (0+127)
   356  07FC                     end_of_initialization:	
   357                           ;End of C runtime variable initialization code
   358                           
   359  07FC                     __end_of__initialization:
   360  07FC  0183               	clrf	3
   361  07FD  160A  118A  2CB4   	ljmp	_main	;jump to C main() function
   362                           
   363                           	psect	bssBANK0
   364  006F                     __pbssBANK0:
   365  006F                     _counter:
   366  006F                     	ds	1
   367                           
   368                           	psect	bssBANK1
   369  00D6                     __pbssBANK1:
   370  00D6                     _errno:
   371  00D6                     	ds	2
   372                           
   373                           	psect	cstackBANK1
   374  00A0                     __pcstackBANK1:
   375  00A0                     eval_poly@res:
   376                           
   377                           ; 4 bytes @ 0x0
   378  00A0                     	ds	4
   379  00A4                     ?_log:
   380  00A4                     ?_ldexp:	
   381                           ; 4 bytes @ 0x4
   382                           
   383  00A4                     ldexp@value:	
   384                           ; 4 bytes @ 0x4
   385                           
   386  00A4                     log@x:	
   387                           ; 4 bytes @ 0x4
   388                           
   389                           
   390                           ; 4 bytes @ 0x4
   391  00A4                     	ds	4
   392  00A8                     ldexp@newexp:
   393  00A8                     log@exponent:	
   394                           ; 2 bytes @ 0x8
   395                           
   396                           
   397                           ; 2 bytes @ 0x8
   398  00A8                     	ds	2
   399  00AA                     ?_exp:
   400  00AA                     exp@x:	
   401                           ; 4 bytes @ 0xA
   402                           
   403                           
   404                           ; 4 bytes @ 0xA
   405  00AA                     	ds	4
   406  00AE                     ??_exp:
   407                           
   408                           ; 1 bytes @ 0xE
   409  00AE                     	ds	1
   410  00AF                     _exp$852:
   411                           
   412                           ; 4 bytes @ 0xF
   413  00AF                     	ds	4
   414  00B3                     exp@exponent:
   415                           
   416                           ; 2 bytes @ 0x13
   417  00B3                     	ds	2
   418  00B5                     exp@sign:
   419                           
   420                           ; 1 bytes @ 0x15
   421  00B5                     	ds	1
   422  00B6                     ?_pow:
   423  00B6                     pow@x:	
   424                           ; 4 bytes @ 0x16
   425                           
   426                           
   427                           ; 4 bytes @ 0x16
   428  00B6                     	ds	4
   429  00BA                     pow@y:
   430                           
   431                           ; 4 bytes @ 0x1A
   432  00BA                     	ds	4
   433  00BE                     ??_pow:
   434                           
   435                           ; 1 bytes @ 0x1E
   436  00BE                     	ds	1
   437  00BF                     _pow$850:
   438                           
   439                           ; 4 bytes @ 0x1F
   440  00BF                     	ds	4
   441  00C3                     _pow$851:
   442                           
   443                           ; 4 bytes @ 0x23
   444  00C3                     	ds	4
   445  00C7                     pow@sign:
   446                           
   447                           ; 1 bytes @ 0x27
   448  00C7                     	ds	1
   449  00C8                     pow@yi:
   450                           
   451                           ; 4 bytes @ 0x28
   452  00C8                     	ds	4
   453  00CC                     _jugador_1$848:
   454                           
   455                           ; 4 bytes @ 0x2C
   456  00CC                     	ds	4
   457  00D0                     _jugador_1$849:
   458                           
   459                           ; 4 bytes @ 0x30
   460  00D0                     	ds	4
   461  00D4                     jugador_1@i:
   462                           
   463                           ; 2 bytes @ 0x34
   464  00D4                     	ds	2
   465                           
   466                           	psect	cstackCOMMON
   467  0070                     __pcstackCOMMON:
   468  0070                     ?___flge:
   469  0070                     ?_setup:	
   470                           ; 1 bit 
   471                           
   472  0070                     ??_setup:	
   473                           ; 1 bytes @ 0x0
   474                           
   475  0070                     ?_semaforo:	
   476                           ; 1 bytes @ 0x0
   477                           
   478  0070                     ??_semaforo:	
   479                           ; 1 bytes @ 0x0
   480                           
   481  0070                     ?_verde:	
   482                           ; 1 bytes @ 0x0
   483                           
   484  0070                     ??_verde:	
   485                           ; 1 bytes @ 0x0
   486                           
   487  0070                     ?_jugador_1:	
   488                           ; 1 bytes @ 0x0
   489                           
   490  0070                     ?_jugador_2:	
   491                           ; 1 bytes @ 0x0
   492                           
   493  0070                     ??_jugador_2:	
   494                           ; 1 bytes @ 0x0
   495                           
   496  0070                     ?_main:	
   497                           ; 1 bytes @ 0x0
   498                           
   499  0070                     ?__Umul8_16:	
   500                           ; 1 bytes @ 0x0
   501                           
   502  0070                     ?___flneg:	
   503                           ; 2 bytes @ 0x0
   504                           
   505  0070                     ?___fldiv:	
   506                           ; 4 bytes @ 0x0
   507                           
   508  0070                     ?___xxtofl:	
   509                           ; 4 bytes @ 0x0
   510                           
   511  0070                     __Umul8_16@multiplicand:	
   512                           ; 4 bytes @ 0x0
   513                           
   514  0070                     jugador_2@i:	
   515                           ; 1 bytes @ 0x0
   516                           
   517  0070                     ___flge@ff1:	
   518                           ; 2 bytes @ 0x0
   519                           
   520  0070                     ___flneg@f1:	
   521                           ; 4 bytes @ 0x0
   522                           
   523  0070                     ___fldiv@a:	
   524                           ; 4 bytes @ 0x0
   525                           
   526  0070                     ___xxtofl@val:	
   527                           ; 4 bytes @ 0x0
   528                           
   529                           
   530                           ; 4 bytes @ 0x0
   531  0070                     	ds	2
   532  0072                     ??__Umul8_16:
   533                           
   534                           ; 1 bytes @ 0x2
   535  0072                     	ds	2
   536  0074                     ??___flneg:
   537  0074                     ??___xxtofl:	
   538                           ; 1 bytes @ 0x4
   539                           
   540  0074                     __Umul8_16@product:	
   541                           ; 1 bytes @ 0x4
   542                           
   543  0074                     ___flge@ff2:	
   544                           ; 2 bytes @ 0x4
   545                           
   546  0074                     ___fldiv@b:	
   547                           ; 4 bytes @ 0x4
   548                           
   549                           
   550                           ; 4 bytes @ 0x4
   551  0074                     	ds	2
   552  0076                     __Umul8_16@word_mpld:
   553                           
   554                           ; 2 bytes @ 0x6
   555  0076                     	ds	2
   556  0078                     ??___flge:
   557  0078                     ??___fldiv:	
   558                           ; 1 bytes @ 0x8
   559                           
   560  0078                     __Umul8_16@multiplier:	
   561                           ; 1 bytes @ 0x8
   562                           
   563  0078                     ___xxtofl@sign:	
   564                           ; 1 bytes @ 0x8
   565                           
   566                           
   567                           ; 1 bytes @ 0x8
   568  0078                     	ds	1
   569  0079                     ___xxtofl@exp:
   570                           
   571                           ; 1 bytes @ 0x9
   572  0079                     	ds	1
   573  007A                     ___xxtofl@arg:
   574                           
   575                           ; 4 bytes @ 0xA
   576  007A                     	ds	4
   577  007E                     ??_jugador_1:
   578  007E                     ??_main:	
   579                           ; 1 bytes @ 0xE
   580                           
   581  007E                     ??___flsub:	
   582                           ; 1 bytes @ 0xE
   583                           
   584                           
   585                           	psect	cstackBANK0
   586  0020                     __pcstackBANK0:	
   587                           ; 1 bytes @ 0xE
   588                           
   589  0020                     ?___fleq:
   590  0020                     ?___fltol:	
   591                           ; 1 bit 
   592                           
   593  0020                     ___fleq@ff1:	
   594                           ; 4 bytes @ 0x0
   595                           
   596  0020                     ___fltol@f1:	
   597                           ; 4 bytes @ 0x0
   598                           
   599  0020                     ___fldiv@rem:	
   600                           ; 4 bytes @ 0x0
   601                           
   602                           
   603                           ; 4 bytes @ 0x0
   604  0020                     	ds	4
   605  0024                     ??___fltol:
   606  0024                     ___fldiv@sign:	
   607                           ; 1 bytes @ 0x4
   608                           
   609  0024                     ___fleq@ff2:	
   610                           ; 1 bytes @ 0x4
   611                           
   612                           
   613                           ; 4 bytes @ 0x4
   614  0024                     	ds	1
   615  0025                     ___fldiv@new_exp:
   616                           
   617                           ; 2 bytes @ 0x5
   618  0025                     	ds	2
   619  0027                     ___fldiv@grs:
   620                           
   621                           ; 4 bytes @ 0x7
   622  0027                     	ds	1
   623  0028                     ??___fleq:
   624                           
   625                           ; 1 bytes @ 0x8
   626  0028                     	ds	1
   627  0029                     ___fltol@sign1:
   628                           
   629                           ; 1 bytes @ 0x9
   630  0029                     	ds	1
   631  002A                     ___fltol@exp1:
   632                           
   633                           ; 1 bytes @ 0xA
   634  002A                     	ds	1
   635  002B                     ___fldiv@bexp:
   636                           
   637                           ; 1 bytes @ 0xB
   638  002B                     	ds	1
   639  002C                     ?_frexp:
   640  002C                     ___fldiv@aexp:	
   641                           ; 4 bytes @ 0xC
   642                           
   643  002C                     frexp@value:	
   644                           ; 1 bytes @ 0xC
   645                           
   646                           
   647                           ; 4 bytes @ 0xC
   648  002C                     	ds	4
   649  0030                     frexp@eptr:
   650                           
   651                           ; 1 bytes @ 0x10
   652  0030                     	ds	1
   653  0031                     ??_frexp:
   654                           
   655                           ; 1 bytes @ 0x11
   656  0031                     	ds	2
   657  0033                     ?___flmul:
   658  0033                     ___flmul@b:	
   659                           ; 4 bytes @ 0x13
   660                           
   661                           
   662                           ; 4 bytes @ 0x13
   663  0033                     	ds	4
   664  0037                     ___flmul@a:
   665                           
   666                           ; 4 bytes @ 0x17
   667  0037                     	ds	4
   668  003B                     ??___flmul:
   669                           
   670                           ; 1 bytes @ 0x1B
   671  003B                     	ds	5
   672  0040                     ___flmul@sign:
   673                           
   674                           ; 1 bytes @ 0x20
   675  0040                     	ds	1
   676  0041                     ___flmul@grs:
   677                           
   678                           ; 4 bytes @ 0x21
   679  0041                     	ds	4
   680  0045                     ___flmul@aexp:
   681                           
   682                           ; 1 bytes @ 0x25
   683  0045                     	ds	1
   684  0046                     ___flmul@bexp:
   685                           
   686                           ; 1 bytes @ 0x26
   687  0046                     	ds	1
   688  0047                     ___flmul@prod:
   689                           
   690                           ; 4 bytes @ 0x27
   691  0047                     	ds	4
   692  004B                     ___flmul@temp:
   693                           
   694                           ; 2 bytes @ 0x2B
   695  004B                     	ds	2
   696  004D                     ?___fladd:
   697  004D                     ___fladd@b:	
   698                           ; 4 bytes @ 0x2D
   699                           
   700                           
   701                           ; 4 bytes @ 0x2D
   702  004D                     	ds	4
   703  0051                     ___fladd@a:
   704                           
   705                           ; 4 bytes @ 0x31
   706  0051                     	ds	4
   707  0055                     ??___fladd:
   708                           
   709                           ; 1 bytes @ 0x35
   710  0055                     	ds	8
   711  005D                     ___fladd@signs:
   712                           
   713                           ; 1 bytes @ 0x3D
   714  005D                     	ds	1
   715  005E                     ___fladd@aexp:
   716                           
   717                           ; 1 bytes @ 0x3E
   718  005E                     	ds	1
   719  005F                     ___fladd@bexp:
   720                           
   721                           ; 1 bytes @ 0x3F
   722  005F                     	ds	1
   723  0060                     ___fladd@grs:
   724                           
   725                           ; 1 bytes @ 0x40
   726  0060                     	ds	1
   727  0061                     ?_floor:
   728  0061                     ?_eval_poly:	
   729                           ; 4 bytes @ 0x41
   730                           
   731  0061                     ?___flsub:	
   732                           ; 4 bytes @ 0x41
   733                           
   734  0061                     ___flsub@a:	
   735                           ; 4 bytes @ 0x41
   736                           
   737  0061                     eval_poly@x:	
   738                           ; 4 bytes @ 0x41
   739                           
   740  0061                     floor@x:	
   741                           ; 4 bytes @ 0x41
   742                           
   743                           
   744                           ; 4 bytes @ 0x41
   745  0061                     	ds	4
   746  0065                     ??_floor:
   747  0065                     eval_poly@d:	
   748                           ; 1 bytes @ 0x45
   749                           
   750  0065                     ___flsub@b:	
   751                           ; 1 bytes @ 0x45
   752                           
   753                           
   754                           ; 4 bytes @ 0x45
   755  0065                     	ds	1
   756  0066                     eval_poly@n:
   757  0066                     floor@i:	
   758                           ; 2 bytes @ 0x46
   759                           
   760                           
   761                           ; 4 bytes @ 0x46
   762  0066                     	ds	2
   763  0068                     ??_eval_poly:
   764                           
   765                           ; 1 bytes @ 0x48
   766  0068                     	ds	2
   767  006A                     floor@expon:
   768                           
   769                           ; 2 bytes @ 0x4A
   770  006A                     	ds	3
   771  006D                     ??_log:
   772  006D                     ??_ldexp:	
   773                           ; 1 bytes @ 0x4D
   774                           
   775                           
   776                           ; 1 bytes @ 0x4D
   777  006D                     	ds	2
   778                           
   779                           	psect	maintext
   780  14B4                     __pmaintext:	
   781 ;;
   782 ;;Main: autosize = 0, tempsize = 0, incstack = 0, save=0
   783 ;;
   784 ;; *************** function _main *****************
   785 ;; Defined at:
   786 ;;		line 78 in file "Juego_Carrera.c"
   787 ;; Parameters:    Size  Location     Type
   788 ;;		None
   789 ;; Auto vars:     Size  Location     Type
   790 ;;		None
   791 ;; Return value:  Size  Location     Type
   792 ;;                  1    wreg      void 
   793 ;; Registers used:
   794 ;;		wreg, fsr0l, fsr0h, status,2, status,0, btemp+1, pclath, cstack
   795 ;; Tracked objects:
   796 ;;		On entry : B00/0
   797 ;;		On exit  : 0/0
   798 ;;		Unchanged: 0/0
   799 ;; Data sizes:     COMMON   BANK0   BANK1   BANK3   BANK2
   800 ;;      Params:         0       0       0       0       0
   801 ;;      Locals:         0       0       0       0       0
   802 ;;      Temps:          0       0       0       0       0
   803 ;;      Totals:         0       0       0       0       0
   804 ;;Total ram usage:        0 bytes
   805 ;; Hardware stack levels required when called:    6
   806 ;; This function calls:
   807 ;;		_jugador_1
   808 ;;		_jugador_2
   809 ;;		_semaforo
   810 ;;		_setup
   811 ;;		_verde
   812 ;; This function is called by:
   813 ;;		Startup code after reset
   814 ;; This function uses a non-reentrant model
   815 ;;
   816                           
   817                           
   818                           ;psect for function _main
   819  14B4                     _main:
   820  14B4                     l2550:	
   821                           ;incstack = 0
   822                           ; Regs used in _main: [wreg-fsr0h+status,2+status,0+btemp+1+pclath+cstack]
   823                           
   824                           
   825                           ;Juego_Carrera.c: 79:     setup();
   826  14B4  120A  118A  2005  160A  118A  	fcall	_setup
   827  14B9                     l2552:
   828                           
   829                           ;Juego_Carrera.c: 86:         if (PORTBbits.RB0 == 0){
   830  14B9  1283               	bcf	3,5	;RP0=0, select bank0
   831  14BA  1303               	bcf	3,6	;RP1=0, select bank0
   832  14BB  1806               	btfsc	6,0	;volatile
   833  14BC  2CBE               	goto	u3701
   834  14BD  2CBF               	goto	u3700
   835  14BE                     u3701:
   836  14BE  2CB9               	goto	l2552
   837  14BF                     u3700:
   838  14BF                     l2554:
   839                           
   840                           ;Juego_Carrera.c: 87:             if (PORTAbits.RA2 == 0){
   841  14BF  1905               	btfsc	5,2	;volatile
   842  14C0  2CC2               	goto	u3711
   843  14C1  2CC3               	goto	u3710
   844  14C2                     u3711:
   845  14C2  2CD0               	goto	l2562
   846  14C3                     u3710:
   847  14C3                     l2556:
   848                           
   849                           ;Juego_Carrera.c: 88:                 semaforo();
   850  14C3  160A  118A  241E  160A  118A  	fcall	_semaforo
   851  14C8                     l2558:
   852                           
   853                           ;Juego_Carrera.c: 89:                 verde();
   854  14C8  160A  118A  240D  160A  118A  	fcall	_verde
   855  14CD                     l2560:
   856                           
   857                           ;Juego_Carrera.c: 90:                 PORTAbits.RA2 = 1;
   858  14CD  1283               	bcf	3,5	;RP0=0, select bank0
   859  14CE  1303               	bcf	3,6	;RP1=0, select bank0
   860  14CF  1505               	bsf	5,2	;volatile
   861  14D0                     l2562:
   862                           
   863                           ;Juego_Carrera.c: 92:         jugador_1();
   864  14D0  160A  118A  2606  160A  118A  	fcall	_jugador_1
   865  14D5                     l2564:
   866                           
   867                           ;Juego_Carrera.c: 93:         jugador_2();
   868  14D5  160A  118A  248C  160A  118A  	fcall	_jugador_2
   869  14DA  2CB9               	goto	l2552
   870  14DB  120A  118A  2800   	ljmp	start
   871  14DE                     __end_of_main:
   872                           
   873                           	psect	text1
   874  140D                     __ptext1:	
   875 ;; *************** function _verde *****************
   876 ;; Defined at:
   877 ;;		line 115 in file "Juego_Carrera.c"
   878 ;; Parameters:    Size  Location     Type
   879 ;;		None
   880 ;; Auto vars:     Size  Location     Type
   881 ;;		None
   882 ;; Return value:  Size  Location     Type
   883 ;;                  1    wreg      void 
   884 ;; Registers used:
   885 ;;		None
   886 ;; Tracked objects:
   887 ;;		On entry : 0/0
   888 ;;		On exit  : 0/0
   889 ;;		Unchanged: 0/0
   890 ;; Data sizes:     COMMON   BANK0   BANK1   BANK3   BANK2
   891 ;;      Params:         0       0       0       0       0
   892 ;;      Locals:         0       0       0       0       0
   893 ;;      Temps:          0       0       0       0       0
   894 ;;      Totals:         0       0       0       0       0
   895 ;;Total ram usage:        0 bytes
   896 ;; Hardware stack levels used:    1
   897 ;; This function calls:
   898 ;;		Nothing
   899 ;; This function is called by:
   900 ;;		_main
   901 ;; This function uses a non-reentrant model
   902 ;;
   903                           
   904                           
   905                           ;psect for function _verde
   906  140D                     _verde:
   907  140D                     l1644:	
   908                           ;incstack = 0
   909                           ; Regs used in _verde: []
   910                           
   911                           
   912                           ;Juego_Carrera.c: 116:     PORTEbits.RE2 = 1;
   913  140D  1283               	bcf	3,5	;RP0=0, select bank0
   914  140E  1303               	bcf	3,6	;RP1=0, select bank0
   915  140F  1509               	bsf	9,2	;volatile
   916                           
   917                           ;Juego_Carrera.c: 117:     PORTEbits.RE0 = 0;
   918  1410  1009               	bcf	9,0	;volatile
   919                           
   920                           ;Juego_Carrera.c: 118:     PORTEbits.RE1 = 0;
   921  1411  1089               	bcf	9,1	;volatile
   922  1412                     l65:
   923  1412  0008               	return
   924  1413                     __end_of_verde:
   925                           
   926                           	psect	text2
   927  0005                     __ptext2:	
   928 ;; *************** function _setup *****************
   929 ;; Defined at:
   930 ;;		line 43 in file "Juego_Carrera.c"
   931 ;; Parameters:    Size  Location     Type
   932 ;;		None
   933 ;; Auto vars:     Size  Location     Type
   934 ;;		None
   935 ;; Return value:  Size  Location     Type
   936 ;;                  1    wreg      void 
   937 ;; Registers used:
   938 ;;		wreg, status,2
   939 ;; Tracked objects:
   940 ;;		On entry : 0/0
   941 ;;		On exit  : 0/0
   942 ;;		Unchanged: 0/0
   943 ;; Data sizes:     COMMON   BANK0   BANK1   BANK3   BANK2
   944 ;;      Params:         0       0       0       0       0
   945 ;;      Locals:         0       0       0       0       0
   946 ;;      Temps:          0       0       0       0       0
   947 ;;      Totals:         0       0       0       0       0
   948 ;;Total ram usage:        0 bytes
   949 ;; Hardware stack levels used:    1
   950 ;; This function calls:
   951 ;;		Nothing
   952 ;; This function is called by:
   953 ;;		_main
   954 ;; This function uses a non-reentrant model
   955 ;;
   956                           
   957                           
   958                           ;psect for function _setup
   959  0005                     _setup:
   960  0005                     l1614:	
   961                           ;incstack = 0
   962                           ; Regs used in _setup: [wreg+status,2]
   963                           
   964                           
   965                           ;Juego_Carrera.c: 44:     TRISE = 0;
   966  0005  1683               	bsf	3,5	;RP0=1, select bank1
   967  0006  1303               	bcf	3,6	;RP1=0, select bank1
   968  0007  0189               	clrf	9	;volatile
   969                           
   970                           ;Juego_Carrera.c: 45:     PORTE = 0;
   971  0008  1283               	bcf	3,5	;RP0=0, select bank0
   972  0009  1303               	bcf	3,6	;RP1=0, select bank0
   973  000A  0189               	clrf	9	;volatile
   974                           
   975                           ;Juego_Carrera.c: 46:     ANSEL = 0;
   976  000B  1683               	bsf	3,5	;RP0=1, select bank3
   977  000C  1703               	bsf	3,6	;RP1=1, select bank3
   978  000D  0188               	clrf	8	;volatile
   979                           
   980                           ;Juego_Carrera.c: 47:     ANSELH = 0;
   981  000E  0189               	clrf	9	;volatile
   982  000F                     l1616:
   983                           
   984                           ;Juego_Carrera.c: 48:     TRISB = 0b00000111;
   985  000F  3007               	movlw	7
   986  0010  1683               	bsf	3,5	;RP0=1, select bank1
   987  0011  1303               	bcf	3,6	;RP1=0, select bank1
   988  0012  0086               	movwf	6	;volatile
   989  0013                     l1618:
   990                           
   991                           ;Juego_Carrera.c: 49:     PORTB = 0;
   992  0013  1283               	bcf	3,5	;RP0=0, select bank0
   993  0014  1303               	bcf	3,6	;RP1=0, select bank0
   994  0015  0186               	clrf	6	;volatile
   995  0016                     l1620:
   996                           
   997                           ;Juego_Carrera.c: 50:     TRISC = 0;
   998  0016  1683               	bsf	3,5	;RP0=1, select bank1
   999  0017  1303               	bcf	3,6	;RP1=0, select bank1
  1000  0018  0187               	clrf	7	;volatile
  1001  0019                     l1622:
  1002                           
  1003                           ;Juego_Carrera.c: 51:     PORTC = 0;
  1004  0019  1283               	bcf	3,5	;RP0=0, select bank0
  1005  001A  1303               	bcf	3,6	;RP1=0, select bank0
  1006  001B  0187               	clrf	7	;volatile
  1007  001C                     l1624:
  1008                           
  1009                           ;Juego_Carrera.c: 52:     TRISD = 0;
  1010  001C  1683               	bsf	3,5	;RP0=1, select bank1
  1011  001D  1303               	bcf	3,6	;RP1=0, select bank1
  1012  001E  0188               	clrf	8	;volatile
  1013  001F                     l1626:
  1014                           
  1015                           ;Juego_Carrera.c: 53:     PORTD = 0;
  1016  001F  1283               	bcf	3,5	;RP0=0, select bank0
  1017  0020  1303               	bcf	3,6	;RP1=0, select bank0
  1018  0021  0188               	clrf	8	;volatile
  1019  0022                     l1628:
  1020                           
  1021                           ;Juego_Carrera.c: 54:     TRISA = 0;
  1022  0022  1683               	bsf	3,5	;RP0=1, select bank1
  1023  0023  1303               	bcf	3,6	;RP1=0, select bank1
  1024  0024  0185               	clrf	5	;volatile
  1025  0025                     l1630:
  1026                           
  1027                           ;Juego_Carrera.c: 55:     PORTA = 0;
  1028  0025  1283               	bcf	3,5	;RP0=0, select bank0
  1029  0026  1303               	bcf	3,6	;RP1=0, select bank0
  1030  0027  0185               	clrf	5	;volatile
  1031  0028                     l47:
  1032  0028  0008               	return
  1033  0029                     __end_of_setup:
  1034                           
  1035                           	psect	text3
  1036  141E                     __ptext3:	
  1037 ;; *************** function _semaforo *****************
  1038 ;; Defined at:
  1039 ;;		line 104 in file "Juego_Carrera.c"
  1040 ;; Parameters:    Size  Location     Type
  1041 ;;		None
  1042 ;; Auto vars:     Size  Location     Type
  1043 ;;		None
  1044 ;; Return value:  Size  Location     Type
  1045 ;;                  1    wreg      void 
  1046 ;; Registers used:
  1047 ;;		wreg
  1048 ;; Tracked objects:
  1049 ;;		On entry : 0/0
  1050 ;;		On exit  : 0/0
  1051 ;;		Unchanged: 0/0
  1052 ;; Data sizes:     COMMON   BANK0   BANK1   BANK3   BANK2
  1053 ;;      Params:         0       0       0       0       0
  1054 ;;      Locals:         0       0       0       0       0
  1055 ;;      Temps:          3       0       0       0       0
  1056 ;;      Totals:         3       0       0       0       0
  1057 ;;Total ram usage:        3 bytes
  1058 ;; Hardware stack levels used:    1
  1059 ;; This function calls:
  1060 ;;		Nothing
  1061 ;; This function is called by:
  1062 ;;		_main
  1063 ;; This function uses a non-reentrant model
  1064 ;;
  1065                           
  1066                           
  1067                           ;psect for function _semaforo
  1068  141E                     _semaforo:
  1069  141E                     l1632:	
  1070                           ;incstack = 0
  1071                           ; Regs used in _semaforo: [wreg]
  1072                           
  1073                           
  1074                           ;Juego_Carrera.c: 105:     PORTEbits.RE0 = 1;
  1075  141E  1283               	bcf	3,5	;RP0=0, select bank0
  1076  141F  1303               	bcf	3,6	;RP1=0, select bank0
  1077  1420  1409               	bsf	9,0	;volatile
  1078  1421                     l1634:
  1079                           
  1080                           ;Juego_Carrera.c: 106:     _delay((unsigned long)((700)*(8000000/4000.0)));
  1081  1421  3008               	movlw	8
  1082  1422  00F2               	movwf	??_semaforo+2
  1083  1423  301B               	movlw	27
  1084  1424  00F1               	movwf	??_semaforo+1
  1085  1425  3027               	movlw	39
  1086  1426  00F0               	movwf	??_semaforo
  1087  1427                     u3727:
  1088  1427  0BF0               	decfsz	??_semaforo,f
  1089  1428  2C27               	goto	u3727
  1090  1429  0BF1               	decfsz	??_semaforo+1,f
  1091  142A  2C27               	goto	u3727
  1092  142B  0BF2               	decfsz	??_semaforo+2,f
  1093  142C  2C27               	goto	u3727
  1094  142D                     l1636:
  1095                           
  1096                           ;Juego_Carrera.c: 107:     PORTEbits.RE0 = 0;
  1097  142D  1283               	bcf	3,5	;RP0=0, select bank0
  1098  142E  1303               	bcf	3,6	;RP1=0, select bank0
  1099  142F  1009               	bcf	9,0	;volatile
  1100  1430                     l1638:
  1101                           
  1102                           ;Juego_Carrera.c: 108:     PORTEbits.RE1 = 1;
  1103  1430  1489               	bsf	9,1	;volatile
  1104                           
  1105                           ;Juego_Carrera.c: 109:     _delay((unsigned long)((700)*(8000000/4000.0)));
  1106  1431  3008               	movlw	8
  1107  1432  00F2               	movwf	??_semaforo+2
  1108  1433  301B               	movlw	27
  1109  1434  00F1               	movwf	??_semaforo+1
  1110  1435  3027               	movlw	39
  1111  1436  00F0               	movwf	??_semaforo
  1112  1437                     u3737:
  1113  1437  0BF0               	decfsz	??_semaforo,f
  1114  1438  2C37               	goto	u3737
  1115  1439  0BF1               	decfsz	??_semaforo+1,f
  1116  143A  2C37               	goto	u3737
  1117  143B  0BF2               	decfsz	??_semaforo+2,f
  1118  143C  2C37               	goto	u3737
  1119  143D                     l1640:
  1120                           
  1121                           ;Juego_Carrera.c: 110:     PORTEbits.RE1 = 0;
  1122  143D  1283               	bcf	3,5	;RP0=0, select bank0
  1123  143E  1303               	bcf	3,6	;RP1=0, select bank0
  1124  143F  1089               	bcf	9,1	;volatile
  1125  1440                     l62:
  1126  1440  0008               	return
  1127  1441                     __end_of_semaforo:
  1128                           
  1129                           	psect	text4
  1130  148C                     __ptext4:	
  1131 ;; *************** function _jugador_2 *****************
  1132 ;; Defined at:
  1133 ;;		line 134 in file "Juego_Carrera.c"
  1134 ;; Parameters:    Size  Location     Type
  1135 ;;		None
  1136 ;; Auto vars:     Size  Location     Type
  1137 ;;  i               2    0[COMMON] int 
  1138 ;; Return value:  Size  Location     Type
  1139 ;;                  1    wreg      void 
  1140 ;; Registers used:
  1141 ;;		wreg, status,2, btemp+1
  1142 ;; Tracked objects:
  1143 ;;		On entry : 0/0
  1144 ;;		On exit  : 0/0
  1145 ;;		Unchanged: 0/0
  1146 ;; Data sizes:     COMMON   BANK0   BANK1   BANK3   BANK2
  1147 ;;      Params:         0       0       0       0       0
  1148 ;;      Locals:         2       0       0       0       0
  1149 ;;      Temps:          0       0       0       0       0
  1150 ;;      Totals:         2       0       0       0       0
  1151 ;;Total ram usage:        2 bytes
  1152 ;; Hardware stack levels used:    1
  1153 ;; This function calls:
  1154 ;;		Nothing
  1155 ;; This function is called by:
  1156 ;;		_main
  1157 ;; This function uses a non-reentrant model
  1158 ;;
  1159                           
  1160                           
  1161                           ;psect for function _jugador_2
  1162  148C                     _jugador_2:
  1163  148C                     l1668:	
  1164                           ;incstack = 0
  1165                           ; Regs used in _jugador_2: [wreg+status,2+btemp+1]
  1166                           
  1167                           
  1168                           ;Juego_Carrera.c: 135:     if (PORTAbits.RA2 == 1);{
  1169  148C  1283               	bcf	3,5	;RP0=0, select bank0
  1170  148D  1303               	bcf	3,6	;RP1=0, select bank0
  1171  148E  0805               	movf	5,w	;volatile
  1172  148F                     l76:
  1173                           
  1174                           ;Juego_Carrera.c: 136:         if (PORTBbits.RB2 == 0){
  1175  148F  1906               	btfsc	6,2	;volatile
  1176  1490  2C92               	goto	u1831
  1177  1491  2C93               	goto	u1830
  1178  1492                     u1831:
  1179  1492  2CB3               	goto	l81
  1180  1493                     u1830:
  1181  1493                     l1670:
  1182                           
  1183                           ;Juego_Carrera.c: 137:             for (int i = 0; i < 7; i++){
  1184  1493  01F0               	clrf	jugador_2@i
  1185  1494  01F1               	clrf	jugador_2@i+1
  1186  1495                     l1676:
  1187                           
  1188                           ;Juego_Carrera.c: 138:                 PORTD = 128;
  1189  1495  3080               	movlw	128
  1190  1496  1283               	bcf	3,5	;RP0=0, select bank0
  1191  1497  1303               	bcf	3,6	;RP1=0, select bank0
  1192  1498  0088               	movwf	8	;volatile
  1193                           
  1194                           ;Juego_Carrera.c: 139:                 if (PORTD > 127){
  1195  1499  3080               	movlw	128
  1196  149A  0208               	subwf	8,w	;volatile
  1197  149B  1C03               	skipc
  1198  149C  2C9E               	goto	u1841
  1199  149D  2C9F               	goto	u1840
  1200  149E                     u1841:
  1201  149E  2CA0               	goto	l1680
  1202  149F                     u1840:
  1203  149F                     l1678:
  1204                           
  1205                           ;Juego_Carrera.c: 140:                     PORTAbits.RA1 = 1;
  1206  149F  1485               	bsf	5,1	;volatile
  1207  14A0                     l1680:
  1208                           
  1209                           ;Juego_Carrera.c: 142:             }
  1210  14A0  3001               	movlw	1
  1211  14A1  07F0               	addwf	jugador_2@i,f
  1212  14A2  1803               	skipnc
  1213  14A3  0AF1               	incf	jugador_2@i+1,f
  1214  14A4  3000               	movlw	0
  1215  14A5  07F1               	addwf	jugador_2@i+1,f
  1216  14A6                     l1682:
  1217  14A6  0871               	movf	jugador_2@i+1,w
  1218  14A7  3A80               	xorlw	128
  1219  14A8  00FF               	movwf	btemp+1
  1220  14A9  3080               	movlw	128
  1221  14AA  027F               	subwf	btemp+1,w
  1222  14AB  1D03               	skipz
  1223  14AC  2CAF               	goto	u1855
  1224  14AD  3007               	movlw	7
  1225  14AE  0270               	subwf	jugador_2@i,w
  1226  14AF                     u1855:
  1227  14AF  1C03               	skipc
  1228  14B0  2CB2               	goto	u1851
  1229  14B1  2CB3               	goto	u1850
  1230  14B2                     u1851:
  1231  14B2  2C95               	goto	l1676
  1232  14B3                     u1850:
  1233  14B3                     l81:
  1234  14B3  0008               	return
  1235  14B4                     __end_of_jugador_2:
  1236                           
  1237                           	psect	text5
  1238  1606                     __ptext5:	
  1239 ;; *************** function _jugador_1 *****************
  1240 ;; Defined at:
  1241 ;;		line 121 in file "Juego_Carrera.c"
  1242 ;; Parameters:    Size  Location     Type
  1243 ;;		None
  1244 ;; Auto vars:     Size  Location     Type
  1245 ;;  i               2   52[BANK1 ] int 
  1246 ;; Return value:  Size  Location     Type
  1247 ;;                  1    wreg      void 
  1248 ;; Registers used:
  1249 ;;		wreg, fsr0l, fsr0h, status,2, status,0, btemp+1, pclath, cstack
  1250 ;; Tracked objects:
  1251 ;;		On entry : 0/0
  1252 ;;		On exit  : 0/0
  1253 ;;		Unchanged: 0/0
  1254 ;; Data sizes:     COMMON   BANK0   BANK1   BANK3   BANK2
  1255 ;;      Params:         0       0       0       0       0
  1256 ;;      Locals:         0       0      10       0       0
  1257 ;;      Temps:          0       0       0       0       0
  1258 ;;      Totals:         0       0      10       0       0
  1259 ;;Total ram usage:       10 bytes
  1260 ;; Hardware stack levels used:    1
  1261 ;; Hardware stack levels required when called:    5
  1262 ;; This function calls:
  1263 ;;		___fltol
  1264 ;;		___xxtofl
  1265 ;;		_pow
  1266 ;; This function is called by:
  1267 ;;		_main
  1268 ;; This function uses a non-reentrant model
  1269 ;;
  1270                           
  1271                           
  1272                           ;psect for function _jugador_1
  1273  1606                     _jugador_1:
  1274  1606                     l2528:	
  1275                           ;incstack = 0
  1276                           ; Regs used in _jugador_1: [wreg-fsr0h+status,2+status,0+btemp+1+pclath+cstack]
  1277                           
  1278                           
  1279                           ;Juego_Carrera.c: 122:     if (PORTAbits.RA2 == 1);{
  1280  1606  1283               	bcf	3,5	;RP0=0, select bank0
  1281  1607  1303               	bcf	3,6	;RP1=0, select bank0
  1282  1608  0805               	movf	5,w	;volatile
  1283  1609                     l68:
  1284                           
  1285                           ;Juego_Carrera.c: 123:         if (PORTBbits.RB1 == 0){
  1286  1609  1886               	btfsc	6,1	;volatile
  1287  160A  2E0C               	goto	u3671
  1288  160B  2E0D               	goto	u3670
  1289  160C                     u3671:
  1290  160C  2E86               	goto	l73
  1291  160D                     u3670:
  1292  160D                     l2530:
  1293                           
  1294                           ;Juego_Carrera.c: 124:             for (int i = 0; i < 7; i++){
  1295  160D  1683               	bsf	3,5	;RP0=1, select bank1
  1296  160E  1303               	bcf	3,6	;RP1=0, select bank1
  1297  160F  01D4               	clrf	jugador_1@i^(0+128)
  1298  1610  01D5               	clrf	(jugador_1@i+1)^(0+128)
  1299  1611                     l2536:
  1300                           
  1301                           ;Juego_Carrera.c: 125:                 PORTC = pow (2,i);
  1302  1611  1683               	bsf	3,5	;RP0=1, select bank1
  1303  1612  1303               	bcf	3,6	;RP1=0, select bank1
  1304  1613  0854               	movf	jugador_1@i^(0+128),w
  1305  1614  00F0               	movwf	___xxtofl@val
  1306  1615  0855               	movf	(jugador_1@i+1)^(0+128),w
  1307  1616  00F1               	movwf	___xxtofl@val+1
  1308  1617  3000               	movlw	0
  1309  1618  1BF1               	btfsc	___xxtofl@val+1,7
  1310  1619  30FF               	movlw	255
  1311  161A  00F2               	movwf	___xxtofl@val+2
  1312  161B  00F3               	movwf	___xxtofl@val+3
  1313  161C  3001               	movlw	1
  1314  161D  160A  118A  2687  160A  118A  	fcall	___xxtofl
  1315  1622  0873               	movf	?___xxtofl+3,w
  1316  1623  1683               	bsf	3,5	;RP0=1, select bank1
  1317  1624  1303               	bcf	3,6	;RP1=0, select bank1
  1318  1625  00CF               	movwf	(_jugador_1$848+3)^(0+128)
  1319  1626  0872               	movf	?___xxtofl+2,w
  1320  1627  00CE               	movwf	(_jugador_1$848+2)^(0+128)
  1321  1628  0871               	movf	?___xxtofl+1,w
  1322  1629  00CD               	movwf	(_jugador_1$848+1)^(0+128)
  1323  162A  0870               	movf	?___xxtofl,w
  1324  162B  00CC               	movwf	_jugador_1$848^(0+128)
  1325  162C                     l2538:
  1326                           
  1327                           ;Juego_Carrera.c: 125:                 PORTC = pow (2,i);
  1328  162C  084F               	movf	(_jugador_1$848+3)^(0+128),w
  1329  162D  00BD               	movwf	(pow@y+3)^(0+128)
  1330  162E  084E               	movf	(_jugador_1$848+2)^(0+128),w
  1331  162F  00BC               	movwf	(pow@y+2)^(0+128)
  1332  1630  084D               	movf	(_jugador_1$848+1)^(0+128),w
  1333  1631  00BB               	movwf	(pow@y+1)^(0+128)
  1334  1632  084C               	movf	_jugador_1$848^(0+128),w
  1335  1633  00BA               	movwf	pow@y^(0+128)
  1336  1634  3040               	movlw	64
  1337  1635  00B9               	movwf	(pow@x+3)^(0+128)
  1338  1636  3000               	movlw	0
  1339  1637  00B8               	movwf	(pow@x+2)^(0+128)
  1340  1638  3000               	movlw	0
  1341  1639  00B7               	movwf	(pow@x+1)^(0+128)
  1342  163A  3000               	movlw	0
  1343  163B  00B6               	movwf	pow@x^(0+128)
  1344  163C  120A  158A  23CE  160A  118A  	fcall	_pow
  1345  1641  1683               	bsf	3,5	;RP0=1, select bank1
  1346  1642  1303               	bcf	3,6	;RP1=0, select bank1
  1347  1643  0839               	movf	(?_pow+3)^(0+128),w
  1348  1644  00D3               	movwf	(_jugador_1$849+3)^(0+128)
  1349  1645  0838               	movf	(?_pow+2)^(0+128),w
  1350  1646  00D2               	movwf	(_jugador_1$849+2)^(0+128)
  1351  1647  0837               	movf	(?_pow+1)^(0+128),w
  1352  1648  00D1               	movwf	(_jugador_1$849+1)^(0+128)
  1353  1649  0836               	movf	?_pow^(0+128),w
  1354  164A  00D0               	movwf	_jugador_1$849^(0+128)
  1355  164B                     l2540:
  1356                           
  1357                           ;Juego_Carrera.c: 125:                 PORTC = pow (2,i);
  1358  164B  0853               	movf	(_jugador_1$849+3)^(0+128),w
  1359  164C  1283               	bcf	3,5	;RP0=0, select bank0
  1360  164D  1303               	bcf	3,6	;RP1=0, select bank0
  1361  164E  00A3               	movwf	___fltol@f1+3
  1362  164F  1683               	bsf	3,5	;RP0=1, select bank1
  1363  1650  1303               	bcf	3,6	;RP1=0, select bank1
  1364  1651  0852               	movf	(_jugador_1$849+2)^(0+128),w
  1365  1652  1283               	bcf	3,5	;RP0=0, select bank0
  1366  1653  1303               	bcf	3,6	;RP1=0, select bank0
  1367  1654  00A2               	movwf	___fltol@f1+2
  1368  1655  1683               	bsf	3,5	;RP0=1, select bank1
  1369  1656  1303               	bcf	3,6	;RP1=0, select bank1
  1370  1657  0851               	movf	(_jugador_1$849+1)^(0+128),w
  1371  1658  1283               	bcf	3,5	;RP0=0, select bank0
  1372  1659  1303               	bcf	3,6	;RP1=0, select bank0
  1373  165A  00A1               	movwf	___fltol@f1+1
  1374  165B  1683               	bsf	3,5	;RP0=1, select bank1
  1375  165C  1303               	bcf	3,6	;RP1=0, select bank1
  1376  165D  0850               	movf	_jugador_1$849^(0+128),w
  1377  165E  1283               	bcf	3,5	;RP0=0, select bank0
  1378  165F  1303               	bcf	3,6	;RP1=0, select bank0
  1379  1660  00A0               	movwf	___fltol@f1
  1380  1661  160A  118A  258A  160A  118A  	fcall	___fltol
  1381  1666  1283               	bcf	3,5	;RP0=0, select bank0
  1382  1667  1303               	bcf	3,6	;RP1=0, select bank0
  1383  1668  0820               	movf	?___fltol,w
  1384  1669  0087               	movwf	7	;volatile
  1385  166A                     l2542:
  1386                           
  1387                           ;Juego_Carrera.c: 126:                 if (PORTC > 127){
  1388  166A  3080               	movlw	128
  1389  166B  0207               	subwf	7,w	;volatile
  1390  166C  1C03               	skipc
  1391  166D  2E6F               	goto	u3681
  1392  166E  2E70               	goto	u3680
  1393  166F                     u3681:
  1394  166F  2E71               	goto	l2546
  1395  1670                     u3680:
  1396  1670                     l2544:
  1397                           
  1398                           ;Juego_Carrera.c: 127:                     PORTAbits.RA0 = 1;
  1399  1670  1405               	bsf	5,0	;volatile
  1400  1671                     l2546:
  1401                           
  1402                           ;Juego_Carrera.c: 129:             }
  1403  1671  3001               	movlw	1
  1404  1672  1683               	bsf	3,5	;RP0=1, select bank1
  1405  1673  1303               	bcf	3,6	;RP1=0, select bank1
  1406  1674  07D4               	addwf	jugador_1@i^(0+128),f
  1407  1675  1803               	skipnc
  1408  1676  0AD5               	incf	(jugador_1@i+1)^(0+128),f
  1409  1677  3000               	movlw	0
  1410  1678  07D5               	addwf	(jugador_1@i+1)^(0+128),f
  1411  1679                     l2548:
  1412  1679  0855               	movf	(jugador_1@i+1)^(0+128),w
  1413  167A  3A80               	xorlw	128
  1414  167B  00FF               	movwf	btemp+1
  1415  167C  3080               	movlw	128
  1416  167D  027F               	subwf	btemp+1,w
  1417  167E  1D03               	skipz
  1418  167F  2E82               	goto	u3695
  1419  1680  3007               	movlw	7
  1420  1681  0254               	subwf	jugador_1@i^(0+128),w
  1421  1682                     u3695:
  1422  1682  1C03               	skipc
  1423  1683  2E85               	goto	u3691
  1424  1684  2E86               	goto	u3690
  1425  1685                     u3691:
  1426  1685  2E11               	goto	l2536
  1427  1686                     u3690:
  1428  1686                     l73:
  1429  1686  0008               	return
  1430  1687                     __end_of_jugador_1:
  1431                           
  1432                           	psect	text6
  1433  0BCE                     __ptext6:	
  1434 ;; *************** function _pow *****************
  1435 ;; Defined at:
  1436 ;;		line 5 in file "C:\Program Files\Microchip\xc8\v2.31\pic\sources\c90\common\pow.c"
  1437 ;; Parameters:    Size  Location     Type
  1438 ;;  x               4   22[BANK1 ] void 
  1439 ;;  y               4   26[BANK1 ] void 
  1440 ;; Auto vars:     Size  Location     Type
  1441 ;;  yi              4   40[BANK1 ] unsigned long 
  1442 ;;  sign            1   39[BANK1 ] unsigned char 
  1443 ;; Return value:  Size  Location     Type
  1444 ;;                  4   22[BANK1 ] unsigned char 
  1445 ;; Registers used:
  1446 ;;		wreg, fsr0l, fsr0h, status,2, status,0, btemp+1, pclath, cstack
  1447 ;; Tracked objects:
  1448 ;;		On entry : 0/0
  1449 ;;		On exit  : 0/0
  1450 ;;		Unchanged: 0/0
  1451 ;; Data sizes:     COMMON   BANK0   BANK1   BANK3   BANK2
  1452 ;;      Params:         0       0       8       0       0
  1453 ;;      Locals:         0       0      13       0       0
  1454 ;;      Temps:          0       0       1       0       0
  1455 ;;      Totals:         0       0      22       0       0
  1456 ;;Total ram usage:       22 bytes
  1457 ;; Hardware stack levels used:    1
  1458 ;; Hardware stack levels required when called:    4
  1459 ;; This function calls:
  1460 ;;		___fleq
  1461 ;;		___flge
  1462 ;;		___flmul
  1463 ;;		___flneg
  1464 ;;		___fltol
  1465 ;;		___xxtofl
  1466 ;;		_exp
  1467 ;;		_log
  1468 ;; This function is called by:
  1469 ;;		_jugador_1
  1470 ;; This function uses a non-reentrant model
  1471 ;;
  1472                           
  1473                           
  1474                           ;psect for function _pow
  1475  0BCE                     _pow:
  1476  0BCE                     l2488:	
  1477                           ;incstack = 0
  1478                           ; Regs used in _pow: [wreg-fsr0h+status,2+status,0+btemp+1+pclath+cstack]
  1479                           
  1480  0BCE  1683               	bsf	3,5	;RP0=1, select bank1
  1481  0BCF  1303               	bcf	3,6	;RP1=0, select bank1
  1482  0BD0  01C7               	clrf	pow@sign^(0+128)
  1483  0BD1                     l2490:
  1484  0BD1  0839               	movf	(pow@x+3)^(0+128),w
  1485  0BD2  1283               	bcf	3,5	;RP0=0, select bank0
  1486  0BD3  1303               	bcf	3,6	;RP1=0, select bank0
  1487  0BD4  00A3               	movwf	___fleq@ff1+3
  1488  0BD5  1683               	bsf	3,5	;RP0=1, select bank1
  1489  0BD6  1303               	bcf	3,6	;RP1=0, select bank1
  1490  0BD7  0838               	movf	(pow@x+2)^(0+128),w
  1491  0BD8  1283               	bcf	3,5	;RP0=0, select bank0
  1492  0BD9  1303               	bcf	3,6	;RP1=0, select bank0
  1493  0BDA  00A2               	movwf	___fleq@ff1+2
  1494  0BDB  1683               	bsf	3,5	;RP0=1, select bank1
  1495  0BDC  1303               	bcf	3,6	;RP1=0, select bank1
  1496  0BDD  0837               	movf	(pow@x+1)^(0+128),w
  1497  0BDE  1283               	bcf	3,5	;RP0=0, select bank0
  1498  0BDF  1303               	bcf	3,6	;RP1=0, select bank0
  1499  0BE0  00A1               	movwf	___fleq@ff1+1
  1500  0BE1  1683               	bsf	3,5	;RP0=1, select bank1
  1501  0BE2  1303               	bcf	3,6	;RP1=0, select bank1
  1502  0BE3  0836               	movf	pow@x^(0+128),w
  1503  0BE4  1283               	bcf	3,5	;RP0=0, select bank0
  1504  0BE5  1303               	bcf	3,6	;RP1=0, select bank0
  1505  0BE6  00A0               	movwf	___fleq@ff1
  1506  0BE7  3000               	movlw	0
  1507  0BE8  00A7               	movwf	___fleq@ff2+3
  1508  0BE9  3000               	movlw	0
  1509  0BEA  00A6               	movwf	___fleq@ff2+2
  1510  0BEB  3000               	movlw	0
  1511  0BEC  00A5               	movwf	___fleq@ff2+1
  1512  0BED  3000               	movlw	0
  1513  0BEE  00A4               	movwf	___fleq@ff2
  1514  0BEF  160A  118A  24DE  120A  158A  	fcall	___fleq
  1515  0BF4  1C03               	btfss	3,0
  1516  0BF5  2BF7               	goto	u3611
  1517  0BF6  2BF8               	goto	u3610
  1518  0BF7                     u3611:
  1519  0BF7  2C24               	goto	l2498
  1520  0BF8                     u3610:
  1521  0BF8                     l2492:
  1522  0BF8  3000               	movlw	0
  1523  0BF9  00F3               	movwf	___flge@ff1+3
  1524  0BFA  3000               	movlw	0
  1525  0BFB  00F2               	movwf	___flge@ff1+2
  1526  0BFC  3000               	movlw	0
  1527  0BFD  00F1               	movwf	___flge@ff1+1
  1528  0BFE  3000               	movlw	0
  1529  0BFF  00F0               	movwf	___flge@ff1
  1530  0C00  1683               	bsf	3,5	;RP0=1, select bank1
  1531  0C01  1303               	bcf	3,6	;RP1=0, select bank1
  1532  0C02  083D               	movf	(pow@y+3)^(0+128),w
  1533  0C03  00F7               	movwf	___flge@ff2+3
  1534  0C04  083C               	movf	(pow@y+2)^(0+128),w
  1535  0C05  00F6               	movwf	___flge@ff2+2
  1536  0C06  083B               	movf	(pow@y+1)^(0+128),w
  1537  0C07  00F5               	movwf	___flge@ff2+1
  1538  0C08  083A               	movf	pow@y^(0+128),w
  1539  0C09  00F4               	movwf	___flge@ff2
  1540  0C0A  120A  158A  2000  120A  158A  	fcall	___flge
  1541  0C0F  1C03               	btfss	3,0
  1542  0C10  2C12               	goto	u3621
  1543  0C11  2C13               	goto	u3620
  1544  0C12                     u3621:
  1545  0C12  2C19               	goto	l625
  1546  0C13                     u3620:
  1547  0C13                     l2494:
  1548  0C13  3021               	movlw	33
  1549  0C14  1683               	bsf	3,5	;RP0=1, select bank1
  1550  0C15  1303               	bcf	3,6	;RP1=0, select bank1
  1551  0C16  00D6               	movwf	_errno^(0+128)
  1552  0C17  3000               	movlw	0
  1553  0C18  00D7               	movwf	(_errno^(0+128)+1)
  1554  0C19                     l625:
  1555  0C19  3000               	movlw	0
  1556  0C1A  1683               	bsf	3,5	;RP0=1, select bank1
  1557  0C1B  1303               	bcf	3,6	;RP1=0, select bank1
  1558  0C1C  00B9               	movwf	(?_pow+3)^(0+128)
  1559  0C1D  3000               	movlw	0
  1560  0C1E  00B8               	movwf	(?_pow+2)^(0+128)
  1561  0C1F  3000               	movlw	0
  1562  0C20  00B7               	movwf	(?_pow+1)^(0+128)
  1563  0C21  3000               	movlw	0
  1564  0C22  00B6               	movwf	?_pow^(0+128)
  1565  0C23  2DA6               	goto	l626
  1566  0C24                     l2498:
  1567  0C24  1683               	bsf	3,5	;RP0=1, select bank1
  1568  0C25  1303               	bcf	3,6	;RP1=0, select bank1
  1569  0C26  083D               	movf	(pow@y+3)^(0+128),w
  1570  0C27  1283               	bcf	3,5	;RP0=0, select bank0
  1571  0C28  1303               	bcf	3,6	;RP1=0, select bank0
  1572  0C29  00A3               	movwf	___fleq@ff1+3
  1573  0C2A  1683               	bsf	3,5	;RP0=1, select bank1
  1574  0C2B  1303               	bcf	3,6	;RP1=0, select bank1
  1575  0C2C  083C               	movf	(pow@y+2)^(0+128),w
  1576  0C2D  1283               	bcf	3,5	;RP0=0, select bank0
  1577  0C2E  1303               	bcf	3,6	;RP1=0, select bank0
  1578  0C2F  00A2               	movwf	___fleq@ff1+2
  1579  0C30  1683               	bsf	3,5	;RP0=1, select bank1
  1580  0C31  1303               	bcf	3,6	;RP1=0, select bank1
  1581  0C32  083B               	movf	(pow@y+1)^(0+128),w
  1582  0C33  1283               	bcf	3,5	;RP0=0, select bank0
  1583  0C34  1303               	bcf	3,6	;RP1=0, select bank0
  1584  0C35  00A1               	movwf	___fleq@ff1+1
  1585  0C36  1683               	bsf	3,5	;RP0=1, select bank1
  1586  0C37  1303               	bcf	3,6	;RP1=0, select bank1
  1587  0C38  083A               	movf	pow@y^(0+128),w
  1588  0C39  1283               	bcf	3,5	;RP0=0, select bank0
  1589  0C3A  1303               	bcf	3,6	;RP1=0, select bank0
  1590  0C3B  00A0               	movwf	___fleq@ff1
  1591  0C3C  3000               	movlw	0
  1592  0C3D  00A7               	movwf	___fleq@ff2+3
  1593  0C3E  3000               	movlw	0
  1594  0C3F  00A6               	movwf	___fleq@ff2+2
  1595  0C40  3000               	movlw	0
  1596  0C41  00A5               	movwf	___fleq@ff2+1
  1597  0C42  3000               	movlw	0
  1598  0C43  00A4               	movwf	___fleq@ff2
  1599  0C44  160A  118A  24DE  120A  158A  	fcall	___fleq
  1600  0C49  1C03               	btfss	3,0
  1601  0C4A  2C4C               	goto	u3631
  1602  0C4B  2C4D               	goto	u3630
  1603  0C4C                     u3631:
  1604  0C4C  2C58               	goto	l2504
  1605  0C4D                     u3630:
  1606  0C4D                     l2500:
  1607  0C4D  303F               	movlw	63
  1608  0C4E  1683               	bsf	3,5	;RP0=1, select bank1
  1609  0C4F  1303               	bcf	3,6	;RP1=0, select bank1
  1610  0C50  00B9               	movwf	(?_pow+3)^(0+128)
  1611  0C51  3080               	movlw	128
  1612  0C52  00B8               	movwf	(?_pow+2)^(0+128)
  1613  0C53  3000               	movlw	0
  1614  0C54  00B7               	movwf	(?_pow+1)^(0+128)
  1615  0C55  3000               	movlw	0
  1616  0C56  00B6               	movwf	?_pow^(0+128)
  1617  0C57  2DA6               	goto	l626
  1618  0C58                     l2504:
  1619  0C58  1683               	bsf	3,5	;RP0=1, select bank1
  1620  0C59  1303               	bcf	3,6	;RP1=0, select bank1
  1621  0C5A  0839               	movf	(pow@x+3)^(0+128),w
  1622  0C5B  00F3               	movwf	___flge@ff1+3
  1623  0C5C  0838               	movf	(pow@x+2)^(0+128),w
  1624  0C5D  00F2               	movwf	___flge@ff1+2
  1625  0C5E  0837               	movf	(pow@x+1)^(0+128),w
  1626  0C5F  00F1               	movwf	___flge@ff1+1
  1627  0C60  0836               	movf	pow@x^(0+128),w
  1628  0C61  00F0               	movwf	___flge@ff1
  1629  0C62  3000               	movlw	0
  1630  0C63  00F7               	movwf	___flge@ff2+3
  1631  0C64  3000               	movlw	0
  1632  0C65  00F6               	movwf	___flge@ff2+2
  1633  0C66  3000               	movlw	0
  1634  0C67  00F5               	movwf	___flge@ff2+1
  1635  0C68  3000               	movlw	0
  1636  0C69  00F4               	movwf	___flge@ff2
  1637  0C6A  120A  158A  2000  120A  158A  	fcall	___flge
  1638  0C6F  1803               	btfsc	3,0
  1639  0C70  2C72               	goto	u3641
  1640  0C71  2C73               	goto	u3640
  1641  0C72                     u3641:
  1642  0C72  2D0E               	goto	l2516
  1643  0C73                     u3640:
  1644  0C73                     l2506:
  1645  0C73  1683               	bsf	3,5	;RP0=1, select bank1
  1646  0C74  1303               	bcf	3,6	;RP1=0, select bank1
  1647  0C75  083D               	movf	(pow@y+3)^(0+128),w
  1648  0C76  1283               	bcf	3,5	;RP0=0, select bank0
  1649  0C77  1303               	bcf	3,6	;RP1=0, select bank0
  1650  0C78  00A3               	movwf	___fltol@f1+3
  1651  0C79  1683               	bsf	3,5	;RP0=1, select bank1
  1652  0C7A  1303               	bcf	3,6	;RP1=0, select bank1
  1653  0C7B  083C               	movf	(pow@y+2)^(0+128),w
  1654  0C7C  1283               	bcf	3,5	;RP0=0, select bank0
  1655  0C7D  1303               	bcf	3,6	;RP1=0, select bank0
  1656  0C7E  00A2               	movwf	___fltol@f1+2
  1657  0C7F  1683               	bsf	3,5	;RP0=1, select bank1
  1658  0C80  1303               	bcf	3,6	;RP1=0, select bank1
  1659  0C81  083B               	movf	(pow@y+1)^(0+128),w
  1660  0C82  1283               	bcf	3,5	;RP0=0, select bank0
  1661  0C83  1303               	bcf	3,6	;RP1=0, select bank0
  1662  0C84  00A1               	movwf	___fltol@f1+1
  1663  0C85  1683               	bsf	3,5	;RP0=1, select bank1
  1664  0C86  1303               	bcf	3,6	;RP1=0, select bank1
  1665  0C87  083A               	movf	pow@y^(0+128),w
  1666  0C88  1283               	bcf	3,5	;RP0=0, select bank0
  1667  0C89  1303               	bcf	3,6	;RP1=0, select bank0
  1668  0C8A  00A0               	movwf	___fltol@f1
  1669  0C8B  160A  118A  258A  120A  158A  	fcall	___fltol
  1670  0C90  1283               	bcf	3,5	;RP0=0, select bank0
  1671  0C91  1303               	bcf	3,6	;RP1=0, select bank0
  1672  0C92  0823               	movf	?___fltol+3,w
  1673  0C93  1683               	bsf	3,5	;RP0=1, select bank1
  1674  0C94  1303               	bcf	3,6	;RP1=0, select bank1
  1675  0C95  00CB               	movwf	(pow@yi+3)^(0+128)
  1676  0C96  1283               	bcf	3,5	;RP0=0, select bank0
  1677  0C97  1303               	bcf	3,6	;RP1=0, select bank0
  1678  0C98  0822               	movf	?___fltol+2,w
  1679  0C99  1683               	bsf	3,5	;RP0=1, select bank1
  1680  0C9A  1303               	bcf	3,6	;RP1=0, select bank1
  1681  0C9B  00CA               	movwf	(pow@yi+2)^(0+128)
  1682  0C9C  1283               	bcf	3,5	;RP0=0, select bank0
  1683  0C9D  1303               	bcf	3,6	;RP1=0, select bank0
  1684  0C9E  0821               	movf	?___fltol+1,w
  1685  0C9F  1683               	bsf	3,5	;RP0=1, select bank1
  1686  0CA0  1303               	bcf	3,6	;RP1=0, select bank1
  1687  0CA1  00C9               	movwf	(pow@yi+1)^(0+128)
  1688  0CA2  1283               	bcf	3,5	;RP0=0, select bank0
  1689  0CA3  1303               	bcf	3,6	;RP1=0, select bank0
  1690  0CA4  0820               	movf	?___fltol,w
  1691  0CA5  1683               	bsf	3,5	;RP0=1, select bank1
  1692  0CA6  1303               	bcf	3,6	;RP1=0, select bank1
  1693  0CA7  00C8               	movwf	pow@yi^(0+128)
  1694  0CA8  084B               	movf	(pow@yi+3)^(0+128),w
  1695  0CA9  00F3               	movwf	___xxtofl@val+3
  1696  0CAA  084A               	movf	(pow@yi+2)^(0+128),w
  1697  0CAB  00F2               	movwf	___xxtofl@val+2
  1698  0CAC  0849               	movf	(pow@yi+1)^(0+128),w
  1699  0CAD  00F1               	movwf	___xxtofl@val+1
  1700  0CAE  0848               	movf	pow@yi^(0+128),w
  1701  0CAF  00F0               	movwf	___xxtofl@val
  1702  0CB0  3000               	movlw	0
  1703  0CB1  160A  118A  2687  120A  158A  	fcall	___xxtofl
  1704  0CB6  0873               	movf	?___xxtofl+3,w
  1705  0CB7  1283               	bcf	3,5	;RP0=0, select bank0
  1706  0CB8  1303               	bcf	3,6	;RP1=0, select bank0
  1707  0CB9  00A3               	movwf	___fleq@ff1+3
  1708  0CBA  0872               	movf	?___xxtofl+2,w
  1709  0CBB  00A2               	movwf	___fleq@ff1+2
  1710  0CBC  0871               	movf	?___xxtofl+1,w
  1711  0CBD  00A1               	movwf	___fleq@ff1+1
  1712  0CBE  0870               	movf	?___xxtofl,w
  1713  0CBF  00A0               	movwf	___fleq@ff1
  1714  0CC0  1683               	bsf	3,5	;RP0=1, select bank1
  1715  0CC1  1303               	bcf	3,6	;RP1=0, select bank1
  1716  0CC2  083D               	movf	(pow@y+3)^(0+128),w
  1717  0CC3  1283               	bcf	3,5	;RP0=0, select bank0
  1718  0CC4  1303               	bcf	3,6	;RP1=0, select bank0
  1719  0CC5  00A7               	movwf	___fleq@ff2+3
  1720  0CC6  1683               	bsf	3,5	;RP0=1, select bank1
  1721  0CC7  1303               	bcf	3,6	;RP1=0, select bank1
  1722  0CC8  083C               	movf	(pow@y+2)^(0+128),w
  1723  0CC9  1283               	bcf	3,5	;RP0=0, select bank0
  1724  0CCA  1303               	bcf	3,6	;RP1=0, select bank0
  1725  0CCB  00A6               	movwf	___fleq@ff2+2
  1726  0CCC  1683               	bsf	3,5	;RP0=1, select bank1
  1727  0CCD  1303               	bcf	3,6	;RP1=0, select bank1
  1728  0CCE  083B               	movf	(pow@y+1)^(0+128),w
  1729  0CCF  1283               	bcf	3,5	;RP0=0, select bank0
  1730  0CD0  1303               	bcf	3,6	;RP1=0, select bank0
  1731  0CD1  00A5               	movwf	___fleq@ff2+1
  1732  0CD2  1683               	bsf	3,5	;RP0=1, select bank1
  1733  0CD3  1303               	bcf	3,6	;RP1=0, select bank1
  1734  0CD4  083A               	movf	pow@y^(0+128),w
  1735  0CD5  1283               	bcf	3,5	;RP0=0, select bank0
  1736  0CD6  1303               	bcf	3,6	;RP1=0, select bank0
  1737  0CD7  00A4               	movwf	___fleq@ff2
  1738  0CD8  160A  118A  24DE  120A  158A  	fcall	___fleq
  1739  0CDD  1803               	btfsc	3,0
  1740  0CDE  2CE0               	goto	u3651
  1741  0CDF  2CE1               	goto	u3650
  1742  0CE0                     u3651:
  1743  0CE0  2CF0               	goto	l2512
  1744  0CE1                     u3650:
  1745  0CE1                     l2508:
  1746  0CE1  3021               	movlw	33
  1747  0CE2  1683               	bsf	3,5	;RP0=1, select bank1
  1748  0CE3  1303               	bcf	3,6	;RP1=0, select bank1
  1749  0CE4  00D6               	movwf	_errno^(0+128)
  1750  0CE5  3000               	movlw	0
  1751  0CE6  00D7               	movwf	(_errno^(0+128)+1)
  1752  0CE7  3000               	movlw	0
  1753  0CE8  00B9               	movwf	(?_pow+3)^(0+128)
  1754  0CE9  3000               	movlw	0
  1755  0CEA  00B8               	movwf	(?_pow+2)^(0+128)
  1756  0CEB  3000               	movlw	0
  1757  0CEC  00B7               	movwf	(?_pow+1)^(0+128)
  1758  0CED  3000               	movlw	0
  1759  0CEE  00B6               	movwf	?_pow^(0+128)
  1760  0CEF  2DA6               	goto	l626
  1761  0CF0                     l2512:
  1762  0CF0  1683               	bsf	3,5	;RP0=1, select bank1
  1763  0CF1  1303               	bcf	3,6	;RP1=0, select bank1
  1764  0CF2  0848               	movf	pow@yi^(0+128),w
  1765  0CF3  3901               	andlw	1
  1766  0CF4  00BE               	movwf	??_pow^(0+128)
  1767  0CF5  083E               	movf	??_pow^(0+128),w
  1768  0CF6  00C7               	movwf	pow@sign^(0+128)
  1769  0CF7                     l2514:
  1770  0CF7  0839               	movf	(pow@x+3)^(0+128),w
  1771  0CF8  00F3               	movwf	___flneg@f1+3
  1772  0CF9  0838               	movf	(pow@x+2)^(0+128),w
  1773  0CFA  00F2               	movwf	___flneg@f1+2
  1774  0CFB  0837               	movf	(pow@x+1)^(0+128),w
  1775  0CFC  00F1               	movwf	___flneg@f1+1
  1776  0CFD  0836               	movf	pow@x^(0+128),w
  1777  0CFE  00F0               	movwf	___flneg@f1
  1778  0CFF  160A  118A  2413  120A  158A  	fcall	___flneg
  1779  0D04  0873               	movf	?___flneg+3,w
  1780  0D05  1683               	bsf	3,5	;RP0=1, select bank1
  1781  0D06  1303               	bcf	3,6	;RP1=0, select bank1
  1782  0D07  00B9               	movwf	(pow@x+3)^(0+128)
  1783  0D08  0872               	movf	?___flneg+2,w
  1784  0D09  00B8               	movwf	(pow@x+2)^(0+128)
  1785  0D0A  0871               	movf	?___flneg+1,w
  1786  0D0B  00B7               	movwf	(pow@x+1)^(0+128)
  1787  0D0C  0870               	movf	?___flneg,w
  1788  0D0D  00B6               	movwf	pow@x^(0+128)
  1789  0D0E                     l2516:
  1790  0D0E  1683               	bsf	3,5	;RP0=1, select bank1
  1791  0D0F  1303               	bcf	3,6	;RP1=0, select bank1
  1792  0D10  0839               	movf	(pow@x+3)^(0+128),w
  1793  0D11  00A7               	movwf	(log@x+3)^(0+128)
  1794  0D12  0838               	movf	(pow@x+2)^(0+128),w
  1795  0D13  00A6               	movwf	(log@x+2)^(0+128)
  1796  0D14  0837               	movf	(pow@x+1)^(0+128),w
  1797  0D15  00A5               	movwf	(log@x+1)^(0+128)
  1798  0D16  0836               	movf	pow@x^(0+128),w
  1799  0D17  00A4               	movwf	log@x^(0+128)
  1800  0D18  120A  158A  225C  120A  158A  	fcall	_log
  1801  0D1D  1683               	bsf	3,5	;RP0=1, select bank1
  1802  0D1E  1303               	bcf	3,6	;RP1=0, select bank1
  1803  0D1F  0827               	movf	(?_log+3)^(0+128),w
  1804  0D20  00C2               	movwf	(_pow$850+3)^(0+128)
  1805  0D21  0826               	movf	(?_log+2)^(0+128),w
  1806  0D22  00C1               	movwf	(_pow$850+2)^(0+128)
  1807  0D23  0825               	movf	(?_log+1)^(0+128),w
  1808  0D24  00C0               	movwf	(_pow$850+1)^(0+128)
  1809  0D25  0824               	movf	?_log^(0+128),w
  1810  0D26  00BF               	movwf	_pow$850^(0+128)
  1811  0D27                     l2518:
  1812  0D27  083D               	movf	(pow@y+3)^(0+128),w
  1813  0D28  1283               	bcf	3,5	;RP0=0, select bank0
  1814  0D29  1303               	bcf	3,6	;RP1=0, select bank0
  1815  0D2A  00B6               	movwf	___flmul@b+3
  1816  0D2B  1683               	bsf	3,5	;RP0=1, select bank1
  1817  0D2C  1303               	bcf	3,6	;RP1=0, select bank1
  1818  0D2D  083C               	movf	(pow@y+2)^(0+128),w
  1819  0D2E  1283               	bcf	3,5	;RP0=0, select bank0
  1820  0D2F  1303               	bcf	3,6	;RP1=0, select bank0
  1821  0D30  00B5               	movwf	___flmul@b+2
  1822  0D31  1683               	bsf	3,5	;RP0=1, select bank1
  1823  0D32  1303               	bcf	3,6	;RP1=0, select bank1
  1824  0D33  083B               	movf	(pow@y+1)^(0+128),w
  1825  0D34  1283               	bcf	3,5	;RP0=0, select bank0
  1826  0D35  1303               	bcf	3,6	;RP1=0, select bank0
  1827  0D36  00B4               	movwf	___flmul@b+1
  1828  0D37  1683               	bsf	3,5	;RP0=1, select bank1
  1829  0D38  1303               	bcf	3,6	;RP1=0, select bank1
  1830  0D39  083A               	movf	pow@y^(0+128),w
  1831  0D3A  1283               	bcf	3,5	;RP0=0, select bank0
  1832  0D3B  1303               	bcf	3,6	;RP1=0, select bank0
  1833  0D3C  00B3               	movwf	___flmul@b
  1834  0D3D  1683               	bsf	3,5	;RP0=1, select bank1
  1835  0D3E  1303               	bcf	3,6	;RP1=0, select bank1
  1836  0D3F  0842               	movf	(_pow$850+3)^(0+128),w
  1837  0D40  1283               	bcf	3,5	;RP0=0, select bank0
  1838  0D41  1303               	bcf	3,6	;RP1=0, select bank0
  1839  0D42  00BA               	movwf	___flmul@a+3
  1840  0D43  1683               	bsf	3,5	;RP0=1, select bank1
  1841  0D44  1303               	bcf	3,6	;RP1=0, select bank1
  1842  0D45  0841               	movf	(_pow$850+2)^(0+128),w
  1843  0D46  1283               	bcf	3,5	;RP0=0, select bank0
  1844  0D47  1303               	bcf	3,6	;RP1=0, select bank0
  1845  0D48  00B9               	movwf	___flmul@a+2
  1846  0D49  1683               	bsf	3,5	;RP0=1, select bank1
  1847  0D4A  1303               	bcf	3,6	;RP1=0, select bank1
  1848  0D4B  0840               	movf	(_pow$850+1)^(0+128),w
  1849  0D4C  1283               	bcf	3,5	;RP0=0, select bank0
  1850  0D4D  1303               	bcf	3,6	;RP1=0, select bank0
  1851  0D4E  00B8               	movwf	___flmul@a+1
  1852  0D4F  1683               	bsf	3,5	;RP0=1, select bank1
  1853  0D50  1303               	bcf	3,6	;RP1=0, select bank1
  1854  0D51  083F               	movf	_pow$850^(0+128),w
  1855  0D52  1283               	bcf	3,5	;RP0=0, select bank0
  1856  0D53  1303               	bcf	3,6	;RP1=0, select bank0
  1857  0D54  00B7               	movwf	___flmul@a
  1858  0D55  120A  118A  2494  120A  158A  	fcall	___flmul
  1859  0D5A  1283               	bcf	3,5	;RP0=0, select bank0
  1860  0D5B  1303               	bcf	3,6	;RP1=0, select bank0
  1861  0D5C  0836               	movf	?___flmul+3,w
  1862  0D5D  1683               	bsf	3,5	;RP0=1, select bank1
  1863  0D5E  1303               	bcf	3,6	;RP1=0, select bank1
  1864  0D5F  00C6               	movwf	(_pow$851+3)^(0+128)
  1865  0D60  1283               	bcf	3,5	;RP0=0, select bank0
  1866  0D61  1303               	bcf	3,6	;RP1=0, select bank0
  1867  0D62  0835               	movf	?___flmul+2,w
  1868  0D63  1683               	bsf	3,5	;RP0=1, select bank1
  1869  0D64  1303               	bcf	3,6	;RP1=0, select bank1
  1870  0D65  00C5               	movwf	(_pow$851+2)^(0+128)
  1871  0D66  1283               	bcf	3,5	;RP0=0, select bank0
  1872  0D67  1303               	bcf	3,6	;RP1=0, select bank0
  1873  0D68  0834               	movf	?___flmul+1,w
  1874  0D69  1683               	bsf	3,5	;RP0=1, select bank1
  1875  0D6A  1303               	bcf	3,6	;RP1=0, select bank1
  1876  0D6B  00C4               	movwf	(_pow$851+1)^(0+128)
  1877  0D6C  1283               	bcf	3,5	;RP0=0, select bank0
  1878  0D6D  1303               	bcf	3,6	;RP1=0, select bank0
  1879  0D6E  0833               	movf	?___flmul,w
  1880  0D6F  1683               	bsf	3,5	;RP0=1, select bank1
  1881  0D70  1303               	bcf	3,6	;RP1=0, select bank1
  1882  0D71  00C3               	movwf	_pow$851^(0+128)
  1883  0D72                     l2520:
  1884  0D72  0846               	movf	(_pow$851+3)^(0+128),w
  1885  0D73  00AD               	movwf	(exp@x+3)^(0+128)
  1886  0D74  0845               	movf	(_pow$851+2)^(0+128),w
  1887  0D75  00AC               	movwf	(exp@x+2)^(0+128)
  1888  0D76  0844               	movf	(_pow$851+1)^(0+128),w
  1889  0D77  00AB               	movwf	(exp@x+1)^(0+128)
  1890  0D78  0843               	movf	_pow$851^(0+128),w
  1891  0D79  00AA               	movwf	exp@x^(0+128)
  1892  0D7A  120A  158A  25A7  120A  158A  	fcall	_exp
  1893  0D7F  1683               	bsf	3,5	;RP0=1, select bank1
  1894  0D80  1303               	bcf	3,6	;RP1=0, select bank1
  1895  0D81  082D               	movf	(?_exp+3)^(0+128),w
  1896  0D82  00B9               	movwf	(pow@x+3)^(0+128)
  1897  0D83  082C               	movf	(?_exp+2)^(0+128),w
  1898  0D84  00B8               	movwf	(pow@x+2)^(0+128)
  1899  0D85  082B               	movf	(?_exp+1)^(0+128),w
  1900  0D86  00B7               	movwf	(pow@x+1)^(0+128)
  1901  0D87  082A               	movf	?_exp^(0+128),w
  1902  0D88  00B6               	movwf	pow@x^(0+128)
  1903  0D89                     l2522:
  1904  0D89  0847               	movf	pow@sign^(0+128),w
  1905  0D8A  1903               	btfsc	3,2
  1906  0D8B  2D8D               	goto	u3661
  1907  0D8C  2D8E               	goto	u3660
  1908  0D8D                     u3661:
  1909  0D8D  2DA6               	goto	l630
  1910  0D8E                     u3660:
  1911  0D8E                     l2524:
  1912  0D8E  0839               	movf	(pow@x+3)^(0+128),w
  1913  0D8F  00F3               	movwf	___flneg@f1+3
  1914  0D90  0838               	movf	(pow@x+2)^(0+128),w
  1915  0D91  00F2               	movwf	___flneg@f1+2
  1916  0D92  0837               	movf	(pow@x+1)^(0+128),w
  1917  0D93  00F1               	movwf	___flneg@f1+1
  1918  0D94  0836               	movf	pow@x^(0+128),w
  1919  0D95  00F0               	movwf	___flneg@f1
  1920  0D96  160A  118A  2413  120A  158A  	fcall	___flneg
  1921  0D9B  0873               	movf	?___flneg+3,w
  1922  0D9C  1683               	bsf	3,5	;RP0=1, select bank1
  1923  0D9D  1303               	bcf	3,6	;RP1=0, select bank1
  1924  0D9E  00B9               	movwf	(?_pow+3)^(0+128)
  1925  0D9F  0872               	movf	?___flneg+2,w
  1926  0DA0  00B8               	movwf	(?_pow+2)^(0+128)
  1927  0DA1  0871               	movf	?___flneg+1,w
  1928  0DA2  00B7               	movwf	(?_pow+1)^(0+128)
  1929  0DA3  0870               	movf	?___flneg,w
  1930  0DA4  00B6               	movwf	?_pow^(0+128)
  1931  0DA5  2DA6               	goto	l626
  1932  0DA6                     l630:
  1933  0DA6                     l626:
  1934  0DA6  0008               	return
  1935  0DA7                     __end_of_pow:
  1936                           
  1937                           	psect	text7
  1938  0A5C                     __ptext7:	
  1939 ;; *************** function _log *****************
  1940 ;; Defined at:
  1941 ;;		line 5 in file "C:\Program Files\Microchip\xc8\v2.31\pic\sources\c90\common\log.c"
  1942 ;; Parameters:    Size  Location     Type
  1943 ;;  x               4    4[BANK1 ] unsigned char 
  1944 ;; Auto vars:     Size  Location     Type
  1945 ;;  exponent        2    8[BANK1 ] int 
  1946 ;; Return value:  Size  Location     Type
  1947 ;;                  4    4[BANK1 ] int 
  1948 ;; Registers used:
  1949 ;;		wreg, fsr0l, fsr0h, status,2, status,0, btemp+1, pclath, cstack
  1950 ;; Tracked objects:
  1951 ;;		On entry : 0/0
  1952 ;;		On exit  : 0/0
  1953 ;;		Unchanged: 0/0
  1954 ;; Data sizes:     COMMON   BANK0   BANK1   BANK3   BANK2
  1955 ;;      Params:         0       0       4       0       0
  1956 ;;      Locals:         0       0       2       0       0
  1957 ;;      Temps:          0       1       0       0       0
  1958 ;;      Totals:         0       1       6       0       0
  1959 ;;Total ram usage:        7 bytes
  1960 ;; Hardware stack levels used:    1
  1961 ;; Hardware stack levels required when called:    3
  1962 ;; This function calls:
  1963 ;;		___fladd
  1964 ;;		___fleq
  1965 ;;		___flge
  1966 ;;		___flmul
  1967 ;;		___xxtofl
  1968 ;;		_eval_poly
  1969 ;;		_frexp
  1970 ;; This function is called by:
  1971 ;;		_pow
  1972 ;; This function uses a non-reentrant model
  1973 ;;
  1974                           
  1975                           
  1976                           ;psect for function _log
  1977  0A5C                     _log:
  1978  0A5C                     l2420:	
  1979                           ;incstack = 0
  1980                           ; Regs used in _log: [wreg-fsr0h+status,2+status,0+btemp+1+pclath+cstack]
  1981                           
  1982  0A5C  1683               	bsf	3,5	;RP0=1, select bank1
  1983  0A5D  1303               	bcf	3,6	;RP1=0, select bank1
  1984  0A5E  0827               	movf	(log@x+3)^(0+128),w
  1985  0A5F  00F3               	movwf	___flge@ff1+3
  1986  0A60  0826               	movf	(log@x+2)^(0+128),w
  1987  0A61  00F2               	movwf	___flge@ff1+2
  1988  0A62  0825               	movf	(log@x+1)^(0+128),w
  1989  0A63  00F1               	movwf	___flge@ff1+1
  1990  0A64  0824               	movf	log@x^(0+128),w
  1991  0A65  00F0               	movwf	___flge@ff1
  1992  0A66  3000               	movlw	0
  1993  0A67  00F7               	movwf	___flge@ff2+3
  1994  0A68  3000               	movlw	0
  1995  0A69  00F6               	movwf	___flge@ff2+2
  1996  0A6A  3000               	movlw	0
  1997  0A6B  00F5               	movwf	___flge@ff2+1
  1998  0A6C  3000               	movlw	0
  1999  0A6D  00F4               	movwf	___flge@ff2
  2000  0A6E  120A  158A  2000  120A  158A  	fcall	___flge
  2001  0A73  1803               	btfsc	3,0
  2002  0A74  2A76               	goto	u3511
  2003  0A75  2A77               	goto	u3510
  2004  0A76                     u3511:
  2005  0A76  2A86               	goto	l2426
  2006  0A77                     u3510:
  2007  0A77                     l2422:
  2008  0A77  3021               	movlw	33
  2009  0A78  1683               	bsf	3,5	;RP0=1, select bank1
  2010  0A79  1303               	bcf	3,6	;RP1=0, select bank1
  2011  0A7A  00D6               	movwf	_errno^(0+128)
  2012  0A7B  3000               	movlw	0
  2013  0A7C  00D7               	movwf	(_errno^(0+128)+1)
  2014  0A7D  3000               	movlw	0
  2015  0A7E  00A7               	movwf	(?_log+3)^(0+128)
  2016  0A7F  3000               	movlw	0
  2017  0A80  00A6               	movwf	(?_log+2)^(0+128)
  2018  0A81  3000               	movlw	0
  2019  0A82  00A5               	movwf	(?_log+1)^(0+128)
  2020  0A83  3000               	movlw	0
  2021  0A84  00A4               	movwf	?_log^(0+128)
  2022  0A85  2BCD               	goto	l694
  2023  0A86                     l2426:
  2024  0A86  1683               	bsf	3,5	;RP0=1, select bank1
  2025  0A87  1303               	bcf	3,6	;RP1=0, select bank1
  2026  0A88  0827               	movf	(log@x+3)^(0+128),w
  2027  0A89  1283               	bcf	3,5	;RP0=0, select bank0
  2028  0A8A  1303               	bcf	3,6	;RP1=0, select bank0
  2029  0A8B  00A3               	movwf	___fleq@ff1+3
  2030  0A8C  1683               	bsf	3,5	;RP0=1, select bank1
  2031  0A8D  1303               	bcf	3,6	;RP1=0, select bank1
  2032  0A8E  0826               	movf	(log@x+2)^(0+128),w
  2033  0A8F  1283               	bcf	3,5	;RP0=0, select bank0
  2034  0A90  1303               	bcf	3,6	;RP1=0, select bank0
  2035  0A91  00A2               	movwf	___fleq@ff1+2
  2036  0A92  1683               	bsf	3,5	;RP0=1, select bank1
  2037  0A93  1303               	bcf	3,6	;RP1=0, select bank1
  2038  0A94  0825               	movf	(log@x+1)^(0+128),w
  2039  0A95  1283               	bcf	3,5	;RP0=0, select bank0
  2040  0A96  1303               	bcf	3,6	;RP1=0, select bank0
  2041  0A97  00A1               	movwf	___fleq@ff1+1
  2042  0A98  1683               	bsf	3,5	;RP0=1, select bank1
  2043  0A99  1303               	bcf	3,6	;RP1=0, select bank1
  2044  0A9A  0824               	movf	log@x^(0+128),w
  2045  0A9B  1283               	bcf	3,5	;RP0=0, select bank0
  2046  0A9C  1303               	bcf	3,6	;RP1=0, select bank0
  2047  0A9D  00A0               	movwf	___fleq@ff1
  2048  0A9E  3000               	movlw	0
  2049  0A9F  00A7               	movwf	___fleq@ff2+3
  2050  0AA0  3000               	movlw	0
  2051  0AA1  00A6               	movwf	___fleq@ff2+2
  2052  0AA2  3000               	movlw	0
  2053  0AA3  00A5               	movwf	___fleq@ff2+1
  2054  0AA4  3000               	movlw	0
  2055  0AA5  00A4               	movwf	___fleq@ff2
  2056  0AA6  160A  118A  24DE  120A  158A  	fcall	___fleq
  2057  0AAB  1C03               	btfss	3,0
  2058  0AAC  2AAE               	goto	u3521
  2059  0AAD  2AAF               	goto	u3520
  2060  0AAE                     u3521:
  2061  0AAE  2ABE               	goto	l2432
  2062  0AAF                     u3520:
  2063  0AAF                     l2428:
  2064  0AAF  3022               	movlw	34
  2065  0AB0  1683               	bsf	3,5	;RP0=1, select bank1
  2066  0AB1  1303               	bcf	3,6	;RP1=0, select bank1
  2067  0AB2  00D6               	movwf	_errno^(0+128)
  2068  0AB3  3000               	movlw	0
  2069  0AB4  00D7               	movwf	(_errno^(0+128)+1)
  2070  0AB5  3000               	movlw	0
  2071  0AB6  00A7               	movwf	(?_log+3)^(0+128)
  2072  0AB7  3000               	movlw	0
  2073  0AB8  00A6               	movwf	(?_log+2)^(0+128)
  2074  0AB9  3000               	movlw	0
  2075  0ABA  00A5               	movwf	(?_log+1)^(0+128)
  2076  0ABB  3000               	movlw	0
  2077  0ABC  00A4               	movwf	?_log^(0+128)
  2078  0ABD  2BCD               	goto	l694
  2079  0ABE                     l2432:
  2080  0ABE  30BF               	movlw	191
  2081  0ABF  1283               	bcf	3,5	;RP0=0, select bank0
  2082  0AC0  1303               	bcf	3,6	;RP1=0, select bank0
  2083  0AC1  00D0               	movwf	___fladd@b+3
  2084  0AC2  3080               	movlw	128
  2085  0AC3  00CF               	movwf	___fladd@b+2
  2086  0AC4  3000               	movlw	0
  2087  0AC5  00CE               	movwf	___fladd@b+1
  2088  0AC6  3000               	movlw	0
  2089  0AC7  00CD               	movwf	___fladd@b
  2090  0AC8  3040               	movlw	64
  2091  0AC9  00B6               	movwf	___flmul@b+3
  2092  0ACA  3000               	movlw	0
  2093  0ACB  00B5               	movwf	___flmul@b+2
  2094  0ACC  3000               	movlw	0
  2095  0ACD  00B4               	movwf	___flmul@b+1
  2096  0ACE  3000               	movlw	0
  2097  0ACF  00B3               	movwf	___flmul@b
  2098  0AD0  30A8               	movlw	(low (log@exponent| 0))& (0+255)
  2099  0AD1  00ED               	movwf	??_log
  2100  0AD2  086D               	movf	??_log,w
  2101  0AD3  00B0               	movwf	frexp@eptr
  2102  0AD4  1683               	bsf	3,5	;RP0=1, select bank1
  2103  0AD5  1303               	bcf	3,6	;RP1=0, select bank1
  2104  0AD6  0827               	movf	(log@x+3)^(0+128),w
  2105  0AD7  1283               	bcf	3,5	;RP0=0, select bank0
  2106  0AD8  1303               	bcf	3,6	;RP1=0, select bank0
  2107  0AD9  00AF               	movwf	frexp@value+3
  2108  0ADA  1683               	bsf	3,5	;RP0=1, select bank1
  2109  0ADB  1303               	bcf	3,6	;RP1=0, select bank1
  2110  0ADC  0826               	movf	(log@x+2)^(0+128),w
  2111  0ADD  1283               	bcf	3,5	;RP0=0, select bank0
  2112  0ADE  1303               	bcf	3,6	;RP1=0, select bank0
  2113  0ADF  00AE               	movwf	frexp@value+2
  2114  0AE0  1683               	bsf	3,5	;RP0=1, select bank1
  2115  0AE1  1303               	bcf	3,6	;RP1=0, select bank1
  2116  0AE2  0825               	movf	(log@x+1)^(0+128),w
  2117  0AE3  1283               	bcf	3,5	;RP0=0, select bank0
  2118  0AE4  1303               	bcf	3,6	;RP1=0, select bank0
  2119  0AE5  00AD               	movwf	frexp@value+1
  2120  0AE6  1683               	bsf	3,5	;RP0=1, select bank1
  2121  0AE7  1303               	bcf	3,6	;RP1=0, select bank1
  2122  0AE8  0824               	movf	log@x^(0+128),w
  2123  0AE9  1283               	bcf	3,5	;RP0=0, select bank0
  2124  0AEA  1303               	bcf	3,6	;RP1=0, select bank0
  2125  0AEB  00AC               	movwf	frexp@value
  2126  0AEC  160A  118A  252E  120A  158A  	fcall	_frexp
  2127  0AF1  1283               	bcf	3,5	;RP0=0, select bank0
  2128  0AF2  1303               	bcf	3,6	;RP1=0, select bank0
  2129  0AF3  082F               	movf	?_frexp+3,w
  2130  0AF4  00BA               	movwf	___flmul@a+3
  2131  0AF5  082E               	movf	?_frexp+2,w
  2132  0AF6  00B9               	movwf	___flmul@a+2
  2133  0AF7  082D               	movf	?_frexp+1,w
  2134  0AF8  00B8               	movwf	___flmul@a+1
  2135  0AF9  082C               	movf	?_frexp,w
  2136  0AFA  00B7               	movwf	___flmul@a
  2137  0AFB  120A  118A  2494  120A  158A  	fcall	___flmul
  2138  0B00  1283               	bcf	3,5	;RP0=0, select bank0
  2139  0B01  1303               	bcf	3,6	;RP1=0, select bank0
  2140  0B02  0836               	movf	?___flmul+3,w
  2141  0B03  00D4               	movwf	___fladd@a+3
  2142  0B04  0835               	movf	?___flmul+2,w
  2143  0B05  00D3               	movwf	___fladd@a+2
  2144  0B06  0834               	movf	?___flmul+1,w
  2145  0B07  00D2               	movwf	___fladd@a+1
  2146  0B08  0833               	movf	?___flmul,w
  2147  0B09  00D1               	movwf	___fladd@a
  2148  0B0A  120A  118A  220C  120A  158A  	fcall	___fladd
  2149  0B0F  1283               	bcf	3,5	;RP0=0, select bank0
  2150  0B10  1303               	bcf	3,6	;RP1=0, select bank0
  2151  0B11  0850               	movf	?___fladd+3,w
  2152  0B12  1683               	bsf	3,5	;RP0=1, select bank1
  2153  0B13  1303               	bcf	3,6	;RP1=0, select bank1
  2154  0B14  00A7               	movwf	(log@x+3)^(0+128)
  2155  0B15  1283               	bcf	3,5	;RP0=0, select bank0
  2156  0B16  1303               	bcf	3,6	;RP1=0, select bank0
  2157  0B17  084F               	movf	?___fladd+2,w
  2158  0B18  1683               	bsf	3,5	;RP0=1, select bank1
  2159  0B19  1303               	bcf	3,6	;RP1=0, select bank1
  2160  0B1A  00A6               	movwf	(log@x+2)^(0+128)
  2161  0B1B  1283               	bcf	3,5	;RP0=0, select bank0
  2162  0B1C  1303               	bcf	3,6	;RP1=0, select bank0
  2163  0B1D  084E               	movf	?___fladd+1,w
  2164  0B1E  1683               	bsf	3,5	;RP0=1, select bank1
  2165  0B1F  1303               	bcf	3,6	;RP1=0, select bank1
  2166  0B20  00A5               	movwf	(log@x+1)^(0+128)
  2167  0B21  1283               	bcf	3,5	;RP0=0, select bank0
  2168  0B22  1303               	bcf	3,6	;RP1=0, select bank0
  2169  0B23  084D               	movf	?___fladd,w
  2170  0B24  1683               	bsf	3,5	;RP0=1, select bank1
  2171  0B25  1303               	bcf	3,6	;RP1=0, select bank1
  2172  0B26  00A4               	movwf	log@x^(0+128)
  2173  0B27                     l2434:
  2174  0B27  30FF               	movlw	255
  2175  0B28  07A8               	addwf	log@exponent^(0+128),f
  2176  0B29  1803               	skipnc
  2177  0B2A  0AA9               	incf	(log@exponent+1)^(0+128),f
  2178  0B2B  30FF               	movlw	255
  2179  0B2C  07A9               	addwf	(log@exponent+1)^(0+128),f
  2180  0B2D                     l2436:
  2181  0B2D  0827               	movf	(log@x+3)^(0+128),w
  2182  0B2E  1283               	bcf	3,5	;RP0=0, select bank0
  2183  0B2F  1303               	bcf	3,6	;RP1=0, select bank0
  2184  0B30  00E4               	movwf	eval_poly@x+3
  2185  0B31  1683               	bsf	3,5	;RP0=1, select bank1
  2186  0B32  1303               	bcf	3,6	;RP1=0, select bank1
  2187  0B33  0826               	movf	(log@x+2)^(0+128),w
  2188  0B34  1283               	bcf	3,5	;RP0=0, select bank0
  2189  0B35  1303               	bcf	3,6	;RP1=0, select bank0
  2190  0B36  00E3               	movwf	eval_poly@x+2
  2191  0B37  1683               	bsf	3,5	;RP0=1, select bank1
  2192  0B38  1303               	bcf	3,6	;RP1=0, select bank1
  2193  0B39  0825               	movf	(log@x+1)^(0+128),w
  2194  0B3A  1283               	bcf	3,5	;RP0=0, select bank0
  2195  0B3B  1303               	bcf	3,6	;RP1=0, select bank0
  2196  0B3C  00E2               	movwf	eval_poly@x+1
  2197  0B3D  1683               	bsf	3,5	;RP0=1, select bank1
  2198  0B3E  1303               	bcf	3,6	;RP1=0, select bank1
  2199  0B3F  0824               	movf	log@x^(0+128),w
  2200  0B40  1283               	bcf	3,5	;RP0=0, select bank0
  2201  0B41  1303               	bcf	3,6	;RP1=0, select bank0
  2202  0B42  00E1               	movwf	eval_poly@x
  2203  0B43  3029               	movlw	(low ((log@coeff-__stringbase)| (0+32768)))& (0+255)
  2204  0B44  00ED               	movwf	??_log
  2205  0B45  086D               	movf	??_log,w
  2206  0B46  00E5               	movwf	eval_poly@d
  2207  0B47  3008               	movlw	8
  2208  0B48  00E6               	movwf	eval_poly@n
  2209  0B49  3000               	movlw	0
  2210  0B4A  00E7               	movwf	eval_poly@n+1
  2211  0B4B  120A  158A  20A2  120A  158A  	fcall	_eval_poly
  2212  0B50  1283               	bcf	3,5	;RP0=0, select bank0
  2213  0B51  1303               	bcf	3,6	;RP1=0, select bank0
  2214  0B52  0864               	movf	?_eval_poly+3,w
  2215  0B53  1683               	bsf	3,5	;RP0=1, select bank1
  2216  0B54  1303               	bcf	3,6	;RP1=0, select bank1
  2217  0B55  00A7               	movwf	(log@x+3)^(0+128)
  2218  0B56  1283               	bcf	3,5	;RP0=0, select bank0
  2219  0B57  1303               	bcf	3,6	;RP1=0, select bank0
  2220  0B58  0863               	movf	?_eval_poly+2,w
  2221  0B59  1683               	bsf	3,5	;RP0=1, select bank1
  2222  0B5A  1303               	bcf	3,6	;RP1=0, select bank1
  2223  0B5B  00A6               	movwf	(log@x+2)^(0+128)
  2224  0B5C  1283               	bcf	3,5	;RP0=0, select bank0
  2225  0B5D  1303               	bcf	3,6	;RP1=0, select bank0
  2226  0B5E  0862               	movf	?_eval_poly+1,w
  2227  0B5F  1683               	bsf	3,5	;RP0=1, select bank1
  2228  0B60  1303               	bcf	3,6	;RP1=0, select bank1
  2229  0B61  00A5               	movwf	(log@x+1)^(0+128)
  2230  0B62  1283               	bcf	3,5	;RP0=0, select bank0
  2231  0B63  1303               	bcf	3,6	;RP1=0, select bank0
  2232  0B64  0861               	movf	?_eval_poly,w
  2233  0B65  1683               	bsf	3,5	;RP0=1, select bank1
  2234  0B66  1303               	bcf	3,6	;RP1=0, select bank1
  2235  0B67  00A4               	movwf	log@x^(0+128)
  2236  0B68                     l2438:
  2237  0B68  0827               	movf	(log@x+3)^(0+128),w
  2238  0B69  1283               	bcf	3,5	;RP0=0, select bank0
  2239  0B6A  1303               	bcf	3,6	;RP1=0, select bank0
  2240  0B6B  00D0               	movwf	___fladd@b+3
  2241  0B6C  1683               	bsf	3,5	;RP0=1, select bank1
  2242  0B6D  1303               	bcf	3,6	;RP1=0, select bank1
  2243  0B6E  0826               	movf	(log@x+2)^(0+128),w
  2244  0B6F  1283               	bcf	3,5	;RP0=0, select bank0
  2245  0B70  1303               	bcf	3,6	;RP1=0, select bank0
  2246  0B71  00CF               	movwf	___fladd@b+2
  2247  0B72  1683               	bsf	3,5	;RP0=1, select bank1
  2248  0B73  1303               	bcf	3,6	;RP1=0, select bank1
  2249  0B74  0825               	movf	(log@x+1)^(0+128),w
  2250  0B75  1283               	bcf	3,5	;RP0=0, select bank0
  2251  0B76  1303               	bcf	3,6	;RP1=0, select bank0
  2252  0B77  00CE               	movwf	___fladd@b+1
  2253  0B78  1683               	bsf	3,5	;RP0=1, select bank1
  2254  0B79  1303               	bcf	3,6	;RP1=0, select bank1
  2255  0B7A  0824               	movf	log@x^(0+128),w
  2256  0B7B  1283               	bcf	3,5	;RP0=0, select bank0
  2257  0B7C  1303               	bcf	3,6	;RP1=0, select bank0
  2258  0B7D  00CD               	movwf	___fladd@b
  2259  0B7E  303F               	movlw	63
  2260  0B7F  00B6               	movwf	___flmul@b+3
  2261  0B80  3031               	movlw	49
  2262  0B81  00B5               	movwf	___flmul@b+2
  2263  0B82  3072               	movlw	114
  2264  0B83  00B4               	movwf	___flmul@b+1
  2265  0B84  3018               	movlw	24
  2266  0B85  00B3               	movwf	___flmul@b
  2267  0B86  1683               	bsf	3,5	;RP0=1, select bank1
  2268  0B87  1303               	bcf	3,6	;RP1=0, select bank1
  2269  0B88  0828               	movf	log@exponent^(0+128),w
  2270  0B89  00F0               	movwf	___xxtofl@val
  2271  0B8A  0829               	movf	(log@exponent+1)^(0+128),w
  2272  0B8B  00F1               	movwf	___xxtofl@val+1
  2273  0B8C  3000               	movlw	0
  2274  0B8D  1BF1               	btfsc	___xxtofl@val+1,7
  2275  0B8E  30FF               	movlw	255
  2276  0B8F  00F2               	movwf	___xxtofl@val+2
  2277  0B90  00F3               	movwf	___xxtofl@val+3
  2278  0B91  3001               	movlw	1
  2279  0B92  160A  118A  2687  120A  158A  	fcall	___xxtofl
  2280  0B97  0873               	movf	?___xxtofl+3,w
  2281  0B98  1283               	bcf	3,5	;RP0=0, select bank0
  2282  0B99  1303               	bcf	3,6	;RP1=0, select bank0
  2283  0B9A  00BA               	movwf	___flmul@a+3
  2284  0B9B  0872               	movf	?___xxtofl+2,w
  2285  0B9C  00B9               	movwf	___flmul@a+2
  2286  0B9D  0871               	movf	?___xxtofl+1,w
  2287  0B9E  00B8               	movwf	___flmul@a+1
  2288  0B9F  0870               	movf	?___xxtofl,w
  2289  0BA0  00B7               	movwf	___flmul@a
  2290  0BA1  120A  118A  2494  120A  158A  	fcall	___flmul
  2291  0BA6  1283               	bcf	3,5	;RP0=0, select bank0
  2292  0BA7  1303               	bcf	3,6	;RP1=0, select bank0
  2293  0BA8  0836               	movf	?___flmul+3,w
  2294  0BA9  00D4               	movwf	___fladd@a+3
  2295  0BAA  0835               	movf	?___flmul+2,w
  2296  0BAB  00D3               	movwf	___fladd@a+2
  2297  0BAC  0834               	movf	?___flmul+1,w
  2298  0BAD  00D2               	movwf	___fladd@a+1
  2299  0BAE  0833               	movf	?___flmul,w
  2300  0BAF  00D1               	movwf	___fladd@a
  2301  0BB0  120A  118A  220C  120A  158A  	fcall	___fladd
  2302  0BB5  1283               	bcf	3,5	;RP0=0, select bank0
  2303  0BB6  1303               	bcf	3,6	;RP1=0, select bank0
  2304  0BB7  0850               	movf	?___fladd+3,w
  2305  0BB8  1683               	bsf	3,5	;RP0=1, select bank1
  2306  0BB9  1303               	bcf	3,6	;RP1=0, select bank1
  2307  0BBA  00A7               	movwf	(?_log+3)^(0+128)
  2308  0BBB  1283               	bcf	3,5	;RP0=0, select bank0
  2309  0BBC  1303               	bcf	3,6	;RP1=0, select bank0
  2310  0BBD  084F               	movf	?___fladd+2,w
  2311  0BBE  1683               	bsf	3,5	;RP0=1, select bank1
  2312  0BBF  1303               	bcf	3,6	;RP1=0, select bank1
  2313  0BC0  00A6               	movwf	(?_log+2)^(0+128)
  2314  0BC1  1283               	bcf	3,5	;RP0=0, select bank0
  2315  0BC2  1303               	bcf	3,6	;RP1=0, select bank0
  2316  0BC3  084E               	movf	?___fladd+1,w
  2317  0BC4  1683               	bsf	3,5	;RP0=1, select bank1
  2318  0BC5  1303               	bcf	3,6	;RP1=0, select bank1
  2319  0BC6  00A5               	movwf	(?_log+1)^(0+128)
  2320  0BC7  1283               	bcf	3,5	;RP0=0, select bank0
  2321  0BC8  1303               	bcf	3,6	;RP1=0, select bank0
  2322  0BC9  084D               	movf	?___fladd,w
  2323  0BCA  1683               	bsf	3,5	;RP0=1, select bank1
  2324  0BCB  1303               	bcf	3,6	;RP1=0, select bank1
  2325  0BCC  00A4               	movwf	?_log^(0+128)
  2326  0BCD                     l694:
  2327  0BCD  0008               	return
  2328  0BCE                     __end_of_log:
  2329                           
  2330                           	psect	text8
  2331  0DA7                     __ptext8:	
  2332 ;; *************** function _exp *****************
  2333 ;; Defined at:
  2334 ;;		line 12 in file "C:\Program Files\Microchip\xc8\v2.31\pic\sources\c90\common\exp.c"
  2335 ;; Parameters:    Size  Location     Type
  2336 ;;  x               4   10[BANK1 ] int 
  2337 ;; Auto vars:     Size  Location     Type
  2338 ;;  exponent        2   19[BANK1 ] int 
  2339 ;;  sign            1   21[BANK1 ] unsigned char 
  2340 ;; Return value:  Size  Location     Type
  2341 ;;                  4   10[BANK1 ] unsigned char 
  2342 ;; Registers used:
  2343 ;;		wreg, fsr0l, fsr0h, status,2, status,0, btemp+1, pclath, cstack
  2344 ;; Tracked objects:
  2345 ;;		On entry : 0/0
  2346 ;;		On exit  : 0/0
  2347 ;;		Unchanged: 0/0
  2348 ;; Data sizes:     COMMON   BANK0   BANK1   BANK3   BANK2
  2349 ;;      Params:         0       0       4       0       0
  2350 ;;      Locals:         0       0       7       0       0
  2351 ;;      Temps:          0       0       1       0       0
  2352 ;;      Totals:         0       0      12       0       0
  2353 ;;Total ram usage:       12 bytes
  2354 ;; Hardware stack levels used:    1
  2355 ;; Hardware stack levels required when called:    3
  2356 ;; This function calls:
  2357 ;;		___fldiv
  2358 ;;		___fleq
  2359 ;;		___flge
  2360 ;;		___flmul
  2361 ;;		___flneg
  2362 ;;		___flsub
  2363 ;;		___fltol
  2364 ;;		___xxtofl
  2365 ;;		_eval_poly
  2366 ;;		_floor
  2367 ;;		_ldexp
  2368 ;; This function is called by:
  2369 ;;		_pow
  2370 ;; This function uses a non-reentrant model
  2371 ;;
  2372                           
  2373                           
  2374                           ;psect for function _exp
  2375  0DA7                     _exp:
  2376  0DA7                     l2442:	
  2377                           ;incstack = 0
  2378                           ; Regs used in _exp: [wreg-fsr0h+status,2+status,0+btemp+1+pclath+cstack]
  2379                           
  2380  0DA7  1683               	bsf	3,5	;RP0=1, select bank1
  2381  0DA8  1303               	bcf	3,6	;RP1=0, select bank1
  2382  0DA9  082D               	movf	(exp@x+3)^(0+128),w
  2383  0DAA  1283               	bcf	3,5	;RP0=0, select bank0
  2384  0DAB  1303               	bcf	3,6	;RP1=0, select bank0
  2385  0DAC  00A3               	movwf	___fleq@ff1+3
  2386  0DAD  1683               	bsf	3,5	;RP0=1, select bank1
  2387  0DAE  1303               	bcf	3,6	;RP1=0, select bank1
  2388  0DAF  082C               	movf	(exp@x+2)^(0+128),w
  2389  0DB0  1283               	bcf	3,5	;RP0=0, select bank0
  2390  0DB1  1303               	bcf	3,6	;RP1=0, select bank0
  2391  0DB2  00A2               	movwf	___fleq@ff1+2
  2392  0DB3  1683               	bsf	3,5	;RP0=1, select bank1
  2393  0DB4  1303               	bcf	3,6	;RP1=0, select bank1
  2394  0DB5  082B               	movf	(exp@x+1)^(0+128),w
  2395  0DB6  1283               	bcf	3,5	;RP0=0, select bank0
  2396  0DB7  1303               	bcf	3,6	;RP1=0, select bank0
  2397  0DB8  00A1               	movwf	___fleq@ff1+1
  2398  0DB9  1683               	bsf	3,5	;RP0=1, select bank1
  2399  0DBA  1303               	bcf	3,6	;RP1=0, select bank1
  2400  0DBB  082A               	movf	exp@x^(0+128),w
  2401  0DBC  1283               	bcf	3,5	;RP0=0, select bank0
  2402  0DBD  1303               	bcf	3,6	;RP1=0, select bank0
  2403  0DBE  00A0               	movwf	___fleq@ff1
  2404  0DBF  3000               	movlw	0
  2405  0DC0  00A7               	movwf	___fleq@ff2+3
  2406  0DC1  3000               	movlw	0
  2407  0DC2  00A6               	movwf	___fleq@ff2+2
  2408  0DC3  3000               	movlw	0
  2409  0DC4  00A5               	movwf	___fleq@ff2+1
  2410  0DC5  3000               	movlw	0
  2411  0DC6  00A4               	movwf	___fleq@ff2
  2412  0DC7  160A  118A  24DE  120A  158A  	fcall	___fleq
  2413  0DCC  1C03               	btfss	3,0
  2414  0DCD  2DCF               	goto	u3531
  2415  0DCE  2DD0               	goto	u3530
  2416  0DCF                     u3531:
  2417  0DCF  2DDB               	goto	l2448
  2418  0DD0                     u3530:
  2419  0DD0                     l2444:
  2420  0DD0  303F               	movlw	63
  2421  0DD1  1683               	bsf	3,5	;RP0=1, select bank1
  2422  0DD2  1303               	bcf	3,6	;RP1=0, select bank1
  2423  0DD3  00AD               	movwf	(?_exp+3)^(0+128)
  2424  0DD4  3080               	movlw	128
  2425  0DD5  00AC               	movwf	(?_exp+2)^(0+128)
  2426  0DD6  3000               	movlw	0
  2427  0DD7  00AB               	movwf	(?_exp+1)^(0+128)
  2428  0DD8  3000               	movlw	0
  2429  0DD9  00AA               	movwf	?_exp^(0+128)
  2430  0DDA  2FFF               	goto	l646
  2431  0DDB                     l2448:
  2432  0DDB  3044               	movlw	68
  2433  0DDC  00F3               	movwf	___flge@ff1+3
  2434  0DDD  3031               	movlw	49
  2435  0DDE  00F2               	movwf	___flge@ff1+2
  2436  0DDF  3072               	movlw	114
  2437  0DE0  00F1               	movwf	___flge@ff1+1
  2438  0DE1  3018               	movlw	24
  2439  0DE2  00F0               	movwf	___flge@ff1
  2440  0DE3  1683               	bsf	3,5	;RP0=1, select bank1
  2441  0DE4  1303               	bcf	3,6	;RP1=0, select bank1
  2442  0DE5  082D               	movf	(exp@x+3)^(0+128),w
  2443  0DE6  00F7               	movwf	___flge@ff2+3
  2444  0DE7  082C               	movf	(exp@x+2)^(0+128),w
  2445  0DE8  00F6               	movwf	___flge@ff2+2
  2446  0DE9  082B               	movf	(exp@x+1)^(0+128),w
  2447  0DEA  00F5               	movwf	___flge@ff2+1
  2448  0DEB  082A               	movf	exp@x^(0+128),w
  2449  0DEC  00F4               	movwf	___flge@ff2
  2450  0DED  120A  158A  2000  120A  158A  	fcall	___flge
  2451  0DF2  1803               	btfsc	3,0
  2452  0DF3  2DF5               	goto	u3541
  2453  0DF4  2DF6               	goto	u3540
  2454  0DF5                     u3541:
  2455  0DF5  2E05               	goto	l2454
  2456  0DF6                     u3540:
  2457  0DF6                     l2450:
  2458  0DF6  3022               	movlw	34
  2459  0DF7  1683               	bsf	3,5	;RP0=1, select bank1
  2460  0DF8  1303               	bcf	3,6	;RP1=0, select bank1
  2461  0DF9  00D6               	movwf	_errno^(0+128)
  2462  0DFA  3000               	movlw	0
  2463  0DFB  00D7               	movwf	(_errno^(0+128)+1)
  2464  0DFC  307F               	movlw	127
  2465  0DFD  00AD               	movwf	(?_exp+3)^(0+128)
  2466  0DFE  307F               	movlw	127
  2467  0DFF  00AC               	movwf	(?_exp+2)^(0+128)
  2468  0E00  30FF               	movlw	255
  2469  0E01  00AB               	movwf	(?_exp+1)^(0+128)
  2470  0E02  30FF               	movlw	255
  2471  0E03  00AA               	movwf	?_exp^(0+128)
  2472  0E04  2FFF               	goto	l646
  2473  0E05                     l2454:
  2474  0E05  1683               	bsf	3,5	;RP0=1, select bank1
  2475  0E06  1303               	bcf	3,6	;RP1=0, select bank1
  2476  0E07  082D               	movf	(exp@x+3)^(0+128),w
  2477  0E08  00F3               	movwf	___flge@ff1+3
  2478  0E09  082C               	movf	(exp@x+2)^(0+128),w
  2479  0E0A  00F2               	movwf	___flge@ff1+2
  2480  0E0B  082B               	movf	(exp@x+1)^(0+128),w
  2481  0E0C  00F1               	movwf	___flge@ff1+1
  2482  0E0D  082A               	movf	exp@x^(0+128),w
  2483  0E0E  00F0               	movwf	___flge@ff1
  2484  0E0F  30C4               	movlw	196
  2485  0E10  00F7               	movwf	___flge@ff2+3
  2486  0E11  303A               	movlw	58
  2487  0E12  00F6               	movwf	___flge@ff2+2
  2488  0E13  3048               	movlw	72
  2489  0E14  00F5               	movwf	___flge@ff2+1
  2490  0E15  3087               	movlw	135
  2491  0E16  00F4               	movwf	___flge@ff2
  2492  0E17  120A  158A  2000  120A  158A  	fcall	___flge
  2493  0E1C  1803               	btfsc	3,0
  2494  0E1D  2E1F               	goto	u3551
  2495  0E1E  2E20               	goto	u3550
  2496  0E1F                     u3551:
  2497  0E1F  2E2F               	goto	l2460
  2498  0E20                     u3550:
  2499  0E20                     l2456:
  2500  0E20  3022               	movlw	34
  2501  0E21  1683               	bsf	3,5	;RP0=1, select bank1
  2502  0E22  1303               	bcf	3,6	;RP1=0, select bank1
  2503  0E23  00D6               	movwf	_errno^(0+128)
  2504  0E24  3000               	movlw	0
  2505  0E25  00D7               	movwf	(_errno^(0+128)+1)
  2506  0E26  3000               	movlw	0
  2507  0E27  00AD               	movwf	(?_exp+3)^(0+128)
  2508  0E28  3000               	movlw	0
  2509  0E29  00AC               	movwf	(?_exp+2)^(0+128)
  2510  0E2A  3000               	movlw	0
  2511  0E2B  00AB               	movwf	(?_exp+1)^(0+128)
  2512  0E2C  3000               	movlw	0
  2513  0E2D  00AA               	movwf	?_exp^(0+128)
  2514  0E2E  2FFF               	goto	l646
  2515  0E2F                     l2460:
  2516  0E2F  1683               	bsf	3,5	;RP0=1, select bank1
  2517  0E30  1303               	bcf	3,6	;RP1=0, select bank1
  2518  0E31  082D               	movf	(exp@x+3)^(0+128),w
  2519  0E32  00F3               	movwf	___flge@ff1+3
  2520  0E33  082C               	movf	(exp@x+2)^(0+128),w
  2521  0E34  00F2               	movwf	___flge@ff1+2
  2522  0E35  082B               	movf	(exp@x+1)^(0+128),w
  2523  0E36  00F1               	movwf	___flge@ff1+1
  2524  0E37  082A               	movf	exp@x^(0+128),w
  2525  0E38  00F0               	movwf	___flge@ff1
  2526  0E39  3000               	movlw	0
  2527  0E3A  00F7               	movwf	___flge@ff2+3
  2528  0E3B  3000               	movlw	0
  2529  0E3C  00F6               	movwf	___flge@ff2+2
  2530  0E3D  3000               	movlw	0
  2531  0E3E  00F5               	movwf	___flge@ff2+1
  2532  0E3F  3000               	movlw	0
  2533  0E40  00F4               	movwf	___flge@ff2
  2534  0E41  120A  158A  2000  120A  158A  	fcall	___flge
  2535  0E46  1C03               	btfss	3,0
  2536  0E47  2E49               	goto	u3561
  2537  0E48  2E4B               	goto	u3560
  2538  0E49                     u3561:
  2539  0E49  3001               	movlw	1
  2540  0E4A  2E4C               	goto	u3570
  2541  0E4B                     u3560:
  2542  0E4B  3000               	movlw	0
  2543  0E4C                     u3570:
  2544  0E4C  1683               	bsf	3,5	;RP0=1, select bank1
  2545  0E4D  1303               	bcf	3,6	;RP1=0, select bank1
  2546  0E4E  00AE               	movwf	??_exp^(0+128)
  2547  0E4F  082E               	movf	??_exp^(0+128),w
  2548  0E50  00B5               	movwf	exp@sign^(0+128)
  2549  0E51                     l2462:
  2550  0E51  0835               	movf	exp@sign^(0+128),w
  2551  0E52  1903               	btfsc	3,2
  2552  0E53  2E55               	goto	u3581
  2553  0E54  2E56               	goto	u3580
  2554  0E55                     u3581:
  2555  0E55  2E6D               	goto	l2466
  2556  0E56                     u3580:
  2557  0E56                     l2464:
  2558  0E56  082D               	movf	(exp@x+3)^(0+128),w
  2559  0E57  00F3               	movwf	___flneg@f1+3
  2560  0E58  082C               	movf	(exp@x+2)^(0+128),w
  2561  0E59  00F2               	movwf	___flneg@f1+2
  2562  0E5A  082B               	movf	(exp@x+1)^(0+128),w
  2563  0E5B  00F1               	movwf	___flneg@f1+1
  2564  0E5C  082A               	movf	exp@x^(0+128),w
  2565  0E5D  00F0               	movwf	___flneg@f1
  2566  0E5E  160A  118A  2413  120A  158A  	fcall	___flneg
  2567  0E63  0873               	movf	?___flneg+3,w
  2568  0E64  1683               	bsf	3,5	;RP0=1, select bank1
  2569  0E65  1303               	bcf	3,6	;RP1=0, select bank1
  2570  0E66  00AD               	movwf	(exp@x+3)^(0+128)
  2571  0E67  0872               	movf	?___flneg+2,w
  2572  0E68  00AC               	movwf	(exp@x+2)^(0+128)
  2573  0E69  0871               	movf	?___flneg+1,w
  2574  0E6A  00AB               	movwf	(exp@x+1)^(0+128)
  2575  0E6B  0870               	movf	?___flneg,w
  2576  0E6C  00AA               	movwf	exp@x^(0+128)
  2577  0E6D                     l2466:
  2578  0E6D  303F               	movlw	63
  2579  0E6E  1283               	bcf	3,5	;RP0=0, select bank0
  2580  0E6F  1303               	bcf	3,6	;RP1=0, select bank0
  2581  0E70  00B6               	movwf	___flmul@b+3
  2582  0E71  30B8               	movlw	184
  2583  0E72  00B5               	movwf	___flmul@b+2
  2584  0E73  30AA               	movlw	170
  2585  0E74  00B4               	movwf	___flmul@b+1
  2586  0E75  303B               	movlw	59
  2587  0E76  00B3               	movwf	___flmul@b
  2588  0E77  1683               	bsf	3,5	;RP0=1, select bank1
  2589  0E78  1303               	bcf	3,6	;RP1=0, select bank1
  2590  0E79  082D               	movf	(exp@x+3)^(0+128),w
  2591  0E7A  1283               	bcf	3,5	;RP0=0, select bank0
  2592  0E7B  1303               	bcf	3,6	;RP1=0, select bank0
  2593  0E7C  00BA               	movwf	___flmul@a+3
  2594  0E7D  1683               	bsf	3,5	;RP0=1, select bank1
  2595  0E7E  1303               	bcf	3,6	;RP1=0, select bank1
  2596  0E7F  082C               	movf	(exp@x+2)^(0+128),w
  2597  0E80  1283               	bcf	3,5	;RP0=0, select bank0
  2598  0E81  1303               	bcf	3,6	;RP1=0, select bank0
  2599  0E82  00B9               	movwf	___flmul@a+2
  2600  0E83  1683               	bsf	3,5	;RP0=1, select bank1
  2601  0E84  1303               	bcf	3,6	;RP1=0, select bank1
  2602  0E85  082B               	movf	(exp@x+1)^(0+128),w
  2603  0E86  1283               	bcf	3,5	;RP0=0, select bank0
  2604  0E87  1303               	bcf	3,6	;RP1=0, select bank0
  2605  0E88  00B8               	movwf	___flmul@a+1
  2606  0E89  1683               	bsf	3,5	;RP0=1, select bank1
  2607  0E8A  1303               	bcf	3,6	;RP1=0, select bank1
  2608  0E8B  082A               	movf	exp@x^(0+128),w
  2609  0E8C  1283               	bcf	3,5	;RP0=0, select bank0
  2610  0E8D  1303               	bcf	3,6	;RP1=0, select bank0
  2611  0E8E  00B7               	movwf	___flmul@a
  2612  0E8F  120A  118A  2494  120A  158A  	fcall	___flmul
  2613  0E94  1283               	bcf	3,5	;RP0=0, select bank0
  2614  0E95  1303               	bcf	3,6	;RP1=0, select bank0
  2615  0E96  0836               	movf	?___flmul+3,w
  2616  0E97  1683               	bsf	3,5	;RP0=1, select bank1
  2617  0E98  1303               	bcf	3,6	;RP1=0, select bank1
  2618  0E99  00AD               	movwf	(exp@x+3)^(0+128)
  2619  0E9A  1283               	bcf	3,5	;RP0=0, select bank0
  2620  0E9B  1303               	bcf	3,6	;RP1=0, select bank0
  2621  0E9C  0835               	movf	?___flmul+2,w
  2622  0E9D  1683               	bsf	3,5	;RP0=1, select bank1
  2623  0E9E  1303               	bcf	3,6	;RP1=0, select bank1
  2624  0E9F  00AC               	movwf	(exp@x+2)^(0+128)
  2625  0EA0  1283               	bcf	3,5	;RP0=0, select bank0
  2626  0EA1  1303               	bcf	3,6	;RP1=0, select bank0
  2627  0EA2  0834               	movf	?___flmul+1,w
  2628  0EA3  1683               	bsf	3,5	;RP0=1, select bank1
  2629  0EA4  1303               	bcf	3,6	;RP1=0, select bank1
  2630  0EA5  00AB               	movwf	(exp@x+1)^(0+128)
  2631  0EA6  1283               	bcf	3,5	;RP0=0, select bank0
  2632  0EA7  1303               	bcf	3,6	;RP1=0, select bank0
  2633  0EA8  0833               	movf	?___flmul,w
  2634  0EA9  1683               	bsf	3,5	;RP0=1, select bank1
  2635  0EAA  1303               	bcf	3,6	;RP1=0, select bank1
  2636  0EAB  00AA               	movwf	exp@x^(0+128)
  2637  0EAC                     l2468:
  2638  0EAC  082D               	movf	(exp@x+3)^(0+128),w
  2639  0EAD  1283               	bcf	3,5	;RP0=0, select bank0
  2640  0EAE  1303               	bcf	3,6	;RP1=0, select bank0
  2641  0EAF  00E4               	movwf	floor@x+3
  2642  0EB0  1683               	bsf	3,5	;RP0=1, select bank1
  2643  0EB1  1303               	bcf	3,6	;RP1=0, select bank1
  2644  0EB2  082C               	movf	(exp@x+2)^(0+128),w
  2645  0EB3  1283               	bcf	3,5	;RP0=0, select bank0
  2646  0EB4  1303               	bcf	3,6	;RP1=0, select bank0
  2647  0EB5  00E3               	movwf	floor@x+2
  2648  0EB6  1683               	bsf	3,5	;RP0=1, select bank1
  2649  0EB7  1303               	bcf	3,6	;RP1=0, select bank1
  2650  0EB8  082B               	movf	(exp@x+1)^(0+128),w
  2651  0EB9  1283               	bcf	3,5	;RP0=0, select bank0
  2652  0EBA  1303               	bcf	3,6	;RP1=0, select bank0
  2653  0EBB  00E2               	movwf	floor@x+1
  2654  0EBC  1683               	bsf	3,5	;RP0=1, select bank1
  2655  0EBD  1303               	bcf	3,6	;RP1=0, select bank1
  2656  0EBE  082A               	movf	exp@x^(0+128),w
  2657  0EBF  1283               	bcf	3,5	;RP0=0, select bank0
  2658  0EC0  1303               	bcf	3,6	;RP1=0, select bank0
  2659  0EC1  00E1               	movwf	floor@x
  2660  0EC2  160A  118A  2741  120A  158A  	fcall	_floor
  2661  0EC7  1283               	bcf	3,5	;RP0=0, select bank0
  2662  0EC8  1303               	bcf	3,6	;RP1=0, select bank0
  2663  0EC9  0864               	movf	?_floor+3,w
  2664  0ECA  1683               	bsf	3,5	;RP0=1, select bank1
  2665  0ECB  1303               	bcf	3,6	;RP1=0, select bank1
  2666  0ECC  00B2               	movwf	(_exp$852+3)^(0+128)
  2667  0ECD  1283               	bcf	3,5	;RP0=0, select bank0
  2668  0ECE  1303               	bcf	3,6	;RP1=0, select bank0
  2669  0ECF  0863               	movf	?_floor+2,w
  2670  0ED0  1683               	bsf	3,5	;RP0=1, select bank1
  2671  0ED1  1303               	bcf	3,6	;RP1=0, select bank1
  2672  0ED2  00B1               	movwf	(_exp$852+2)^(0+128)
  2673  0ED3  1283               	bcf	3,5	;RP0=0, select bank0
  2674  0ED4  1303               	bcf	3,6	;RP1=0, select bank0
  2675  0ED5  0862               	movf	?_floor+1,w
  2676  0ED6  1683               	bsf	3,5	;RP0=1, select bank1
  2677  0ED7  1303               	bcf	3,6	;RP1=0, select bank1
  2678  0ED8  00B0               	movwf	(_exp$852+1)^(0+128)
  2679  0ED9  1283               	bcf	3,5	;RP0=0, select bank0
  2680  0EDA  1303               	bcf	3,6	;RP1=0, select bank0
  2681  0EDB  0861               	movf	?_floor,w
  2682  0EDC  1683               	bsf	3,5	;RP0=1, select bank1
  2683  0EDD  1303               	bcf	3,6	;RP1=0, select bank1
  2684  0EDE  00AF               	movwf	_exp$852^(0+128)
  2685  0EDF                     l2470:
  2686  0EDF  0832               	movf	(_exp$852+3)^(0+128),w
  2687  0EE0  1283               	bcf	3,5	;RP0=0, select bank0
  2688  0EE1  1303               	bcf	3,6	;RP1=0, select bank0
  2689  0EE2  00A3               	movwf	___fltol@f1+3
  2690  0EE3  1683               	bsf	3,5	;RP0=1, select bank1
  2691  0EE4  1303               	bcf	3,6	;RP1=0, select bank1
  2692  0EE5  0831               	movf	(_exp$852+2)^(0+128),w
  2693  0EE6  1283               	bcf	3,5	;RP0=0, select bank0
  2694  0EE7  1303               	bcf	3,6	;RP1=0, select bank0
  2695  0EE8  00A2               	movwf	___fltol@f1+2
  2696  0EE9  1683               	bsf	3,5	;RP0=1, select bank1
  2697  0EEA  1303               	bcf	3,6	;RP1=0, select bank1
  2698  0EEB  0830               	movf	(_exp$852+1)^(0+128),w
  2699  0EEC  1283               	bcf	3,5	;RP0=0, select bank0
  2700  0EED  1303               	bcf	3,6	;RP1=0, select bank0
  2701  0EEE  00A1               	movwf	___fltol@f1+1
  2702  0EEF  1683               	bsf	3,5	;RP0=1, select bank1
  2703  0EF0  1303               	bcf	3,6	;RP1=0, select bank1
  2704  0EF1  082F               	movf	_exp$852^(0+128),w
  2705  0EF2  1283               	bcf	3,5	;RP0=0, select bank0
  2706  0EF3  1303               	bcf	3,6	;RP1=0, select bank0
  2707  0EF4  00A0               	movwf	___fltol@f1
  2708  0EF5  160A  118A  258A  120A  158A  	fcall	___fltol
  2709  0EFA  1283               	bcf	3,5	;RP0=0, select bank0
  2710  0EFB  1303               	bcf	3,6	;RP1=0, select bank0
  2711  0EFC  0821               	movf	?___fltol+1,w
  2712  0EFD  1683               	bsf	3,5	;RP0=1, select bank1
  2713  0EFE  1303               	bcf	3,6	;RP1=0, select bank1
  2714  0EFF  00B4               	movwf	(exp@exponent+1)^(0+128)
  2715  0F00  1283               	bcf	3,5	;RP0=0, select bank0
  2716  0F01  1303               	bcf	3,6	;RP1=0, select bank0
  2717  0F02  0820               	movf	?___fltol,w
  2718  0F03  1683               	bsf	3,5	;RP0=1, select bank1
  2719  0F04  1303               	bcf	3,6	;RP1=0, select bank1
  2720  0F05  00B3               	movwf	exp@exponent^(0+128)
  2721  0F06                     l2472:
  2722  0F06  0833               	movf	exp@exponent^(0+128),w
  2723  0F07  00F0               	movwf	___xxtofl@val
  2724  0F08  0834               	movf	(exp@exponent+1)^(0+128),w
  2725  0F09  00F1               	movwf	___xxtofl@val+1
  2726  0F0A  3000               	movlw	0
  2727  0F0B  1BF1               	btfsc	___xxtofl@val+1,7
  2728  0F0C  30FF               	movlw	255
  2729  0F0D  00F2               	movwf	___xxtofl@val+2
  2730  0F0E  00F3               	movwf	___xxtofl@val+3
  2731  0F0F  3001               	movlw	1
  2732  0F10  160A  118A  2687  120A  158A  	fcall	___xxtofl
  2733  0F15  0873               	movf	?___xxtofl+3,w
  2734  0F16  1283               	bcf	3,5	;RP0=0, select bank0
  2735  0F17  1303               	bcf	3,6	;RP1=0, select bank0
  2736  0F18  00E4               	movwf	___flsub@a+3
  2737  0F19  0872               	movf	?___xxtofl+2,w
  2738  0F1A  00E3               	movwf	___flsub@a+2
  2739  0F1B  0871               	movf	?___xxtofl+1,w
  2740  0F1C  00E2               	movwf	___flsub@a+1
  2741  0F1D  0870               	movf	?___xxtofl,w
  2742  0F1E  00E1               	movwf	___flsub@a
  2743  0F1F  1683               	bsf	3,5	;RP0=1, select bank1
  2744  0F20  1303               	bcf	3,6	;RP1=0, select bank1
  2745  0F21  082D               	movf	(exp@x+3)^(0+128),w
  2746  0F22  1283               	bcf	3,5	;RP0=0, select bank0
  2747  0F23  1303               	bcf	3,6	;RP1=0, select bank0
  2748  0F24  00E8               	movwf	___flsub@b+3
  2749  0F25  1683               	bsf	3,5	;RP0=1, select bank1
  2750  0F26  1303               	bcf	3,6	;RP1=0, select bank1
  2751  0F27  082C               	movf	(exp@x+2)^(0+128),w
  2752  0F28  1283               	bcf	3,5	;RP0=0, select bank0
  2753  0F29  1303               	bcf	3,6	;RP1=0, select bank0
  2754  0F2A  00E7               	movwf	___flsub@b+2
  2755  0F2B  1683               	bsf	3,5	;RP0=1, select bank1
  2756  0F2C  1303               	bcf	3,6	;RP1=0, select bank1
  2757  0F2D  082B               	movf	(exp@x+1)^(0+128),w
  2758  0F2E  1283               	bcf	3,5	;RP0=0, select bank0
  2759  0F2F  1303               	bcf	3,6	;RP1=0, select bank0
  2760  0F30  00E6               	movwf	___flsub@b+1
  2761  0F31  1683               	bsf	3,5	;RP0=1, select bank1
  2762  0F32  1303               	bcf	3,6	;RP1=0, select bank1
  2763  0F33  082A               	movf	exp@x^(0+128),w
  2764  0F34  1283               	bcf	3,5	;RP0=0, select bank0
  2765  0F35  1303               	bcf	3,6	;RP1=0, select bank0
  2766  0F36  00E5               	movwf	___flsub@b
  2767  0F37  160A  118A  2441  120A  158A  	fcall	___flsub
  2768  0F3C  1283               	bcf	3,5	;RP0=0, select bank0
  2769  0F3D  1303               	bcf	3,6	;RP1=0, select bank0
  2770  0F3E  0864               	movf	?___flsub+3,w
  2771  0F3F  1683               	bsf	3,5	;RP0=1, select bank1
  2772  0F40  1303               	bcf	3,6	;RP1=0, select bank1
  2773  0F41  00AD               	movwf	(exp@x+3)^(0+128)
  2774  0F42  1283               	bcf	3,5	;RP0=0, select bank0
  2775  0F43  1303               	bcf	3,6	;RP1=0, select bank0
  2776  0F44  0863               	movf	?___flsub+2,w
  2777  0F45  1683               	bsf	3,5	;RP0=1, select bank1
  2778  0F46  1303               	bcf	3,6	;RP1=0, select bank1
  2779  0F47  00AC               	movwf	(exp@x+2)^(0+128)
  2780  0F48  1283               	bcf	3,5	;RP0=0, select bank0
  2781  0F49  1303               	bcf	3,6	;RP1=0, select bank0
  2782  0F4A  0862               	movf	?___flsub+1,w
  2783  0F4B  1683               	bsf	3,5	;RP0=1, select bank1
  2784  0F4C  1303               	bcf	3,6	;RP1=0, select bank1
  2785  0F4D  00AB               	movwf	(exp@x+1)^(0+128)
  2786  0F4E  1283               	bcf	3,5	;RP0=0, select bank0
  2787  0F4F  1303               	bcf	3,6	;RP1=0, select bank0
  2788  0F50  0861               	movf	?___flsub,w
  2789  0F51  1683               	bsf	3,5	;RP0=1, select bank1
  2790  0F52  1303               	bcf	3,6	;RP1=0, select bank1
  2791  0F53  00AA               	movwf	exp@x^(0+128)
  2792  0F54                     l2474:
  2793  0F54  082D               	movf	(exp@x+3)^(0+128),w
  2794  0F55  1283               	bcf	3,5	;RP0=0, select bank0
  2795  0F56  1303               	bcf	3,6	;RP1=0, select bank0
  2796  0F57  00E4               	movwf	eval_poly@x+3
  2797  0F58  1683               	bsf	3,5	;RP0=1, select bank1
  2798  0F59  1303               	bcf	3,6	;RP1=0, select bank1
  2799  0F5A  082C               	movf	(exp@x+2)^(0+128),w
  2800  0F5B  1283               	bcf	3,5	;RP0=0, select bank0
  2801  0F5C  1303               	bcf	3,6	;RP1=0, select bank0
  2802  0F5D  00E3               	movwf	eval_poly@x+2
  2803  0F5E  1683               	bsf	3,5	;RP0=1, select bank1
  2804  0F5F  1303               	bcf	3,6	;RP1=0, select bank1
  2805  0F60  082B               	movf	(exp@x+1)^(0+128),w
  2806  0F61  1283               	bcf	3,5	;RP0=0, select bank0
  2807  0F62  1303               	bcf	3,6	;RP1=0, select bank0
  2808  0F63  00E2               	movwf	eval_poly@x+1
  2809  0F64  1683               	bsf	3,5	;RP0=1, select bank1
  2810  0F65  1303               	bcf	3,6	;RP1=0, select bank1
  2811  0F66  082A               	movf	exp@x^(0+128),w
  2812  0F67  1283               	bcf	3,5	;RP0=0, select bank0
  2813  0F68  1303               	bcf	3,6	;RP1=0, select bank0
  2814  0F69  00E1               	movwf	eval_poly@x
  2815  0F6A  3001               	movlw	(low ((exp@coeff-__stringbase)| (0+32768)))& (0+255)
  2816  0F6B  1683               	bsf	3,5	;RP0=1, select bank1
  2817  0F6C  1303               	bcf	3,6	;RP1=0, select bank1
  2818  0F6D  00AE               	movwf	??_exp^(0+128)
  2819  0F6E  082E               	movf	??_exp^(0+128),w
  2820  0F6F  1283               	bcf	3,5	;RP0=0, select bank0
  2821  0F70  1303               	bcf	3,6	;RP1=0, select bank0
  2822  0F71  00E5               	movwf	eval_poly@d
  2823  0F72  3009               	movlw	9
  2824  0F73  00E6               	movwf	eval_poly@n
  2825  0F74  3000               	movlw	0
  2826  0F75  00E7               	movwf	eval_poly@n+1
  2827  0F76  120A  158A  20A2  120A  158A  	fcall	_eval_poly
  2828  0F7B  1283               	bcf	3,5	;RP0=0, select bank0
  2829  0F7C  1303               	bcf	3,6	;RP1=0, select bank0
  2830  0F7D  0864               	movf	?_eval_poly+3,w
  2831  0F7E  1683               	bsf	3,5	;RP0=1, select bank1
  2832  0F7F  1303               	bcf	3,6	;RP1=0, select bank1
  2833  0F80  00A7               	movwf	(ldexp@value+3)^(0+128)
  2834  0F81  1283               	bcf	3,5	;RP0=0, select bank0
  2835  0F82  1303               	bcf	3,6	;RP1=0, select bank0
  2836  0F83  0863               	movf	?_eval_poly+2,w
  2837  0F84  1683               	bsf	3,5	;RP0=1, select bank1
  2838  0F85  1303               	bcf	3,6	;RP1=0, select bank1
  2839  0F86  00A6               	movwf	(ldexp@value+2)^(0+128)
  2840  0F87  1283               	bcf	3,5	;RP0=0, select bank0
  2841  0F88  1303               	bcf	3,6	;RP1=0, select bank0
  2842  0F89  0862               	movf	?_eval_poly+1,w
  2843  0F8A  1683               	bsf	3,5	;RP0=1, select bank1
  2844  0F8B  1303               	bcf	3,6	;RP1=0, select bank1
  2845  0F8C  00A5               	movwf	(ldexp@value+1)^(0+128)
  2846  0F8D  1283               	bcf	3,5	;RP0=0, select bank0
  2847  0F8E  1303               	bcf	3,6	;RP1=0, select bank0
  2848  0F8F  0861               	movf	?_eval_poly,w
  2849  0F90  1683               	bsf	3,5	;RP0=1, select bank1
  2850  0F91  1303               	bcf	3,6	;RP1=0, select bank1
  2851  0F92  00A4               	movwf	ldexp@value^(0+128)
  2852  0F93  0834               	movf	(exp@exponent+1)^(0+128),w
  2853  0F94  00A9               	movwf	(ldexp@newexp+1)^(0+128)
  2854  0F95  0833               	movf	exp@exponent^(0+128),w
  2855  0F96  00A8               	movwf	ldexp@newexp^(0+128)
  2856  0F97  120A  158A  217E  120A  158A  	fcall	_ldexp
  2857  0F9C  1683               	bsf	3,5	;RP0=1, select bank1
  2858  0F9D  1303               	bcf	3,6	;RP1=0, select bank1
  2859  0F9E  0827               	movf	(?_ldexp+3)^(0+128),w
  2860  0F9F  00AD               	movwf	(exp@x+3)^(0+128)
  2861  0FA0  0826               	movf	(?_ldexp+2)^(0+128),w
  2862  0FA1  00AC               	movwf	(exp@x+2)^(0+128)
  2863  0FA2  0825               	movf	(?_ldexp+1)^(0+128),w
  2864  0FA3  00AB               	movwf	(exp@x+1)^(0+128)
  2865  0FA4  0824               	movf	?_ldexp^(0+128),w
  2866  0FA5  00AA               	movwf	exp@x^(0+128)
  2867  0FA6                     l2476:
  2868  0FA6  0835               	movf	exp@sign^(0+128),w
  2869  0FA7  1903               	btfsc	3,2
  2870  0FA8  2FAA               	goto	u3591
  2871  0FA9  2FAB               	goto	u3590
  2872  0FAA                     u3591:
  2873  0FAA  2FFF               	goto	l650
  2874  0FAB                     u3590:
  2875  0FAB                     l2478:
  2876  0FAB  082D               	movf	(exp@x+3)^(0+128),w
  2877  0FAC  1283               	bcf	3,5	;RP0=0, select bank0
  2878  0FAD  1303               	bcf	3,6	;RP1=0, select bank0
  2879  0FAE  00A3               	movwf	___fleq@ff1+3
  2880  0FAF  1683               	bsf	3,5	;RP0=1, select bank1
  2881  0FB0  1303               	bcf	3,6	;RP1=0, select bank1
  2882  0FB1  082C               	movf	(exp@x+2)^(0+128),w
  2883  0FB2  1283               	bcf	3,5	;RP0=0, select bank0
  2884  0FB3  1303               	bcf	3,6	;RP1=0, select bank0
  2885  0FB4  00A2               	movwf	___fleq@ff1+2
  2886  0FB5  1683               	bsf	3,5	;RP0=1, select bank1
  2887  0FB6  1303               	bcf	3,6	;RP1=0, select bank1
  2888  0FB7  082B               	movf	(exp@x+1)^(0+128),w
  2889  0FB8  1283               	bcf	3,5	;RP0=0, select bank0
  2890  0FB9  1303               	bcf	3,6	;RP1=0, select bank0
  2891  0FBA  00A1               	movwf	___fleq@ff1+1
  2892  0FBB  1683               	bsf	3,5	;RP0=1, select bank1
  2893  0FBC  1303               	bcf	3,6	;RP1=0, select bank1
  2894  0FBD  082A               	movf	exp@x^(0+128),w
  2895  0FBE  1283               	bcf	3,5	;RP0=0, select bank0
  2896  0FBF  1303               	bcf	3,6	;RP1=0, select bank0
  2897  0FC0  00A0               	movwf	___fleq@ff1
  2898  0FC1  307F               	movlw	127
  2899  0FC2  00A7               	movwf	___fleq@ff2+3
  2900  0FC3  307F               	movlw	127
  2901  0FC4  00A6               	movwf	___fleq@ff2+2
  2902  0FC5  30FF               	movlw	255
  2903  0FC6  00A5               	movwf	___fleq@ff2+1
  2904  0FC7  30FF               	movlw	255
  2905  0FC8  00A4               	movwf	___fleq@ff2
  2906  0FC9  160A  118A  24DE  120A  158A  	fcall	___fleq
  2907  0FCE  1C03               	btfss	3,0
  2908  0FCF  2FD1               	goto	u3601
  2909  0FD0  2FD2               	goto	u3600
  2910  0FD1                     u3601:
  2911  0FD1  2FDD               	goto	l2484
  2912  0FD2                     u3600:
  2913  0FD2                     l2480:
  2914  0FD2  3000               	movlw	0
  2915  0FD3  1683               	bsf	3,5	;RP0=1, select bank1
  2916  0FD4  1303               	bcf	3,6	;RP1=0, select bank1
  2917  0FD5  00AD               	movwf	(?_exp+3)^(0+128)
  2918  0FD6  3000               	movlw	0
  2919  0FD7  00AC               	movwf	(?_exp+2)^(0+128)
  2920  0FD8  3000               	movlw	0
  2921  0FD9  00AB               	movwf	(?_exp+1)^(0+128)
  2922  0FDA  3000               	movlw	0
  2923  0FDB  00AA               	movwf	?_exp^(0+128)
  2924  0FDC  2FFF               	goto	l646
  2925  0FDD                     l2484:
  2926  0FDD  1683               	bsf	3,5	;RP0=1, select bank1
  2927  0FDE  1303               	bcf	3,6	;RP1=0, select bank1
  2928  0FDF  082D               	movf	(exp@x+3)^(0+128),w
  2929  0FE0  00F3               	movwf	___fldiv@a+3
  2930  0FE1  082C               	movf	(exp@x+2)^(0+128),w
  2931  0FE2  00F2               	movwf	___fldiv@a+2
  2932  0FE3  082B               	movf	(exp@x+1)^(0+128),w
  2933  0FE4  00F1               	movwf	___fldiv@a+1
  2934  0FE5  082A               	movf	exp@x^(0+128),w
  2935  0FE6  00F0               	movwf	___fldiv@a
  2936  0FE7  303F               	movlw	63
  2937  0FE8  00F7               	movwf	___fldiv@b+3
  2938  0FE9  3080               	movlw	128
  2939  0FEA  00F6               	movwf	___fldiv@b+2
  2940  0FEB  3000               	movlw	0
  2941  0FEC  00F5               	movwf	___fldiv@b+1
  2942  0FED  3000               	movlw	0
  2943  0FEE  00F4               	movwf	___fldiv@b
  2944  0FEF  120A  118A  2029  120A  158A  	fcall	___fldiv
  2945  0FF4  0873               	movf	?___fldiv+3,w
  2946  0FF5  1683               	bsf	3,5	;RP0=1, select bank1
  2947  0FF6  1303               	bcf	3,6	;RP1=0, select bank1
  2948  0FF7  00AD               	movwf	(?_exp+3)^(0+128)
  2949  0FF8  0872               	movf	?___fldiv+2,w
  2950  0FF9  00AC               	movwf	(?_exp+2)^(0+128)
  2951  0FFA  0871               	movf	?___fldiv+1,w
  2952  0FFB  00AB               	movwf	(?_exp+1)^(0+128)
  2953  0FFC  0870               	movf	?___fldiv,w
  2954  0FFD  00AA               	movwf	?_exp^(0+128)
  2955  0FFE  2FFF               	goto	l646
  2956  0FFF                     l650:
  2957  0FFF                     l646:
  2958  0FFF  0008               	return
  2959  1000                     __end_of_exp:
  2960                           
  2961                           	psect	text9
  2962  097E                     __ptext9:	
  2963 ;; *************** function _ldexp *****************
  2964 ;; Defined at:
  2965 ;;		line 277 in file "C:\Program Files\Microchip\xc8\v2.31\pic\sources\c90\common\frexp.c"
  2966 ;; Parameters:    Size  Location     Type
  2967 ;;  value           4    4[BANK1 ] unsigned char 
  2968 ;;  newexp          2    8[BANK1 ] int 
  2969 ;; Auto vars:     Size  Location     Type
  2970 ;;		None
  2971 ;; Return value:  Size  Location     Type
  2972 ;;                  4    4[BANK1 ] int 
  2973 ;; Registers used:
  2974 ;;		wreg, status,2, status,0, btemp+1, pclath, cstack
  2975 ;; Tracked objects:
  2976 ;;		On entry : 0/0
  2977 ;;		On exit  : 0/0
  2978 ;;		Unchanged: 0/0
  2979 ;; Data sizes:     COMMON   BANK0   BANK1   BANK3   BANK2
  2980 ;;      Params:         0       0       6       0       0
  2981 ;;      Locals:         0       0       0       0       0
  2982 ;;      Temps:          0       2       0       0       0
  2983 ;;      Totals:         0       2       6       0       0
  2984 ;;Total ram usage:        8 bytes
  2985 ;; Hardware stack levels used:    1
  2986 ;; Hardware stack levels required when called:    1
  2987 ;; This function calls:
  2988 ;;		___fleq
  2989 ;;		___flge
  2990 ;; This function is called by:
  2991 ;;		_exp
  2992 ;; This function uses a non-reentrant model
  2993 ;;
  2994                           
  2995                           
  2996                           ;psect for function _ldexp
  2997  097E                     _ldexp:
  2998  097E                     l2382:	
  2999                           ;incstack = 0
  3000                           ; Regs used in _ldexp: [wreg+status,2+status,0+btemp+1+pclath+cstack]
  3001                           
  3002  097E  1683               	bsf	3,5	;RP0=1, select bank1
  3003  097F  1303               	bcf	3,6	;RP1=0, select bank1
  3004  0980  0827               	movf	(ldexp@value+3)^(0+128),w
  3005  0981  1283               	bcf	3,5	;RP0=0, select bank0
  3006  0982  1303               	bcf	3,6	;RP1=0, select bank0
  3007  0983  00A3               	movwf	___fleq@ff1+3
  3008  0984  1683               	bsf	3,5	;RP0=1, select bank1
  3009  0985  1303               	bcf	3,6	;RP1=0, select bank1
  3010  0986  0826               	movf	(ldexp@value+2)^(0+128),w
  3011  0987  1283               	bcf	3,5	;RP0=0, select bank0
  3012  0988  1303               	bcf	3,6	;RP1=0, select bank0
  3013  0989  00A2               	movwf	___fleq@ff1+2
  3014  098A  1683               	bsf	3,5	;RP0=1, select bank1
  3015  098B  1303               	bcf	3,6	;RP1=0, select bank1
  3016  098C  0825               	movf	(ldexp@value+1)^(0+128),w
  3017  098D  1283               	bcf	3,5	;RP0=0, select bank0
  3018  098E  1303               	bcf	3,6	;RP1=0, select bank0
  3019  098F  00A1               	movwf	___fleq@ff1+1
  3020  0990  1683               	bsf	3,5	;RP0=1, select bank1
  3021  0991  1303               	bcf	3,6	;RP1=0, select bank1
  3022  0992  0824               	movf	ldexp@value^(0+128),w
  3023  0993  1283               	bcf	3,5	;RP0=0, select bank0
  3024  0994  1303               	bcf	3,6	;RP1=0, select bank0
  3025  0995  00A0               	movwf	___fleq@ff1
  3026  0996  3000               	movlw	0
  3027  0997  00A7               	movwf	___fleq@ff2+3
  3028  0998  3000               	movlw	0
  3029  0999  00A6               	movwf	___fleq@ff2+2
  3030  099A  3000               	movlw	0
  3031  099B  00A5               	movwf	___fleq@ff2+1
  3032  099C  3000               	movlw	0
  3033  099D  00A4               	movwf	___fleq@ff2
  3034  099E  160A  118A  24DE  120A  158A  	fcall	___fleq
  3035  09A3  1C03               	btfss	3,0
  3036  09A4  29A6               	goto	u3471
  3037  09A5  29A7               	goto	u3470
  3038  09A6                     u3471:
  3039  09A6  29B2               	goto	l2388
  3040  09A7                     u3470:
  3041  09A7                     l2384:
  3042  09A7  3000               	movlw	0
  3043  09A8  1683               	bsf	3,5	;RP0=1, select bank1
  3044  09A9  1303               	bcf	3,6	;RP1=0, select bank1
  3045  09AA  00A7               	movwf	(?_ldexp+3)^(0+128)
  3046  09AB  3000               	movlw	0
  3047  09AC  00A6               	movwf	(?_ldexp+2)^(0+128)
  3048  09AD  3000               	movlw	0
  3049  09AE  00A5               	movwf	(?_ldexp+1)^(0+128)
  3050  09AF  3000               	movlw	0
  3051  09B0  00A4               	movwf	?_ldexp^(0+128)
  3052  09B1  2A5B               	goto	l676
  3053  09B2                     l2388:
  3054  09B2  1683               	bsf	3,5	;RP0=1, select bank1
  3055  09B3  1303               	bcf	3,6	;RP1=0, select bank1
  3056  09B4  0827               	movf	(ldexp@value^(0+128)+3),w
  3057  09B5  397F               	andlw	127
  3058  09B6  1283               	bcf	3,5	;RP0=0, select bank0
  3059  09B7  1303               	bcf	3,6	;RP1=0, select bank0
  3060  09B8  00ED               	movwf	??_ldexp
  3061  09B9  01EE               	clrf	??_ldexp+1
  3062  09BA  1003               	clrc
  3063  09BB  0DED               	rlf	??_ldexp,f
  3064  09BC  0DEE               	rlf	??_ldexp+1,f
  3065  09BD  086D               	movf	??_ldexp,w
  3066  09BE  1683               	bsf	3,5	;RP0=1, select bank1
  3067  09BF  1303               	bcf	3,6	;RP1=0, select bank1
  3068  09C0  07A8               	addwf	ldexp@newexp^(0+128),f
  3069  09C1  1803               	skipnc
  3070  09C2  0AA9               	incf	(ldexp@newexp+1)^(0+128),f
  3071  09C3  1283               	bcf	3,5	;RP0=0, select bank0
  3072  09C4  1303               	bcf	3,6	;RP1=0, select bank0
  3073  09C5  086E               	movf	??_ldexp+1,w
  3074  09C6  1683               	bsf	3,5	;RP0=1, select bank1
  3075  09C7  1303               	bcf	3,6	;RP1=0, select bank1
  3076  09C8  07A9               	addwf	(ldexp@newexp+1)^(0+128),f
  3077  09C9  0D26               	rlf	(ldexp@value^(0+128)+2),w
  3078  09CA  0D26               	rlf	(ldexp@value^(0+128)+2),w
  3079  09CB  3901               	andlw	1
  3080  09CC  1283               	bcf	3,5	;RP0=0, select bank0
  3081  09CD  1303               	bcf	3,6	;RP1=0, select bank0
  3082  09CE  00ED               	movwf	??_ldexp
  3083  09CF  01EE               	clrf	??_ldexp+1
  3084  09D0  086D               	movf	??_ldexp,w
  3085  09D1  1683               	bsf	3,5	;RP0=1, select bank1
  3086  09D2  1303               	bcf	3,6	;RP1=0, select bank1
  3087  09D3  07A8               	addwf	ldexp@newexp^(0+128),f
  3088  09D4  1803               	skipnc
  3089  09D5  0AA9               	incf	(ldexp@newexp+1)^(0+128),f
  3090  09D6  1283               	bcf	3,5	;RP0=0, select bank0
  3091  09D7  1303               	bcf	3,6	;RP1=0, select bank0
  3092  09D8  086E               	movf	??_ldexp+1,w
  3093  09D9  1683               	bsf	3,5	;RP0=1, select bank1
  3094  09DA  1303               	bcf	3,6	;RP1=0, select bank1
  3095  09DB  07A9               	addwf	(ldexp@newexp+1)^(0+128),f
  3096  09DC                     l2390:
  3097  09DC  1FA9               	btfss	(ldexp@newexp+1)^(0+128),7
  3098  09DD  29DF               	goto	u3481
  3099  09DE  29E0               	goto	u3480
  3100  09DF                     u3481:
  3101  09DF  29ED               	goto	l2398
  3102  09E0                     u3480:
  3103  09E0                     l2392:
  3104  09E0  3022               	movlw	34
  3105  09E1  00D6               	movwf	_errno^(0+128)
  3106  09E2  3000               	movlw	0
  3107  09E3  00D7               	movwf	(_errno^(0+128)+1)
  3108  09E4  3000               	movlw	0
  3109  09E5  00A7               	movwf	(?_ldexp+3)^(0+128)
  3110  09E6  3000               	movlw	0
  3111  09E7  00A6               	movwf	(?_ldexp+2)^(0+128)
  3112  09E8  3000               	movlw	0
  3113  09E9  00A5               	movwf	(?_ldexp+1)^(0+128)
  3114  09EA  3000               	movlw	0
  3115  09EB  00A4               	movwf	?_ldexp^(0+128)
  3116  09EC  2A5B               	goto	l676
  3117  09ED                     l2398:
  3118  09ED  0829               	movf	(ldexp@newexp+1)^(0+128),w
  3119  09EE  3A80               	xorlw	128
  3120  09EF  00FF               	movwf	btemp+1
  3121  09F0  3081               	movlw	129
  3122  09F1  027F               	subwf	btemp+1,w
  3123  09F2  1D03               	skipz
  3124  09F3  29F6               	goto	u3495
  3125  09F4  3000               	movlw	0
  3126  09F5  0228               	subwf	ldexp@newexp^(0+128),w
  3127  09F6                     u3495:
  3128  09F6  1C03               	skipc
  3129  09F7  29F9               	goto	u3491
  3130  09F8  29FA               	goto	u3490
  3131  09F9                     u3491:
  3132  09F9  2A2F               	goto	l2414
  3133  09FA                     u3490:
  3134  09FA                     l2400:
  3135  09FA  3022               	movlw	34
  3136  09FB  1683               	bsf	3,5	;RP0=1, select bank1
  3137  09FC  1303               	bcf	3,6	;RP1=0, select bank1
  3138  09FD  00D6               	movwf	_errno^(0+128)
  3139  09FE  3000               	movlw	0
  3140  09FF  00D7               	movwf	(_errno^(0+128)+1)
  3141  0A00                     l2402:
  3142  0A00  0827               	movf	(ldexp@value+3)^(0+128),w
  3143  0A01  00F3               	movwf	___flge@ff1+3
  3144  0A02  0826               	movf	(ldexp@value+2)^(0+128),w
  3145  0A03  00F2               	movwf	___flge@ff1+2
  3146  0A04  0825               	movf	(ldexp@value+1)^(0+128),w
  3147  0A05  00F1               	movwf	___flge@ff1+1
  3148  0A06  0824               	movf	ldexp@value^(0+128),w
  3149  0A07  00F0               	movwf	___flge@ff1
  3150  0A08  3000               	movlw	0
  3151  0A09  00F7               	movwf	___flge@ff2+3
  3152  0A0A  3000               	movlw	0
  3153  0A0B  00F6               	movwf	___flge@ff2+2
  3154  0A0C  3000               	movlw	0
  3155  0A0D  00F5               	movwf	___flge@ff2+1
  3156  0A0E  3000               	movlw	0
  3157  0A0F  00F4               	movwf	___flge@ff2
  3158  0A10  120A  158A  2000  120A  158A  	fcall	___flge
  3159  0A15  1803               	btfsc	3,0
  3160  0A16  2A18               	goto	u3501
  3161  0A17  2A19               	goto	u3500
  3162  0A18                     u3501:
  3163  0A18  2A24               	goto	l2410
  3164  0A19                     u3500:
  3165  0A19                     l2404:
  3166  0A19  30FF               	movlw	255
  3167  0A1A  1683               	bsf	3,5	;RP0=1, select bank1
  3168  0A1B  1303               	bcf	3,6	;RP1=0, select bank1
  3169  0A1C  00A7               	movwf	(?_ldexp+3)^(0+128)
  3170  0A1D  307F               	movlw	127
  3171  0A1E  00A6               	movwf	(?_ldexp+2)^(0+128)
  3172  0A1F  30FF               	movlw	255
  3173  0A20  00A5               	movwf	(?_ldexp+1)^(0+128)
  3174  0A21  30FF               	movlw	255
  3175  0A22  00A4               	movwf	?_ldexp^(0+128)
  3176  0A23  2A5B               	goto	l676
  3177  0A24                     l2410:
  3178  0A24  307F               	movlw	127
  3179  0A25  1683               	bsf	3,5	;RP0=1, select bank1
  3180  0A26  1303               	bcf	3,6	;RP1=0, select bank1
  3181  0A27  00A7               	movwf	(?_ldexp+3)^(0+128)
  3182  0A28  307F               	movlw	127
  3183  0A29  00A6               	movwf	(?_ldexp+2)^(0+128)
  3184  0A2A  30FF               	movlw	255
  3185  0A2B  00A5               	movwf	(?_ldexp+1)^(0+128)
  3186  0A2C  30FF               	movlw	255
  3187  0A2D  00A4               	movwf	?_ldexp^(0+128)
  3188  0A2E  2A5B               	goto	l676
  3189  0A2F                     l2414:
  3190  0A2F  1683               	bsf	3,5	;RP0=1, select bank1
  3191  0A30  1303               	bcf	3,6	;RP1=0, select bank1
  3192  0A31  0829               	movf	(ldexp@newexp+1)^(0+128),w
  3193  0A32  1283               	bcf	3,5	;RP0=0, select bank0
  3194  0A33  1303               	bcf	3,6	;RP1=0, select bank0
  3195  0A34  00EE               	movwf	??_ldexp+1
  3196  0A35  1683               	bsf	3,5	;RP0=1, select bank1
  3197  0A36  1303               	bcf	3,6	;RP1=0, select bank1
  3198  0A37  0828               	movf	ldexp@newexp^(0+128),w
  3199  0A38  1283               	bcf	3,5	;RP0=0, select bank0
  3200  0A39  1303               	bcf	3,6	;RP1=0, select bank0
  3201  0A3A  00ED               	movwf	??_ldexp
  3202  0A3B  0D6E               	rlf	??_ldexp+1,w
  3203  0A3C  0CEE               	rrf	??_ldexp+1,f
  3204  0A3D  0CED               	rrf	??_ldexp,f
  3205  0A3E  1683               	bsf	3,5	;RP0=1, select bank1
  3206  0A3F  1303               	bcf	3,6	;RP1=0, select bank1
  3207  0A40  0827               	movf	(ldexp@value^(0+128)+3),w
  3208  0A41  1283               	bcf	3,5	;RP0=0, select bank0
  3209  0A42  1303               	bcf	3,6	;RP1=0, select bank0
  3210  0A43  066D               	xorwf	??_ldexp,w
  3211  0A44  3980               	andlw	-128
  3212  0A45  066D               	xorwf	??_ldexp,w
  3213  0A46  1683               	bsf	3,5	;RP0=1, select bank1
  3214  0A47  1303               	bcf	3,6	;RP1=0, select bank1
  3215  0A48  00A7               	movwf	(ldexp@value^(0+128)+3)
  3216  0A49  0828               	movf	ldexp@newexp^(0+128),w
  3217  0A4A  3901               	andlw	1
  3218  0A4B  1283               	bcf	3,5	;RP0=0, select bank0
  3219  0A4C  1303               	bcf	3,6	;RP1=0, select bank0
  3220  0A4D  00ED               	movwf	??_ldexp
  3221  0A4E  0CED               	rrf	??_ldexp,f
  3222  0A4F  0CED               	rrf	??_ldexp,f
  3223  0A50  1683               	bsf	3,5	;RP0=1, select bank1
  3224  0A51  1303               	bcf	3,6	;RP1=0, select bank1
  3225  0A52  0826               	movf	(ldexp@value^(0+128)+2),w
  3226  0A53  1283               	bcf	3,5	;RP0=0, select bank0
  3227  0A54  1303               	bcf	3,6	;RP1=0, select bank0
  3228  0A55  066D               	xorwf	??_ldexp,w
  3229  0A56  397F               	andlw	-129
  3230  0A57  066D               	xorwf	??_ldexp,w
  3231  0A58  1683               	bsf	3,5	;RP0=1, select bank1
  3232  0A59  1303               	bcf	3,6	;RP1=0, select bank1
  3233  0A5A  00A6               	movwf	(ldexp@value^(0+128)+2)
  3234  0A5B                     l2416:
  3235  0A5B                     l676:
  3236  0A5B  0008               	return
  3237  0A5C                     __end_of_ldexp:
  3238                           
  3239                           	psect	text10
  3240  1741                     __ptext10:	
  3241 ;; *************** function _floor *****************
  3242 ;; Defined at:
  3243 ;;		line 13 in file "C:\Program Files\Microchip\xc8\v2.31\pic\sources\c90\common\floor.c"
  3244 ;; Parameters:    Size  Location     Type
  3245 ;;  x               4   65[BANK0 ] int 
  3246 ;; Auto vars:     Size  Location     Type
  3247 ;;  i               4   70[BANK0 ] int 
  3248 ;;  expon           2   74[BANK0 ] int 
  3249 ;; Return value:  Size  Location     Type
  3250 ;;                  4   65[BANK0 ] int 
  3251 ;; Registers used:
  3252 ;;		wreg, fsr0l, fsr0h, status,2, status,0, btemp+1, pclath, cstack
  3253 ;; Tracked objects:
  3254 ;;		On entry : 0/0
  3255 ;;		On exit  : 0/0
  3256 ;;		Unchanged: 0/0
  3257 ;; Data sizes:     COMMON   BANK0   BANK1   BANK3   BANK2
  3258 ;;      Params:         0       4       0       0       0
  3259 ;;      Locals:         0       6       0       0       0
  3260 ;;      Temps:          0       1       0       0       0
  3261 ;;      Totals:         0      11       0       0       0
  3262 ;;Total ram usage:       11 bytes
  3263 ;; Hardware stack levels used:    1
  3264 ;; Hardware stack levels required when called:    2
  3265 ;; This function calls:
  3266 ;;		___fladd
  3267 ;;		___flge
  3268 ;;		___fltol
  3269 ;;		___xxtofl
  3270 ;;		_frexp
  3271 ;; This function is called by:
  3272 ;;		_exp
  3273 ;; This function uses a non-reentrant model
  3274 ;;
  3275                           
  3276                           
  3277                           ;psect for function _floor
  3278  1741                     _floor:
  3279  1741                     l2344:	
  3280                           ;incstack = 0
  3281                           ; Regs used in _floor: [wreg-fsr0h+status,2+status,0+btemp+1+pclath+cstack]
  3282                           
  3283  1741  1283               	bcf	3,5	;RP0=0, select bank0
  3284  1742  1303               	bcf	3,6	;RP1=0, select bank0
  3285  1743  0864               	movf	floor@x+3,w
  3286  1744  00AF               	movwf	frexp@value+3
  3287  1745  0863               	movf	floor@x+2,w
  3288  1746  00AE               	movwf	frexp@value+2
  3289  1747  0862               	movf	floor@x+1,w
  3290  1748  00AD               	movwf	frexp@value+1
  3291  1749  0861               	movf	floor@x,w
  3292  174A  00AC               	movwf	frexp@value
  3293  174B  306A               	movlw	(low (floor@expon| 0))& (0+255)
  3294  174C  00E5               	movwf	??_floor
  3295  174D  0865               	movf	??_floor,w
  3296  174E  00B0               	movwf	frexp@eptr
  3297  174F  160A  118A  252E  160A  118A  	fcall	_frexp
  3298  1754                     l2346:
  3299  1754  1283               	bcf	3,5	;RP0=0, select bank0
  3300  1755  1303               	bcf	3,6	;RP1=0, select bank0
  3301  1756  1FEB               	btfss	floor@expon+1,7
  3302  1757  2F59               	goto	u3401
  3303  1758  2F5A               	goto	u3400
  3304  1759                     u3401:
  3305  1759  2F89               	goto	l2358
  3306  175A                     u3400:
  3307  175A                     l2348:
  3308  175A  0864               	movf	floor@x+3,w
  3309  175B  00F3               	movwf	___flge@ff1+3
  3310  175C  0863               	movf	floor@x+2,w
  3311  175D  00F2               	movwf	___flge@ff1+2
  3312  175E  0862               	movf	floor@x+1,w
  3313  175F  00F1               	movwf	___flge@ff1+1
  3314  1760  0861               	movf	floor@x,w
  3315  1761  00F0               	movwf	___flge@ff1
  3316  1762  3000               	movlw	0
  3317  1763  00F7               	movwf	___flge@ff2+3
  3318  1764  3000               	movlw	0
  3319  1765  00F6               	movwf	___flge@ff2+2
  3320  1766  3000               	movlw	0
  3321  1767  00F5               	movwf	___flge@ff2+1
  3322  1768  3000               	movlw	0
  3323  1769  00F4               	movwf	___flge@ff2
  3324  176A  120A  158A  2000  160A  118A  	fcall	___flge
  3325  176F  1803               	btfsc	3,0
  3326  1770  2F72               	goto	u3411
  3327  1771  2F73               	goto	u3410
  3328  1772                     u3411:
  3329  1772  2F7E               	goto	l2354
  3330  1773                     u3410:
  3331  1773                     l2350:
  3332  1773  30BF               	movlw	191
  3333  1774  1283               	bcf	3,5	;RP0=0, select bank0
  3334  1775  1303               	bcf	3,6	;RP1=0, select bank0
  3335  1776  00E4               	movwf	?_floor+3
  3336  1777  3080               	movlw	128
  3337  1778  00E3               	movwf	?_floor+2
  3338  1779  3000               	movlw	0
  3339  177A  00E2               	movwf	?_floor+1
  3340  177B  3000               	movlw	0
  3341  177C  00E1               	movwf	?_floor
  3342  177D  2FFF               	goto	l664
  3343  177E                     l2354:
  3344  177E  3000               	movlw	0
  3345  177F  1283               	bcf	3,5	;RP0=0, select bank0
  3346  1780  1303               	bcf	3,6	;RP1=0, select bank0
  3347  1781  00E4               	movwf	?_floor+3
  3348  1782  3000               	movlw	0
  3349  1783  00E3               	movwf	?_floor+2
  3350  1784  3000               	movlw	0
  3351  1785  00E2               	movwf	?_floor+1
  3352  1786  3000               	movlw	0
  3353  1787  00E1               	movwf	?_floor
  3354  1788  2FFF               	goto	l664
  3355  1789                     l2358:
  3356  1789  3000               	movlw	0
  3357  178A  026B               	subwf	floor@expon+1,w
  3358  178B  301D               	movlw	29
  3359  178C  1903               	skipnz
  3360  178D  026A               	subwf	floor@expon,w
  3361  178E  1C03               	skipc
  3362  178F  2F91               	goto	u3421
  3363  1790  2F92               	goto	u3420
  3364  1791                     u3421:
  3365  1791  2F93               	goto	l2362
  3366  1792                     u3420:
  3367  1792                     l2360:
  3368  1792  2FFF               	goto	l664
  3369  1793                     l2362:
  3370  1793  0864               	movf	floor@x+3,w
  3371  1794  00A3               	movwf	___fltol@f1+3
  3372  1795  0863               	movf	floor@x+2,w
  3373  1796  00A2               	movwf	___fltol@f1+2
  3374  1797  0862               	movf	floor@x+1,w
  3375  1798  00A1               	movwf	___fltol@f1+1
  3376  1799  0861               	movf	floor@x,w
  3377  179A  00A0               	movwf	___fltol@f1
  3378  179B  160A  118A  258A  160A  118A  	fcall	___fltol
  3379  17A0  1283               	bcf	3,5	;RP0=0, select bank0
  3380  17A1  1303               	bcf	3,6	;RP1=0, select bank0
  3381  17A2  0823               	movf	?___fltol+3,w
  3382  17A3  00F3               	movwf	___xxtofl@val+3
  3383  17A4  0822               	movf	?___fltol+2,w
  3384  17A5  00F2               	movwf	___xxtofl@val+2
  3385  17A6  0821               	movf	?___fltol+1,w
  3386  17A7  00F1               	movwf	___xxtofl@val+1
  3387  17A8  0820               	movf	?___fltol,w
  3388  17A9  00F0               	movwf	___xxtofl@val
  3389  17AA  3001               	movlw	1
  3390  17AB  160A  118A  2687  160A  118A  	fcall	___xxtofl
  3391  17B0  0873               	movf	?___xxtofl+3,w
  3392  17B1  1283               	bcf	3,5	;RP0=0, select bank0
  3393  17B2  1303               	bcf	3,6	;RP1=0, select bank0
  3394  17B3  00E9               	movwf	floor@i+3
  3395  17B4  0872               	movf	?___xxtofl+2,w
  3396  17B5  00E8               	movwf	floor@i+2
  3397  17B6  0871               	movf	?___xxtofl+1,w
  3398  17B7  00E7               	movwf	floor@i+1
  3399  17B8  0870               	movf	?___xxtofl,w
  3400  17B9  00E6               	movwf	floor@i
  3401  17BA  0864               	movf	floor@x+3,w
  3402  17BB  00F3               	movwf	___flge@ff1+3
  3403  17BC  0863               	movf	floor@x+2,w
  3404  17BD  00F2               	movwf	___flge@ff1+2
  3405  17BE  0862               	movf	floor@x+1,w
  3406  17BF  00F1               	movwf	___flge@ff1+1
  3407  17C0  0861               	movf	floor@x,w
  3408  17C1  00F0               	movwf	___flge@ff1
  3409  17C2  0869               	movf	floor@i+3,w
  3410  17C3  00F7               	movwf	___flge@ff2+3
  3411  17C4  0868               	movf	floor@i+2,w
  3412  17C5  00F6               	movwf	___flge@ff2+2
  3413  17C6  0867               	movf	floor@i+1,w
  3414  17C7  00F5               	movwf	___flge@ff2+1
  3415  17C8  0866               	movf	floor@i,w
  3416  17C9  00F4               	movwf	___flge@ff2
  3417  17CA  120A  158A  2000  160A  118A  	fcall	___flge
  3418  17CF  1803               	btfsc	3,0
  3419  17D0  2FD2               	goto	u3431
  3420  17D1  2FD3               	goto	u3430
  3421  17D2                     u3431:
  3422  17D2  2FF5               	goto	l2368
  3423  17D3                     u3430:
  3424  17D3                     l2364:
  3425  17D3  30BF               	movlw	191
  3426  17D4  1283               	bcf	3,5	;RP0=0, select bank0
  3427  17D5  1303               	bcf	3,6	;RP1=0, select bank0
  3428  17D6  00D0               	movwf	___fladd@b+3
  3429  17D7  3080               	movlw	128
  3430  17D8  00CF               	movwf	___fladd@b+2
  3431  17D9  3000               	movlw	0
  3432  17DA  00CE               	movwf	___fladd@b+1
  3433  17DB  3000               	movlw	0
  3434  17DC  00CD               	movwf	___fladd@b
  3435  17DD  0869               	movf	floor@i+3,w
  3436  17DE  00D4               	movwf	___fladd@a+3
  3437  17DF  0868               	movf	floor@i+2,w
  3438  17E0  00D3               	movwf	___fladd@a+2
  3439  17E1  0867               	movf	floor@i+1,w
  3440  17E2  00D2               	movwf	___fladd@a+1
  3441  17E3  0866               	movf	floor@i,w
  3442  17E4  00D1               	movwf	___fladd@a
  3443  17E5  120A  118A  220C  160A  118A  	fcall	___fladd
  3444  17EA  1283               	bcf	3,5	;RP0=0, select bank0
  3445  17EB  1303               	bcf	3,6	;RP1=0, select bank0
  3446  17EC  0850               	movf	?___fladd+3,w
  3447  17ED  00E4               	movwf	?_floor+3
  3448  17EE  084F               	movf	?___fladd+2,w
  3449  17EF  00E3               	movwf	?_floor+2
  3450  17F0  084E               	movf	?___fladd+1,w
  3451  17F1  00E2               	movwf	?_floor+1
  3452  17F2  084D               	movf	?___fladd,w
  3453  17F3  00E1               	movwf	?_floor
  3454  17F4  2FFF               	goto	l664
  3455  17F5                     l2368:
  3456  17F5  1283               	bcf	3,5	;RP0=0, select bank0
  3457  17F6  1303               	bcf	3,6	;RP1=0, select bank0
  3458  17F7  0869               	movf	floor@i+3,w
  3459  17F8  00E4               	movwf	?_floor+3
  3460  17F9  0868               	movf	floor@i+2,w
  3461  17FA  00E3               	movwf	?_floor+2
  3462  17FB  0867               	movf	floor@i+1,w
  3463  17FC  00E2               	movwf	?_floor+1
  3464  17FD  0866               	movf	floor@i,w
  3465  17FE  00E1               	movwf	?_floor
  3466  17FF                     l664:
  3467  17FF  0008               	return
  3468  1800                     __end_of_floor:
  3469                           
  3470                           	psect	text11
  3471  152E                     __ptext11:	
  3472 ;; *************** function _frexp *****************
  3473 ;; Defined at:
  3474 ;;		line 254 in file "C:\Program Files\Microchip\xc8\v2.31\pic\sources\c90\common\frexp.c"
  3475 ;; Parameters:    Size  Location     Type
  3476 ;;  value           4   12[BANK0 ] int 
  3477 ;;  eptr            1   16[BANK0 ] PTR int 
  3478 ;;		 -> log@exponent(2), floor@expon(2), 
  3479 ;; Auto vars:     Size  Location     Type
  3480 ;;		None
  3481 ;; Return value:  Size  Location     Type
  3482 ;;                  4   12[BANK0 ] PTR int 
  3483 ;; Registers used:
  3484 ;;		wreg, fsr0l, fsr0h, status,2, status,0, btemp+1, pclath, cstack
  3485 ;; Tracked objects:
  3486 ;;		On entry : 0/0
  3487 ;;		On exit  : 0/0
  3488 ;;		Unchanged: 0/0
  3489 ;; Data sizes:     COMMON   BANK0   BANK1   BANK3   BANK2
  3490 ;;      Params:         0       5       0       0       0
  3491 ;;      Locals:         0       0       0       0       0
  3492 ;;      Temps:          0       2       0       0       0
  3493 ;;      Totals:         0       7       0       0       0
  3494 ;;Total ram usage:        7 bytes
  3495 ;; Hardware stack levels used:    1
  3496 ;; Hardware stack levels required when called:    1
  3497 ;; This function calls:
  3498 ;;		___fleq
  3499 ;; This function is called by:
  3500 ;;		_floor
  3501 ;;		_log
  3502 ;; This function uses a non-reentrant model
  3503 ;;
  3504                           
  3505                           
  3506                           ;psect for function _frexp
  3507  152E                     _frexp:
  3508  152E                     l2168:	
  3509                           ;incstack = 0
  3510                           ; Regs used in _frexp: [wreg-fsr0h+status,2+status,0+btemp+1+pclath+cstack]
  3511                           
  3512  152E  1283               	bcf	3,5	;RP0=0, select bank0
  3513  152F  1303               	bcf	3,6	;RP1=0, select bank0
  3514  1530  082F               	movf	frexp@value+3,w
  3515  1531  00A3               	movwf	___fleq@ff1+3
  3516  1532  082E               	movf	frexp@value+2,w
  3517  1533  00A2               	movwf	___fleq@ff1+2
  3518  1534  082D               	movf	frexp@value+1,w
  3519  1535  00A1               	movwf	___fleq@ff1+1
  3520  1536  082C               	movf	frexp@value,w
  3521  1537  00A0               	movwf	___fleq@ff1
  3522  1538  3000               	movlw	0
  3523  1539  00A7               	movwf	___fleq@ff2+3
  3524  153A  3000               	movlw	0
  3525  153B  00A6               	movwf	___fleq@ff2+2
  3526  153C  3000               	movlw	0
  3527  153D  00A5               	movwf	___fleq@ff2+1
  3528  153E  3000               	movlw	0
  3529  153F  00A4               	movwf	___fleq@ff2
  3530  1540  160A  118A  24DE  160A  118A  	fcall	___fleq
  3531  1545  1C03               	btfss	3,0
  3532  1546  2D48               	goto	u3081
  3533  1547  2D49               	goto	u3080
  3534  1548                     u3081:
  3535  1548  2D5A               	goto	l2176
  3536  1549                     u3080:
  3537  1549                     l2170:
  3538  1549  1283               	bcf	3,5	;RP0=0, select bank0
  3539  154A  1303               	bcf	3,6	;RP1=0, select bank0
  3540  154B  0830               	movf	frexp@eptr,w
  3541  154C  0084               	movwf	4
  3542  154D  1383               	bcf	3,7	;select IRP bank0
  3543  154E  0180               	clrf	0
  3544  154F  0A84               	incf	4,f
  3545  1550  0180               	clrf	0
  3546  1551                     l2172:
  3547  1551  3000               	movlw	0
  3548  1552  00AF               	movwf	?_frexp+3
  3549  1553  3000               	movlw	0
  3550  1554  00AE               	movwf	?_frexp+2
  3551  1555  3000               	movlw	0
  3552  1556  00AD               	movwf	?_frexp+1
  3553  1557  3000               	movlw	0
  3554  1558  00AC               	movwf	?_frexp
  3555  1559  2D89               	goto	l672
  3556  155A                     l2176:
  3557  155A  1283               	bcf	3,5	;RP0=0, select bank0
  3558  155B  1303               	bcf	3,6	;RP1=0, select bank0
  3559  155C  082F               	movf	frexp@value+3,w
  3560  155D  397F               	andlw	127
  3561  155E  00B1               	movwf	??_frexp
  3562  155F  01B2               	clrf	??_frexp+1
  3563  1560  1003               	clrc
  3564  1561  0DB1               	rlf	??_frexp,f
  3565  1562  0DB2               	rlf	??_frexp+1,f
  3566  1563  0830               	movf	frexp@eptr,w
  3567  1564  0084               	movwf	4
  3568  1565  0831               	movf	??_frexp,w
  3569  1566  1383               	bcf	3,7	;select IRP bank0
  3570  1567  0080               	movwf	0
  3571  1568  0A84               	incf	4,f
  3572  1569  0832               	movf	??_frexp+1,w
  3573  156A  0080               	movwf	0
  3574  156B  0D2E               	rlf	frexp@value+2,w
  3575  156C  0D2E               	rlf	frexp@value+2,w
  3576  156D  3901               	andlw	1
  3577  156E  00B1               	movwf	??_frexp
  3578  156F  01B2               	clrf	??_frexp+1
  3579  1570  0830               	movf	frexp@eptr,w
  3580  1571  0084               	movwf	4
  3581  1572  0831               	movf	??_frexp,w
  3582  1573  0480               	iorwf	0,f
  3583  1574  0A84               	incf	4,f
  3584  1575  0832               	movf	??_frexp+1,w
  3585  1576  0480               	iorwf	0,f
  3586  1577                     l2178:
  3587  1577  0830               	movf	frexp@eptr,w
  3588  1578  0084               	movwf	4
  3589  1579  3082               	movlw	130
  3590  157A  0780               	addwf	0,f
  3591  157B  0F84               	incfsz	4,f
  3592  157C  0800               	movf	0,w
  3593  157D  1803               	skipnc
  3594  157E  0A00               	incf	0,w
  3595  157F  00FF               	movwf	btemp+1
  3596  1580  30FF               	movlw	255
  3597  1581  077F               	addwf	btemp+1,w
  3598  1582  0080               	movwf	0
  3599  1583  0384               	decf	4,f
  3600  1584                     l2180:
  3601  1584  082F               	movf	frexp@value+3,w
  3602  1585  3980               	andlw	-128
  3603  1586  383F               	iorlw	63
  3604  1587  00AF               	movwf	frexp@value+3
  3605  1588                     l2182:
  3606  1588  13AE               	bcf	frexp@value+2,7
  3607  1589                     l2184:
  3608  1589                     l672:
  3609  1589  0008               	return
  3610  158A                     __end_of_frexp:
  3611                           
  3612                           	psect	text12
  3613  14DE                     __ptext12:	
  3614 ;; *************** function ___fleq *****************
  3615 ;; Defined at:
  3616 ;;		line 4 in file "C:\Program Files\Microchip\xc8\v2.31\pic\sources\c90\common\fleq.c"
  3617 ;; Parameters:    Size  Location     Type
  3618 ;;  ff1             4    0[BANK0 ] PTR int 
  3619 ;;  ff2             4    4[BANK0 ] PTR int 
  3620 ;; Auto vars:     Size  Location     Type
  3621 ;;		None
  3622 ;; Return value:  Size  Location     Type
  3623 ;;		None               void
  3624 ;; Registers used:
  3625 ;;		wreg, status,2, status,0
  3626 ;; Tracked objects:
  3627 ;;		On entry : 0/0
  3628 ;;		On exit  : 0/0
  3629 ;;		Unchanged: 0/0
  3630 ;; Data sizes:     COMMON   BANK0   BANK1   BANK3   BANK2
  3631 ;;      Params:         0       8       0       0       0
  3632 ;;      Locals:         0       0       0       0       0
  3633 ;;      Temps:          0       4       0       0       0
  3634 ;;      Totals:         0      12       0       0       0
  3635 ;;Total ram usage:       12 bytes
  3636 ;; Hardware stack levels used:    1
  3637 ;; This function calls:
  3638 ;;		Nothing
  3639 ;; This function is called by:
  3640 ;;		_pow
  3641 ;;		_exp
  3642 ;;		_frexp
  3643 ;;		_ldexp
  3644 ;;		_log
  3645 ;; This function uses a non-reentrant model
  3646 ;;
  3647                           
  3648                           
  3649                           ;psect for function ___fleq
  3650  14DE                     ___fleq:
  3651  14DE                     l1708:	
  3652                           ;incstack = 0
  3653                           ; Regs used in ___fleq: [wreg+status,2+status,0]
  3654                           
  3655  14DE  3000               	movlw	0
  3656  14DF  1283               	bcf	3,5	;RP0=0, select bank0
  3657  14E0  1303               	bcf	3,6	;RP1=0, select bank0
  3658  14E1  0520               	andwf	___fleq@ff1,w
  3659  14E2  00A8               	movwf	??___fleq
  3660  14E3  3000               	movlw	0
  3661  14E4  0521               	andwf	___fleq@ff1+1,w
  3662  14E5  00A9               	movwf	??___fleq+1
  3663  14E6  3080               	movlw	128
  3664  14E7  0522               	andwf	___fleq@ff1+2,w
  3665  14E8  00AA               	movwf	??___fleq+2
  3666  14E9  307F               	movlw	127
  3667  14EA  0523               	andwf	___fleq@ff1+3,w
  3668  14EB  00AB               	movwf	??___fleq+3
  3669  14EC  082B               	movf	??___fleq+3,w
  3670  14ED  042A               	iorwf	??___fleq+2,w
  3671  14EE  0429               	iorwf	??___fleq+1,w
  3672  14EF  0428               	iorwf	??___fleq,w
  3673  14F0  1D03               	skipz
  3674  14F1  2CF3               	goto	u1881
  3675  14F2  2CF4               	goto	u1880
  3676  14F3                     u1881:
  3677  14F3  2CFC               	goto	l336
  3678  14F4                     u1880:
  3679  14F4                     l1710:
  3680  14F4  3000               	movlw	0
  3681  14F5  00A3               	movwf	___fleq@ff1+3
  3682  14F6  3000               	movlw	0
  3683  14F7  00A2               	movwf	___fleq@ff1+2
  3684  14F8  3000               	movlw	0
  3685  14F9  00A1               	movwf	___fleq@ff1+1
  3686  14FA  3000               	movlw	0
  3687  14FB  00A0               	movwf	___fleq@ff1
  3688  14FC                     l336:
  3689  14FC  3000               	movlw	0
  3690  14FD  0524               	andwf	___fleq@ff2,w
  3691  14FE  00A8               	movwf	??___fleq
  3692  14FF  3000               	movlw	0
  3693  1500  0525               	andwf	___fleq@ff2+1,w
  3694  1501  00A9               	movwf	??___fleq+1
  3695  1502  3080               	movlw	128
  3696  1503  0526               	andwf	___fleq@ff2+2,w
  3697  1504  00AA               	movwf	??___fleq+2
  3698  1505  307F               	movlw	127
  3699  1506  0527               	andwf	___fleq@ff2+3,w
  3700  1507  00AB               	movwf	??___fleq+3
  3701  1508  082B               	movf	??___fleq+3,w
  3702  1509  042A               	iorwf	??___fleq+2,w
  3703  150A  0429               	iorwf	??___fleq+1,w
  3704  150B  0428               	iorwf	??___fleq,w
  3705  150C  1D03               	skipz
  3706  150D  2D0F               	goto	u1891
  3707  150E  2D10               	goto	u1890
  3708  150F                     u1891:
  3709  150F  2D18               	goto	l337
  3710  1510                     u1890:
  3711  1510                     l1712:
  3712  1510  3000               	movlw	0
  3713  1511  00A7               	movwf	___fleq@ff2+3
  3714  1512  3000               	movlw	0
  3715  1513  00A6               	movwf	___fleq@ff2+2
  3716  1514  3000               	movlw	0
  3717  1515  00A5               	movwf	___fleq@ff2+1
  3718  1516  3000               	movlw	0
  3719  1517  00A4               	movwf	___fleq@ff2
  3720  1518                     l337:
  3721  1518  0827               	movf	___fleq@ff2+3,w
  3722  1519  0623               	xorwf	___fleq@ff1+3,w
  3723  151A  1D03               	skipz
  3724  151B  2D26               	goto	u1905
  3725  151C  0826               	movf	___fleq@ff2+2,w
  3726  151D  0622               	xorwf	___fleq@ff1+2,w
  3727  151E  1D03               	skipz
  3728  151F  2D26               	goto	u1905
  3729  1520  0825               	movf	___fleq@ff2+1,w
  3730  1521  0621               	xorwf	___fleq@ff1+1,w
  3731  1522  1D03               	skipz
  3732  1523  2D26               	goto	u1905
  3733  1524  0824               	movf	___fleq@ff2,w
  3734  1525  0620               	xorwf	___fleq@ff1,w
  3735  1526                     u1905:
  3736  1526  1903               	skipnz
  3737  1527  2D29               	goto	u1901
  3738  1528  2D2A               	goto	u1900
  3739  1529                     u1901:
  3740  1529  2D2C               	goto	l1716
  3741  152A                     u1900:
  3742  152A                     l1714:
  3743  152A  1003               	clrc
  3744  152B  2D2D               	goto	l338
  3745  152C                     l1716:
  3746  152C  1403               	setc
  3747  152D                     l338:
  3748  152D  0008               	return
  3749  152E                     __end_of___fleq:
  3750                           
  3751                           	psect	text13
  3752  1687                     __ptext13:	
  3753 ;; *************** function ___xxtofl *****************
  3754 ;; Defined at:
  3755 ;;		line 10 in file "C:\Program Files\Microchip\xc8\v2.31\pic\sources\c90\common\xxtofl.c"
  3756 ;; Parameters:    Size  Location     Type
  3757 ;;  sign            1    wreg     unsigned char 
  3758 ;;  val             4    0[COMMON] long 
  3759 ;; Auto vars:     Size  Location     Type
  3760 ;;  sign            1    8[COMMON] unsigned char 
  3761 ;;  arg             4   10[COMMON] unsigned long 
  3762 ;;  exp             1    9[COMMON] unsigned char 
  3763 ;; Return value:  Size  Location     Type
  3764 ;;                  4    0[COMMON] unsigned char 
  3765 ;; Registers used:
  3766 ;;		wreg, status,2, status,0
  3767 ;; Tracked objects:
  3768 ;;		On entry : 0/0
  3769 ;;		On exit  : 0/0
  3770 ;;		Unchanged: 0/0
  3771 ;; Data sizes:     COMMON   BANK0   BANK1   BANK3   BANK2
  3772 ;;      Params:         4       0       0       0       0
  3773 ;;      Locals:         6       0       0       0       0
  3774 ;;      Temps:          4       0       0       0       0
  3775 ;;      Totals:        14       0       0       0       0
  3776 ;;Total ram usage:       14 bytes
  3777 ;; Hardware stack levels used:    1
  3778 ;; This function calls:
  3779 ;;		Nothing
  3780 ;; This function is called by:
  3781 ;;		_jugador_1
  3782 ;;		_pow
  3783 ;;		_exp
  3784 ;;		_floor
  3785 ;;		_log
  3786 ;; This function uses a non-reentrant model
  3787 ;;
  3788                           
  3789                           
  3790                           ;psect for function ___xxtofl
  3791  1687                     ___xxtofl:
  3792                           
  3793                           ;incstack = 0
  3794                           ; Regs used in ___xxtofl: [wreg+status,2+status,0]
  3795                           ;___xxtofl@sign stored from wreg
  3796  1687  00F8               	movwf	___xxtofl@sign
  3797  1688                     l2124:
  3798  1688  0878               	movf	___xxtofl@sign,w
  3799  1689  1903               	btfsc	3,2
  3800  168A  2E8C               	goto	u2941
  3801  168B  2E8D               	goto	u2940
  3802  168C                     u2941:
  3803  168C  2EA1               	goto	l2130
  3804  168D                     u2940:
  3805  168D                     l2126:
  3806  168D  1FF3               	btfss	___xxtofl@val+3,7
  3807  168E  2E90               	goto	u2951
  3808  168F  2E91               	goto	u2950
  3809  1690                     u2951:
  3810  1690  2EA1               	goto	l2130
  3811  1691                     u2950:
  3812  1691                     l2128:
  3813  1691  0970               	comf	___xxtofl@val,w
  3814  1692  00FA               	movwf	___xxtofl@arg
  3815  1693  0971               	comf	___xxtofl@val+1,w
  3816  1694  00FB               	movwf	___xxtofl@arg+1
  3817  1695  0972               	comf	___xxtofl@val+2,w
  3818  1696  00FC               	movwf	___xxtofl@arg+2
  3819  1697  0973               	comf	___xxtofl@val+3,w
  3820  1698  00FD               	movwf	___xxtofl@arg+3
  3821  1699  0AFA               	incf	___xxtofl@arg,f
  3822  169A  1903               	skipnz
  3823  169B  0AFB               	incf	___xxtofl@arg+1,f
  3824  169C  1903               	skipnz
  3825  169D  0AFC               	incf	___xxtofl@arg+2,f
  3826  169E  1903               	skipnz
  3827  169F  0AFD               	incf	___xxtofl@arg+3,f
  3828  16A0  2EA9               	goto	l600
  3829  16A1                     l2130:
  3830  16A1  0873               	movf	___xxtofl@val+3,w
  3831  16A2  00FD               	movwf	___xxtofl@arg+3
  3832  16A3  0872               	movf	___xxtofl@val+2,w
  3833  16A4  00FC               	movwf	___xxtofl@arg+2
  3834  16A5  0871               	movf	___xxtofl@val+1,w
  3835  16A6  00FB               	movwf	___xxtofl@arg+1
  3836  16A7  0870               	movf	___xxtofl@val,w
  3837  16A8  00FA               	movwf	___xxtofl@arg
  3838  16A9                     l600:
  3839  16A9  0873               	movf	___xxtofl@val+3,w
  3840  16AA  0472               	iorwf	___xxtofl@val+2,w
  3841  16AB  0471               	iorwf	___xxtofl@val+1,w
  3842  16AC  0470               	iorwf	___xxtofl@val,w
  3843  16AD  1D03               	skipz
  3844  16AE  2EB0               	goto	u2961
  3845  16AF  2EB1               	goto	u2960
  3846  16B0                     u2961:
  3847  16B0  2EBA               	goto	l2136
  3848  16B1                     u2960:
  3849  16B1                     l2132:
  3850  16B1  3000               	movlw	0
  3851  16B2  00F3               	movwf	?___xxtofl+3
  3852  16B3  3000               	movlw	0
  3853  16B4  00F2               	movwf	?___xxtofl+2
  3854  16B5  3000               	movlw	0
  3855  16B6  00F1               	movwf	?___xxtofl+1
  3856  16B7  3000               	movlw	0
  3857  16B8  00F0               	movwf	?___xxtofl
  3858  16B9  2F40               	goto	l602
  3859  16BA                     l2136:
  3860  16BA  3096               	movlw	150
  3861  16BB  00F4               	movwf	??___xxtofl
  3862  16BC  0874               	movf	??___xxtofl,w
  3863  16BD  00F9               	movwf	___xxtofl@exp
  3864  16BE  2ECC               	goto	l2140
  3865  16BF                     l2138:
  3866  16BF  3001               	movlw	1
  3867  16C0  00F4               	movwf	??___xxtofl
  3868  16C1  0874               	movf	??___xxtofl,w
  3869  16C2  07F9               	addwf	___xxtofl@exp,f
  3870  16C3  3001               	movlw	1
  3871  16C4                     u2975:
  3872  16C4  1003               	clrc
  3873  16C5  0CFD               	rrf	___xxtofl@arg+3,f
  3874  16C6  0CFC               	rrf	___xxtofl@arg+2,f
  3875  16C7  0CFB               	rrf	___xxtofl@arg+1,f
  3876  16C8  0CFA               	rrf	___xxtofl@arg,f
  3877  16C9  3EFF               	addlw	-1
  3878  16CA  1D03               	skipz
  3879  16CB  2EC4               	goto	u2975
  3880  16CC                     l2140:
  3881  16CC  30FE               	movlw	254
  3882  16CD  057D               	andwf	___xxtofl@arg+3,w
  3883  16CE  1D03               	btfss	3,2
  3884  16CF  2ED1               	goto	u2981
  3885  16D0  2ED2               	goto	u2980
  3886  16D1                     u2981:
  3887  16D1  2EBF               	goto	l2138
  3888  16D2                     u2980:
  3889  16D2  2EEE               	goto	l606
  3890  16D3                     l2142:
  3891  16D3  3001               	movlw	1
  3892  16D4  00F4               	movwf	??___xxtofl
  3893  16D5  0874               	movf	??___xxtofl,w
  3894  16D6  07F9               	addwf	___xxtofl@exp,f
  3895  16D7                     l2144:
  3896  16D7  3001               	movlw	1
  3897  16D8  07FA               	addwf	___xxtofl@arg,f
  3898  16D9  3000               	movlw	0
  3899  16DA  1803               	skipnc
  3900  16DB  3001               	movlw	1
  3901  16DC  07FB               	addwf	___xxtofl@arg+1,f
  3902  16DD  3000               	movlw	0
  3903  16DE  1803               	skipnc
  3904  16DF  3001               	movlw	1
  3905  16E0  07FC               	addwf	___xxtofl@arg+2,f
  3906  16E1  3000               	movlw	0
  3907  16E2  1803               	skipnc
  3908  16E3  3001               	movlw	1
  3909  16E4  07FD               	addwf	___xxtofl@arg+3,f
  3910  16E5                     l2146:
  3911  16E5  3001               	movlw	1
  3912  16E6                     u2995:
  3913  16E6  1003               	clrc
  3914  16E7  0CFD               	rrf	___xxtofl@arg+3,f
  3915  16E8  0CFC               	rrf	___xxtofl@arg+2,f
  3916  16E9  0CFB               	rrf	___xxtofl@arg+1,f
  3917  16EA  0CFA               	rrf	___xxtofl@arg,f
  3918  16EB  3EFF               	addlw	-1
  3919  16EC  1D03               	skipz
  3920  16ED  2EE6               	goto	u2995
  3921  16EE                     l606:
  3922  16EE  30FF               	movlw	255
  3923  16EF  057D               	andwf	___xxtofl@arg+3,w
  3924  16F0  1D03               	btfss	3,2
  3925  16F1  2EF3               	goto	u3001
  3926  16F2  2EF4               	goto	u3000
  3927  16F3                     u3001:
  3928  16F3  2ED3               	goto	l2142
  3929  16F4                     u3000:
  3930  16F4  2F00               	goto	l2150
  3931  16F5                     l2148:
  3932  16F5  3001               	movlw	1
  3933  16F6  02F9               	subwf	___xxtofl@exp,f
  3934  16F7  3001               	movlw	1
  3935  16F8  00F4               	movwf	??___xxtofl
  3936  16F9                     u3015:
  3937  16F9  1003               	clrc
  3938  16FA  0DFA               	rlf	___xxtofl@arg,f
  3939  16FB  0DFB               	rlf	___xxtofl@arg+1,f
  3940  16FC  0DFC               	rlf	___xxtofl@arg+2,f
  3941  16FD  0DFD               	rlf	___xxtofl@arg+3,f
  3942  16FE  0BF4               	decfsz	??___xxtofl,f
  3943  16FF  2EF9               	goto	u3015
  3944  1700                     l2150:
  3945  1700  1BFC               	btfsc	___xxtofl@arg+2,7
  3946  1701  2F03               	goto	u3021
  3947  1702  2F04               	goto	u3020
  3948  1703                     u3021:
  3949  1703  2F0A               	goto	l613
  3950  1704                     u3020:
  3951  1704                     l2152:
  3952  1704  3002               	movlw	2
  3953  1705  0279               	subwf	___xxtofl@exp,w
  3954  1706  1803               	skipnc
  3955  1707  2F09               	goto	u3031
  3956  1708  2F0A               	goto	u3030
  3957  1709                     u3031:
  3958  1709  2EF5               	goto	l2148
  3959  170A                     u3030:
  3960  170A                     l613:
  3961  170A  1879               	btfsc	___xxtofl@exp,0
  3962  170B  2F0D               	goto	u3041
  3963  170C  2F0E               	goto	u3040
  3964  170D                     u3041:
  3965  170D  2F16               	goto	l614
  3966  170E                     u3040:
  3967  170E                     l2154:
  3968  170E  30FF               	movlw	255
  3969  170F  05FA               	andwf	___xxtofl@arg,f
  3970  1710  30FF               	movlw	255
  3971  1711  05FB               	andwf	___xxtofl@arg+1,f
  3972  1712  307F               	movlw	127
  3973  1713  05FC               	andwf	___xxtofl@arg+2,f
  3974  1714  30FF               	movlw	255
  3975  1715  05FD               	andwf	___xxtofl@arg+3,f
  3976  1716                     l614:
  3977  1716  1003               	clrc
  3978  1717  0CF9               	rrf	___xxtofl@exp,f
  3979  1718                     l2156:
  3980  1718  0879               	movf	___xxtofl@exp,w
  3981  1719  00F4               	movwf	??___xxtofl
  3982  171A  01F5               	clrf	??___xxtofl+1
  3983  171B  01F6               	clrf	??___xxtofl+2
  3984  171C  01F7               	clrf	??___xxtofl+3
  3985  171D  3018               	movlw	24
  3986  171E                     u3055:
  3987  171E  1003               	clrc
  3988  171F  0DF4               	rlf	??___xxtofl,f
  3989  1720  0DF5               	rlf	??___xxtofl+1,f
  3990  1721  0DF6               	rlf	??___xxtofl+2,f
  3991  1722  0DF7               	rlf	??___xxtofl+3,f
  3992  1723                     u3050:
  3993  1723  3EFF               	addlw	-1
  3994  1724  1D03               	skipz
  3995  1725  2F1E               	goto	u3055
  3996  1726  0874               	movf	??___xxtofl,w
  3997  1727  04FA               	iorwf	___xxtofl@arg,f
  3998  1728  0875               	movf	??___xxtofl+1,w
  3999  1729  04FB               	iorwf	___xxtofl@arg+1,f
  4000  172A  0876               	movf	??___xxtofl+2,w
  4001  172B  04FC               	iorwf	___xxtofl@arg+2,f
  4002  172C  0877               	movf	??___xxtofl+3,w
  4003  172D  04FD               	iorwf	___xxtofl@arg+3,f
  4004  172E                     l2158:
  4005  172E  0878               	movf	___xxtofl@sign,w
  4006  172F  1903               	btfsc	3,2
  4007  1730  2F32               	goto	u3061
  4008  1731  2F33               	goto	u3060
  4009  1732                     u3061:
  4010  1732  2F38               	goto	l2164
  4011  1733                     u3060:
  4012  1733                     l2160:
  4013  1733  1FF3               	btfss	___xxtofl@val+3,7
  4014  1734  2F36               	goto	u3071
  4015  1735  2F37               	goto	u3070
  4016  1736                     u3071:
  4017  1736  2F38               	goto	l2164
  4018  1737                     u3070:
  4019  1737                     l2162:
  4020  1737  17FD               	bsf	___xxtofl@arg+3,7
  4021  1738                     l2164:
  4022  1738  087D               	movf	___xxtofl@arg+3,w
  4023  1739  00F3               	movwf	?___xxtofl+3
  4024  173A  087C               	movf	___xxtofl@arg+2,w
  4025  173B  00F2               	movwf	?___xxtofl+2
  4026  173C  087B               	movf	___xxtofl@arg+1,w
  4027  173D  00F1               	movwf	?___xxtofl+1
  4028  173E  087A               	movf	___xxtofl@arg,w
  4029  173F  00F0               	movwf	?___xxtofl
  4030  1740                     l602:
  4031  1740  0008               	return
  4032  1741                     __end_of___xxtofl:
  4033                           
  4034                           	psect	text14
  4035  158A                     __ptext14:	
  4036 ;; *************** function ___fltol *****************
  4037 ;; Defined at:
  4038 ;;		line 43 in file "C:\Program Files\Microchip\xc8\v2.31\pic\sources\c90\common\fltol.c"
  4039 ;; Parameters:    Size  Location     Type
  4040 ;;  f1              4    0[BANK0 ] unsigned char 
  4041 ;; Auto vars:     Size  Location     Type
  4042 ;;  exp1            1   10[BANK0 ] unsigned char 
  4043 ;;  sign1           1    9[BANK0 ] unsigned char 
  4044 ;; Return value:  Size  Location     Type
  4045 ;;                  4    0[BANK0 ] long 
  4046 ;; Registers used:
  4047 ;;		wreg, status,2, status,0
  4048 ;; Tracked objects:
  4049 ;;		On entry : 0/0
  4050 ;;		On exit  : 0/0
  4051 ;;		Unchanged: 0/0
  4052 ;; Data sizes:     COMMON   BANK0   BANK1   BANK3   BANK2
  4053 ;;      Params:         0       4       0       0       0
  4054 ;;      Locals:         0       2       0       0       0
  4055 ;;      Temps:          0       5       0       0       0
  4056 ;;      Totals:         0      11       0       0       0
  4057 ;;Total ram usage:       11 bytes
  4058 ;; Hardware stack levels used:    1
  4059 ;; This function calls:
  4060 ;;		Nothing
  4061 ;; This function is called by:
  4062 ;;		_jugador_1
  4063 ;;		_pow
  4064 ;;		_exp
  4065 ;;		_floor
  4066 ;; This function uses a non-reentrant model
  4067 ;;
  4068                           
  4069                           
  4070                           ;psect for function ___fltol
  4071  158A                     ___fltol:
  4072  158A                     l1754:	
  4073                           ;incstack = 0
  4074                           ; Regs used in ___fltol: [wreg+status,2+status,0]
  4075                           
  4076  158A  1003               	clrc
  4077  158B  1283               	bcf	3,5	;RP0=0, select bank0
  4078  158C  1303               	bcf	3,6	;RP1=0, select bank0
  4079  158D  0D22               	rlf	___fltol@f1+2,w
  4080  158E  0D23               	rlf	___fltol@f1+3,w
  4081  158F  00A4               	movwf	??___fltol
  4082  1590  0824               	movf	??___fltol,w
  4083  1591  00AA               	movwf	___fltol@exp1
  4084  1592  082A               	movf	___fltol@exp1,w
  4085  1593  1D03               	btfss	3,2
  4086  1594  2D96               	goto	u2011
  4087  1595  2D97               	goto	u2010
  4088  1596                     u2011:
  4089  1596  2DA0               	goto	l1760
  4090  1597                     u2010:
  4091  1597                     l1756:
  4092  1597  3000               	movlw	0
  4093  1598  00A3               	movwf	?___fltol+3
  4094  1599  3000               	movlw	0
  4095  159A  00A2               	movwf	?___fltol+2
  4096  159B  3000               	movlw	0
  4097  159C  00A1               	movwf	?___fltol+1
  4098  159D  3000               	movlw	0
  4099  159E  00A0               	movwf	?___fltol
  4100  159F  2E05               	goto	l353
  4101  15A0                     l1760:
  4102  15A0  0820               	movf	___fltol@f1,w
  4103  15A1  00A4               	movwf	??___fltol
  4104  15A2  0821               	movf	___fltol@f1+1,w
  4105  15A3  00A5               	movwf	??___fltol+1
  4106  15A4  0822               	movf	___fltol@f1+2,w
  4107  15A5  00A6               	movwf	??___fltol+2
  4108  15A6  0823               	movf	___fltol@f1+3,w
  4109  15A7  00A7               	movwf	??___fltol+3
  4110  15A8  301F               	movlw	31
  4111  15A9                     u2025:
  4112  15A9  1003               	clrc
  4113  15AA  0CA7               	rrf	??___fltol+3,f
  4114  15AB  0CA6               	rrf	??___fltol+2,f
  4115  15AC  0CA5               	rrf	??___fltol+1,f
  4116  15AD  0CA4               	rrf	??___fltol,f
  4117  15AE                     u2020:
  4118  15AE  3EFF               	addlw	-1
  4119  15AF  1D03               	skipz
  4120  15B0  2DA9               	goto	u2025
  4121  15B1  0824               	movf	??___fltol,w
  4122  15B2  00A8               	movwf	??___fltol+4
  4123  15B3  0828               	movf	??___fltol+4,w
  4124  15B4  00A9               	movwf	___fltol@sign1
  4125  15B5                     l1762:
  4126  15B5  17A2               	bsf	___fltol@f1+2,7
  4127  15B6                     l1764:
  4128  15B6  30FF               	movlw	255
  4129  15B7  05A0               	andwf	___fltol@f1,f
  4130  15B8  30FF               	movlw	255
  4131  15B9  05A1               	andwf	___fltol@f1+1,f
  4132  15BA  30FF               	movlw	255
  4133  15BB  05A2               	andwf	___fltol@f1+2,f
  4134  15BC  3000               	movlw	0
  4135  15BD  05A3               	andwf	___fltol@f1+3,f
  4136  15BE                     l1766:
  4137  15BE  3096               	movlw	150
  4138  15BF  02AA               	subwf	___fltol@exp1,f
  4139  15C0                     l1768:
  4140  15C0  1FAA               	btfss	___fltol@exp1,7
  4141  15C1  2DC3               	goto	u2031
  4142  15C2  2DC4               	goto	u2030
  4143  15C3                     u2031:
  4144  15C3  2DDE               	goto	l1778
  4145  15C4                     u2030:
  4146  15C4                     l1770:
  4147  15C4  082A               	movf	___fltol@exp1,w
  4148  15C5  3A80               	xorlw	128
  4149  15C6  3E97               	addlw	151
  4150  15C7  1803               	skipnc
  4151  15C8  2DCA               	goto	u2041
  4152  15C9  2DCB               	goto	u2040
  4153  15CA                     u2041:
  4154  15CA  2DCC               	goto	l1776
  4155  15CB                     u2040:
  4156  15CB  2D97               	goto	l1756
  4157  15CC                     l1776:
  4158  15CC  3001               	movlw	1
  4159  15CD                     u2055:
  4160  15CD  1003               	clrc
  4161  15CE  0CA3               	rrf	___fltol@f1+3,f
  4162  15CF  0CA2               	rrf	___fltol@f1+2,f
  4163  15D0  0CA1               	rrf	___fltol@f1+1,f
  4164  15D1  0CA0               	rrf	___fltol@f1,f
  4165  15D2  3EFF               	addlw	-1
  4166  15D3  1D03               	skipz
  4167  15D4  2DCD               	goto	u2055
  4168  15D5  3001               	movlw	1
  4169  15D6  00A4               	movwf	??___fltol
  4170  15D7  0824               	movf	??___fltol,w
  4171  15D8  07AA               	addwf	___fltol@exp1,f
  4172  15D9  1D03               	btfss	3,2
  4173  15DA  2DDC               	goto	u2061
  4174  15DB  2DDD               	goto	u2060
  4175  15DC                     u2061:
  4176  15DC  2DCC               	goto	l1776
  4177  15DD                     u2060:
  4178  15DD  2DF5               	goto	l1786
  4179  15DE                     l1778:
  4180  15DE  3020               	movlw	32
  4181  15DF  022A               	subwf	___fltol@exp1,w
  4182  15E0  1C03               	skipc
  4183  15E1  2DE3               	goto	u2071
  4184  15E2  2DE4               	goto	u2070
  4185  15E3                     u2071:
  4186  15E3  2DF0               	goto	l360
  4187  15E4                     u2070:
  4188  15E4  2D97               	goto	l1756
  4189  15E5                     l1784:
  4190  15E5  3001               	movlw	1
  4191  15E6  00A4               	movwf	??___fltol
  4192  15E7                     u2085:
  4193  15E7  1003               	clrc
  4194  15E8  0DA0               	rlf	___fltol@f1,f
  4195  15E9  0DA1               	rlf	___fltol@f1+1,f
  4196  15EA  0DA2               	rlf	___fltol@f1+2,f
  4197  15EB  0DA3               	rlf	___fltol@f1+3,f
  4198  15EC  0BA4               	decfsz	??___fltol,f
  4199  15ED  2DE7               	goto	u2085
  4200  15EE  3001               	movlw	1
  4201  15EF  02AA               	subwf	___fltol@exp1,f
  4202  15F0                     l360:
  4203  15F0  082A               	movf	___fltol@exp1,w
  4204  15F1  1D03               	btfss	3,2
  4205  15F2  2DF4               	goto	u2091
  4206  15F3  2DF5               	goto	u2090
  4207  15F4                     u2091:
  4208  15F4  2DE5               	goto	l1784
  4209  15F5                     u2090:
  4210  15F5                     l1786:
  4211  15F5  0829               	movf	___fltol@sign1,w
  4212  15F6  1903               	btfsc	3,2
  4213  15F7  2DF9               	goto	u2101
  4214  15F8  2DFA               	goto	u2100
  4215  15F9                     u2101:
  4216  15F9  2E05               	goto	l363
  4217  15FA                     u2100:
  4218  15FA                     l1788:
  4219  15FA  09A0               	comf	___fltol@f1,f
  4220  15FB  09A1               	comf	___fltol@f1+1,f
  4221  15FC  09A2               	comf	___fltol@f1+2,f
  4222  15FD  09A3               	comf	___fltol@f1+3,f
  4223  15FE  0AA0               	incf	___fltol@f1,f
  4224  15FF  1903               	skipnz
  4225  1600  0AA1               	incf	___fltol@f1+1,f
  4226  1601  1903               	skipnz
  4227  1602  0AA2               	incf	___fltol@f1+2,f
  4228  1603  1903               	skipnz
  4229  1604  0AA3               	incf	___fltol@f1+3,f
  4230  1605                     l363:
  4231  1605                     l353:
  4232  1605  0008               	return
  4233  1606                     __end_of___fltol:
  4234                           
  4235                           	psect	text15
  4236  0800                     __ptext15:	
  4237 ;; *************** function ___flge *****************
  4238 ;; Defined at:
  4239 ;;		line 4 in file "C:\Program Files\Microchip\xc8\v2.31\pic\sources\c90\common\flge.c"
  4240 ;; Parameters:    Size  Location     Type
  4241 ;;  ff1             4    0[COMMON] long 
  4242 ;;  ff2             4    4[COMMON] long 
  4243 ;; Auto vars:     Size  Location     Type
  4244 ;;		None
  4245 ;; Return value:  Size  Location     Type
  4246 ;;		None               void
  4247 ;; Registers used:
  4248 ;;		wreg, status,2, status,0
  4249 ;; Tracked objects:
  4250 ;;		On entry : 0/0
  4251 ;;		On exit  : 0/0
  4252 ;;		Unchanged: 0/0
  4253 ;; Data sizes:     COMMON   BANK0   BANK1   BANK3   BANK2
  4254 ;;      Params:         8       0       0       0       0
  4255 ;;      Locals:         0       0       0       0       0
  4256 ;;      Temps:          4       0       0       0       0
  4257 ;;      Totals:        12       0       0       0       0
  4258 ;;Total ram usage:       12 bytes
  4259 ;; Hardware stack levels used:    1
  4260 ;; This function calls:
  4261 ;;		Nothing
  4262 ;; This function is called by:
  4263 ;;		_pow
  4264 ;;		_exp
  4265 ;;		_floor
  4266 ;;		_ldexp
  4267 ;;		_log
  4268 ;; This function uses a non-reentrant model
  4269 ;;
  4270                           
  4271                           
  4272                           ;psect for function ___flge
  4273  0800                     ___flge:
  4274  0800                     l1734:	
  4275                           ;incstack = 0
  4276                           ; Regs used in ___flge: [wreg+status,2+status,0]
  4277                           
  4278  0800  3000               	movlw	0
  4279  0801  0570               	andwf	___flge@ff1,w
  4280  0802  00F8               	movwf	??___flge
  4281  0803  3000               	movlw	0
  4282  0804  0571               	andwf	___flge@ff1+1,w
  4283  0805  00F9               	movwf	??___flge+1
  4284  0806  3080               	movlw	128
  4285  0807  0572               	andwf	___flge@ff1+2,w
  4286  0808  00FA               	movwf	??___flge+2
  4287  0809  307F               	movlw	127
  4288  080A  0573               	andwf	___flge@ff1+3,w
  4289  080B  00FB               	movwf	??___flge+3
  4290  080C  087B               	movf	??___flge+3,w
  4291  080D  047A               	iorwf	??___flge+2,w
  4292  080E  0479               	iorwf	??___flge+1,w
  4293  080F  0478               	iorwf	??___flge,w
  4294  0810  1D03               	skipz
  4295  0811  2813               	goto	u1941
  4296  0812  2814               	goto	u1940
  4297  0813                     u1941:
  4298  0813  281C               	goto	l341
  4299  0814                     u1940:
  4300  0814                     l1736:
  4301  0814  3000               	movlw	0
  4302  0815  00F3               	movwf	___flge@ff1+3
  4303  0816  3000               	movlw	0
  4304  0817  00F2               	movwf	___flge@ff1+2
  4305  0818  3000               	movlw	0
  4306  0819  00F1               	movwf	___flge@ff1+1
  4307  081A  3000               	movlw	0
  4308  081B  00F0               	movwf	___flge@ff1
  4309  081C                     l341:
  4310  081C  3000               	movlw	0
  4311  081D  0574               	andwf	___flge@ff2,w
  4312  081E  00F8               	movwf	??___flge
  4313  081F  3000               	movlw	0
  4314  0820  0575               	andwf	___flge@ff2+1,w
  4315  0821  00F9               	movwf	??___flge+1
  4316  0822  3080               	movlw	128
  4317  0823  0576               	andwf	___flge@ff2+2,w
  4318  0824  00FA               	movwf	??___flge+2
  4319  0825  307F               	movlw	127
  4320  0826  0577               	andwf	___flge@ff2+3,w
  4321  0827  00FB               	movwf	??___flge+3
  4322  0828  087B               	movf	??___flge+3,w
  4323  0829  047A               	iorwf	??___flge+2,w
  4324  082A  0479               	iorwf	??___flge+1,w
  4325  082B  0478               	iorwf	??___flge,w
  4326  082C  1D03               	skipz
  4327  082D  282F               	goto	u1951
  4328  082E  2830               	goto	u1950
  4329  082F                     u1951:
  4330  082F  2838               	goto	l1740
  4331  0830                     u1950:
  4332  0830                     l1738:
  4333  0830  3000               	movlw	0
  4334  0831  00F7               	movwf	___flge@ff2+3
  4335  0832  3000               	movlw	0
  4336  0833  00F6               	movwf	___flge@ff2+2
  4337  0834  3000               	movlw	0
  4338  0835  00F5               	movwf	___flge@ff2+1
  4339  0836  3000               	movlw	0
  4340  0837  00F4               	movwf	___flge@ff2
  4341  0838                     l1740:
  4342  0838  1FF3               	btfss	___flge@ff1+3,7
  4343  0839  283B               	goto	u1961
  4344  083A  283C               	goto	u1960
  4345  083B                     u1961:
  4346  083B  2860               	goto	l1744
  4347  083C                     u1960:
  4348  083C                     l1742:
  4349  083C  3000               	movlw	0
  4350  083D  00F8               	movwf	??___flge
  4351  083E  3000               	movlw	0
  4352  083F  00F9               	movwf	??___flge+1
  4353  0840  3000               	movlw	0
  4354  0841  00FA               	movwf	??___flge+2
  4355  0842  3080               	movlw	128
  4356  0843  00FB               	movwf	??___flge+3
  4357  0844  0870               	movf	___flge@ff1,w
  4358  0845  02F8               	subwf	??___flge,f
  4359  0846  0871               	movf	___flge@ff1+1,w
  4360  0847  1C03               	skipc
  4361  0848  0F71               	incfsz	___flge@ff1+1,w
  4362  0849  284B               	goto	u1971
  4363  084A  284C               	goto	u1972
  4364  084B                     u1971:
  4365  084B  02F9               	subwf	??___flge+1,f
  4366  084C                     u1972:
  4367  084C  0872               	movf	___flge@ff1+2,w
  4368  084D  1C03               	skipc
  4369  084E  0F72               	incfsz	___flge@ff1+2,w
  4370  084F  2851               	goto	u1973
  4371  0850  2852               	goto	u1974
  4372  0851                     u1973:
  4373  0851  02FA               	subwf	??___flge+2,f
  4374  0852                     u1974:
  4375  0852  0873               	movf	___flge@ff1+3,w
  4376  0853  1C03               	skipc
  4377  0854  0F73               	incfsz	___flge@ff1+3,w
  4378  0855  2857               	goto	u1975
  4379  0856  2858               	goto	u1976
  4380  0857                     u1975:
  4381  0857  02FB               	subwf	??___flge+3,f
  4382  0858                     u1976:
  4383  0858  087B               	movf	??___flge+3,w
  4384  0859  00F3               	movwf	___flge@ff1+3
  4385  085A  087A               	movf	??___flge+2,w
  4386  085B  00F2               	movwf	___flge@ff1+2
  4387  085C  0879               	movf	??___flge+1,w
  4388  085D  00F1               	movwf	___flge@ff1+1
  4389  085E  0878               	movf	??___flge,w
  4390  085F  00F0               	movwf	___flge@ff1
  4391  0860                     l1744:
  4392  0860  1FF7               	btfss	___flge@ff2+3,7
  4393  0861  2863               	goto	u1981
  4394  0862  2864               	goto	u1980
  4395  0863                     u1981:
  4396  0863  2888               	goto	l344
  4397  0864                     u1980:
  4398  0864                     l1746:
  4399  0864  3000               	movlw	0
  4400  0865  00F8               	movwf	??___flge
  4401  0866  3000               	movlw	0
  4402  0867  00F9               	movwf	??___flge+1
  4403  0868  3000               	movlw	0
  4404  0869  00FA               	movwf	??___flge+2
  4405  086A  3080               	movlw	128
  4406  086B  00FB               	movwf	??___flge+3
  4407  086C  0874               	movf	___flge@ff2,w
  4408  086D  02F8               	subwf	??___flge,f
  4409  086E  0875               	movf	___flge@ff2+1,w
  4410  086F  1C03               	skipc
  4411  0870  0F75               	incfsz	___flge@ff2+1,w
  4412  0871  2873               	goto	u1991
  4413  0872  2874               	goto	u1992
  4414  0873                     u1991:
  4415  0873  02F9               	subwf	??___flge+1,f
  4416  0874                     u1992:
  4417  0874  0876               	movf	___flge@ff2+2,w
  4418  0875  1C03               	skipc
  4419  0876  0F76               	incfsz	___flge@ff2+2,w
  4420  0877  2879               	goto	u1993
  4421  0878  287A               	goto	u1994
  4422  0879                     u1993:
  4423  0879  02FA               	subwf	??___flge+2,f
  4424  087A                     u1994:
  4425  087A  0877               	movf	___flge@ff2+3,w
  4426  087B  1C03               	skipc
  4427  087C  0F77               	incfsz	___flge@ff2+3,w
  4428  087D  287F               	goto	u1995
  4429  087E  2880               	goto	u1996
  4430  087F                     u1995:
  4431  087F  02FB               	subwf	??___flge+3,f
  4432  0880                     u1996:
  4433  0880  087B               	movf	??___flge+3,w
  4434  0881  00F7               	movwf	___flge@ff2+3
  4435  0882  087A               	movf	??___flge+2,w
  4436  0883  00F6               	movwf	___flge@ff2+2
  4437  0884  0879               	movf	??___flge+1,w
  4438  0885  00F5               	movwf	___flge@ff2+1
  4439  0886  0878               	movf	??___flge,w
  4440  0887  00F4               	movwf	___flge@ff2
  4441  0888                     l344:
  4442  0888  3080               	movlw	128
  4443  0889  06F3               	xorwf	___flge@ff1+3,f
  4444  088A  3080               	movlw	128
  4445  088B  06F7               	xorwf	___flge@ff2+3,f
  4446  088C  0877               	movf	___flge@ff2+3,w
  4447  088D  0273               	subwf	___flge@ff1+3,w
  4448  088E  1D03               	skipz
  4449  088F  289A               	goto	u2005
  4450  0890  0876               	movf	___flge@ff2+2,w
  4451  0891  0272               	subwf	___flge@ff1+2,w
  4452  0892  1D03               	skipz
  4453  0893  289A               	goto	u2005
  4454  0894  0875               	movf	___flge@ff2+1,w
  4455  0895  0271               	subwf	___flge@ff1+1,w
  4456  0896  1D03               	skipz
  4457  0897  289A               	goto	u2005
  4458  0898  0874               	movf	___flge@ff2,w
  4459  0899  0270               	subwf	___flge@ff1,w
  4460  089A                     u2005:
  4461  089A  1803               	skipnc
  4462  089B  289D               	goto	u2001
  4463  089C  289E               	goto	u2000
  4464  089D                     u2001:
  4465  089D  28A0               	goto	l1750
  4466  089E                     u2000:
  4467  089E                     l1748:
  4468  089E  1003               	clrc
  4469  089F  28A1               	goto	l345
  4470  08A0                     l1750:
  4471  08A0  1403               	setc
  4472  08A1                     l345:
  4473  08A1  0008               	return
  4474  08A2                     __end_of___flge:
  4475                           
  4476                           	psect	text16
  4477  08A2                     __ptext16:	
  4478 ;; *************** function _eval_poly *****************
  4479 ;; Defined at:
  4480 ;;		line 4 in file "C:\Program Files\Microchip\xc8\v2.31\pic\sources\c90\common\evalpoly.c"
  4481 ;; Parameters:    Size  Location     Type
  4482 ;;  x               4   65[BANK0 ] long 
  4483 ;;  d               1   69[BANK0 ] PTR const 
  4484 ;;		 -> log@coeff(36), exp@coeff(40), 
  4485 ;;  n               2   70[BANK0 ] int 
  4486 ;; Auto vars:     Size  Location     Type
  4487 ;;  res             4    0[BANK1 ] int 
  4488 ;; Return value:  Size  Location     Type
  4489 ;;                  4   65[BANK0 ] int 
  4490 ;; Registers used:
  4491 ;;		wreg, fsr0l, fsr0h, status,2, status,0, btemp+1, pclath, cstack
  4492 ;; Tracked objects:
  4493 ;;		On entry : 0/0
  4494 ;;		On exit  : 0/0
  4495 ;;		Unchanged: 0/0
  4496 ;; Data sizes:     COMMON   BANK0   BANK1   BANK3   BANK2
  4497 ;;      Params:         0       7       0       0       0
  4498 ;;      Locals:         0       0       4       0       0
  4499 ;;      Temps:          0       5       0       0       0
  4500 ;;      Totals:         0      12       4       0       0
  4501 ;;Total ram usage:       16 bytes
  4502 ;; Hardware stack levels used:    1
  4503 ;; Hardware stack levels required when called:    2
  4504 ;; This function calls:
  4505 ;;		___fladd
  4506 ;;		___flmul
  4507 ;; This function is called by:
  4508 ;;		_exp
  4509 ;;		_log
  4510 ;; This function uses a non-reentrant model
  4511 ;;
  4512                           
  4513                           
  4514                           ;psect for function _eval_poly
  4515  08A2                     _eval_poly:
  4516  08A2                     l2372:	
  4517                           ;incstack = 0
  4518                           ; Regs used in _eval_poly: [wreg-fsr0h+status,2+status,0+btemp+1+pclath+cstack]
  4519                           
  4520  08A2  1283               	bcf	3,5	;RP0=0, select bank0
  4521  08A3  1303               	bcf	3,6	;RP1=0, select bank0
  4522  08A4  0866               	movf	eval_poly@n,w
  4523  08A5  00E8               	movwf	??_eval_poly
  4524  08A6  3001               	movlw	1
  4525  08A7                     u3445:
  4526  08A7  1003               	clrc
  4527  08A8  0DE8               	rlf	??_eval_poly,f
  4528  08A9  3EFF               	addlw	-1
  4529  08AA  1D03               	skipz
  4530  08AB  28A7               	goto	u3445
  4531  08AC  1003               	clrc
  4532  08AD  0D68               	rlf	??_eval_poly,w
  4533  08AE  0765               	addwf	eval_poly@d,w
  4534  08AF  0084               	movwf	4
  4535  08B0  160A  118A  2000  120A  158A  	fcall	stringdir
  4536  08B5  00E9               	movwf	??_eval_poly+1
  4537  08B6  160A  118A  2000  120A  158A  	fcall	stringdir
  4538  08BB  00EA               	movwf	??_eval_poly+2
  4539  08BC  160A  118A  2000  120A  158A  	fcall	stringdir
  4540  08C1  00EB               	movwf	??_eval_poly+3
  4541  08C2  160A  118A  2000  120A  158A  	fcall	stringdir
  4542  08C7  00EC               	movwf	??_eval_poly+4
  4543  08C8  086C               	movf	??_eval_poly+4,w
  4544  08C9  1683               	bsf	3,5	;RP0=1, select bank1
  4545  08CA  1303               	bcf	3,6	;RP1=0, select bank1
  4546  08CB  00A3               	movwf	(eval_poly@res+3)^(0+128)
  4547  08CC  1283               	bcf	3,5	;RP0=0, select bank0
  4548  08CD  1303               	bcf	3,6	;RP1=0, select bank0
  4549  08CE  086B               	movf	??_eval_poly+3,w
  4550  08CF  1683               	bsf	3,5	;RP0=1, select bank1
  4551  08D0  1303               	bcf	3,6	;RP1=0, select bank1
  4552  08D1  00A2               	movwf	(eval_poly@res+2)^(0+128)
  4553  08D2  1283               	bcf	3,5	;RP0=0, select bank0
  4554  08D3  1303               	bcf	3,6	;RP1=0, select bank0
  4555  08D4  086A               	movf	??_eval_poly+2,w
  4556  08D5  1683               	bsf	3,5	;RP0=1, select bank1
  4557  08D6  1303               	bcf	3,6	;RP1=0, select bank1
  4558  08D7  00A1               	movwf	(eval_poly@res+1)^(0+128)
  4559  08D8  1283               	bcf	3,5	;RP0=0, select bank0
  4560  08D9  1303               	bcf	3,6	;RP1=0, select bank0
  4561  08DA  0869               	movf	??_eval_poly+1,w
  4562  08DB  1683               	bsf	3,5	;RP0=1, select bank1
  4563  08DC  1303               	bcf	3,6	;RP1=0, select bank1
  4564  08DD  00A0               	movwf	eval_poly@res^(0+128)
  4565  08DE  295D               	goto	l2376
  4566  08DF                     l2374:
  4567  08DF  30FF               	movlw	255
  4568  08E0  07E6               	addwf	eval_poly@n,f
  4569  08E1  1803               	skipnc
  4570  08E2  0AE7               	incf	eval_poly@n+1,f
  4571  08E3  30FF               	movlw	255
  4572  08E4  07E7               	addwf	eval_poly@n+1,f
  4573  08E5  0866               	movf	eval_poly@n,w
  4574  08E6  00E8               	movwf	??_eval_poly
  4575  08E7  3001               	movlw	1
  4576  08E8                     u3455:
  4577  08E8  1003               	clrc
  4578  08E9  0DE8               	rlf	??_eval_poly,f
  4579  08EA  3EFF               	addlw	-1
  4580  08EB  1D03               	skipz
  4581  08EC  28E8               	goto	u3455
  4582  08ED  1003               	clrc
  4583  08EE  0D68               	rlf	??_eval_poly,w
  4584  08EF  0765               	addwf	eval_poly@d,w
  4585  08F0  0084               	movwf	4
  4586  08F1  160A  118A  2000  120A  158A  	fcall	stringdir
  4587  08F6  00E9               	movwf	??_eval_poly+1
  4588  08F7  160A  118A  2000  120A  158A  	fcall	stringdir
  4589  08FC  00EA               	movwf	??_eval_poly+2
  4590  08FD  160A  118A  2000  120A  158A  	fcall	stringdir
  4591  0902  00EB               	movwf	??_eval_poly+3
  4592  0903  160A  118A  2000  120A  158A  	fcall	stringdir
  4593  0908  00EC               	movwf	??_eval_poly+4
  4594  0909  086C               	movf	??_eval_poly+4,w
  4595  090A  00D0               	movwf	___fladd@b+3
  4596  090B  086B               	movf	??_eval_poly+3,w
  4597  090C  00CF               	movwf	___fladd@b+2
  4598  090D  086A               	movf	??_eval_poly+2,w
  4599  090E  00CE               	movwf	___fladd@b+1
  4600  090F  0869               	movf	??_eval_poly+1,w
  4601  0910  00CD               	movwf	___fladd@b
  4602  0911  1683               	bsf	3,5	;RP0=1, select bank1
  4603  0912  1303               	bcf	3,6	;RP1=0, select bank1
  4604  0913  0823               	movf	(eval_poly@res+3)^(0+128),w
  4605  0914  1283               	bcf	3,5	;RP0=0, select bank0
  4606  0915  1303               	bcf	3,6	;RP1=0, select bank0
  4607  0916  00B6               	movwf	___flmul@b+3
  4608  0917  1683               	bsf	3,5	;RP0=1, select bank1
  4609  0918  1303               	bcf	3,6	;RP1=0, select bank1
  4610  0919  0822               	movf	(eval_poly@res+2)^(0+128),w
  4611  091A  1283               	bcf	3,5	;RP0=0, select bank0
  4612  091B  1303               	bcf	3,6	;RP1=0, select bank0
  4613  091C  00B5               	movwf	___flmul@b+2
  4614  091D  1683               	bsf	3,5	;RP0=1, select bank1
  4615  091E  1303               	bcf	3,6	;RP1=0, select bank1
  4616  091F  0821               	movf	(eval_poly@res+1)^(0+128),w
  4617  0920  1283               	bcf	3,5	;RP0=0, select bank0
  4618  0921  1303               	bcf	3,6	;RP1=0, select bank0
  4619  0922  00B4               	movwf	___flmul@b+1
  4620  0923  1683               	bsf	3,5	;RP0=1, select bank1
  4621  0924  1303               	bcf	3,6	;RP1=0, select bank1
  4622  0925  0820               	movf	eval_poly@res^(0+128),w
  4623  0926  1283               	bcf	3,5	;RP0=0, select bank0
  4624  0927  1303               	bcf	3,6	;RP1=0, select bank0
  4625  0928  00B3               	movwf	___flmul@b
  4626  0929  0864               	movf	eval_poly@x+3,w
  4627  092A  00BA               	movwf	___flmul@a+3
  4628  092B  0863               	movf	eval_poly@x+2,w
  4629  092C  00B9               	movwf	___flmul@a+2
  4630  092D  0862               	movf	eval_poly@x+1,w
  4631  092E  00B8               	movwf	___flmul@a+1
  4632  092F  0861               	movf	eval_poly@x,w
  4633  0930  00B7               	movwf	___flmul@a
  4634  0931  120A  118A  2494  120A  158A  	fcall	___flmul
  4635  0936  1283               	bcf	3,5	;RP0=0, select bank0
  4636  0937  1303               	bcf	3,6	;RP1=0, select bank0
  4637  0938  0836               	movf	?___flmul+3,w
  4638  0939  00D4               	movwf	___fladd@a+3
  4639  093A  0835               	movf	?___flmul+2,w
  4640  093B  00D3               	movwf	___fladd@a+2
  4641  093C  0834               	movf	?___flmul+1,w
  4642  093D  00D2               	movwf	___fladd@a+1
  4643  093E  0833               	movf	?___flmul,w
  4644  093F  00D1               	movwf	___fladd@a
  4645  0940  120A  118A  220C  120A  158A  	fcall	___fladd
  4646  0945  1283               	bcf	3,5	;RP0=0, select bank0
  4647  0946  1303               	bcf	3,6	;RP1=0, select bank0
  4648  0947  0850               	movf	?___fladd+3,w
  4649  0948  1683               	bsf	3,5	;RP0=1, select bank1
  4650  0949  1303               	bcf	3,6	;RP1=0, select bank1
  4651  094A  00A3               	movwf	(eval_poly@res+3)^(0+128)
  4652  094B  1283               	bcf	3,5	;RP0=0, select bank0
  4653  094C  1303               	bcf	3,6	;RP1=0, select bank0
  4654  094D  084F               	movf	?___fladd+2,w
  4655  094E  1683               	bsf	3,5	;RP0=1, select bank1
  4656  094F  1303               	bcf	3,6	;RP1=0, select bank1
  4657  0950  00A2               	movwf	(eval_poly@res+2)^(0+128)
  4658  0951  1283               	bcf	3,5	;RP0=0, select bank0
  4659  0952  1303               	bcf	3,6	;RP1=0, select bank0
  4660  0953  084E               	movf	?___fladd+1,w
  4661  0954  1683               	bsf	3,5	;RP0=1, select bank1
  4662  0955  1303               	bcf	3,6	;RP1=0, select bank1
  4663  0956  00A1               	movwf	(eval_poly@res+1)^(0+128)
  4664  0957  1283               	bcf	3,5	;RP0=0, select bank0
  4665  0958  1303               	bcf	3,6	;RP1=0, select bank0
  4666  0959  084D               	movf	?___fladd,w
  4667  095A  1683               	bsf	3,5	;RP0=1, select bank1
  4668  095B  1303               	bcf	3,6	;RP1=0, select bank1
  4669  095C  00A0               	movwf	eval_poly@res^(0+128)
  4670  095D                     l2376:
  4671  095D  1283               	bcf	3,5	;RP0=0, select bank0
  4672  095E  1303               	bcf	3,6	;RP1=0, select bank0
  4673  095F  0866               	movf	eval_poly@n,w
  4674  0960  0467               	iorwf	eval_poly@n+1,w
  4675  0961  1D03               	btfss	3,2
  4676  0962  2964               	goto	u3461
  4677  0963  2965               	goto	u3460
  4678  0964                     u3461:
  4679  0964  28DF               	goto	l2374
  4680  0965                     u3460:
  4681  0965                     l2378:
  4682  0965  1683               	bsf	3,5	;RP0=1, select bank1
  4683  0966  1303               	bcf	3,6	;RP1=0, select bank1
  4684  0967  0823               	movf	(eval_poly@res+3)^(0+128),w
  4685  0968  1283               	bcf	3,5	;RP0=0, select bank0
  4686  0969  1303               	bcf	3,6	;RP1=0, select bank0
  4687  096A  00E4               	movwf	?_eval_poly+3
  4688  096B  1683               	bsf	3,5	;RP0=1, select bank1
  4689  096C  1303               	bcf	3,6	;RP1=0, select bank1
  4690  096D  0822               	movf	(eval_poly@res+2)^(0+128),w
  4691  096E  1283               	bcf	3,5	;RP0=0, select bank0
  4692  096F  1303               	bcf	3,6	;RP1=0, select bank0
  4693  0970  00E3               	movwf	?_eval_poly+2
  4694  0971  1683               	bsf	3,5	;RP0=1, select bank1
  4695  0972  1303               	bcf	3,6	;RP1=0, select bank1
  4696  0973  0821               	movf	(eval_poly@res+1)^(0+128),w
  4697  0974  1283               	bcf	3,5	;RP0=0, select bank0
  4698  0975  1303               	bcf	3,6	;RP1=0, select bank0
  4699  0976  00E2               	movwf	?_eval_poly+1
  4700  0977  1683               	bsf	3,5	;RP0=1, select bank1
  4701  0978  1303               	bcf	3,6	;RP1=0, select bank1
  4702  0979  0820               	movf	eval_poly@res^(0+128),w
  4703  097A  1283               	bcf	3,5	;RP0=0, select bank0
  4704  097B  1303               	bcf	3,6	;RP1=0, select bank0
  4705  097C  00E1               	movwf	?_eval_poly
  4706  097D                     l657:
  4707  097D  0008               	return
  4708  097E                     __end_of_eval_poly:
  4709                           
  4710                           	psect	text17
  4711  0494                     __ptext17:	
  4712 ;; *************** function ___flmul *****************
  4713 ;; Defined at:
  4714 ;;		line 8 in file "C:\Program Files\Microchip\xc8\v2.31\pic\sources\c90\common\sprcmul.c"
  4715 ;; Parameters:    Size  Location     Type
  4716 ;;  b               4   19[BANK0 ] int 
  4717 ;;  a               4   23[BANK0 ] int 
  4718 ;; Auto vars:     Size  Location     Type
  4719 ;;  prod            4   39[BANK0 ] struct .
  4720 ;;  grs             4   33[BANK0 ] unsigned long 
  4721 ;;  temp            2   43[BANK0 ] struct .
  4722 ;;  bexp            1   38[BANK0 ] unsigned char 
  4723 ;;  aexp            1   37[BANK0 ] unsigned char 
  4724 ;;  sign            1   32[BANK0 ] unsigned char 
  4725 ;; Return value:  Size  Location     Type
  4726 ;;                  4   19[BANK0 ] unsigned char 
  4727 ;; Registers used:
  4728 ;;		wreg, status,2, status,0, btemp+1, pclath, cstack
  4729 ;; Tracked objects:
  4730 ;;		On entry : 0/0
  4731 ;;		On exit  : 0/0
  4732 ;;		Unchanged: 0/0
  4733 ;; Data sizes:     COMMON   BANK0   BANK1   BANK3   BANK2
  4734 ;;      Params:         0       8       0       0       0
  4735 ;;      Locals:         0      13       0       0       0
  4736 ;;      Temps:          0       5       0       0       0
  4737 ;;      Totals:         0      26       0       0       0
  4738 ;;Total ram usage:       26 bytes
  4739 ;; Hardware stack levels used:    1
  4740 ;; Hardware stack levels required when called:    1
  4741 ;; This function calls:
  4742 ;;		__Umul8_16
  4743 ;; This function is called by:
  4744 ;;		_pow
  4745 ;;		_exp
  4746 ;;		_eval_poly
  4747 ;;		_log
  4748 ;; This function uses a non-reentrant model
  4749 ;;
  4750                           
  4751                           
  4752                           ;psect for function ___flmul
  4753  0494                     ___flmul:
  4754  0494                     l1984:	
  4755                           ;incstack = 0
  4756                           ; Regs used in ___flmul: [wreg+status,2+status,0+btemp+1+pclath+cstack]
  4757                           
  4758  0494  1283               	bcf	3,5	;RP0=0, select bank0
  4759  0495  1303               	bcf	3,6	;RP1=0, select bank0
  4760  0496  0836               	movf	___flmul@b+3,w
  4761  0497  3980               	andlw	128
  4762  0498  00BB               	movwf	??___flmul
  4763  0499  083B               	movf	??___flmul,w
  4764  049A  00C0               	movwf	___flmul@sign
  4765  049B                     l1986:
  4766  049B  0836               	movf	___flmul@b+3,w
  4767  049C  00BB               	movwf	??___flmul
  4768  049D  073B               	addwf	??___flmul,w
  4769  049E  00BC               	movwf	??___flmul+1
  4770  049F  083C               	movf	??___flmul+1,w
  4771  04A0  00C6               	movwf	___flmul@bexp
  4772  04A1                     l1988:
  4773  04A1  1FB5               	btfss	___flmul@b+2,7
  4774  04A2  2CA4               	goto	u2571
  4775  04A3  2CA5               	goto	u2570
  4776  04A4                     u2571:
  4777  04A4  2CA6               	goto	l1992
  4778  04A5                     u2570:
  4779  04A5                     l1990:
  4780  04A5  1446               	bsf	___flmul@bexp,0
  4781  04A6                     l1992:
  4782  04A6  0846               	movf	___flmul@bexp,w
  4783  04A7  1903               	btfsc	3,2
  4784  04A8  2CAA               	goto	u2581
  4785  04A9  2CAB               	goto	u2580
  4786  04AA                     u2581:
  4787  04AA  2CBA               	goto	l2000
  4788  04AB                     u2580:
  4789  04AB                     l1994:
  4790  04AB  0A46               	incf	___flmul@bexp,w
  4791  04AC  1D03               	btfss	3,2
  4792  04AD  2CAF               	goto	u2591
  4793  04AE  2CB0               	goto	u2590
  4794  04AF                     u2591:
  4795  04AF  2CB8               	goto	l1998
  4796  04B0                     u2590:
  4797  04B0                     l1996:
  4798  04B0  3000               	movlw	0
  4799  04B1  00B6               	movwf	___flmul@b+3
  4800  04B2  3000               	movlw	0
  4801  04B3  00B5               	movwf	___flmul@b+2
  4802  04B4  3000               	movlw	0
  4803  04B5  00B4               	movwf	___flmul@b+1
  4804  04B6  3000               	movlw	0
  4805  04B7  00B3               	movwf	___flmul@b
  4806  04B8                     l1998:
  4807  04B8  17B5               	bsf	___flmul@b+2,7
  4808  04B9  2CC2               	goto	l2002
  4809  04BA                     l2000:
  4810  04BA  3000               	movlw	0
  4811  04BB  00B6               	movwf	___flmul@b+3
  4812  04BC  3000               	movlw	0
  4813  04BD  00B5               	movwf	___flmul@b+2
  4814  04BE  3000               	movlw	0
  4815  04BF  00B4               	movwf	___flmul@b+1
  4816  04C0  3000               	movlw	0
  4817  04C1  00B3               	movwf	___flmul@b
  4818  04C2                     l2002:
  4819  04C2  083A               	movf	___flmul@a+3,w
  4820  04C3  3980               	andlw	128
  4821  04C4  00BB               	movwf	??___flmul
  4822  04C5  083B               	movf	??___flmul,w
  4823  04C6  06C0               	xorwf	___flmul@sign,f
  4824  04C7                     l2004:
  4825  04C7  083A               	movf	___flmul@a+3,w
  4826  04C8  00BB               	movwf	??___flmul
  4827  04C9  073B               	addwf	??___flmul,w
  4828  04CA  00BC               	movwf	??___flmul+1
  4829  04CB  083C               	movf	??___flmul+1,w
  4830  04CC  00C5               	movwf	___flmul@aexp
  4831  04CD                     l2006:
  4832  04CD  1FB9               	btfss	___flmul@a+2,7
  4833  04CE  2CD0               	goto	u2601
  4834  04CF  2CD1               	goto	u2600
  4835  04D0                     u2601:
  4836  04D0  2CD2               	goto	l2010
  4837  04D1                     u2600:
  4838  04D1                     l2008:
  4839  04D1  1445               	bsf	___flmul@aexp,0
  4840  04D2                     l2010:
  4841  04D2  0845               	movf	___flmul@aexp,w
  4842  04D3  1903               	btfsc	3,2
  4843  04D4  2CD6               	goto	u2611
  4844  04D5  2CD7               	goto	u2610
  4845  04D6                     u2611:
  4846  04D6  2CE6               	goto	l2018
  4847  04D7                     u2610:
  4848  04D7                     l2012:
  4849  04D7  0A45               	incf	___flmul@aexp,w
  4850  04D8  1D03               	btfss	3,2
  4851  04D9  2CDB               	goto	u2621
  4852  04DA  2CDC               	goto	u2620
  4853  04DB                     u2621:
  4854  04DB  2CE4               	goto	l2016
  4855  04DC                     u2620:
  4856  04DC                     l2014:
  4857  04DC  3000               	movlw	0
  4858  04DD  00BA               	movwf	___flmul@a+3
  4859  04DE  3000               	movlw	0
  4860  04DF  00B9               	movwf	___flmul@a+2
  4861  04E0  3000               	movlw	0
  4862  04E1  00B8               	movwf	___flmul@a+1
  4863  04E2  3000               	movlw	0
  4864  04E3  00B7               	movwf	___flmul@a
  4865  04E4                     l2016:
  4866  04E4  17B9               	bsf	___flmul@a+2,7
  4867  04E5  2CEE               	goto	l2020
  4868  04E6                     l2018:
  4869  04E6  3000               	movlw	0
  4870  04E7  00BA               	movwf	___flmul@a+3
  4871  04E8  3000               	movlw	0
  4872  04E9  00B9               	movwf	___flmul@a+2
  4873  04EA  3000               	movlw	0
  4874  04EB  00B8               	movwf	___flmul@a+1
  4875  04EC  3000               	movlw	0
  4876  04ED  00B7               	movwf	___flmul@a
  4877  04EE                     l2020:
  4878  04EE  0845               	movf	___flmul@aexp,w
  4879  04EF  1903               	btfsc	3,2
  4880  04F0  2CF2               	goto	u2631
  4881  04F1  2CF3               	goto	u2630
  4882  04F2                     u2631:
  4883  04F2  2CF8               	goto	l2024
  4884  04F3                     u2630:
  4885  04F3                     l2022:
  4886  04F3  0846               	movf	___flmul@bexp,w
  4887  04F4  1D03               	btfss	3,2
  4888  04F5  2CF7               	goto	u2641
  4889  04F6  2CF8               	goto	u2640
  4890  04F7                     u2641:
  4891  04F7  2D01               	goto	l2028
  4892  04F8                     u2640:
  4893  04F8                     l2024:
  4894  04F8  3000               	movlw	0
  4895  04F9  00B6               	movwf	?___flmul+3
  4896  04FA  3000               	movlw	0
  4897  04FB  00B5               	movwf	?___flmul+2
  4898  04FC  3000               	movlw	0
  4899  04FD  00B4               	movwf	?___flmul+1
  4900  04FE  3000               	movlw	0
  4901  04FF  00B3               	movwf	?___flmul
  4902  0500  2FF4               	goto	l556
  4903  0501                     l2028:
  4904  0501  0833               	movf	___flmul@b,w
  4905  0502  00BB               	movwf	??___flmul
  4906  0503  083B               	movf	??___flmul,w
  4907  0504  00F0               	movwf	__Umul8_16@multiplicand
  4908  0505  0839               	movf	___flmul@a+2,w
  4909  0506  160A  118A  2465  120A  118A  	fcall	__Umul8_16
  4910  050B  0871               	movf	?__Umul8_16+1,w
  4911  050C  1283               	bcf	3,5	;RP0=0, select bank0
  4912  050D  1303               	bcf	3,6	;RP1=0, select bank0
  4913  050E  00CC               	movwf	___flmul@temp+1
  4914  050F  0870               	movf	?__Umul8_16,w
  4915  0510  00CB               	movwf	___flmul@temp
  4916  0511                     l2030:
  4917  0511  084B               	movf	___flmul@temp,w
  4918  0512  00BB               	movwf	??___flmul
  4919  0513  01BC               	clrf	??___flmul+1
  4920  0514  01BD               	clrf	??___flmul+2
  4921  0515  01BE               	clrf	??___flmul+3
  4922  0516  083E               	movf	??___flmul+3,w
  4923  0517  00C4               	movwf	___flmul@grs+3
  4924  0518  083D               	movf	??___flmul+2,w
  4925  0519  00C3               	movwf	___flmul@grs+2
  4926  051A  083C               	movf	??___flmul+1,w
  4927  051B  00C2               	movwf	___flmul@grs+1
  4928  051C  083B               	movf	??___flmul,w
  4929  051D  00C1               	movwf	___flmul@grs
  4930  051E                     l2032:
  4931  051E  084C               	movf	___flmul@temp+1,w
  4932  051F  00BB               	movwf	??___flmul
  4933  0520  01BC               	clrf	??___flmul+1
  4934  0521  01BD               	clrf	??___flmul+2
  4935  0522  01BE               	clrf	??___flmul+3
  4936  0523  083E               	movf	??___flmul+3,w
  4937  0524  00CA               	movwf	___flmul@prod+3
  4938  0525  083D               	movf	??___flmul+2,w
  4939  0526  00C9               	movwf	___flmul@prod+2
  4940  0527  083C               	movf	??___flmul+1,w
  4941  0528  00C8               	movwf	___flmul@prod+1
  4942  0529  083B               	movf	??___flmul,w
  4943  052A  00C7               	movwf	___flmul@prod
  4944  052B  0834               	movf	___flmul@b+1,w
  4945  052C  00BB               	movwf	??___flmul
  4946  052D  083B               	movf	??___flmul,w
  4947  052E  00F0               	movwf	__Umul8_16@multiplicand
  4948  052F  0838               	movf	___flmul@a+1,w
  4949  0530  160A  118A  2465  120A  118A  	fcall	__Umul8_16
  4950  0535  0871               	movf	?__Umul8_16+1,w
  4951  0536  1283               	bcf	3,5	;RP0=0, select bank0
  4952  0537  1303               	bcf	3,6	;RP1=0, select bank0
  4953  0538  00CC               	movwf	___flmul@temp+1
  4954  0539  0870               	movf	?__Umul8_16,w
  4955  053A  00CB               	movwf	___flmul@temp
  4956  053B                     l2034:
  4957  053B  084B               	movf	___flmul@temp,w
  4958  053C  00BB               	movwf	??___flmul
  4959  053D  01BC               	clrf	??___flmul+1
  4960  053E  01BD               	clrf	??___flmul+2
  4961  053F  01BE               	clrf	??___flmul+3
  4962  0540  083B               	movf	??___flmul,w
  4963  0541  07C1               	addwf	___flmul@grs,f
  4964  0542  083C               	movf	??___flmul+1,w
  4965  0543  1103               	clrz
  4966  0544  1803               	skipnc
  4967  0545  3E01               	addlw	1
  4968  0546  1903               	skipnz
  4969  0547  2D49               	goto	u2651
  4970  0548  07C2               	addwf	___flmul@grs+1,f
  4971  0549                     u2651:
  4972  0549  083D               	movf	??___flmul+2,w
  4973  054A  1103               	clrz
  4974  054B  1803               	skipnc
  4975  054C  3E01               	addlw	1
  4976  054D  1903               	skipnz
  4977  054E  2D50               	goto	u2652
  4978  054F  07C3               	addwf	___flmul@grs+2,f
  4979  0550                     u2652:
  4980  0550  083E               	movf	??___flmul+3,w
  4981  0551  1103               	clrz
  4982  0552  1803               	skipnc
  4983  0553  3E01               	addlw	1
  4984  0554  1903               	skipnz
  4985  0555  2D57               	goto	u2653
  4986  0556  07C4               	addwf	___flmul@grs+3,f
  4987  0557                     u2653:
  4988  0557                     l2036:
  4989  0557  084C               	movf	___flmul@temp+1,w
  4990  0558  00BB               	movwf	??___flmul
  4991  0559  01BC               	clrf	??___flmul+1
  4992  055A  01BD               	clrf	??___flmul+2
  4993  055B  01BE               	clrf	??___flmul+3
  4994  055C  083B               	movf	??___flmul,w
  4995  055D  07C7               	addwf	___flmul@prod,f
  4996  055E  083C               	movf	??___flmul+1,w
  4997  055F  1103               	clrz
  4998  0560  1803               	skipnc
  4999  0561  3E01               	addlw	1
  5000  0562  1903               	skipnz
  5001  0563  2D65               	goto	u2661
  5002  0564  07C8               	addwf	___flmul@prod+1,f
  5003  0565                     u2661:
  5004  0565  083D               	movf	??___flmul+2,w
  5005  0566  1103               	clrz
  5006  0567  1803               	skipnc
  5007  0568  3E01               	addlw	1
  5008  0569  1903               	skipnz
  5009  056A  2D6C               	goto	u2662
  5010  056B  07C9               	addwf	___flmul@prod+2,f
  5011  056C                     u2662:
  5012  056C  083E               	movf	??___flmul+3,w
  5013  056D  1103               	clrz
  5014  056E  1803               	skipnc
  5015  056F  3E01               	addlw	1
  5016  0570  1903               	skipnz
  5017  0571  2D73               	goto	u2663
  5018  0572  07CA               	addwf	___flmul@prod+3,f
  5019  0573                     u2663:
  5020  0573  0835               	movf	___flmul@b+2,w
  5021  0574  00BB               	movwf	??___flmul
  5022  0575  083B               	movf	??___flmul,w
  5023  0576  00F0               	movwf	__Umul8_16@multiplicand
  5024  0577  0837               	movf	___flmul@a,w
  5025  0578  160A  118A  2465  120A  118A  	fcall	__Umul8_16
  5026  057D  0871               	movf	?__Umul8_16+1,w
  5027  057E  1283               	bcf	3,5	;RP0=0, select bank0
  5028  057F  1303               	bcf	3,6	;RP1=0, select bank0
  5029  0580  00CC               	movwf	___flmul@temp+1
  5030  0581  0870               	movf	?__Umul8_16,w
  5031  0582  00CB               	movwf	___flmul@temp
  5032  0583                     l2038:
  5033  0583  084B               	movf	___flmul@temp,w
  5034  0584  00BB               	movwf	??___flmul
  5035  0585  01BC               	clrf	??___flmul+1
  5036  0586  01BD               	clrf	??___flmul+2
  5037  0587  01BE               	clrf	??___flmul+3
  5038  0588  083B               	movf	??___flmul,w
  5039  0589  07C1               	addwf	___flmul@grs,f
  5040  058A  083C               	movf	??___flmul+1,w
  5041  058B  1103               	clrz
  5042  058C  1803               	skipnc
  5043  058D  3E01               	addlw	1
  5044  058E  1903               	skipnz
  5045  058F  2D91               	goto	u2671
  5046  0590  07C2               	addwf	___flmul@grs+1,f
  5047  0591                     u2671:
  5048  0591  083D               	movf	??___flmul+2,w
  5049  0592  1103               	clrz
  5050  0593  1803               	skipnc
  5051  0594  3E01               	addlw	1
  5052  0595  1903               	skipnz
  5053  0596  2D98               	goto	u2672
  5054  0597  07C3               	addwf	___flmul@grs+2,f
  5055  0598                     u2672:
  5056  0598  083E               	movf	??___flmul+3,w
  5057  0599  1103               	clrz
  5058  059A  1803               	skipnc
  5059  059B  3E01               	addlw	1
  5060  059C  1903               	skipnz
  5061  059D  2D9F               	goto	u2673
  5062  059E  07C4               	addwf	___flmul@grs+3,f
  5063  059F                     u2673:
  5064  059F                     l2040:
  5065  059F  084C               	movf	___flmul@temp+1,w
  5066  05A0  00BB               	movwf	??___flmul
  5067  05A1  01BC               	clrf	??___flmul+1
  5068  05A2  01BD               	clrf	??___flmul+2
  5069  05A3  01BE               	clrf	??___flmul+3
  5070  05A4  083B               	movf	??___flmul,w
  5071  05A5  07C7               	addwf	___flmul@prod,f
  5072  05A6  083C               	movf	??___flmul+1,w
  5073  05A7  1103               	clrz
  5074  05A8  1803               	skipnc
  5075  05A9  3E01               	addlw	1
  5076  05AA  1903               	skipnz
  5077  05AB  2DAD               	goto	u2681
  5078  05AC  07C8               	addwf	___flmul@prod+1,f
  5079  05AD                     u2681:
  5080  05AD  083D               	movf	??___flmul+2,w
  5081  05AE  1103               	clrz
  5082  05AF  1803               	skipnc
  5083  05B0  3E01               	addlw	1
  5084  05B1  1903               	skipnz
  5085  05B2  2DB4               	goto	u2682
  5086  05B3  07C9               	addwf	___flmul@prod+2,f
  5087  05B4                     u2682:
  5088  05B4  083E               	movf	??___flmul+3,w
  5089  05B5  1103               	clrz
  5090  05B6  1803               	skipnc
  5091  05B7  3E01               	addlw	1
  5092  05B8  1903               	skipnz
  5093  05B9  2DBB               	goto	u2683
  5094  05BA  07CA               	addwf	___flmul@prod+3,f
  5095  05BB                     u2683:
  5096  05BB                     l2042:
  5097  05BB  3008               	movlw	8
  5098  05BC  00BB               	movwf	??___flmul
  5099  05BD                     u2695:
  5100  05BD  1003               	clrc
  5101  05BE  0DC1               	rlf	___flmul@grs,f
  5102  05BF  0DC2               	rlf	___flmul@grs+1,f
  5103  05C0  0DC3               	rlf	___flmul@grs+2,f
  5104  05C1  0DC4               	rlf	___flmul@grs+3,f
  5105  05C2  0BBB               	decfsz	??___flmul,f
  5106  05C3  2DBD               	goto	u2695
  5107  05C4                     l2044:
  5108  05C4  0834               	movf	___flmul@b+1,w
  5109  05C5  00BB               	movwf	??___flmul
  5110  05C6  083B               	movf	??___flmul,w
  5111  05C7  00F0               	movwf	__Umul8_16@multiplicand
  5112  05C8  0837               	movf	___flmul@a,w
  5113  05C9  160A  118A  2465  120A  118A  	fcall	__Umul8_16
  5114  05CE  0871               	movf	?__Umul8_16+1,w
  5115  05CF  1283               	bcf	3,5	;RP0=0, select bank0
  5116  05D0  1303               	bcf	3,6	;RP1=0, select bank0
  5117  05D1  00CC               	movwf	___flmul@temp+1
  5118  05D2  0870               	movf	?__Umul8_16,w
  5119  05D3  00CB               	movwf	___flmul@temp
  5120  05D4                     l2046:
  5121  05D4  084B               	movf	___flmul@temp,w
  5122  05D5  00BB               	movwf	??___flmul
  5123  05D6  084C               	movf	___flmul@temp+1,w
  5124  05D7  00BC               	movwf	??___flmul+1
  5125  05D8  01BD               	clrf	??___flmul+2
  5126  05D9  01BE               	clrf	??___flmul+3
  5127  05DA  083B               	movf	??___flmul,w
  5128  05DB  07C1               	addwf	___flmul@grs,f
  5129  05DC  083C               	movf	??___flmul+1,w
  5130  05DD  1103               	clrz
  5131  05DE  1803               	skipnc
  5132  05DF  3E01               	addlw	1
  5133  05E0  1903               	skipnz
  5134  05E1  2DE3               	goto	u2701
  5135  05E2  07C2               	addwf	___flmul@grs+1,f
  5136  05E3                     u2701:
  5137  05E3  083D               	movf	??___flmul+2,w
  5138  05E4  1103               	clrz
  5139  05E5  1803               	skipnc
  5140  05E6  3E01               	addlw	1
  5141  05E7  1903               	skipnz
  5142  05E8  2DEA               	goto	u2702
  5143  05E9  07C3               	addwf	___flmul@grs+2,f
  5144  05EA                     u2702:
  5145  05EA  083E               	movf	??___flmul+3,w
  5146  05EB  1103               	clrz
  5147  05EC  1803               	skipnc
  5148  05ED  3E01               	addlw	1
  5149  05EE  1903               	skipnz
  5150  05EF  2DF1               	goto	u2703
  5151  05F0  07C4               	addwf	___flmul@grs+3,f
  5152  05F1                     u2703:
  5153  05F1                     l2048:
  5154  05F1  0833               	movf	___flmul@b,w
  5155  05F2  00BB               	movwf	??___flmul
  5156  05F3  083B               	movf	??___flmul,w
  5157  05F4  00F0               	movwf	__Umul8_16@multiplicand
  5158  05F5  0838               	movf	___flmul@a+1,w
  5159  05F6  160A  118A  2465  120A  118A  	fcall	__Umul8_16
  5160  05FB  0871               	movf	?__Umul8_16+1,w
  5161  05FC  1283               	bcf	3,5	;RP0=0, select bank0
  5162  05FD  1303               	bcf	3,6	;RP1=0, select bank0
  5163  05FE  00CC               	movwf	___flmul@temp+1
  5164  05FF  0870               	movf	?__Umul8_16,w
  5165  0600  00CB               	movwf	___flmul@temp
  5166  0601                     l2050:
  5167  0601  084B               	movf	___flmul@temp,w
  5168  0602  00BB               	movwf	??___flmul
  5169  0603  084C               	movf	___flmul@temp+1,w
  5170  0604  00BC               	movwf	??___flmul+1
  5171  0605  01BD               	clrf	??___flmul+2
  5172  0606  01BE               	clrf	??___flmul+3
  5173  0607  083B               	movf	??___flmul,w
  5174  0608  07C1               	addwf	___flmul@grs,f
  5175  0609  083C               	movf	??___flmul+1,w
  5176  060A  1103               	clrz
  5177  060B  1803               	skipnc
  5178  060C  3E01               	addlw	1
  5179  060D  1903               	skipnz
  5180  060E  2E10               	goto	u2711
  5181  060F  07C2               	addwf	___flmul@grs+1,f
  5182  0610                     u2711:
  5183  0610  083D               	movf	??___flmul+2,w
  5184  0611  1103               	clrz
  5185  0612  1803               	skipnc
  5186  0613  3E01               	addlw	1
  5187  0614  1903               	skipnz
  5188  0615  2E17               	goto	u2712
  5189  0616  07C3               	addwf	___flmul@grs+2,f
  5190  0617                     u2712:
  5191  0617  083E               	movf	??___flmul+3,w
  5192  0618  1103               	clrz
  5193  0619  1803               	skipnc
  5194  061A  3E01               	addlw	1
  5195  061B  1903               	skipnz
  5196  061C  2E1E               	goto	u2713
  5197  061D  07C4               	addwf	___flmul@grs+3,f
  5198  061E                     u2713:
  5199  061E                     l2052:
  5200  061E  3008               	movlw	8
  5201  061F  00BB               	movwf	??___flmul
  5202  0620                     u2725:
  5203  0620  1003               	clrc
  5204  0621  0DC1               	rlf	___flmul@grs,f
  5205  0622  0DC2               	rlf	___flmul@grs+1,f
  5206  0623  0DC3               	rlf	___flmul@grs+2,f
  5207  0624  0DC4               	rlf	___flmul@grs+3,f
  5208  0625  0BBB               	decfsz	??___flmul,f
  5209  0626  2E20               	goto	u2725
  5210  0627  0833               	movf	___flmul@b,w
  5211  0628  00BB               	movwf	??___flmul
  5212  0629  083B               	movf	??___flmul,w
  5213  062A  00F0               	movwf	__Umul8_16@multiplicand
  5214  062B  0837               	movf	___flmul@a,w
  5215  062C  160A  118A  2465  120A  118A  	fcall	__Umul8_16
  5216  0631  0871               	movf	?__Umul8_16+1,w
  5217  0632  1283               	bcf	3,5	;RP0=0, select bank0
  5218  0633  1303               	bcf	3,6	;RP1=0, select bank0
  5219  0634  00CC               	movwf	___flmul@temp+1
  5220  0635  0870               	movf	?__Umul8_16,w
  5221  0636  00CB               	movwf	___flmul@temp
  5222  0637                     l2054:
  5223  0637  084B               	movf	___flmul@temp,w
  5224  0638  00BB               	movwf	??___flmul
  5225  0639  084C               	movf	___flmul@temp+1,w
  5226  063A  00BC               	movwf	??___flmul+1
  5227  063B  01BD               	clrf	??___flmul+2
  5228  063C  01BE               	clrf	??___flmul+3
  5229  063D  083B               	movf	??___flmul,w
  5230  063E  07C1               	addwf	___flmul@grs,f
  5231  063F  083C               	movf	??___flmul+1,w
  5232  0640  1103               	clrz
  5233  0641  1803               	skipnc
  5234  0642  3E01               	addlw	1
  5235  0643  1903               	skipnz
  5236  0644  2E46               	goto	u2731
  5237  0645  07C2               	addwf	___flmul@grs+1,f
  5238  0646                     u2731:
  5239  0646  083D               	movf	??___flmul+2,w
  5240  0647  1103               	clrz
  5241  0648  1803               	skipnc
  5242  0649  3E01               	addlw	1
  5243  064A  1903               	skipnz
  5244  064B  2E4D               	goto	u2732
  5245  064C  07C3               	addwf	___flmul@grs+2,f
  5246  064D                     u2732:
  5247  064D  083E               	movf	??___flmul+3,w
  5248  064E  1103               	clrz
  5249  064F  1803               	skipnc
  5250  0650  3E01               	addlw	1
  5251  0651  1903               	skipnz
  5252  0652  2E54               	goto	u2733
  5253  0653  07C4               	addwf	___flmul@grs+3,f
  5254  0654                     u2733:
  5255  0654                     l2056:
  5256  0654  0834               	movf	___flmul@b+1,w
  5257  0655  00BB               	movwf	??___flmul
  5258  0656  083B               	movf	??___flmul,w
  5259  0657  00F0               	movwf	__Umul8_16@multiplicand
  5260  0658  0839               	movf	___flmul@a+2,w
  5261  0659  160A  118A  2465  120A  118A  	fcall	__Umul8_16
  5262  065E  0871               	movf	?__Umul8_16+1,w
  5263  065F  1283               	bcf	3,5	;RP0=0, select bank0
  5264  0660  1303               	bcf	3,6	;RP1=0, select bank0
  5265  0661  00CC               	movwf	___flmul@temp+1
  5266  0662  0870               	movf	?__Umul8_16,w
  5267  0663  00CB               	movwf	___flmul@temp
  5268  0664  084B               	movf	___flmul@temp,w
  5269  0665  00BB               	movwf	??___flmul
  5270  0666  084C               	movf	___flmul@temp+1,w
  5271  0667  00BC               	movwf	??___flmul+1
  5272  0668  01BD               	clrf	??___flmul+2
  5273  0669  01BE               	clrf	??___flmul+3
  5274  066A  083B               	movf	??___flmul,w
  5275  066B  07C7               	addwf	___flmul@prod,f
  5276  066C  083C               	movf	??___flmul+1,w
  5277  066D  1103               	clrz
  5278  066E  1803               	skipnc
  5279  066F  3E01               	addlw	1
  5280  0670  1903               	skipnz
  5281  0671  2E73               	goto	u2741
  5282  0672  07C8               	addwf	___flmul@prod+1,f
  5283  0673                     u2741:
  5284  0673  083D               	movf	??___flmul+2,w
  5285  0674  1103               	clrz
  5286  0675  1803               	skipnc
  5287  0676  3E01               	addlw	1
  5288  0677  1903               	skipnz
  5289  0678  2E7A               	goto	u2742
  5290  0679  07C9               	addwf	___flmul@prod+2,f
  5291  067A                     u2742:
  5292  067A  083E               	movf	??___flmul+3,w
  5293  067B  1103               	clrz
  5294  067C  1803               	skipnc
  5295  067D  3E01               	addlw	1
  5296  067E  1903               	skipnz
  5297  067F  2E81               	goto	u2743
  5298  0680  07CA               	addwf	___flmul@prod+3,f
  5299  0681                     u2743:
  5300  0681                     l2058:
  5301  0681  0835               	movf	___flmul@b+2,w
  5302  0682  00BB               	movwf	??___flmul
  5303  0683  083B               	movf	??___flmul,w
  5304  0684  00F0               	movwf	__Umul8_16@multiplicand
  5305  0685  0838               	movf	___flmul@a+1,w
  5306  0686  160A  118A  2465  120A  118A  	fcall	__Umul8_16
  5307  068B  0871               	movf	?__Umul8_16+1,w
  5308  068C  1283               	bcf	3,5	;RP0=0, select bank0
  5309  068D  1303               	bcf	3,6	;RP1=0, select bank0
  5310  068E  00CC               	movwf	___flmul@temp+1
  5311  068F  0870               	movf	?__Umul8_16,w
  5312  0690  00CB               	movwf	___flmul@temp
  5313  0691                     l2060:
  5314  0691  084B               	movf	___flmul@temp,w
  5315  0692  00BB               	movwf	??___flmul
  5316  0693  084C               	movf	___flmul@temp+1,w
  5317  0694  00BC               	movwf	??___flmul+1
  5318  0695  01BD               	clrf	??___flmul+2
  5319  0696  01BE               	clrf	??___flmul+3
  5320  0697  083B               	movf	??___flmul,w
  5321  0698  07C7               	addwf	___flmul@prod,f
  5322  0699  083C               	movf	??___flmul+1,w
  5323  069A  1103               	clrz
  5324  069B  1803               	skipnc
  5325  069C  3E01               	addlw	1
  5326  069D  1903               	skipnz
  5327  069E  2EA0               	goto	u2751
  5328  069F  07C8               	addwf	___flmul@prod+1,f
  5329  06A0                     u2751:
  5330  06A0  083D               	movf	??___flmul+2,w
  5331  06A1  1103               	clrz
  5332  06A2  1803               	skipnc
  5333  06A3  3E01               	addlw	1
  5334  06A4  1903               	skipnz
  5335  06A5  2EA7               	goto	u2752
  5336  06A6  07C9               	addwf	___flmul@prod+2,f
  5337  06A7                     u2752:
  5338  06A7  083E               	movf	??___flmul+3,w
  5339  06A8  1103               	clrz
  5340  06A9  1803               	skipnc
  5341  06AA  3E01               	addlw	1
  5342  06AB  1903               	skipnz
  5343  06AC  2EAE               	goto	u2753
  5344  06AD  07CA               	addwf	___flmul@prod+3,f
  5345  06AE                     u2753:
  5346  06AE  0835               	movf	___flmul@b+2,w
  5347  06AF  00BB               	movwf	??___flmul
  5348  06B0  083B               	movf	??___flmul,w
  5349  06B1  00F0               	movwf	__Umul8_16@multiplicand
  5350  06B2  0839               	movf	___flmul@a+2,w
  5351  06B3  160A  118A  2465  120A  118A  	fcall	__Umul8_16
  5352  06B8  0871               	movf	?__Umul8_16+1,w
  5353  06B9  1283               	bcf	3,5	;RP0=0, select bank0
  5354  06BA  1303               	bcf	3,6	;RP1=0, select bank0
  5355  06BB  00CC               	movwf	___flmul@temp+1
  5356  06BC  0870               	movf	?__Umul8_16,w
  5357  06BD  00CB               	movwf	___flmul@temp
  5358  06BE                     l2062:
  5359  06BE  084B               	movf	___flmul@temp,w
  5360  06BF  00BB               	movwf	??___flmul
  5361  06C0  084C               	movf	___flmul@temp+1,w
  5362  06C1  00BC               	movwf	??___flmul+1
  5363  06C2  01BD               	clrf	??___flmul+2
  5364  06C3  01BE               	clrf	??___flmul+3
  5365  06C4  3008               	movlw	8
  5366  06C5                     u2765:
  5367  06C5  1003               	clrc
  5368  06C6  0DBB               	rlf	??___flmul,f
  5369  06C7  0DBC               	rlf	??___flmul+1,f
  5370  06C8  0DBD               	rlf	??___flmul+2,f
  5371  06C9  0DBE               	rlf	??___flmul+3,f
  5372  06CA                     u2760:
  5373  06CA  3EFF               	addlw	-1
  5374  06CB  1D03               	skipz
  5375  06CC  2EC5               	goto	u2765
  5376  06CD  083B               	movf	??___flmul,w
  5377  06CE  07C7               	addwf	___flmul@prod,f
  5378  06CF  083C               	movf	??___flmul+1,w
  5379  06D0  1103               	clrz
  5380  06D1  1803               	skipnc
  5381  06D2  3E01               	addlw	1
  5382  06D3  1903               	skipnz
  5383  06D4  2ED6               	goto	u2771
  5384  06D5  07C8               	addwf	___flmul@prod+1,f
  5385  06D6                     u2771:
  5386  06D6  083D               	movf	??___flmul+2,w
  5387  06D7  1103               	clrz
  5388  06D8  1803               	skipnc
  5389  06D9  3E01               	addlw	1
  5390  06DA  1903               	skipnz
  5391  06DB  2EDD               	goto	u2772
  5392  06DC  07C9               	addwf	___flmul@prod+2,f
  5393  06DD                     u2772:
  5394  06DD  083E               	movf	??___flmul+3,w
  5395  06DE  1103               	clrz
  5396  06DF  1803               	skipnc
  5397  06E0  3E01               	addlw	1
  5398  06E1  1903               	skipnz
  5399  06E2  2EE4               	goto	u2773
  5400  06E3  07CA               	addwf	___flmul@prod+3,f
  5401  06E4                     u2773:
  5402  06E4                     l2064:
  5403  06E4  0841               	movf	___flmul@grs,w
  5404  06E5  00BB               	movwf	??___flmul
  5405  06E6  0842               	movf	___flmul@grs+1,w
  5406  06E7  00BC               	movwf	??___flmul+1
  5407  06E8  0843               	movf	___flmul@grs+2,w
  5408  06E9  00BD               	movwf	??___flmul+2
  5409  06EA  0844               	movf	___flmul@grs+3,w
  5410  06EB  00BE               	movwf	??___flmul+3
  5411  06EC  3018               	movlw	24
  5412  06ED                     u2785:
  5413  06ED  1003               	clrc
  5414  06EE  0CBE               	rrf	??___flmul+3,f
  5415  06EF  0CBD               	rrf	??___flmul+2,f
  5416  06F0  0CBC               	rrf	??___flmul+1,f
  5417  06F1  0CBB               	rrf	??___flmul,f
  5418  06F2                     u2780:
  5419  06F2  3EFF               	addlw	-1
  5420  06F3  1D03               	skipz
  5421  06F4  2EED               	goto	u2785
  5422  06F5  083B               	movf	??___flmul,w
  5423  06F6  07C7               	addwf	___flmul@prod,f
  5424  06F7  083C               	movf	??___flmul+1,w
  5425  06F8  1103               	clrz
  5426  06F9  1803               	skipnc
  5427  06FA  3E01               	addlw	1
  5428  06FB  1903               	skipnz
  5429  06FC  2EFE               	goto	u2791
  5430  06FD  07C8               	addwf	___flmul@prod+1,f
  5431  06FE                     u2791:
  5432  06FE  083D               	movf	??___flmul+2,w
  5433  06FF  1103               	clrz
  5434  0700  1803               	skipnc
  5435  0701  3E01               	addlw	1
  5436  0702  1903               	skipnz
  5437  0703  2F05               	goto	u2792
  5438  0704  07C9               	addwf	___flmul@prod+2,f
  5439  0705                     u2792:
  5440  0705  083E               	movf	??___flmul+3,w
  5441  0706  1103               	clrz
  5442  0707  1803               	skipnc
  5443  0708  3E01               	addlw	1
  5444  0709  1903               	skipnz
  5445  070A  2F0C               	goto	u2793
  5446  070B  07CA               	addwf	___flmul@prod+3,f
  5447  070C                     u2793:
  5448  070C                     l2066:
  5449  070C  3008               	movlw	8
  5450  070D  00BB               	movwf	??___flmul
  5451  070E                     u2805:
  5452  070E  1003               	clrc
  5453  070F  0DC1               	rlf	___flmul@grs,f
  5454  0710  0DC2               	rlf	___flmul@grs+1,f
  5455  0711  0DC3               	rlf	___flmul@grs+2,f
  5456  0712  0DC4               	rlf	___flmul@grs+3,f
  5457  0713  0BBB               	decfsz	??___flmul,f
  5458  0714  2F0E               	goto	u2805
  5459  0715                     l2068:
  5460  0715  0846               	movf	___flmul@bexp,w
  5461  0716  0745               	addwf	___flmul@aexp,w
  5462  0717  00BB               	movwf	??___flmul
  5463  0718  01BC               	clrf	??___flmul+1
  5464  0719  0DBC               	rlf	??___flmul+1,f
  5465  071A  083B               	movf	??___flmul,w
  5466  071B  3E82               	addlw	130
  5467  071C  00CB               	movwf	___flmul@temp
  5468  071D  083C               	movf	??___flmul+1,w
  5469  071E  1803               	skipnc
  5470  071F  3E01               	addlw	1
  5471  0720  3EFF               	addlw	255
  5472  0721  00CC               	movwf	___flmul@temp+1
  5473  0722  2F40               	goto	l2080
  5474  0723                     l2070:
  5475  0723  3001               	movlw	1
  5476  0724  00BB               	movwf	??___flmul
  5477  0725                     u2815:
  5478  0725  1003               	clrc
  5479  0726  0DC7               	rlf	___flmul@prod,f
  5480  0727  0DC8               	rlf	___flmul@prod+1,f
  5481  0728  0DC9               	rlf	___flmul@prod+2,f
  5482  0729  0DCA               	rlf	___flmul@prod+3,f
  5483  072A  0BBB               	decfsz	??___flmul,f
  5484  072B  2F25               	goto	u2815
  5485  072C                     l2072:
  5486  072C  1FC4               	btfss	___flmul@grs+3,7
  5487  072D  2F2F               	goto	u2821
  5488  072E  2F30               	goto	u2820
  5489  072F                     u2821:
  5490  072F  2F31               	goto	l2076
  5491  0730                     u2820:
  5492  0730                     l2074:
  5493  0730  1447               	bsf	___flmul@prod,0
  5494  0731                     l2076:
  5495  0731  3001               	movlw	1
  5496  0732  00BB               	movwf	??___flmul
  5497  0733                     u2835:
  5498  0733  1003               	clrc
  5499  0734  0DC1               	rlf	___flmul@grs,f
  5500  0735  0DC2               	rlf	___flmul@grs+1,f
  5501  0736  0DC3               	rlf	___flmul@grs+2,f
  5502  0737  0DC4               	rlf	___flmul@grs+3,f
  5503  0738  0BBB               	decfsz	??___flmul,f
  5504  0739  2F33               	goto	u2835
  5505  073A                     l2078:
  5506  073A  30FF               	movlw	255
  5507  073B  07CB               	addwf	___flmul@temp,f
  5508  073C  1803               	skipnc
  5509  073D  0ACC               	incf	___flmul@temp+1,f
  5510  073E  30FF               	movlw	255
  5511  073F  07CC               	addwf	___flmul@temp+1,f
  5512  0740                     l2080:
  5513  0740  1FC9               	btfss	___flmul@prod+2,7
  5514  0741  2F43               	goto	u2841
  5515  0742  2F44               	goto	u2840
  5516  0743                     u2841:
  5517  0743  2F23               	goto	l2070
  5518  0744                     u2840:
  5519  0744                     l2082:
  5520  0744  01C5               	clrf	___flmul@aexp
  5521  0745                     l2084:
  5522  0745  1FC4               	btfss	___flmul@grs+3,7
  5523  0746  2F48               	goto	u2851
  5524  0747  2F49               	goto	u2850
  5525  0748                     u2851:
  5526  0748  2F65               	goto	l2092
  5527  0749                     u2850:
  5528  0749                     l2086:
  5529  0749  30FF               	movlw	255
  5530  074A  0541               	andwf	___flmul@grs,w
  5531  074B  00BB               	movwf	??___flmul
  5532  074C  30FF               	movlw	255
  5533  074D  0542               	andwf	___flmul@grs+1,w
  5534  074E  00BC               	movwf	??___flmul+1
  5535  074F  30FF               	movlw	255
  5536  0750  0543               	andwf	___flmul@grs+2,w
  5537  0751  00BD               	movwf	??___flmul+2
  5538  0752  307F               	movlw	127
  5539  0753  0544               	andwf	___flmul@grs+3,w
  5540  0754  00BE               	movwf	??___flmul+3
  5541  0755  083E               	movf	??___flmul+3,w
  5542  0756  043D               	iorwf	??___flmul+2,w
  5543  0757  043C               	iorwf	??___flmul+1,w
  5544  0758  043B               	iorwf	??___flmul,w
  5545  0759  1903               	skipnz
  5546  075A  2F5C               	goto	u2861
  5547  075B  2F5D               	goto	u2860
  5548  075C                     u2861:
  5549  075C  2F60               	goto	l562
  5550  075D                     u2860:
  5551  075D                     l2088:
  5552  075D  01C5               	clrf	___flmul@aexp
  5553  075E  0AC5               	incf	___flmul@aexp,f
  5554  075F  2F65               	goto	l2092
  5555  0760                     l562:
  5556  0760  1C47               	btfss	___flmul@prod,0
  5557  0761  2F63               	goto	u2871
  5558  0762  2F64               	goto	u2870
  5559  0763                     u2871:
  5560  0763  2F65               	goto	l2092
  5561  0764                     u2870:
  5562  0764  2F5D               	goto	l2088
  5563  0765                     l2092:
  5564  0765  0845               	movf	___flmul@aexp,w
  5565  0766  1903               	btfsc	3,2
  5566  0767  2F69               	goto	u2881
  5567  0768  2F6A               	goto	u2880
  5568  0769                     u2881:
  5569  0769  2F9B               	goto	l2102
  5570  076A                     u2880:
  5571  076A                     l2094:
  5572  076A  3001               	movlw	1
  5573  076B  07C7               	addwf	___flmul@prod,f
  5574  076C  3000               	movlw	0
  5575  076D  1803               	skipnc
  5576  076E  3001               	movlw	1
  5577  076F  07C8               	addwf	___flmul@prod+1,f
  5578  0770  3000               	movlw	0
  5579  0771  1803               	skipnc
  5580  0772  3001               	movlw	1
  5581  0773  07C9               	addwf	___flmul@prod+2,f
  5582  0774  3000               	movlw	0
  5583  0775  1803               	skipnc
  5584  0776  3001               	movlw	1
  5585  0777  07CA               	addwf	___flmul@prod+3,f
  5586  0778                     l2096:
  5587  0778  1C4A               	btfss	___flmul@prod+3,0
  5588  0779  2F7B               	goto	u2891
  5589  077A  2F7C               	goto	u2890
  5590  077B                     u2891:
  5591  077B  2F9B               	goto	l2102
  5592  077C                     u2890:
  5593  077C                     l2098:
  5594  077C  0847               	movf	___flmul@prod,w
  5595  077D  00BB               	movwf	??___flmul
  5596  077E  0848               	movf	___flmul@prod+1,w
  5597  077F  00BC               	movwf	??___flmul+1
  5598  0780  0849               	movf	___flmul@prod+2,w
  5599  0781  00BD               	movwf	??___flmul+2
  5600  0782  084A               	movf	___flmul@prod+3,w
  5601  0783  00BE               	movwf	??___flmul+3
  5602  0784  3001               	movlw	1
  5603  0785  00BF               	movwf	??___flmul+4
  5604  0786                     u2905:
  5605  0786  0D3E               	rlf	??___flmul+3,w
  5606  0787  0CBE               	rrf	??___flmul+3,f
  5607  0788  0CBD               	rrf	??___flmul+2,f
  5608  0789  0CBC               	rrf	??___flmul+1,f
  5609  078A  0CBB               	rrf	??___flmul,f
  5610  078B                     u2900:
  5611  078B  0BBF               	decfsz	??___flmul+4,f
  5612  078C  2F86               	goto	u2905
  5613  078D  083E               	movf	??___flmul+3,w
  5614  078E  00CA               	movwf	___flmul@prod+3
  5615  078F  083D               	movf	??___flmul+2,w
  5616  0790  00C9               	movwf	___flmul@prod+2
  5617  0791  083C               	movf	??___flmul+1,w
  5618  0792  00C8               	movwf	___flmul@prod+1
  5619  0793  083B               	movf	??___flmul,w
  5620  0794  00C7               	movwf	___flmul@prod
  5621  0795                     l2100:
  5622  0795  3001               	movlw	1
  5623  0796  07CB               	addwf	___flmul@temp,f
  5624  0797  1803               	skipnc
  5625  0798  0ACC               	incf	___flmul@temp+1,f
  5626  0799  3000               	movlw	0
  5627  079A  07CC               	addwf	___flmul@temp+1,f
  5628  079B                     l2102:
  5629  079B  084C               	movf	___flmul@temp+1,w
  5630  079C  3A80               	xorlw	128
  5631  079D  00FF               	movwf	btemp+1
  5632  079E  3080               	movlw	128
  5633  079F  027F               	subwf	btemp+1,w
  5634  07A0  1D03               	skipz
  5635  07A1  2FA4               	goto	u2915
  5636  07A2  30FF               	movlw	255
  5637  07A3  024B               	subwf	___flmul@temp,w
  5638  07A4                     u2915:
  5639  07A4  1C03               	skipc
  5640  07A5  2FA7               	goto	u2911
  5641  07A6  2FA8               	goto	u2910
  5642  07A7                     u2911:
  5643  07A7  2FB3               	goto	l2106
  5644  07A8                     u2910:
  5645  07A8                     l2104:
  5646  07A8  307F               	movlw	127
  5647  07A9  1283               	bcf	3,5	;RP0=0, select bank0
  5648  07AA  1303               	bcf	3,6	;RP1=0, select bank0
  5649  07AB  00CA               	movwf	___flmul@prod+3
  5650  07AC  3080               	movlw	128
  5651  07AD  00C9               	movwf	___flmul@prod+2
  5652  07AE  3000               	movlw	0
  5653  07AF  00C8               	movwf	___flmul@prod+1
  5654  07B0  3000               	movlw	0
  5655  07B1  00C7               	movwf	___flmul@prod
  5656  07B2  2FE8               	goto	l568
  5657  07B3                     l2106:
  5658  07B3  1283               	bcf	3,5	;RP0=0, select bank0
  5659  07B4  1303               	bcf	3,6	;RP1=0, select bank0
  5660  07B5  084C               	movf	___flmul@temp+1,w
  5661  07B6  3A80               	xorlw	128
  5662  07B7  00FF               	movwf	btemp+1
  5663  07B8  3080               	movlw	128
  5664  07B9  027F               	subwf	btemp+1,w
  5665  07BA  1D03               	skipz
  5666  07BB  2FBE               	goto	u2925
  5667  07BC  3001               	movlw	1
  5668  07BD  024B               	subwf	___flmul@temp,w
  5669  07BE                     u2925:
  5670  07BE  1803               	skipnc
  5671  07BF  2FC1               	goto	u2921
  5672  07C0  2FC2               	goto	u2920
  5673  07C1                     u2921:
  5674  07C1  2FCE               	goto	l2112
  5675  07C2                     u2920:
  5676  07C2                     l2108:
  5677  07C2  3000               	movlw	0
  5678  07C3  1283               	bcf	3,5	;RP0=0, select bank0
  5679  07C4  1303               	bcf	3,6	;RP1=0, select bank0
  5680  07C5  00CA               	movwf	___flmul@prod+3
  5681  07C6  3000               	movlw	0
  5682  07C7  00C9               	movwf	___flmul@prod+2
  5683  07C8  3000               	movlw	0
  5684  07C9  00C8               	movwf	___flmul@prod+1
  5685  07CA  3000               	movlw	0
  5686  07CB  00C7               	movwf	___flmul@prod
  5687  07CC                     l2110:
  5688  07CC  01C0               	clrf	___flmul@sign
  5689  07CD  2FE8               	goto	l568
  5690  07CE                     l2112:
  5691  07CE  1283               	bcf	3,5	;RP0=0, select bank0
  5692  07CF  1303               	bcf	3,6	;RP1=0, select bank0
  5693  07D0  084B               	movf	___flmul@temp,w
  5694  07D1  00BB               	movwf	??___flmul
  5695  07D2  083B               	movf	??___flmul,w
  5696  07D3  00C6               	movwf	___flmul@bexp
  5697  07D4  30FF               	movlw	255
  5698  07D5  05C7               	andwf	___flmul@prod,f
  5699  07D6  30FF               	movlw	255
  5700  07D7  05C8               	andwf	___flmul@prod+1,f
  5701  07D8  307F               	movlw	127
  5702  07D9  05C9               	andwf	___flmul@prod+2,f
  5703  07DA  3000               	movlw	0
  5704  07DB  05CA               	andwf	___flmul@prod+3,f
  5705  07DC                     l2114:
  5706  07DC  1C46               	btfss	___flmul@bexp,0
  5707  07DD  2FDF               	goto	u2931
  5708  07DE  2FE0               	goto	u2930
  5709  07DF                     u2931:
  5710  07DF  2FE1               	goto	l2118
  5711  07E0                     u2930:
  5712  07E0                     l2116:
  5713  07E0  17C9               	bsf	___flmul@prod+2,7
  5714  07E1                     l2118:
  5715  07E1  0846               	movf	___flmul@bexp,w
  5716  07E2  00BB               	movwf	??___flmul
  5717  07E3  1003               	clrc
  5718  07E4  0C3B               	rrf	??___flmul,w
  5719  07E5  00BC               	movwf	??___flmul+1
  5720  07E6  083C               	movf	??___flmul+1,w
  5721  07E7  00CA               	movwf	___flmul@prod+3
  5722  07E8                     l568:
  5723  07E8  0840               	movf	___flmul@sign,w
  5724  07E9  00BB               	movwf	??___flmul
  5725  07EA  083B               	movf	??___flmul,w
  5726  07EB  04CA               	iorwf	___flmul@prod+3,f
  5727  07EC                     l2120:
  5728  07EC  084A               	movf	___flmul@prod+3,w
  5729  07ED  00B6               	movwf	?___flmul+3
  5730  07EE  0849               	movf	___flmul@prod+2,w
  5731  07EF  00B5               	movwf	?___flmul+2
  5732  07F0  0848               	movf	___flmul@prod+1,w
  5733  07F1  00B4               	movwf	?___flmul+1
  5734  07F2  0847               	movf	___flmul@prod,w
  5735  07F3  00B3               	movwf	?___flmul
  5736  07F4                     l556:
  5737  07F4  0008               	return
  5738  07F5                     __end_of___flmul:
  5739                           
  5740                           	psect	text18
  5741  1465                     __ptext18:	
  5742 ;; *************** function __Umul8_16 *****************
  5743 ;; Defined at:
  5744 ;;		line 4 in file "C:\Program Files\Microchip\xc8\v2.31\pic\sources\c90\common\Umul8_16.c"
  5745 ;; Parameters:    Size  Location     Type
  5746 ;;  multiplier      1    wreg     unsigned char 
  5747 ;;  multiplicand    1    0[COMMON] unsigned char 
  5748 ;; Auto vars:     Size  Location     Type
  5749 ;;  multiplier      1    8[COMMON] unsigned char 
  5750 ;;  word_mpld       2    6[COMMON] unsigned int 
  5751 ;;  product         2    4[COMMON] unsigned int 
  5752 ;; Return value:  Size  Location     Type
  5753 ;;                  2    0[COMMON] unsigned int 
  5754 ;; Registers used:
  5755 ;;		wreg, status,2, status,0
  5756 ;; Tracked objects:
  5757 ;;		On entry : 0/0
  5758 ;;		On exit  : 0/0
  5759 ;;		Unchanged: 0/0
  5760 ;; Data sizes:     COMMON   BANK0   BANK1   BANK3   BANK2
  5761 ;;      Params:         2       0       0       0       0
  5762 ;;      Locals:         5       0       0       0       0
  5763 ;;      Temps:          2       0       0       0       0
  5764 ;;      Totals:         9       0       0       0       0
  5765 ;;Total ram usage:        9 bytes
  5766 ;; Hardware stack levels used:    1
  5767 ;; This function calls:
  5768 ;;		Nothing
  5769 ;; This function is called by:
  5770 ;;		___flmul
  5771 ;; This function uses a non-reentrant model
  5772 ;;
  5773                           
  5774                           
  5775                           ;psect for function __Umul8_16
  5776  1465                     __Umul8_16:
  5777                           
  5778                           ;incstack = 0
  5779                           ; Regs used in __Umul8_16: [wreg+status,2+status,0]
  5780                           ;__Umul8_16@multiplier stored from wreg
  5781  1465  00F8               	movwf	__Umul8_16@multiplier
  5782  1466                     l1720:
  5783  1466  01F4               	clrf	__Umul8_16@product
  5784  1467  01F5               	clrf	__Umul8_16@product+1
  5785  1468                     l1722:
  5786  1468  0870               	movf	__Umul8_16@multiplicand,w
  5787  1469  00F2               	movwf	??__Umul8_16
  5788  146A  01F3               	clrf	??__Umul8_16+1
  5789  146B  0872               	movf	??__Umul8_16,w
  5790  146C  00F6               	movwf	__Umul8_16@word_mpld
  5791  146D  0873               	movf	??__Umul8_16+1,w
  5792  146E  00F7               	movwf	__Umul8_16@word_mpld+1
  5793  146F                     l1724:
  5794  146F  1C78               	btfss	__Umul8_16@multiplier,0
  5795  1470  2C72               	goto	u1911
  5796  1471  2C73               	goto	u1910
  5797  1472                     u1911:
  5798  1472  2C79               	goto	l575
  5799  1473                     u1910:
  5800  1473                     l1726:
  5801  1473  0876               	movf	__Umul8_16@word_mpld,w
  5802  1474  07F4               	addwf	__Umul8_16@product,f
  5803  1475  1803               	skipnc
  5804  1476  0AF5               	incf	__Umul8_16@product+1,f
  5805  1477  0877               	movf	__Umul8_16@word_mpld+1,w
  5806  1478  07F5               	addwf	__Umul8_16@product+1,f
  5807  1479                     l575:
  5808  1479  3001               	movlw	1
  5809  147A                     u1925:
  5810  147A  1003               	clrc
  5811  147B  0DF6               	rlf	__Umul8_16@word_mpld,f
  5812  147C  0DF7               	rlf	__Umul8_16@word_mpld+1,f
  5813  147D  3EFF               	addlw	-1
  5814  147E  1D03               	skipz
  5815  147F  2C7A               	goto	u1925
  5816  1480  1003               	clrc
  5817  1481  0CF8               	rrf	__Umul8_16@multiplier,f
  5818  1482                     l1728:
  5819  1482  0878               	movf	__Umul8_16@multiplier,w
  5820  1483  1D03               	btfss	3,2
  5821  1484  2C86               	goto	u1931
  5822  1485  2C87               	goto	u1930
  5823  1486                     u1931:
  5824  1486  2C6F               	goto	l1724
  5825  1487                     u1930:
  5826  1487                     l1730:
  5827  1487  0875               	movf	__Umul8_16@product+1,w
  5828  1488  00F1               	movwf	?__Umul8_16+1
  5829  1489  0874               	movf	__Umul8_16@product,w
  5830  148A  00F0               	movwf	?__Umul8_16
  5831  148B                     l577:
  5832  148B  0008               	return
  5833  148C                     __end_of__Umul8_16:
  5834                           
  5835                           	psect	text19
  5836  1441                     __ptext19:	
  5837 ;; *************** function ___flsub *****************
  5838 ;; Defined at:
  5839 ;;		line 242 in file "C:\Program Files\Microchip\xc8\v2.31\pic\sources\c90\common\sprcadd.c"
  5840 ;; Parameters:    Size  Location     Type
  5841 ;;  a               4   65[BANK0 ] unsigned int 
  5842 ;;  b               4   69[BANK0 ] unsigned int 
  5843 ;; Auto vars:     Size  Location     Type
  5844 ;;		None
  5845 ;; Return value:  Size  Location     Type
  5846 ;;                  4   65[BANK0 ] unsigned int 
  5847 ;; Registers used:
  5848 ;;		wreg, status,2, status,0, btemp+1, pclath, cstack
  5849 ;; Tracked objects:
  5850 ;;		On entry : 0/0
  5851 ;;		On exit  : 0/0
  5852 ;;		Unchanged: 0/0
  5853 ;; Data sizes:     COMMON   BANK0   BANK1   BANK3   BANK2
  5854 ;;      Params:         0       8       0       0       0
  5855 ;;      Locals:         0       0       0       0       0
  5856 ;;      Temps:          0       0       0       0       0
  5857 ;;      Totals:         0       8       0       0       0
  5858 ;;Total ram usage:        8 bytes
  5859 ;; Hardware stack levels used:    1
  5860 ;; Hardware stack levels required when called:    1
  5861 ;; This function calls:
  5862 ;;		___fladd
  5863 ;; This function is called by:
  5864 ;;		_exp
  5865 ;; This function uses a non-reentrant model
  5866 ;;
  5867                           
  5868                           
  5869                           ;psect for function ___flsub
  5870  1441                     ___flsub:
  5871  1441                     l2196:	
  5872                           ;incstack = 0
  5873                           ; Regs used in ___flsub: [wreg+status,2+status,0+btemp+1+pclath+cstack]
  5874                           
  5875  1441  3080               	movlw	128
  5876  1442  1283               	bcf	3,5	;RP0=0, select bank0
  5877  1443  1303               	bcf	3,6	;RP1=0, select bank0
  5878  1444  06E4               	xorwf	___flsub@a+3,f
  5879  1445                     l2198:
  5880  1445  0868               	movf	___flsub@b+3,w
  5881  1446  00D0               	movwf	___fladd@b+3
  5882  1447  0867               	movf	___flsub@b+2,w
  5883  1448  00CF               	movwf	___fladd@b+2
  5884  1449  0866               	movf	___flsub@b+1,w
  5885  144A  00CE               	movwf	___fladd@b+1
  5886  144B  0865               	movf	___flsub@b,w
  5887  144C  00CD               	movwf	___fladd@b
  5888  144D  0864               	movf	___flsub@a+3,w
  5889  144E  00D4               	movwf	___fladd@a+3
  5890  144F  0863               	movf	___flsub@a+2,w
  5891  1450  00D3               	movwf	___fladd@a+2
  5892  1451  0862               	movf	___flsub@a+1,w
  5893  1452  00D2               	movwf	___fladd@a+1
  5894  1453  0861               	movf	___flsub@a,w
  5895  1454  00D1               	movwf	___fladd@a
  5896  1455  120A  118A  220C  160A  118A  	fcall	___fladd
  5897  145A  1283               	bcf	3,5	;RP0=0, select bank0
  5898  145B  1303               	bcf	3,6	;RP1=0, select bank0
  5899  145C  0850               	movf	?___fladd+3,w
  5900  145D  00E4               	movwf	?___flsub+3
  5901  145E  084F               	movf	?___fladd+2,w
  5902  145F  00E3               	movwf	?___flsub+2
  5903  1460  084E               	movf	?___fladd+1,w
  5904  1461  00E2               	movwf	?___flsub+1
  5905  1462  084D               	movf	?___fladd,w
  5906  1463  00E1               	movwf	?___flsub
  5907  1464                     l506:
  5908  1464  0008               	return
  5909  1465                     __end_of___flsub:
  5910                           
  5911                           	psect	text20
  5912  020C                     __ptext20:	
  5913 ;; *************** function ___fladd *****************
  5914 ;; Defined at:
  5915 ;;		line 10 in file "C:\Program Files\Microchip\xc8\v2.31\pic\sources\c90\common\sprcadd.c"
  5916 ;; Parameters:    Size  Location     Type
  5917 ;;  b               4   45[BANK0 ] unsigned int 
  5918 ;;  a               4   49[BANK0 ] unsigned int 
  5919 ;; Auto vars:     Size  Location     Type
  5920 ;;  grs             1   64[BANK0 ] unsigned char 
  5921 ;;  bexp            1   63[BANK0 ] unsigned char 
  5922 ;;  aexp            1   62[BANK0 ] unsigned char 
  5923 ;;  signs           1   61[BANK0 ] unsigned char 
  5924 ;; Return value:  Size  Location     Type
  5925 ;;                  4   45[BANK0 ] unsigned char 
  5926 ;; Registers used:
  5927 ;;		wreg, status,2, status,0, btemp+1
  5928 ;; Tracked objects:
  5929 ;;		On entry : 0/0
  5930 ;;		On exit  : 0/0
  5931 ;;		Unchanged: 0/0
  5932 ;; Data sizes:     COMMON   BANK0   BANK1   BANK3   BANK2
  5933 ;;      Params:         0       8       0       0       0
  5934 ;;      Locals:         0       4       0       0       0
  5935 ;;      Temps:          0       8       0       0       0
  5936 ;;      Totals:         0      20       0       0       0
  5937 ;;Total ram usage:       20 bytes
  5938 ;; Hardware stack levels used:    1
  5939 ;; This function calls:
  5940 ;;		Nothing
  5941 ;; This function is called by:
  5942 ;;		___flsub
  5943 ;;		_eval_poly
  5944 ;;		_floor
  5945 ;;		_log
  5946 ;; This function uses a non-reentrant model
  5947 ;;
  5948                           
  5949                           
  5950                           ;psect for function ___fladd
  5951  020C                     ___fladd:
  5952  020C                     l1790:	
  5953                           ;incstack = 0
  5954                           ; Regs used in ___fladd: [wreg+status,2+status,0+btemp+1]
  5955                           
  5956  020C  1283               	bcf	3,5	;RP0=0, select bank0
  5957  020D  1303               	bcf	3,6	;RP1=0, select bank0
  5958  020E  0850               	movf	___fladd@b+3,w
  5959  020F  3980               	andlw	128
  5960  0210  00D5               	movwf	??___fladd
  5961  0211  0855               	movf	??___fladd,w
  5962  0212  00DD               	movwf	___fladd@signs
  5963  0213                     l1792:
  5964  0213  0850               	movf	___fladd@b+3,w
  5965  0214  00D5               	movwf	??___fladd
  5966  0215  0755               	addwf	??___fladd,w
  5967  0216  00D6               	movwf	??___fladd+1
  5968  0217  0856               	movf	??___fladd+1,w
  5969  0218  00DF               	movwf	___fladd@bexp
  5970  0219                     l1794:
  5971  0219  1FCF               	btfss	___fladd@b+2,7
  5972  021A  2A1C               	goto	u2111
  5973  021B  2A1D               	goto	u2110
  5974  021C                     u2111:
  5975  021C  2A1E               	goto	l1798
  5976  021D                     u2110:
  5977  021D                     l1796:
  5978  021D  145F               	bsf	___fladd@bexp,0
  5979  021E                     l1798:
  5980  021E  085F               	movf	___fladd@bexp,w
  5981  021F  1903               	btfsc	3,2
  5982  0220  2A22               	goto	u2121
  5983  0221  2A23               	goto	u2120
  5984  0222                     u2121:
  5985  0222  2A33               	goto	l1808
  5986  0223                     u2120:
  5987  0223                     l1800:
  5988  0223  0A5F               	incf	___fladd@bexp,w
  5989  0224  1D03               	btfss	3,2
  5990  0225  2A27               	goto	u2131
  5991  0226  2A28               	goto	u2130
  5992  0227                     u2131:
  5993  0227  2A30               	goto	l1804
  5994  0228                     u2130:
  5995  0228                     l1802:
  5996  0228  3000               	movlw	0
  5997  0229  00D0               	movwf	___fladd@b+3
  5998  022A  3000               	movlw	0
  5999  022B  00CF               	movwf	___fladd@b+2
  6000  022C  3000               	movlw	0
  6001  022D  00CE               	movwf	___fladd@b+1
  6002  022E  3000               	movlw	0
  6003  022F  00CD               	movwf	___fladd@b
  6004  0230                     l1804:
  6005  0230  17CF               	bsf	___fladd@b+2,7
  6006  0231                     l1806:
  6007  0231  01D0               	clrf	___fladd@b+3
  6008  0232  2A3B               	goto	l1810
  6009  0233                     l1808:
  6010  0233  3000               	movlw	0
  6011  0234  00D0               	movwf	___fladd@b+3
  6012  0235  3000               	movlw	0
  6013  0236  00CF               	movwf	___fladd@b+2
  6014  0237  3000               	movlw	0
  6015  0238  00CE               	movwf	___fladd@b+1
  6016  0239  3000               	movlw	0
  6017  023A  00CD               	movwf	___fladd@b
  6018  023B                     l1810:
  6019  023B  0854               	movf	___fladd@a+3,w
  6020  023C  3980               	andlw	128
  6021  023D  00D5               	movwf	??___fladd
  6022  023E  0855               	movf	??___fladd,w
  6023  023F  00DE               	movwf	___fladd@aexp
  6024  0240                     l1812:
  6025  0240  085E               	movf	___fladd@aexp,w
  6026  0241  065D               	xorwf	___fladd@signs,w
  6027  0242  1903               	skipnz
  6028  0243  2A45               	goto	u2141
  6029  0244  2A46               	goto	u2140
  6030  0245                     u2141:
  6031  0245  2A47               	goto	l1816
  6032  0246                     u2140:
  6033  0246                     l1814:
  6034  0246  175D               	bsf	___fladd@signs,6
  6035  0247                     l1816:
  6036  0247  0854               	movf	___fladd@a+3,w
  6037  0248  00D5               	movwf	??___fladd
  6038  0249  0755               	addwf	??___fladd,w
  6039  024A  00D6               	movwf	??___fladd+1
  6040  024B  0856               	movf	??___fladd+1,w
  6041  024C  00DE               	movwf	___fladd@aexp
  6042  024D                     l1818:
  6043  024D  1FD3               	btfss	___fladd@a+2,7
  6044  024E  2A50               	goto	u2151
  6045  024F  2A51               	goto	u2150
  6046  0250                     u2151:
  6047  0250  2A52               	goto	l1822
  6048  0251                     u2150:
  6049  0251                     l1820:
  6050  0251  145E               	bsf	___fladd@aexp,0
  6051  0252                     l1822:
  6052  0252  085E               	movf	___fladd@aexp,w
  6053  0253  1903               	btfsc	3,2
  6054  0254  2A56               	goto	u2161
  6055  0255  2A57               	goto	u2160
  6056  0256                     u2161:
  6057  0256  2A67               	goto	l1832
  6058  0257                     u2160:
  6059  0257                     l1824:
  6060  0257  0A5E               	incf	___fladd@aexp,w
  6061  0258  1D03               	btfss	3,2
  6062  0259  2A5B               	goto	u2171
  6063  025A  2A5C               	goto	u2170
  6064  025B                     u2171:
  6065  025B  2A64               	goto	l1828
  6066  025C                     u2170:
  6067  025C                     l1826:
  6068  025C  3000               	movlw	0
  6069  025D  00D4               	movwf	___fladd@a+3
  6070  025E  3000               	movlw	0
  6071  025F  00D3               	movwf	___fladd@a+2
  6072  0260  3000               	movlw	0
  6073  0261  00D2               	movwf	___fladd@a+1
  6074  0262  3000               	movlw	0
  6075  0263  00D1               	movwf	___fladd@a
  6076  0264                     l1828:
  6077  0264  17D3               	bsf	___fladd@a+2,7
  6078  0265                     l1830:
  6079  0265  01D4               	clrf	___fladd@a+3
  6080  0266  2A6F               	goto	l460
  6081  0267                     l1832:
  6082  0267  3000               	movlw	0
  6083  0268  00D4               	movwf	___fladd@a+3
  6084  0269  3000               	movlw	0
  6085  026A  00D3               	movwf	___fladd@a+2
  6086  026B  3000               	movlw	0
  6087  026C  00D2               	movwf	___fladd@a+1
  6088  026D  3000               	movlw	0
  6089  026E  00D1               	movwf	___fladd@a
  6090  026F                     l460:
  6091  026F  085F               	movf	___fladd@bexp,w
  6092  0270  025E               	subwf	___fladd@aexp,w
  6093  0271  1803               	skipnc
  6094  0272  2A74               	goto	u2181
  6095  0273  2A75               	goto	u2180
  6096  0274                     u2181:
  6097  0274  2AB9               	goto	l1868
  6098  0275                     u2180:
  6099  0275                     l1834:
  6100  0275  1F5D               	btfss	___fladd@signs,6
  6101  0276  2A78               	goto	u2191
  6102  0277  2A79               	goto	u2190
  6103  0278                     u2191:
  6104  0278  2A7D               	goto	l1838
  6105  0279                     u2190:
  6106  0279                     l1836:
  6107  0279  3080               	movlw	128
  6108  027A  00D5               	movwf	??___fladd
  6109  027B  0855               	movf	??___fladd,w
  6110  027C  06DD               	xorwf	___fladd@signs,f
  6111  027D                     l1838:
  6112  027D  085F               	movf	___fladd@bexp,w
  6113  027E  00D5               	movwf	??___fladd
  6114  027F  0855               	movf	??___fladd,w
  6115  0280  00E0               	movwf	___fladd@grs
  6116  0281                     l1840:
  6117  0281  085E               	movf	___fladd@aexp,w
  6118  0282  00D5               	movwf	??___fladd
  6119  0283  0855               	movf	??___fladd,w
  6120  0284  00DF               	movwf	___fladd@bexp
  6121  0285                     l1842:
  6122  0285  0860               	movf	___fladd@grs,w
  6123  0286  00D5               	movwf	??___fladd
  6124  0287  0855               	movf	??___fladd,w
  6125  0288  00DE               	movwf	___fladd@aexp
  6126  0289                     l1844:
  6127  0289  084D               	movf	___fladd@b,w
  6128  028A  00D5               	movwf	??___fladd
  6129  028B  0855               	movf	??___fladd,w
  6130  028C  00E0               	movwf	___fladd@grs
  6131  028D                     l1846:
  6132  028D  0851               	movf	___fladd@a,w
  6133  028E  00D5               	movwf	??___fladd
  6134  028F  0855               	movf	??___fladd,w
  6135  0290  00CD               	movwf	___fladd@b
  6136  0291                     l1848:
  6137  0291  0860               	movf	___fladd@grs,w
  6138  0292  00D5               	movwf	??___fladd
  6139  0293  0855               	movf	??___fladd,w
  6140  0294  00D1               	movwf	___fladd@a
  6141  0295                     l1850:
  6142  0295  084E               	movf	___fladd@b+1,w
  6143  0296  00D5               	movwf	??___fladd
  6144  0297  0855               	movf	??___fladd,w
  6145  0298  00E0               	movwf	___fladd@grs
  6146  0299                     l1852:
  6147  0299  0852               	movf	___fladd@a+1,w
  6148  029A  00D5               	movwf	??___fladd
  6149  029B  0855               	movf	??___fladd,w
  6150  029C  00CE               	movwf	___fladd@b+1
  6151  029D                     l1854:
  6152  029D  0860               	movf	___fladd@grs,w
  6153  029E  00D5               	movwf	??___fladd
  6154  029F  0855               	movf	??___fladd,w
  6155  02A0  00D2               	movwf	___fladd@a+1
  6156  02A1                     l1856:
  6157  02A1  084F               	movf	___fladd@b+2,w
  6158  02A2  00D5               	movwf	??___fladd
  6159  02A3  0855               	movf	??___fladd,w
  6160  02A4  00E0               	movwf	___fladd@grs
  6161  02A5                     l1858:
  6162  02A5  0853               	movf	___fladd@a+2,w
  6163  02A6  00D5               	movwf	??___fladd
  6164  02A7  0855               	movf	??___fladd,w
  6165  02A8  00CF               	movwf	___fladd@b+2
  6166  02A9                     l1860:
  6167  02A9  0860               	movf	___fladd@grs,w
  6168  02AA  00D5               	movwf	??___fladd
  6169  02AB  0855               	movf	??___fladd,w
  6170  02AC  00D3               	movwf	___fladd@a+2
  6171  02AD                     l1862:
  6172  02AD  0850               	movf	___fladd@b+3,w
  6173  02AE  00D5               	movwf	??___fladd
  6174  02AF  0855               	movf	??___fladd,w
  6175  02B0  00E0               	movwf	___fladd@grs
  6176  02B1                     l1864:
  6177  02B1  0854               	movf	___fladd@a+3,w
  6178  02B2  00D5               	movwf	??___fladd
  6179  02B3  0855               	movf	??___fladd,w
  6180  02B4  00D0               	movwf	___fladd@b+3
  6181  02B5                     l1866:
  6182  02B5  0860               	movf	___fladd@grs,w
  6183  02B6  00D5               	movwf	??___fladd
  6184  02B7  0855               	movf	??___fladd,w
  6185  02B8  00D4               	movwf	___fladd@a+3
  6186  02B9                     l1868:
  6187  02B9  01E0               	clrf	___fladd@grs
  6188  02BA                     l1870:
  6189  02BA  085E               	movf	___fladd@aexp,w
  6190  02BB  00D5               	movwf	??___fladd
  6191  02BC  01D6               	clrf	??___fladd+1
  6192  02BD  0856               	movf	??___fladd+1,w
  6193  02BE  00D8               	movwf	??___fladd+3
  6194  02BF  085F               	movf	___fladd@bexp,w
  6195  02C0  0255               	subwf	??___fladd,w
  6196  02C1  00D7               	movwf	??___fladd+2
  6197  02C2  1C03               	skipc
  6198  02C3  03D8               	decf	??___fladd+3,f
  6199  02C4  0858               	movf	??___fladd+3,w
  6200  02C5  3A80               	xorlw	128
  6201  02C6  00FF               	movwf	btemp+1
  6202  02C7  3080               	movlw	128
  6203  02C8  027F               	subwf	btemp+1,w
  6204  02C9  1D03               	skipz
  6205  02CA  2ACD               	goto	u2205
  6206  02CB  301A               	movlw	26
  6207  02CC  0257               	subwf	??___fladd+2,w
  6208  02CD                     u2205:
  6209  02CD  1C03               	skipc
  6210  02CE  2AD0               	goto	u2201
  6211  02CF  2AD1               	goto	u2200
  6212  02D0                     u2201:
  6213  02D0  2B0E               	goto	l1886
  6214  02D1                     u2200:
  6215  02D1                     l1872:
  6216  02D1  1283               	bcf	3,5	;RP0=0, select bank0
  6217  02D2  1303               	bcf	3,6	;RP1=0, select bank0
  6218  02D3  0850               	movf	___fladd@b+3,w
  6219  02D4  044F               	iorwf	___fladd@b+2,w
  6220  02D5  044E               	iorwf	___fladd@b+1,w
  6221  02D6  044D               	iorwf	___fladd@b,w
  6222  02D7  1D03               	skipz
  6223  02D8  2ADA               	goto	u2211
  6224  02D9  2ADC               	goto	u2210
  6225  02DA                     u2211:
  6226  02DA  3001               	movlw	1
  6227  02DB  2ADD               	goto	u2220
  6228  02DC                     u2210:
  6229  02DC  3000               	movlw	0
  6230  02DD                     u2220:
  6231  02DD  00D5               	movwf	??___fladd
  6232  02DE  0855               	movf	??___fladd,w
  6233  02DF  00E0               	movwf	___fladd@grs
  6234  02E0  3000               	movlw	0
  6235  02E1  00D0               	movwf	___fladd@b+3
  6236  02E2  3000               	movlw	0
  6237  02E3  00CF               	movwf	___fladd@b+2
  6238  02E4  3000               	movlw	0
  6239  02E5  00CE               	movwf	___fladd@b+1
  6240  02E6  3000               	movlw	0
  6241  02E7  00CD               	movwf	___fladd@b
  6242  02E8  085E               	movf	___fladd@aexp,w
  6243  02E9  00D5               	movwf	??___fladd
  6244  02EA  0855               	movf	??___fladd,w
  6245  02EB  00DF               	movwf	___fladd@bexp
  6246  02EC  2B16               	goto	l464
  6247  02ED                     l466:
  6248  02ED  1C60               	btfss	___fladd@grs,0
  6249  02EE  2AF0               	goto	u2231
  6250  02EF  2AF1               	goto	u2230
  6251  02F0                     u2231:
  6252  02F0  2AFA               	goto	l1876
  6253  02F1                     u2230:
  6254  02F1                     l1874:
  6255  02F1  0860               	movf	___fladd@grs,w
  6256  02F2  00D5               	movwf	??___fladd
  6257  02F3  1003               	clrc
  6258  02F4  0C55               	rrf	??___fladd,w
  6259  02F5  3801               	iorlw	1
  6260  02F6  00D6               	movwf	??___fladd+1
  6261  02F7  0856               	movf	??___fladd+1,w
  6262  02F8  00E0               	movwf	___fladd@grs
  6263  02F9  2AFC               	goto	l1878
  6264  02FA                     l1876:
  6265  02FA  1003               	clrc
  6266  02FB  0CE0               	rrf	___fladd@grs,f
  6267  02FC                     l1878:
  6268  02FC  1C4D               	btfss	___fladd@b,0
  6269  02FD  2AFF               	goto	u2241
  6270  02FE  2B00               	goto	u2240
  6271  02FF                     u2241:
  6272  02FF  2B01               	goto	l1882
  6273  0300                     u2240:
  6274  0300                     l1880:
  6275  0300  17E0               	bsf	___fladd@grs,7
  6276  0301                     l1882:
  6277  0301  3001               	movlw	1
  6278  0302  00D5               	movwf	??___fladd
  6279  0303                     u2255:
  6280  0303  0D50               	rlf	___fladd@b+3,w
  6281  0304  0CD0               	rrf	___fladd@b+3,f
  6282  0305  0CCF               	rrf	___fladd@b+2,f
  6283  0306  0CCE               	rrf	___fladd@b+1,f
  6284  0307  0CCD               	rrf	___fladd@b,f
  6285  0308  0BD5               	decfsz	??___fladd& (0+127),f
  6286  0309  2B03               	goto	u2255
  6287  030A                     l1884:
  6288  030A  3001               	movlw	1
  6289  030B  00D5               	movwf	??___fladd
  6290  030C  0855               	movf	??___fladd,w
  6291  030D  07DF               	addwf	___fladd@bexp,f
  6292  030E                     l1886:
  6293  030E  1283               	bcf	3,5	;RP0=0, select bank0
  6294  030F  1303               	bcf	3,6	;RP1=0, select bank0
  6295  0310  085E               	movf	___fladd@aexp,w
  6296  0311  025F               	subwf	___fladd@bexp,w
  6297  0312  1C03               	skipc
  6298  0313  2B15               	goto	u2261
  6299  0314  2B16               	goto	u2260
  6300  0315                     u2261:
  6301  0315  2AED               	goto	l466
  6302  0316                     u2260:
  6303  0316                     l464:
  6304  0316  1B5D               	btfsc	___fladd@signs,6
  6305  0317  2B19               	goto	u2271
  6306  0318  2B1A               	goto	u2270
  6307  0319                     u2271:
  6308  0319  2B65               	goto	l1912
  6309  031A                     u2270:
  6310  031A                     l1888:
  6311  031A  085F               	movf	___fladd@bexp,w
  6312  031B  1D03               	btfss	3,2
  6313  031C  2B1E               	goto	u2281
  6314  031D  2B1F               	goto	u2280
  6315  031E                     u2281:
  6316  031E  2B28               	goto	l1894
  6317  031F                     u2280:
  6318  031F                     l1890:
  6319  031F  3000               	movlw	0
  6320  0320  00D0               	movwf	?___fladd+3
  6321  0321  3000               	movlw	0
  6322  0322  00CF               	movwf	?___fladd+2
  6323  0323  3000               	movlw	0
  6324  0324  00CE               	movwf	?___fladd+1
  6325  0325  3000               	movlw	0
  6326  0326  00CD               	movwf	?___fladd
  6327  0327  2C93               	goto	l473
  6328  0328                     l1894:
  6329  0328  0851               	movf	___fladd@a,w
  6330  0329  07CD               	addwf	___fladd@b,f
  6331  032A  0852               	movf	___fladd@a+1,w
  6332  032B  1103               	clrz
  6333  032C  1803               	skipnc
  6334  032D  3E01               	addlw	1
  6335  032E  1903               	skipnz
  6336  032F  2B31               	goto	u2291
  6337  0330  07CE               	addwf	___fladd@b+1,f
  6338  0331                     u2291:
  6339  0331  0853               	movf	___fladd@a+2,w
  6340  0332  1103               	clrz
  6341  0333  1803               	skipnc
  6342  0334  3E01               	addlw	1
  6343  0335  1903               	skipnz
  6344  0336  2B38               	goto	u2292
  6345  0337  07CF               	addwf	___fladd@b+2,f
  6346  0338                     u2292:
  6347  0338  0854               	movf	___fladd@a+3,w
  6348  0339  1103               	clrz
  6349  033A  1803               	skipnc
  6350  033B  3E01               	addlw	1
  6351  033C  1903               	skipnz
  6352  033D  2B3F               	goto	u2293
  6353  033E  07D0               	addwf	___fladd@b+3,f
  6354  033F                     u2293:
  6355  033F                     l1896:
  6356  033F  1C50               	btfss	___fladd@b+3,0
  6357  0340  2B42               	goto	u2301
  6358  0341  2B43               	goto	u2300
  6359  0342                     u2301:
  6360  0342  2C19               	goto	l1946
  6361  0343                     u2300:
  6362  0343                     l1898:
  6363  0343  1C60               	btfss	___fladd@grs,0
  6364  0344  2B46               	goto	u2311
  6365  0345  2B47               	goto	u2310
  6366  0346                     u2311:
  6367  0346  2B50               	goto	l1902
  6368  0347                     u2310:
  6369  0347                     l1900:
  6370  0347  0860               	movf	___fladd@grs,w
  6371  0348  00D5               	movwf	??___fladd
  6372  0349  1003               	clrc
  6373  034A  0C55               	rrf	??___fladd,w
  6374  034B  3801               	iorlw	1
  6375  034C  00D6               	movwf	??___fladd+1
  6376  034D  0856               	movf	??___fladd+1,w
  6377  034E  00E0               	movwf	___fladd@grs
  6378  034F  2B52               	goto	l1904
  6379  0350                     l1902:
  6380  0350  1003               	clrc
  6381  0351  0CE0               	rrf	___fladd@grs,f
  6382  0352                     l1904:
  6383  0352  1C4D               	btfss	___fladd@b,0
  6384  0353  2B55               	goto	u2321
  6385  0354  2B56               	goto	u2320
  6386  0355                     u2321:
  6387  0355  2B57               	goto	l1908
  6388  0356                     u2320:
  6389  0356                     l1906:
  6390  0356  17E0               	bsf	___fladd@grs,7
  6391  0357                     l1908:
  6392  0357  3001               	movlw	1
  6393  0358  00D5               	movwf	??___fladd
  6394  0359                     u2335:
  6395  0359  0D50               	rlf	___fladd@b+3,w
  6396  035A  0CD0               	rrf	___fladd@b+3,f
  6397  035B  0CCF               	rrf	___fladd@b+2,f
  6398  035C  0CCE               	rrf	___fladd@b+1,f
  6399  035D  0CCD               	rrf	___fladd@b,f
  6400  035E  0BD5               	decfsz	??___fladd& (0+127),f
  6401  035F  2B59               	goto	u2335
  6402  0360                     l1910:
  6403  0360  3001               	movlw	1
  6404  0361  00D5               	movwf	??___fladd
  6405  0362  0855               	movf	??___fladd,w
  6406  0363  07DF               	addwf	___fladd@bexp,f
  6407  0364  2C19               	goto	l1946
  6408  0365                     l1912:
  6409  0365  0850               	movf	___fladd@b+3,w
  6410  0366  3A80               	xorlw	128
  6411  0367  00FF               	movwf	btemp+1
  6412  0368  0854               	movf	___fladd@a+3,w
  6413  0369  3A80               	xorlw	128
  6414  036A  027F               	subwf	btemp+1,w
  6415  036B  1D03               	skipz
  6416  036C  2B77               	goto	u2343
  6417  036D  0853               	movf	___fladd@a+2,w
  6418  036E  024F               	subwf	___fladd@b+2,w
  6419  036F  1D03               	skipz
  6420  0370  2B77               	goto	u2343
  6421  0371  0852               	movf	___fladd@a+1,w
  6422  0372  024E               	subwf	___fladd@b+1,w
  6423  0373  1D03               	skipz
  6424  0374  2B77               	goto	u2343
  6425  0375  0851               	movf	___fladd@a,w
  6426  0376  024D               	subwf	___fladd@b,w
  6427  0377                     u2343:
  6428  0377  1803               	skipnc
  6429  0378  2B7A               	goto	u2341
  6430  0379  2B7B               	goto	u2340
  6431  037A                     u2341:
  6432  037A  2BD3               	goto	l1922
  6433  037B                     u2340:
  6434  037B                     l1914:
  6435  037B  30FF               	movlw	255
  6436  037C  00D5               	movwf	??___fladd
  6437  037D  30FF               	movlw	255
  6438  037E  00D6               	movwf	??___fladd+1
  6439  037F  30FF               	movlw	255
  6440  0380  00D7               	movwf	??___fladd+2
  6441  0381  30FF               	movlw	255
  6442  0382  00D8               	movwf	??___fladd+3
  6443  0383  0851               	movf	___fladd@a,w
  6444  0384  00D9               	movwf	??___fladd+4
  6445  0385  0852               	movf	___fladd@a+1,w
  6446  0386  00DA               	movwf	??___fladd+5
  6447  0387  0853               	movf	___fladd@a+2,w
  6448  0388  00DB               	movwf	??___fladd+6
  6449  0389  0854               	movf	___fladd@a+3,w
  6450  038A  00DC               	movwf	??___fladd+7
  6451  038B  084D               	movf	___fladd@b,w
  6452  038C  02D9               	subwf	??___fladd+4,f
  6453  038D  084E               	movf	___fladd@b+1,w
  6454  038E  1C03               	skipc
  6455  038F  0F4E               	incfsz	___fladd@b+1,w
  6456  0390  2B92               	goto	u2351
  6457  0391  2B93               	goto	u2352
  6458  0392                     u2351:
  6459  0392  02DA               	subwf	??___fladd+5,f
  6460  0393                     u2352:
  6461  0393  084F               	movf	___fladd@b+2,w
  6462  0394  1C03               	skipc
  6463  0395  0F4F               	incfsz	___fladd@b+2,w
  6464  0396  2B98               	goto	u2353
  6465  0397  2B99               	goto	u2354
  6466  0398                     u2353:
  6467  0398  02DB               	subwf	??___fladd+6,f
  6468  0399                     u2354:
  6469  0399  0850               	movf	___fladd@b+3,w
  6470  039A  1C03               	skipc
  6471  039B  0F50               	incfsz	___fladd@b+3,w
  6472  039C  2B9E               	goto	u2355
  6473  039D  2B9F               	goto	u2356
  6474  039E                     u2355:
  6475  039E  02DC               	subwf	??___fladd+7,f
  6476  039F                     u2356:
  6477  039F  0859               	movf	??___fladd+4,w
  6478  03A0  07D5               	addwf	??___fladd,f
  6479  03A1  085A               	movf	??___fladd+5,w
  6480  03A2  1803               	skipnc
  6481  03A3  0F5A               	incfsz	??___fladd+5,w
  6482  03A4  2BA6               	goto	u2360
  6483  03A5  2BA7               	goto	u2361
  6484  03A6                     u2360:
  6485  03A6  07D6               	addwf	??___fladd+1,f
  6486  03A7                     u2361:
  6487  03A7  085B               	movf	??___fladd+6,w
  6488  03A8  1803               	skipnc
  6489  03A9  0F5B               	incfsz	??___fladd+6,w
  6490  03AA  2BAC               	goto	u2362
  6491  03AB  2BAD               	goto	u2363
  6492  03AC                     u2362:
  6493  03AC  07D7               	addwf	??___fladd+2,f
  6494  03AD                     u2363:
  6495  03AD  085C               	movf	??___fladd+7,w
  6496  03AE  1803               	skipnc
  6497  03AF  0A5C               	incf	??___fladd+7,w
  6498  03B0  07D8               	addwf	??___fladd+3,f
  6499  03B1  0858               	movf	??___fladd+3,w
  6500  03B2  00D0               	movwf	___fladd@b+3
  6501  03B3  0857               	movf	??___fladd+2,w
  6502  03B4  00CF               	movwf	___fladd@b+2
  6503  03B5  0856               	movf	??___fladd+1,w
  6504  03B6  00CE               	movwf	___fladd@b+1
  6505  03B7  0855               	movf	??___fladd,w
  6506  03B8  00CD               	movwf	___fladd@b
  6507  03B9                     l1916:
  6508  03B9  3080               	movlw	128
  6509  03BA  00D5               	movwf	??___fladd
  6510  03BB  0855               	movf	??___fladd,w
  6511  03BC  06DD               	xorwf	___fladd@signs,f
  6512  03BD  09E0               	comf	___fladd@grs,f
  6513  03BE  0AE0               	incf	___fladd@grs,f
  6514  03BF                     l1918:
  6515  03BF  0860               	movf	___fladd@grs,w
  6516  03C0  1D03               	btfss	3,2
  6517  03C1  2BC3               	goto	u2371
  6518  03C2  2BC4               	goto	u2370
  6519  03C3                     u2371:
  6520  03C3  2BE1               	goto	l481
  6521  03C4                     u2370:
  6522  03C4                     l1920:
  6523  03C4  3001               	movlw	1
  6524  03C5  07CD               	addwf	___fladd@b,f
  6525  03C6  3000               	movlw	0
  6526  03C7  1803               	skipnc
  6527  03C8  3001               	movlw	1
  6528  03C9  07CE               	addwf	___fladd@b+1,f
  6529  03CA  3000               	movlw	0
  6530  03CB  1803               	skipnc
  6531  03CC  3001               	movlw	1
  6532  03CD  07CF               	addwf	___fladd@b+2,f
  6533  03CE  3000               	movlw	0
  6534  03CF  1803               	skipnc
  6535  03D0  3001               	movlw	1
  6536  03D1  07D0               	addwf	___fladd@b+3,f
  6537  03D2  2BE1               	goto	l481
  6538  03D3                     l1922:
  6539  03D3  0851               	movf	___fladd@a,w
  6540  03D4  02CD               	subwf	___fladd@b,f
  6541  03D5  0852               	movf	___fladd@a+1,w
  6542  03D6  1C03               	skipc
  6543  03D7  0F52               	incfsz	___fladd@a+1,w
  6544  03D8  02CE               	subwf	___fladd@b+1,f
  6545  03D9  0853               	movf	___fladd@a+2,w
  6546  03DA  1C03               	skipc
  6547  03DB  0F53               	incfsz	___fladd@a+2,w
  6548  03DC  02CF               	subwf	___fladd@b+2,f
  6549  03DD  0854               	movf	___fladd@a+3,w
  6550  03DE  1C03               	skipc
  6551  03DF  0F54               	incfsz	___fladd@a+3,w
  6552  03E0  02D0               	subwf	___fladd@b+3,f
  6553  03E1                     l481:
  6554  03E1  0850               	movf	___fladd@b+3,w
  6555  03E2  044F               	iorwf	___fladd@b+2,w
  6556  03E3  044E               	iorwf	___fladd@b+1,w
  6557  03E4  044D               	iorwf	___fladd@b,w
  6558  03E5  1D03               	skipz
  6559  03E6  2BE8               	goto	u2381
  6560  03E7  2BE9               	goto	u2380
  6561  03E8                     u2381:
  6562  03E8  2C15               	goto	l1944
  6563  03E9                     u2380:
  6564  03E9                     l1924:
  6565  03E9  0860               	movf	___fladd@grs,w
  6566  03EA  1D03               	btfss	3,2
  6567  03EB  2BED               	goto	u2391
  6568  03EC  2BEE               	goto	u2390
  6569  03ED                     u2391:
  6570  03ED  2C15               	goto	l1944
  6571  03EE                     u2390:
  6572  03EE                     l1926:
  6573  03EE  3000               	movlw	0
  6574  03EF  00D0               	movwf	?___fladd+3
  6575  03F0  3000               	movlw	0
  6576  03F1  00CF               	movwf	?___fladd+2
  6577  03F2  3000               	movlw	0
  6578  03F3  00CE               	movwf	?___fladd+1
  6579  03F4  3000               	movlw	0
  6580  03F5  00CD               	movwf	?___fladd
  6581  03F6  2C93               	goto	l473
  6582  03F7                     l1930:
  6583  03F7  3001               	movlw	1
  6584  03F8  00D5               	movwf	??___fladd
  6585  03F9                     u2405:
  6586  03F9  1003               	clrc
  6587  03FA  0DCD               	rlf	___fladd@b,f
  6588  03FB  0DCE               	rlf	___fladd@b+1,f
  6589  03FC  0DCF               	rlf	___fladd@b+2,f
  6590  03FD  0DD0               	rlf	___fladd@b+3,f
  6591  03FE  0BD5               	decfsz	??___fladd,f
  6592  03FF  2BF9               	goto	u2405
  6593  0400                     l1932:
  6594  0400  1FE0               	btfss	___fladd@grs,7
  6595  0401  2C03               	goto	u2411
  6596  0402  2C04               	goto	u2410
  6597  0403                     u2411:
  6598  0403  2C05               	goto	l485
  6599  0404                     u2410:
  6600  0404                     l1934:
  6601  0404  144D               	bsf	___fladd@b,0
  6602  0405                     l485:
  6603  0405  1C60               	btfss	___fladd@grs,0
  6604  0406  2C08               	goto	u2421
  6605  0407  2C09               	goto	u2420
  6606  0408                     u2421:
  6607  0408  2C0C               	goto	l1938
  6608  0409                     u2420:
  6609  0409                     l1936:
  6610  0409  1403               	setc
  6611  040A  0DE0               	rlf	___fladd@grs,f
  6612  040B  2C0E               	goto	l1940
  6613  040C                     l1938:
  6614  040C  1003               	clrc
  6615  040D  0DE0               	rlf	___fladd@grs,f
  6616  040E                     l1940:
  6617  040E  085F               	movf	___fladd@bexp,w
  6618  040F  1903               	btfsc	3,2
  6619  0410  2C12               	goto	u2431
  6620  0411  2C13               	goto	u2430
  6621  0412                     u2431:
  6622  0412  2C15               	goto	l1944
  6623  0413                     u2430:
  6624  0413                     l1942:
  6625  0413  3001               	movlw	1
  6626  0414  02DF               	subwf	___fladd@bexp,f
  6627  0415                     l1944:
  6628  0415  1FCF               	btfss	___fladd@b+2,7
  6629  0416  2C18               	goto	u2441
  6630  0417  2C19               	goto	u2440
  6631  0418                     u2441:
  6632  0418  2BF7               	goto	l1930
  6633  0419                     u2440:
  6634  0419                     l1946:
  6635  0419  01DE               	clrf	___fladd@aexp
  6636  041A                     l1948:
  6637  041A  1FE0               	btfss	___fladd@grs,7
  6638  041B  2C1D               	goto	u2451
  6639  041C  2C1E               	goto	u2450
  6640  041D                     u2451:
  6641  041D  2C2C               	goto	l1956
  6642  041E                     u2450:
  6643  041E                     l1950:
  6644  041E  0860               	movf	___fladd@grs,w
  6645  041F  397F               	andlw	127
  6646  0420  1903               	btfsc	3,2
  6647  0421  2C23               	goto	u2461
  6648  0422  2C24               	goto	u2460
  6649  0423                     u2461:
  6650  0423  2C27               	goto	l491
  6651  0424                     u2460:
  6652  0424                     l1952:
  6653  0424  01DE               	clrf	___fladd@aexp
  6654  0425  0ADE               	incf	___fladd@aexp,f
  6655  0426  2C2C               	goto	l1956
  6656  0427                     l491:
  6657  0427  1C4D               	btfss	___fladd@b,0
  6658  0428  2C2A               	goto	u2471
  6659  0429  2C2B               	goto	u2470
  6660  042A                     u2471:
  6661  042A  2C2C               	goto	l1956
  6662  042B                     u2470:
  6663  042B  2C24               	goto	l1952
  6664  042C                     l1956:
  6665  042C  085E               	movf	___fladd@aexp,w
  6666  042D  1903               	btfsc	3,2
  6667  042E  2C30               	goto	u2481
  6668  042F  2C31               	goto	u2480
  6669  0430                     u2481:
  6670  0430  2C65               	goto	l494
  6671  0431                     u2480:
  6672  0431                     l1958:
  6673  0431  3001               	movlw	1
  6674  0432  07CD               	addwf	___fladd@b,f
  6675  0433  3000               	movlw	0
  6676  0434  1803               	skipnc
  6677  0435  3001               	movlw	1
  6678  0436  07CE               	addwf	___fladd@b+1,f
  6679  0437  3000               	movlw	0
  6680  0438  1803               	skipnc
  6681  0439  3001               	movlw	1
  6682  043A  07CF               	addwf	___fladd@b+2,f
  6683  043B  3000               	movlw	0
  6684  043C  1803               	skipnc
  6685  043D  3001               	movlw	1
  6686  043E  07D0               	addwf	___fladd@b+3,f
  6687  043F                     l1960:
  6688  043F  1C50               	btfss	___fladd@b+3,0
  6689  0440  2C42               	goto	u2491
  6690  0441  2C43               	goto	u2490
  6691  0442                     u2491:
  6692  0442  2C65               	goto	l494
  6693  0443                     u2490:
  6694  0443                     l1962:
  6695  0443  084D               	movf	___fladd@b,w
  6696  0444  00D5               	movwf	??___fladd
  6697  0445  084E               	movf	___fladd@b+1,w
  6698  0446  00D6               	movwf	??___fladd+1
  6699  0447  084F               	movf	___fladd@b+2,w
  6700  0448  00D7               	movwf	??___fladd+2
  6701  0449  0850               	movf	___fladd@b+3,w
  6702  044A  00D8               	movwf	??___fladd+3
  6703  044B  3001               	movlw	1
  6704  044C  00D9               	movwf	??___fladd+4
  6705  044D                     u2505:
  6706  044D  0D58               	rlf	??___fladd+3,w
  6707  044E  0CD8               	rrf	??___fladd+3,f
  6708  044F  0CD7               	rrf	??___fladd+2,f
  6709  0450  0CD6               	rrf	??___fladd+1,f
  6710  0451  0CD5               	rrf	??___fladd,f
  6711  0452                     u2500:
  6712  0452  0BD9               	decfsz	??___fladd+4,f
  6713  0453  2C4D               	goto	u2505
  6714  0454  0858               	movf	??___fladd+3,w
  6715  0455  00D0               	movwf	___fladd@b+3
  6716  0456  0857               	movf	??___fladd+2,w
  6717  0457  00CF               	movwf	___fladd@b+2
  6718  0458  0856               	movf	??___fladd+1,w
  6719  0459  00CE               	movwf	___fladd@b+1
  6720  045A  0855               	movf	??___fladd,w
  6721  045B  00CD               	movwf	___fladd@b
  6722  045C  0A5F               	incf	___fladd@bexp,w
  6723  045D  1903               	btfsc	3,2
  6724  045E  2C60               	goto	u2511
  6725  045F  2C61               	goto	u2510
  6726  0460                     u2511:
  6727  0460  2C65               	goto	l494
  6728  0461                     u2510:
  6729  0461                     l1964:
  6730  0461  3001               	movlw	1
  6731  0462  00D5               	movwf	??___fladd
  6732  0463  0855               	movf	??___fladd,w
  6733  0464  07DF               	addwf	___fladd@bexp,f
  6734  0465                     l494:
  6735  0465  0A5F               	incf	___fladd@bexp,w
  6736  0466  1903               	btfsc	3,2
  6737  0467  2C69               	goto	u2521
  6738  0468  2C6A               	goto	u2520
  6739  0469                     u2521:
  6740  0469  2C6F               	goto	l1968
  6741  046A                     u2520:
  6742  046A                     l1966:
  6743  046A  085F               	movf	___fladd@bexp,w
  6744  046B  1D03               	btfss	3,2
  6745  046C  2C6E               	goto	u2531
  6746  046D  2C6F               	goto	u2530
  6747  046E                     u2531:
  6748  046E  2C7D               	goto	l1974
  6749  046F                     u2530:
  6750  046F                     l1968:
  6751  046F  3000               	movlw	0
  6752  0470  00D0               	movwf	___fladd@b+3
  6753  0471  3000               	movlw	0
  6754  0472  00CF               	movwf	___fladd@b+2
  6755  0473  3000               	movlw	0
  6756  0474  00CE               	movwf	___fladd@b+1
  6757  0475  3000               	movlw	0
  6758  0476  00CD               	movwf	___fladd@b
  6759  0477                     l1970:
  6760  0477  085F               	movf	___fladd@bexp,w
  6761  0478  1D03               	btfss	3,2
  6762  0479  2C7B               	goto	u2541
  6763  047A  2C7C               	goto	u2540
  6764  047B                     u2541:
  6765  047B  2C7D               	goto	l1974
  6766  047C                     u2540:
  6767  047C                     l1972:
  6768  047C  01DD               	clrf	___fladd@signs
  6769  047D                     l1974:
  6770  047D  1C5F               	btfss	___fladd@bexp,0
  6771  047E  2C80               	goto	u2551
  6772  047F  2C81               	goto	u2550
  6773  0480                     u2551:
  6774  0480  2C83               	goto	l1978
  6775  0481                     u2550:
  6776  0481                     l1976:
  6777  0481  17CF               	bsf	___fladd@b+2,7
  6778  0482  2C87               	goto	l502
  6779  0483                     l1978:
  6780  0483  307F               	movlw	127
  6781  0484  00D5               	movwf	??___fladd
  6782  0485  0855               	movf	??___fladd,w
  6783  0486  05CF               	andwf	___fladd@b+2,f
  6784  0487                     l502:
  6785  0487  085F               	movf	___fladd@bexp,w
  6786  0488  00D5               	movwf	??___fladd
  6787  0489  1003               	clrc
  6788  048A  0C55               	rrf	??___fladd,w
  6789  048B  00D6               	movwf	??___fladd+1
  6790  048C  0856               	movf	??___fladd+1,w
  6791  048D  00D0               	movwf	___fladd@b+3
  6792  048E                     l1980:
  6793  048E  1FDD               	btfss	___fladd@signs,7
  6794  048F  2C91               	goto	u2561
  6795  0490  2C92               	goto	u2560
  6796  0491                     u2561:
  6797  0491  2C93               	goto	l503
  6798  0492                     u2560:
  6799  0492                     l1982:
  6800  0492  17D0               	bsf	___fladd@b+3,7
  6801  0493                     l503:
  6802  0493                     l473:
  6803  0493  0008               	return
  6804  0494                     __end_of___fladd:
  6805                           
  6806                           	psect	text21
  6807  1413                     __ptext21:	
  6808 ;; *************** function ___flneg *****************
  6809 ;; Defined at:
  6810 ;;		line 15 in file "C:\Program Files\Microchip\xc8\v2.31\pic\sources\c90\common\flneg.c"
  6811 ;; Parameters:    Size  Location     Type
  6812 ;;  f1              4    0[COMMON] unsigned char 
  6813 ;; Auto vars:     Size  Location     Type
  6814 ;;		None
  6815 ;; Return value:  Size  Location     Type
  6816 ;;                  4    0[COMMON] unsigned char 
  6817 ;; Registers used:
  6818 ;;		wreg
  6819 ;; Tracked objects:
  6820 ;;		On entry : 0/0
  6821 ;;		On exit  : 0/0
  6822 ;;		Unchanged: 0/0
  6823 ;; Data sizes:     COMMON   BANK0   BANK1   BANK3   BANK2
  6824 ;;      Params:         4       0       0       0       0
  6825 ;;      Locals:         0       0       0       0       0
  6826 ;;      Temps:          0       0       0       0       0
  6827 ;;      Totals:         4       0       0       0       0
  6828 ;;Total ram usage:        4 bytes
  6829 ;; Hardware stack levels used:    1
  6830 ;; This function calls:
  6831 ;;		Nothing
  6832 ;; This function is called by:
  6833 ;;		_pow
  6834 ;;		_exp
  6835 ;; This function uses a non-reentrant model
  6836 ;;
  6837                           
  6838                           
  6839                           ;psect for function ___flneg
  6840  1413                     ___flneg:
  6841  1413                     l2188:	
  6842                           ;incstack = 0
  6843                           ; Regs used in ___flneg: [wreg]
  6844                           
  6845  1413  0873               	movf	___flneg@f1+3,w
  6846  1414  0472               	iorwf	___flneg@f1+2,w
  6847  1415  0471               	iorwf	___flneg@f1+1,w
  6848  1416  0470               	iorwf	___flneg@f1,w
  6849  1417  1903               	skipnz
  6850  1418  2C1A               	goto	u3091
  6851  1419  2C1B               	goto	u3090
  6852  141A                     u3091:
  6853  141A  2C1D               	goto	l2192
  6854  141B                     u3090:
  6855  141B                     l2190:
  6856  141B  3080               	movlw	128
  6857  141C  06F3               	xorwf	___flneg@f1+3,f
  6858  141D                     l2192:
  6859  141D                     l349:
  6860  141D  0008               	return
  6861  141E                     __end_of___flneg:
  6862                           
  6863                           	psect	text22
  6864  0029                     __ptext22:	
  6865 ;; *************** function ___fldiv *****************
  6866 ;; Defined at:
  6867 ;;		line 8 in file "C:\Program Files\Microchip\xc8\v2.31\pic\sources\c90\common\sprcdiv.c"
  6868 ;; Parameters:    Size  Location     Type
  6869 ;;  a               4    0[COMMON] unsigned char 
  6870 ;;  b               4    4[COMMON] unsigned char 
  6871 ;; Auto vars:     Size  Location     Type
  6872 ;;  grs             4    7[BANK0 ] unsigned long 
  6873 ;;  rem             4    0[BANK0 ] unsigned long 
  6874 ;;  new_exp         2    5[BANK0 ] int 
  6875 ;;  aexp            1   12[BANK0 ] unsigned char 
  6876 ;;  bexp            1   11[BANK0 ] unsigned char 
  6877 ;;  sign            1    4[BANK0 ] unsigned char 
  6878 ;; Return value:  Size  Location     Type
  6879 ;;                  4    0[COMMON] unsigned char 
  6880 ;; Registers used:
  6881 ;;		wreg, status,2, status,0, btemp+1
  6882 ;; Tracked objects:
  6883 ;;		On entry : 0/0
  6884 ;;		On exit  : 0/0
  6885 ;;		Unchanged: 0/0
  6886 ;; Data sizes:     COMMON   BANK0   BANK1   BANK3   BANK2
  6887 ;;      Params:         8       0       0       0       0
  6888 ;;      Locals:         0      13       0       0       0
  6889 ;;      Temps:          5       0       0       0       0
  6890 ;;      Totals:        13      13       0       0       0
  6891 ;;Total ram usage:       26 bytes
  6892 ;; Hardware stack levels used:    1
  6893 ;; This function calls:
  6894 ;;		Nothing
  6895 ;; This function is called by:
  6896 ;;		_exp
  6897 ;; This function uses a non-reentrant model
  6898 ;;
  6899                           
  6900                           
  6901                           ;psect for function ___fldiv
  6902  0029                     ___fldiv:
  6903  0029                     l2202:	
  6904                           ;incstack = 0
  6905                           ; Regs used in ___fldiv: [wreg+status,2+status,0+btemp+1]
  6906                           
  6907  0029  0877               	movf	___fldiv@b+3,w
  6908  002A  3980               	andlw	128
  6909  002B  00F8               	movwf	??___fldiv
  6910  002C  0878               	movf	??___fldiv,w
  6911  002D  1283               	bcf	3,5	;RP0=0, select bank0
  6912  002E  1303               	bcf	3,6	;RP1=0, select bank0
  6913  002F  00A4               	movwf	___fldiv@sign
  6914  0030                     l2204:
  6915  0030  0877               	movf	___fldiv@b+3,w
  6916  0031  00F8               	movwf	??___fldiv
  6917  0032  0778               	addwf	??___fldiv,w
  6918  0033  00F9               	movwf	??___fldiv+1
  6919  0034  0879               	movf	??___fldiv+1,w
  6920  0035  00AB               	movwf	___fldiv@bexp
  6921  0036                     l2206:
  6922  0036  1FF6               	btfss	___fldiv@b+2,7
  6923  0037  2839               	goto	u3101
  6924  0038  283A               	goto	u3100
  6925  0039                     u3101:
  6926  0039  283B               	goto	l2210
  6927  003A                     u3100:
  6928  003A                     l2208:
  6929  003A  142B               	bsf	___fldiv@bexp,0
  6930  003B                     l2210:
  6931  003B  082B               	movf	___fldiv@bexp,w
  6932  003C  1903               	btfsc	3,2
  6933  003D  283F               	goto	u3111
  6934  003E  2840               	goto	u3110
  6935  003F                     u3111:
  6936  003F  2850               	goto	l2220
  6937  0040                     u3110:
  6938  0040                     l2212:
  6939  0040  0A2B               	incf	___fldiv@bexp,w
  6940  0041  1D03               	btfss	3,2
  6941  0042  2844               	goto	u3121
  6942  0043  2845               	goto	u3120
  6943  0044                     u3121:
  6944  0044  284D               	goto	l2216
  6945  0045                     u3120:
  6946  0045                     l2214:
  6947  0045  3000               	movlw	0
  6948  0046  00F7               	movwf	___fldiv@b+3
  6949  0047  3000               	movlw	0
  6950  0048  00F6               	movwf	___fldiv@b+2
  6951  0049  3000               	movlw	0
  6952  004A  00F5               	movwf	___fldiv@b+1
  6953  004B  3000               	movlw	0
  6954  004C  00F4               	movwf	___fldiv@b
  6955  004D                     l2216:
  6956  004D  17F6               	bsf	___fldiv@b+2,7
  6957  004E                     l2218:
  6958  004E  01F7               	clrf	___fldiv@b+3
  6959  004F  2858               	goto	l2222
  6960  0050                     l2220:
  6961  0050  3000               	movlw	0
  6962  0051  00F7               	movwf	___fldiv@b+3
  6963  0052  3000               	movlw	0
  6964  0053  00F6               	movwf	___fldiv@b+2
  6965  0054  3000               	movlw	0
  6966  0055  00F5               	movwf	___fldiv@b+1
  6967  0056  3000               	movlw	0
  6968  0057  00F4               	movwf	___fldiv@b
  6969  0058                     l2222:
  6970  0058  0873               	movf	___fldiv@a+3,w
  6971  0059  3980               	andlw	128
  6972  005A  00F8               	movwf	??___fldiv
  6973  005B  0878               	movf	??___fldiv,w
  6974  005C  06A4               	xorwf	___fldiv@sign,f
  6975  005D                     l2224:
  6976  005D  0873               	movf	___fldiv@a+3,w
  6977  005E  00F8               	movwf	??___fldiv
  6978  005F  0778               	addwf	??___fldiv,w
  6979  0060  00F9               	movwf	??___fldiv+1
  6980  0061  0879               	movf	??___fldiv+1,w
  6981  0062  00AC               	movwf	___fldiv@aexp
  6982  0063                     l2226:
  6983  0063  1FF2               	btfss	___fldiv@a+2,7
  6984  0064  2866               	goto	u3131
  6985  0065  2867               	goto	u3130
  6986  0066                     u3131:
  6987  0066  2868               	goto	l2230
  6988  0067                     u3130:
  6989  0067                     l2228:
  6990  0067  142C               	bsf	___fldiv@aexp,0
  6991  0068                     l2230:
  6992  0068  082C               	movf	___fldiv@aexp,w
  6993  0069  1903               	btfsc	3,2
  6994  006A  286C               	goto	u3141
  6995  006B  286D               	goto	u3140
  6996  006C                     u3141:
  6997  006C  287D               	goto	l2240
  6998  006D                     u3140:
  6999  006D                     l2232:
  7000  006D  0A2C               	incf	___fldiv@aexp,w
  7001  006E  1D03               	btfss	3,2
  7002  006F  2871               	goto	u3151
  7003  0070  2872               	goto	u3150
  7004  0071                     u3151:
  7005  0071  287A               	goto	l2236
  7006  0072                     u3150:
  7007  0072                     l2234:
  7008  0072  3000               	movlw	0
  7009  0073  00F3               	movwf	___fldiv@a+3
  7010  0074  3000               	movlw	0
  7011  0075  00F2               	movwf	___fldiv@a+2
  7012  0076  3000               	movlw	0
  7013  0077  00F1               	movwf	___fldiv@a+1
  7014  0078  3000               	movlw	0
  7015  0079  00F0               	movwf	___fldiv@a
  7016  007A                     l2236:
  7017  007A  17F2               	bsf	___fldiv@a+2,7
  7018  007B                     l2238:
  7019  007B  01F3               	clrf	___fldiv@a+3
  7020  007C  2885               	goto	l516
  7021  007D                     l2240:
  7022  007D  3000               	movlw	0
  7023  007E  00F3               	movwf	___fldiv@a+3
  7024  007F  3000               	movlw	0
  7025  0080  00F2               	movwf	___fldiv@a+2
  7026  0081  3000               	movlw	0
  7027  0082  00F1               	movwf	___fldiv@a+1
  7028  0083  3000               	movlw	0
  7029  0084  00F0               	movwf	___fldiv@a
  7030  0085                     l516:
  7031  0085  0873               	movf	___fldiv@a+3,w
  7032  0086  0472               	iorwf	___fldiv@a+2,w
  7033  0087  0471               	iorwf	___fldiv@a+1,w
  7034  0088  0470               	iorwf	___fldiv@a,w
  7035  0089  1D03               	skipz
  7036  008A  288C               	goto	u3161
  7037  008B  288D               	goto	u3160
  7038  008C                     u3161:
  7039  008C  28A6               	goto	l2250
  7040  008D                     u3160:
  7041  008D                     l2242:
  7042  008D  3000               	movlw	0
  7043  008E  00F7               	movwf	___fldiv@b+3
  7044  008F  3000               	movlw	0
  7045  0090  00F6               	movwf	___fldiv@b+2
  7046  0091  3000               	movlw	0
  7047  0092  00F5               	movwf	___fldiv@b+1
  7048  0093  3000               	movlw	0
  7049  0094  00F4               	movwf	___fldiv@b
  7050  0095  3080               	movlw	128
  7051  0096  04F6               	iorwf	___fldiv@b+2,f
  7052  0097  307F               	movlw	127
  7053  0098  04F7               	iorwf	___fldiv@b+3,f
  7054  0099                     l2244:
  7055  0099  0824               	movf	___fldiv@sign,w
  7056  009A  00F8               	movwf	??___fldiv
  7057  009B  0878               	movf	??___fldiv,w
  7058  009C  04F7               	iorwf	___fldiv@b+3,f
  7059  009D                     l2246:
  7060  009D  0877               	movf	___fldiv@b+3,w
  7061  009E  00F3               	movwf	?___fldiv+3
  7062  009F  0876               	movf	___fldiv@b+2,w
  7063  00A0  00F2               	movwf	?___fldiv+2
  7064  00A1  0875               	movf	___fldiv@b+1,w
  7065  00A2  00F1               	movwf	?___fldiv+1
  7066  00A3  0874               	movf	___fldiv@b,w
  7067  00A4  00F0               	movwf	?___fldiv
  7068  00A5  2A0B               	goto	l518
  7069  00A6                     l2250:
  7070  00A6  082B               	movf	___fldiv@bexp,w
  7071  00A7  1D03               	btfss	3,2
  7072  00A8  28AA               	goto	u3171
  7073  00A9  28AB               	goto	u3170
  7074  00AA                     u3171:
  7075  00AA  28B4               	goto	l2256
  7076  00AB                     u3170:
  7077  00AB                     l2252:
  7078  00AB  3000               	movlw	0
  7079  00AC  00F3               	movwf	?___fldiv+3
  7080  00AD  3000               	movlw	0
  7081  00AE  00F2               	movwf	?___fldiv+2
  7082  00AF  3000               	movlw	0
  7083  00B0  00F1               	movwf	?___fldiv+1
  7084  00B1  3000               	movlw	0
  7085  00B2  00F0               	movwf	?___fldiv
  7086  00B3  2A0B               	goto	l518
  7087  00B4                     l2256:
  7088  00B4  082B               	movf	___fldiv@bexp,w
  7089  00B5  00F8               	movwf	??___fldiv
  7090  00B6  01F9               	clrf	??___fldiv+1
  7091  00B7  0879               	movf	??___fldiv+1,w
  7092  00B8  00FB               	movwf	??___fldiv+3
  7093  00B9  082C               	movf	___fldiv@aexp,w
  7094  00BA  0278               	subwf	??___fldiv,w
  7095  00BB  00FA               	movwf	??___fldiv+2
  7096  00BC  1C03               	skipc
  7097  00BD  03FB               	decf	??___fldiv+3,f
  7098  00BE  087A               	movf	??___fldiv+2,w
  7099  00BF  3E7F               	addlw	127
  7100  00C0  00A5               	movwf	___fldiv@new_exp
  7101  00C1  087B               	movf	??___fldiv+3,w
  7102  00C2  1803               	skipnc
  7103  00C3  3E01               	addlw	1
  7104  00C4  3E00               	addlw	0
  7105  00C5  00A6               	movwf	___fldiv@new_exp+1
  7106  00C6                     l2258:
  7107  00C6  0877               	movf	___fldiv@b+3,w
  7108  00C7  00A3               	movwf	___fldiv@rem+3
  7109  00C8  0876               	movf	___fldiv@b+2,w
  7110  00C9  00A2               	movwf	___fldiv@rem+2
  7111  00CA  0875               	movf	___fldiv@b+1,w
  7112  00CB  00A1               	movwf	___fldiv@rem+1
  7113  00CC  0874               	movf	___fldiv@b,w
  7114  00CD  00A0               	movwf	___fldiv@rem
  7115  00CE                     l2260:
  7116  00CE  3000               	movlw	0
  7117  00CF  00F7               	movwf	___fldiv@b+3
  7118  00D0  3000               	movlw	0
  7119  00D1  00F6               	movwf	___fldiv@b+2
  7120  00D2  3000               	movlw	0
  7121  00D3  00F5               	movwf	___fldiv@b+1
  7122  00D4  3000               	movlw	0
  7123  00D5  00F4               	movwf	___fldiv@b
  7124  00D6                     l2262:
  7125  00D6  3000               	movlw	0
  7126  00D7  00AA               	movwf	___fldiv@grs+3
  7127  00D8  3000               	movlw	0
  7128  00D9  00A9               	movwf	___fldiv@grs+2
  7129  00DA  3000               	movlw	0
  7130  00DB  00A8               	movwf	___fldiv@grs+1
  7131  00DC  3000               	movlw	0
  7132  00DD  00A7               	movwf	___fldiv@grs
  7133  00DE                     l2264:
  7134  00DE  01AC               	clrf	___fldiv@aexp
  7135  00DF  2930               	goto	l2284
  7136  00E0                     l2266:
  7137  00E0  082C               	movf	___fldiv@aexp,w
  7138  00E1  1903               	btfsc	3,2
  7139  00E2  28E4               	goto	u3181
  7140  00E3  28E5               	goto	u3180
  7141  00E4                     u3181:
  7142  00E4  2905               	goto	l2276
  7143  00E5                     u3180:
  7144  00E5                     l2268:
  7145  00E5  3001               	movlw	1
  7146  00E6  00F8               	movwf	??___fldiv
  7147  00E7                     u3195:
  7148  00E7  1003               	clrc
  7149  00E8  0DA0               	rlf	___fldiv@rem,f
  7150  00E9  0DA1               	rlf	___fldiv@rem+1,f
  7151  00EA  0DA2               	rlf	___fldiv@rem+2,f
  7152  00EB  0DA3               	rlf	___fldiv@rem+3,f
  7153  00EC  0BF8               	decfsz	??___fldiv,f
  7154  00ED  28E7               	goto	u3195
  7155  00EE  3001               	movlw	1
  7156  00EF  00F8               	movwf	??___fldiv
  7157  00F0                     u3205:
  7158  00F0  1003               	clrc
  7159  00F1  0DF4               	rlf	___fldiv@b,f
  7160  00F2  0DF5               	rlf	___fldiv@b+1,f
  7161  00F3  0DF6               	rlf	___fldiv@b+2,f
  7162  00F4  0DF7               	rlf	___fldiv@b+3,f
  7163  00F5  0BF8               	decfsz	??___fldiv,f
  7164  00F6  28F0               	goto	u3205
  7165  00F7                     l2270:
  7166  00F7  1FAA               	btfss	___fldiv@grs+3,7
  7167  00F8  28FA               	goto	u3211
  7168  00F9  28FB               	goto	u3210
  7169  00FA                     u3211:
  7170  00FA  28FC               	goto	l2274
  7171  00FB                     u3210:
  7172  00FB                     l2272:
  7173  00FB  1474               	bsf	___fldiv@b,0
  7174  00FC                     l2274:
  7175  00FC  3001               	movlw	1
  7176  00FD  00F8               	movwf	??___fldiv
  7177  00FE                     u3225:
  7178  00FE  1003               	clrc
  7179  00FF  0DA7               	rlf	___fldiv@grs,f
  7180  0100  0DA8               	rlf	___fldiv@grs+1,f
  7181  0101  0DA9               	rlf	___fldiv@grs+2,f
  7182  0102  0DAA               	rlf	___fldiv@grs+3,f
  7183  0103  0BF8               	decfsz	??___fldiv,f
  7184  0104  28FE               	goto	u3225
  7185  0105                     l2276:
  7186  0105  0873               	movf	___fldiv@a+3,w
  7187  0106  0223               	subwf	___fldiv@rem+3,w
  7188  0107  1D03               	skipz
  7189  0108  2913               	goto	u3235
  7190  0109  0872               	movf	___fldiv@a+2,w
  7191  010A  0222               	subwf	___fldiv@rem+2,w
  7192  010B  1D03               	skipz
  7193  010C  2913               	goto	u3235
  7194  010D  0871               	movf	___fldiv@a+1,w
  7195  010E  0221               	subwf	___fldiv@rem+1,w
  7196  010F  1D03               	skipz
  7197  0110  2913               	goto	u3235
  7198  0111  0870               	movf	___fldiv@a,w
  7199  0112  0220               	subwf	___fldiv@rem,w
  7200  0113                     u3235:
  7201  0113  1C03               	skipc
  7202  0114  2916               	goto	u3231
  7203  0115  2917               	goto	u3230
  7204  0116                     u3231:
  7205  0116  292C               	goto	l2282
  7206  0117                     u3230:
  7207  0117                     l2278:
  7208  0117  172A               	bsf	___fldiv@grs+3,6
  7209  0118                     l2280:
  7210  0118  0870               	movf	___fldiv@a,w
  7211  0119  02A0               	subwf	___fldiv@rem,f
  7212  011A  0871               	movf	___fldiv@a+1,w
  7213  011B  1C03               	skipc
  7214  011C  0F71               	incfsz	___fldiv@a+1,w
  7215  011D  291F               	goto	u3245
  7216  011E  2920               	goto	u3246
  7217  011F                     u3245:
  7218  011F  02A1               	subwf	___fldiv@rem+1,f
  7219  0120                     u3246:
  7220  0120  0872               	movf	___fldiv@a+2,w
  7221  0121  1C03               	skipc
  7222  0122  0F72               	incfsz	___fldiv@a+2,w
  7223  0123  2925               	goto	u3247
  7224  0124  2926               	goto	u3248
  7225  0125                     u3247:
  7226  0125  02A2               	subwf	___fldiv@rem+2,f
  7227  0126                     u3248:
  7228  0126  0873               	movf	___fldiv@a+3,w
  7229  0127  1C03               	skipc
  7230  0128  0F73               	incfsz	___fldiv@a+3,w
  7231  0129  292B               	goto	u3249
  7232  012A  292C               	goto	u3240
  7233  012B                     u3249:
  7234  012B  02A3               	subwf	___fldiv@rem+3,f
  7235  012C                     u3240:
  7236  012C                     l2282:
  7237  012C  3001               	movlw	1
  7238  012D  00F8               	movwf	??___fldiv
  7239  012E  0878               	movf	??___fldiv,w
  7240  012F  07AC               	addwf	___fldiv@aexp,f
  7241  0130                     l2284:
  7242  0130  301A               	movlw	26
  7243  0131  022C               	subwf	___fldiv@aexp,w
  7244  0132  1C03               	skipc
  7245  0133  2935               	goto	u3251
  7246  0134  2936               	goto	u3250
  7247  0135                     u3251:
  7248  0135  28E0               	goto	l2266
  7249  0136                     u3250:
  7250  0136                     l2286:
  7251  0136  0823               	movf	___fldiv@rem+3,w
  7252  0137  0422               	iorwf	___fldiv@rem+2,w
  7253  0138  0421               	iorwf	___fldiv@rem+1,w
  7254  0139  0420               	iorwf	___fldiv@rem,w
  7255  013A  1903               	skipnz
  7256  013B  293D               	goto	u3261
  7257  013C  293E               	goto	u3260
  7258  013D                     u3261:
  7259  013D  295D               	goto	l2300
  7260  013E                     u3260:
  7261  013E                     l2288:
  7262  013E  1427               	bsf	___fldiv@grs,0
  7263  013F  295D               	goto	l2300
  7264  0140                     l2290:
  7265  0140  3001               	movlw	1
  7266  0141  00F8               	movwf	??___fldiv
  7267  0142                     u3275:
  7268  0142  1003               	clrc
  7269  0143  0DF4               	rlf	___fldiv@b,f
  7270  0144  0DF5               	rlf	___fldiv@b+1,f
  7271  0145  0DF6               	rlf	___fldiv@b+2,f
  7272  0146  0DF7               	rlf	___fldiv@b+3,f
  7273  0147  0BF8               	decfsz	??___fldiv,f
  7274  0148  2942               	goto	u3275
  7275  0149                     l2292:
  7276  0149  1FAA               	btfss	___fldiv@grs+3,7
  7277  014A  294C               	goto	u3281
  7278  014B  294D               	goto	u3280
  7279  014C                     u3281:
  7280  014C  294E               	goto	l2296
  7281  014D                     u3280:
  7282  014D                     l2294:
  7283  014D  1474               	bsf	___fldiv@b,0
  7284  014E                     l2296:
  7285  014E  3001               	movlw	1
  7286  014F  00F8               	movwf	??___fldiv
  7287  0150                     u3295:
  7288  0150  1003               	clrc
  7289  0151  0DA7               	rlf	___fldiv@grs,f
  7290  0152  0DA8               	rlf	___fldiv@grs+1,f
  7291  0153  0DA9               	rlf	___fldiv@grs+2,f
  7292  0154  0DAA               	rlf	___fldiv@grs+3,f
  7293  0155  0BF8               	decfsz	??___fldiv,f
  7294  0156  2950               	goto	u3295
  7295  0157                     l2298:
  7296  0157  30FF               	movlw	255
  7297  0158  07A5               	addwf	___fldiv@new_exp,f
  7298  0159  1803               	skipnc
  7299  015A  0AA6               	incf	___fldiv@new_exp+1,f
  7300  015B  30FF               	movlw	255
  7301  015C  07A6               	addwf	___fldiv@new_exp+1,f
  7302  015D                     l2300:
  7303  015D  1FF6               	btfss	___fldiv@b+2,7
  7304  015E  2960               	goto	u3301
  7305  015F  2961               	goto	u3300
  7306  0160                     u3301:
  7307  0160  2940               	goto	l2290
  7308  0161                     u3300:
  7309  0161                     l2302:
  7310  0161  01AC               	clrf	___fldiv@aexp
  7311  0162                     l2304:
  7312  0162  1FAA               	btfss	___fldiv@grs+3,7
  7313  0163  2965               	goto	u3311
  7314  0164  2966               	goto	u3310
  7315  0165                     u3311:
  7316  0165  2982               	goto	l2312
  7317  0166                     u3310:
  7318  0166                     l2306:
  7319  0166  30FF               	movlw	255
  7320  0167  0527               	andwf	___fldiv@grs,w
  7321  0168  00F8               	movwf	??___fldiv
  7322  0169  30FF               	movlw	255
  7323  016A  0528               	andwf	___fldiv@grs+1,w
  7324  016B  00F9               	movwf	??___fldiv+1
  7325  016C  30FF               	movlw	255
  7326  016D  0529               	andwf	___fldiv@grs+2,w
  7327  016E  00FA               	movwf	??___fldiv+2
  7328  016F  307F               	movlw	127
  7329  0170  052A               	andwf	___fldiv@grs+3,w
  7330  0171  00FB               	movwf	??___fldiv+3
  7331  0172  087B               	movf	??___fldiv+3,w
  7332  0173  047A               	iorwf	??___fldiv+2,w
  7333  0174  0479               	iorwf	??___fldiv+1,w
  7334  0175  0478               	iorwf	??___fldiv,w
  7335  0176  1903               	skipnz
  7336  0177  2979               	goto	u3321
  7337  0178  297A               	goto	u3320
  7338  0179                     u3321:
  7339  0179  297D               	goto	l532
  7340  017A                     u3320:
  7341  017A                     l2308:
  7342  017A  01AC               	clrf	___fldiv@aexp
  7343  017B  0AAC               	incf	___fldiv@aexp,f
  7344  017C  2982               	goto	l2312
  7345  017D                     l532:
  7346  017D  1C74               	btfss	___fldiv@b,0
  7347  017E  2980               	goto	u3331
  7348  017F  2981               	goto	u3330
  7349  0180                     u3331:
  7350  0180  2982               	goto	l2312
  7351  0181                     u3330:
  7352  0181  297A               	goto	l2308
  7353  0182                     l2312:
  7354  0182  082C               	movf	___fldiv@aexp,w
  7355  0183  1903               	btfsc	3,2
  7356  0184  2986               	goto	u3341
  7357  0185  2987               	goto	u3340
  7358  0186                     u3341:
  7359  0186  29B8               	goto	l2322
  7360  0187                     u3340:
  7361  0187                     l2314:
  7362  0187  3001               	movlw	1
  7363  0188  07F4               	addwf	___fldiv@b,f
  7364  0189  3000               	movlw	0
  7365  018A  1803               	skipnc
  7366  018B  3001               	movlw	1
  7367  018C  07F5               	addwf	___fldiv@b+1,f
  7368  018D  3000               	movlw	0
  7369  018E  1803               	skipnc
  7370  018F  3001               	movlw	1
  7371  0190  07F6               	addwf	___fldiv@b+2,f
  7372  0191  3000               	movlw	0
  7373  0192  1803               	skipnc
  7374  0193  3001               	movlw	1
  7375  0194  07F7               	addwf	___fldiv@b+3,f
  7376  0195                     l2316:
  7377  0195  1C77               	btfss	___fldiv@b+3,0
  7378  0196  2998               	goto	u3351
  7379  0197  2999               	goto	u3350
  7380  0198                     u3351:
  7381  0198  29B8               	goto	l2322
  7382  0199                     u3350:
  7383  0199                     l2318:
  7384  0199  0874               	movf	___fldiv@b,w
  7385  019A  00F8               	movwf	??___fldiv
  7386  019B  0875               	movf	___fldiv@b+1,w
  7387  019C  00F9               	movwf	??___fldiv+1
  7388  019D  0876               	movf	___fldiv@b+2,w
  7389  019E  00FA               	movwf	??___fldiv+2
  7390  019F  0877               	movf	___fldiv@b+3,w
  7391  01A0  00FB               	movwf	??___fldiv+3
  7392  01A1  3001               	movlw	1
  7393  01A2  00FC               	movwf	??___fldiv+4
  7394  01A3                     u3365:
  7395  01A3  0D7B               	rlf	??___fldiv+3,w
  7396  01A4  0CFB               	rrf	??___fldiv+3,f
  7397  01A5  0CFA               	rrf	??___fldiv+2,f
  7398  01A6  0CF9               	rrf	??___fldiv+1,f
  7399  01A7  0CF8               	rrf	??___fldiv,f
  7400  01A8                     u3360:
  7401  01A8  0BFC               	decfsz	??___fldiv+4,f
  7402  01A9  29A3               	goto	u3365
  7403  01AA  087B               	movf	??___fldiv+3,w
  7404  01AB  00F7               	movwf	___fldiv@b+3
  7405  01AC  087A               	movf	??___fldiv+2,w
  7406  01AD  00F6               	movwf	___fldiv@b+2
  7407  01AE  0879               	movf	??___fldiv+1,w
  7408  01AF  00F5               	movwf	___fldiv@b+1
  7409  01B0  0878               	movf	??___fldiv,w
  7410  01B1  00F4               	movwf	___fldiv@b
  7411  01B2                     l2320:
  7412  01B2  3001               	movlw	1
  7413  01B3  07A5               	addwf	___fldiv@new_exp,f
  7414  01B4  1803               	skipnc
  7415  01B5  0AA6               	incf	___fldiv@new_exp+1,f
  7416  01B6  3000               	movlw	0
  7417  01B7  07A6               	addwf	___fldiv@new_exp+1,f
  7418  01B8                     l2322:
  7419  01B8  0826               	movf	___fldiv@new_exp+1,w
  7420  01B9  3A80               	xorlw	128
  7421  01BA  00FF               	movwf	btemp+1
  7422  01BB  3080               	movlw	128
  7423  01BC  027F               	subwf	btemp+1,w
  7424  01BD  1D03               	skipz
  7425  01BE  29C1               	goto	u3375
  7426  01BF  30FF               	movlw	255
  7427  01C0  0225               	subwf	___fldiv@new_exp,w
  7428  01C1                     u3375:
  7429  01C1  1C03               	skipc
  7430  01C2  29C4               	goto	u3371
  7431  01C3  29C5               	goto	u3370
  7432  01C4                     u3371:
  7433  01C4  29D3               	goto	l2326
  7434  01C5                     u3370:
  7435  01C5                     l2324:
  7436  01C5  30FF               	movlw	255
  7437  01C6  1283               	bcf	3,5	;RP0=0, select bank0
  7438  01C7  1303               	bcf	3,6	;RP1=0, select bank0
  7439  01C8  00A5               	movwf	___fldiv@new_exp
  7440  01C9  3000               	movlw	0
  7441  01CA  00A6               	movwf	___fldiv@new_exp+1
  7442  01CB  3000               	movlw	0
  7443  01CC  00F7               	movwf	___fldiv@b+3
  7444  01CD  3000               	movlw	0
  7445  01CE  00F6               	movwf	___fldiv@b+2
  7446  01CF  3000               	movlw	0
  7447  01D0  00F5               	movwf	___fldiv@b+1
  7448  01D1  3000               	movlw	0
  7449  01D2  00F4               	movwf	___fldiv@b
  7450  01D3                     l2326:
  7451  01D3  1283               	bcf	3,5	;RP0=0, select bank0
  7452  01D4  1303               	bcf	3,6	;RP1=0, select bank0
  7453  01D5  0826               	movf	___fldiv@new_exp+1,w
  7454  01D6  3A80               	xorlw	128
  7455  01D7  00FF               	movwf	btemp+1
  7456  01D8  3080               	movlw	128
  7457  01D9  027F               	subwf	btemp+1,w
  7458  01DA  1D03               	skipz
  7459  01DB  29DE               	goto	u3385
  7460  01DC  3001               	movlw	1
  7461  01DD  0225               	subwf	___fldiv@new_exp,w
  7462  01DE                     u3385:
  7463  01DE  1803               	skipnc
  7464  01DF  29E1               	goto	u3381
  7465  01E0  29E2               	goto	u3380
  7466  01E1                     u3381:
  7467  01E1  29EF               	goto	l538
  7468  01E2                     u3380:
  7469  01E2                     l2328:
  7470  01E2  1283               	bcf	3,5	;RP0=0, select bank0
  7471  01E3  1303               	bcf	3,6	;RP1=0, select bank0
  7472  01E4  01A5               	clrf	___fldiv@new_exp
  7473  01E5  01A6               	clrf	___fldiv@new_exp+1
  7474  01E6                     l2330:
  7475  01E6  3000               	movlw	0
  7476  01E7  00F7               	movwf	___fldiv@b+3
  7477  01E8  3000               	movlw	0
  7478  01E9  00F6               	movwf	___fldiv@b+2
  7479  01EA  3000               	movlw	0
  7480  01EB  00F5               	movwf	___fldiv@b+1
  7481  01EC  3000               	movlw	0
  7482  01ED  00F4               	movwf	___fldiv@b
  7483  01EE                     l2332:
  7484  01EE  01A4               	clrf	___fldiv@sign
  7485  01EF                     l538:
  7486  01EF  1283               	bcf	3,5	;RP0=0, select bank0
  7487  01F0  1303               	bcf	3,6	;RP1=0, select bank0
  7488  01F1  0825               	movf	___fldiv@new_exp,w
  7489  01F2  00F8               	movwf	??___fldiv
  7490  01F3  0878               	movf	??___fldiv,w
  7491  01F4  00AB               	movwf	___fldiv@bexp
  7492  01F5                     l2334:
  7493  01F5  1C2B               	btfss	___fldiv@bexp,0
  7494  01F6  29F8               	goto	u3391
  7495  01F7  29F9               	goto	u3390
  7496  01F8                     u3391:
  7497  01F8  29FB               	goto	l2338
  7498  01F9                     u3390:
  7499  01F9                     l2336:
  7500  01F9  17F6               	bsf	___fldiv@b+2,7
  7501  01FA  29FF               	goto	l540
  7502  01FB                     l2338:
  7503  01FB  307F               	movlw	127
  7504  01FC  00F8               	movwf	??___fldiv
  7505  01FD  0878               	movf	??___fldiv,w
  7506  01FE  05F6               	andwf	___fldiv@b+2,f
  7507  01FF                     l540:
  7508  01FF  082B               	movf	___fldiv@bexp,w
  7509  0200  00F8               	movwf	??___fldiv
  7510  0201  1003               	clrc
  7511  0202  0C78               	rrf	??___fldiv,w
  7512  0203  00F9               	movwf	??___fldiv+1
  7513  0204  0879               	movf	??___fldiv+1,w
  7514  0205  00F7               	movwf	___fldiv@b+3
  7515  0206  0824               	movf	___fldiv@sign,w
  7516  0207  00F8               	movwf	??___fldiv
  7517  0208  0878               	movf	??___fldiv,w
  7518  0209  04F7               	iorwf	___fldiv@b+3,f
  7519  020A  289D               	goto	l2246
  7520  020B                     l518:
  7521  020B  0008               	return
  7522  020C                     __end_of___fldiv:
  7523  007E                     btemp	set	126	;btemp
  7524  007E                     wtemp0	set	126
  7525                           
  7526                           	psect	config
  7527                           
  7528                           ;Config register CONFIG1 @ 0x2007
  7529                           ;	Oscillator Selection bits
  7530                           ;	FOSC = XT, XT oscillator: Crystal/resonator on RA6/OSC2/CLKOUT and RA7/OSC1/CLKIN
  7531                           ;	Watchdog Timer Enable bit
  7532                           ;	WDTE = OFF, WDT disabled and can be enabled by SWDTEN bit of the WDTCON register
  7533                           ;	Power-up Timer Enable bit
  7534                           ;	PWRTE = OFF, PWRT disabled
  7535                           ;	RE3/MCLR pin function select bit
  7536                           ;	MCLRE = OFF, RE3/MCLR pin function is digital input, MCLR internally tied to VDD
  7537                           ;	Code Protection bit
  7538                           ;	CP = OFF, Program memory code protection is disabled
  7539                           ;	Data Code Protection bit
  7540                           ;	CPD = OFF, Data memory code protection is disabled
  7541                           ;	Brown Out Reset Selection bits
  7542                           ;	BOREN = OFF, BOR disabled
  7543                           ;	Internal External Switchover bit
  7544                           ;	IESO = OFF, Internal/External Switchover mode is disabled
  7545                           ;	Fail-Safe Clock Monitor Enabled bit
  7546                           ;	FCMEN = OFF, Fail-Safe Clock Monitor is disabled
  7547                           ;	Low Voltage Programming Enable bit
  7548                           ;	LVP = OFF, RB3 pin has digital I/O, HV on MCLR must be used for programming
  7549                           ;	In-Circuit Debugger Mode bit
  7550                           ;	DEBUG = 0x1, unprogrammed default
  7551  2007                     	org	8199
  7552  2007  20D1               	dw	8401
  7553                           
  7554                           ;Config register CONFIG2 @ 0x2008
  7555                           ;	Brown-out Reset Selection bit
  7556                           ;	BOR4V = BOR40V, Brown-out Reset set to 4.0V
  7557                           ;	Flash Program Memory Self Write Enable bits
  7558                           ;	WRT = OFF, Write protection off
  7559  2008                     	org	8200
  7560  2008  3FFF               	dw	16383

Data Sizes:
    Strings     0
    Constant    76
    Data        0
    BSS         3
    Persistent  0
    Stack       0

Auto Spaces:
    Space          Size  Autos    Used
    COMMON           14     14      14
    BANK0            80     79      80
    BANK1            80     54      56
    BANK3            96      0       0
    BANK2            96      0       0

Pointer List with Targets:

    frexp@eptr	PTR int  size(1) Largest target is 2
		 -> log@exponent(BANK1[2]), floor@expon(BANK0[2]), 

    eval_poly@d	PTR const  size(1) Largest target is 40
		 -> log@coeff(CODE[36]), exp@coeff(CODE[40]), 


Critical Paths under _main in COMMON

    _jugador_1->___xxtofl
    _pow->___xxtofl
    _log->___xxtofl
    _exp->___xxtofl
    _floor->___xxtofl
    ___fleq->___xxtofl
    ___fltol->___xxtofl
    ___flmul->___xxtofl
    ___flsub->___xxtofl
    ___fladd->___xxtofl

Critical Paths under _main in BANK0

    _log->_eval_poly
    _exp->_ldexp
    _ldexp->_eval_poly
    _floor->___fladd
    _frexp->___fleq
    _eval_poly->___fladd
    ___flmul->_frexp
    ___flsub->___fladd
    ___fladd->___flmul

Critical Paths under _main in BANK1

    _main->_jugador_1
    _jugador_1->_pow
    _pow->_exp
    _log->_eval_poly
    _exp->_ldexp
    _exp->_log
    _ldexp->_eval_poly

Critical Paths under _main in BANK3

    None.

Critical Paths under _main in BANK2

    None.

Call Graph Tables:

 ---------------------------------------------------------------------------------
 (Depth) Function   	        Calls       Base Space   Used Autos Params    Refs
 ---------------------------------------------------------------------------------
 (0) _main                                                 0     0      0   57186
                          _jugador_1
                          _jugador_2
                           _semaforo
                              _setup
                              _verde
 ---------------------------------------------------------------------------------
 (1) _verde                                                0     0      0       0
 ---------------------------------------------------------------------------------
 (1) _setup                                                0     0      0       0
 ---------------------------------------------------------------------------------
 (1) _semaforo                                             3     3      0       0
                                              0 COMMON     3     3      0
 ---------------------------------------------------------------------------------
 (1) _jugador_2                                            2     2      0      30
                                              0 COMMON     2     2      0
 ---------------------------------------------------------------------------------
 (1) _jugador_1                                           10    10      0   57156
                                             44 BANK1     10    10      0
                            ___fltol
                           ___xxtofl
                                _pow
 ---------------------------------------------------------------------------------
 (2) _pow                                                 22    14      8   55807
                                             22 BANK1     22    14      8
                             ___fleq
                             ___flge
                            ___flmul
                            ___flneg
                            ___fltol
                           ___xxtofl
                                _exp
                                _log
 ---------------------------------------------------------------------------------
 (3) _log                                                  7     3      4   18120
                                             77 BANK0      1     1      0
                                              4 BANK1      6     2      4
                            ___fladd
                             ___fleq
                             ___flge
                            ___flmul
                           ___xxtofl
                          _eval_poly
                              _frexp
 ---------------------------------------------------------------------------------
 (3) _exp                                                 12     8      4   29661
                                             10 BANK1     12     8      4
                            ___fldiv
                             ___fleq
                             ___flge
                            ___flmul
                            ___flneg
                            ___flsub
                            ___fltol
                           ___xxtofl
                          _eval_poly
                              _floor
                              _ldexp
                                _log (ARG)
 ---------------------------------------------------------------------------------
 (4) _ldexp                                                8     2      6    3256
                                             77 BANK0      2     2      0
                                              4 BANK1      6     0      6
                             ___fleq
                             ___flge
                          _eval_poly (ARG)
 ---------------------------------------------------------------------------------
 (4) _floor                                               11     7      4    7690
                                             65 BANK0     11     7      4
                            ___fladd
                             ___flge
                            ___fltol
                           ___xxtofl
                              _frexp
 ---------------------------------------------------------------------------------
 (4) _frexp                                                7     2      5    1834
                                             12 BANK0      7     2      5
                             ___fleq
 ---------------------------------------------------------------------------------
 (5) ___fleq                                              12     4      8    1306
                                              0 BANK0     12     4      8
                           ___xxtofl (ARG)
 ---------------------------------------------------------------------------------
 (4) ___xxtofl                                            14    10      4     702
                                              0 COMMON    14    10      4
 ---------------------------------------------------------------------------------
 (5) ___fltol                                             11     7      4     533
                                              0 BANK0     11     7      4
                           ___xxtofl (ARG)
 ---------------------------------------------------------------------------------
 (4) ___flge                                              12     4      8    1550
                                              0 COMMON    12     4      8
 ---------------------------------------------------------------------------------
 (4) _eval_poly                                           16     9      7    6529
                                             65 BANK0     12     5      7
                                              0 BANK1      4     4      0
                            ___fladd
                            ___flmul
 ---------------------------------------------------------------------------------
 (5) ___flmul                                             26    18      8    3151
                                             19 BANK0     26    18      8
                          __Umul8_16
                           ___xxtofl (ARG)
                              _frexp (ARG)
 ---------------------------------------------------------------------------------
 (6) __Umul8_16                                            9     7      2     799
                                              0 COMMON     9     7      2
 ---------------------------------------------------------------------------------
 (4) ___flsub                                              8     0      8    2941
                                             65 BANK0      8     0      8
                            ___fladd
                           ___xxtofl (ARG)
 ---------------------------------------------------------------------------------
 (5) ___fladd                                             20    12      8    2744
                                             45 BANK0     20    12      8
                            ___flmul (ARG)
                           ___xxtofl (ARG)
                              _frexp (ARG)
 ---------------------------------------------------------------------------------
 (4) ___flneg                                              4     0      4     273
                                              0 COMMON     4     0      4
 ---------------------------------------------------------------------------------
 (4) ___fldiv                                             26    18      8    1273
                                              0 COMMON    13     5      8
                                              0 BANK0     13    13      0
 ---------------------------------------------------------------------------------
 Estimated maximum stack depth 6
 ---------------------------------------------------------------------------------

 Call Graph Graphs:

 _main (ROOT)
   _jugador_1
     ___fltol
       ___xxtofl (ARG)
     ___xxtofl
     _pow
       ___fleq
         ___xxtofl (ARG)
       ___flge
       ___flmul
         __Umul8_16
         ___xxtofl (ARG)
         _frexp (ARG)
           ___fleq
             ___xxtofl (ARG)
       ___flneg
       ___fltol
         ___xxtofl (ARG)
       ___xxtofl
       _exp
         ___fldiv
         ___fleq
           ___xxtofl (ARG)
         ___flge
         ___flmul
           __Umul8_16
           ___xxtofl (ARG)
           _frexp (ARG)
             ___fleq
               ___xxtofl (ARG)
         ___flneg
         ___flsub
           ___fladd
             ___flmul (ARG)
               __Umul8_16
               ___xxtofl (ARG)
               _frexp (ARG)
                 ___fleq
                   ___xxtofl (ARG)
             ___xxtofl (ARG)
             _frexp (ARG)
               ___fleq
                 ___xxtofl (ARG)
           ___xxtofl (ARG)
         ___fltol
           ___xxtofl (ARG)
         ___xxtofl
         _eval_poly
           ___fladd
             ___flmul (ARG)
               __Umul8_16
               ___xxtofl (ARG)
               _frexp (ARG)
                 ___fleq
                   ___xxtofl (ARG)
             ___xxtofl (ARG)
             _frexp (ARG)
               ___fleq
                 ___xxtofl (ARG)
           ___flmul
             __Umul8_16
             ___xxtofl (ARG)
             _frexp (ARG)
               ___fleq
                 ___xxtofl (ARG)
         _floor
           ___fladd
             ___flmul (ARG)
               __Umul8_16
               ___xxtofl (ARG)
               _frexp (ARG)
                 ___fleq
                   ___xxtofl (ARG)
             ___xxtofl (ARG)
             _frexp (ARG)
               ___fleq
                 ___xxtofl (ARG)
           ___flge
           ___fltol
             ___xxtofl (ARG)
           ___xxtofl
           _frexp
             ___fleq
               ___xxtofl (ARG)
         _ldexp
           ___fleq
             ___xxtofl (ARG)
           ___flge
           _eval_poly (ARG)
             ___fladd
               ___flmul (ARG)
                 __Umul8_16
                 ___xxtofl (ARG)
                 _frexp (ARG)
                   ___fleq
                     ___xxtofl (ARG)
               ___xxtofl (ARG)
               _frexp (ARG)
                 ___fleq
                   ___xxtofl (ARG)
             ___flmul
               __Umul8_16
               ___xxtofl (ARG)
               _frexp (ARG)
                 ___fleq
                   ___xxtofl (ARG)
         _log (ARG)
           ___fladd
             ___flmul (ARG)
               __Umul8_16
               ___xxtofl (ARG)
               _frexp (ARG)
                 ___fleq
                   ___xxtofl (ARG)
             ___xxtofl (ARG)
             _frexp (ARG)
               ___fleq
                 ___xxtofl (ARG)
           ___fleq
             ___xxtofl (ARG)
           ___flge
           ___flmul
             __Umul8_16
             ___xxtofl (ARG)
             _frexp (ARG)
               ___fleq
                 ___xxtofl (ARG)
           ___xxtofl
           _eval_poly
             ___fladd
               ___flmul (ARG)
                 __Umul8_16
                 ___xxtofl (ARG)
                 _frexp (ARG)
                   ___fleq
                     ___xxtofl (ARG)
               ___xxtofl (ARG)
               _frexp (ARG)
                 ___fleq
                   ___xxtofl (ARG)
             ___flmul
               __Umul8_16
               ___xxtofl (ARG)
               _frexp (ARG)
                 ___fleq
                   ___xxtofl (ARG)
           _frexp
             ___fleq
               ___xxtofl (ARG)
       _log
         ___fladd
           ___flmul (ARG)
             __Umul8_16
             ___xxtofl (ARG)
             _frexp (ARG)
               ___fleq
                 ___xxtofl (ARG)
           ___xxtofl (ARG)
           _frexp (ARG)
             ___fleq
               ___xxtofl (ARG)
         ___fleq
           ___xxtofl (ARG)
         ___flge
         ___flmul
           __Umul8_16
           ___xxtofl (ARG)
           _frexp (ARG)
             ___fleq
               ___xxtofl (ARG)
         ___xxtofl
         _eval_poly
           ___fladd
             ___flmul (ARG)
               __Umul8_16
               ___xxtofl (ARG)
               _frexp (ARG)
                 ___fleq
                   ___xxtofl (ARG)
             ___xxtofl (ARG)
             _frexp (ARG)
               ___fleq
                 ___xxtofl (ARG)
           ___flmul
             __Umul8_16
             ___xxtofl (ARG)
             _frexp (ARG)
               ___fleq
                 ___xxtofl (ARG)
         _frexp
           ___fleq
             ___xxtofl (ARG)
   _jugador_2
   _semaforo
   _setup
   _verde

 Address spaces:
Name               Size   Autos  Total    Cost      Usage
BITCOMMON            E      0       0       0        0.0%
EEDATA             100      0       0       0        0.0%
NULL                 0      0       0       0        0.0%
CODE                 0      0       0       0        0.0%
COMMON               E      E       E       1      100.0%
BITSFR0              0      0       0       1        0.0%
SFR0                 0      0       0       1        0.0%
BITSFR1              0      0       0       2        0.0%
SFR1                 0      0       0       2        0.0%
STACK                0      0       0       2        0.0%
ABS                  0      0      96       3        0.0%
BITBANK0            50      0       0       4        0.0%
BITSFR3              0      0       0       4        0.0%
SFR3                 0      0       0       4        0.0%
BANK0               50     4F      50       5      100.0%
BITSFR2              0      0       0       5        0.0%
SFR2                 0      0       0       5        0.0%
BITBANK1            50      0       0       6        0.0%
BANK1               50     36      38       7       70.0%
BITBANK3            60      0       0       8        0.0%
BANK3               60      0       0       9        0.0%
BITBANK2            60      0       0      10        0.0%
BANK2               60      0       0      11        0.0%
DATA                 0      0      96      12        0.0%


Microchip Technology PIC Macro Assembler V2.31 build 20201012212115 
Symbol Table                                                                                   Thu Jan 28 00:56:11 2021

           ___fldiv@aexp 002C             ___fldiv@bexp 002B                        pc 0002  
           ___fldiv@sign 0024                       l62 1440                       l47 0028  
                     l73 1686                       l81 14B3                       l65 1412  
                     l68 1609                       l76 148F                       fsr 0004  
    __Umul8_16@word_mpld 0076                      l341 081C                      l502 0487  
                    l503 0493                      l344 0888                      l360 15F0  
                    l600 16A9                      l336 14FC                      l345 08A1  
                    l353 1605                      l337 1518                      l506 1464  
                    l602 1740                      l338 152D                      l363 1605  
                    l540 01FF                      l532 017D                      l516 0085  
                    l460 026F                      l349 141D                      l613 170A  
                    l518 020B                      l614 1716                      l606 16EE  
                    l630 0DA6                      l464 0316                      l481 03E1  
                    l473 0493                      l625 0C19                      l538 01EF  
                    l466 02ED                      l562 0760                      l650 0FFF  
                    l626 0DA6                      l491 0427                      l556 07F4  
                    l485 0405                      l494 0465                      l646 0FFF  
                    l575 1479                      l568 07E8                      l672 1589  
                    l664 17FF                      l577 148B                      l657 097D  
                    l676 0A5B                      l694 0BCD                      _exp 0DA7  
                    _log 0A5C                      _pow 0BCE                      fsr0 0004  
                    indf 0000             ___flmul@aexp 0045             ___flmul@bexp 0046  
           ___flmul@sign 0040             ___flmul@temp 004B             ___flmul@prod 0047  
           ___fltol@exp1 002A                     l2000 04BA                     l2010 04D2  
                   l2002 04C2                     l2100 0795                     l2020 04EE  
                   l2012 04D7                     l2004 04C7                     l2110 07CC  
                   l2102 079B                     l2030 0511                     l2022 04F3  
                   l2014 04DC                     l2006 04CD                     l2120 07EC  
                   l2112 07CE                     l2104 07A8                     l2040 059F  
                   l2032 051E                     l2024 04F8                     l2016 04E4  
                   l2008 04D1                     l2210 003B                     l2202 0029  
                   l2114 07DC                     l2106 07B3                     l2050 0601  
                   l2042 05BB                     l2034 053B                     l2018 04E6  
                   l2130 16A1                     l2300 015D                     l2212 0040  
                   l2220 0050                     l2204 0030                     l2116 07E0  
                   l2108 07C2                     l2060 0691                     l2052 061E  
                   l2044 05C4                     l2036 0557                     l2028 0501  
                   l2140 16CC                     l2132 16B1                     l2124 1688  
                   l2302 0161                     l2230 0068                     l2222 0058  
                   l2214 0045                     l2206 0036                     l2118 07E1  
                   l2070 0723                     l2062 06BE                     l2054 0637  
                   l2046 05D4                     l2038 0583                     l2150 1700  
                   l2142 16D3                     l2126 168D                     l2320 01B2  
                   l2312 0182                     l2304 0162                     l2232 006D  
                   l2240 007D                     l2224 005D                     l2216 004D  
                   l2208 003A                     l2072 072C                     l2080 0740  
                   l2064 06E4                     l2056 0654                     l2048 05F1  
                   l2160 1733                     l2152 1704                     l2144 16D7  
                   l2136 16BA                     l2128 1691                     l2400 09FA  
                   l2330 01E6                     l2314 0187                     l2322 01B8  
                   l2306 0166                     l2242 008D                     l2250 00A6  
                   l2234 0072                     l2226 0063                     l2218 004E  
                   l2082 0744                     l2074 0730                     l2066 070C  
                   l2058 0681                     l2162 1737                     l2154 170E  
                   l2146 16E5                     l2138 16BF                     l2170 1549  
                   l2410 0A24                     l2402 0A00                     l2332 01EE  
                   l2324 01C5                     l2316 0195                     l2308 017A  
                   l2260 00CE                     l2252 00AB                     l2244 0099  
                   l2236 007A                     l2228 0067                     l2092 0765  
                   l2084 0745                     l2076 0731                     l2068 0715  
                   l2164 1738                     l2156 1718                     l2148 16F5  
                   l2180 1584                     l2172 1551                     l2404 0A19  
                   l2420 0A5C                     l2500 0C4D                     l1620 0016  
                   l2334 01F5                     l2326 01D3                     l2318 0199  
                   l2270 00F7                     l2262 00D6                     l2246 009D  
                   l2238 007B                     l2190 141B                     l2094 076A  
                   l2086 0749                     l2078 073A                     l2158 172E  
                   l1710 14F4                     l2182 1588                     l2350 1773  
                   l2414 0A2F                     l2422 0A77                     l1630 0025  
                   l1622 0019                     l1614 0005                     l2336 01F9  
                   l2328 01E2                     l2280 0118                     l2272 00FB  
                   l2264 00DE                     l2256 00B4                     l2192 141D  
                   l1800 0223                     l1720 1466                     l2096 0778  
                   l2088 075D                     l1712 1510                     l2184 1589  
                   l2176 155A                     l2168 152E                     l2360 1792  
                   l2344 1741                     l2416 0A5B                     l2432 0ABE  
                   l2520 0D72                     l2512 0CF0                     l2504 0C58  
                   l1640 143D                     l1632 141E                     l1624 001C  
                   l1616 000F                     l2338 01FB                     l2290 0140  
                   l2282 012C                     l2274 00FC                     l2266 00E0  
                   l2258 00C6                     l1810 023B                     l1802 0228  
                   l1730 1487                     l1722 1468                     l2098 077C  
                   l1714 152A                     l2178 1577                     l2362 1793  
                   l2354 177E                     l2346 1754                     l2450 0DF6  
                   l2442 0DA7                     l2434 0B27                     l2426 0A86  
                   l2522 0D89                     l2514 0CF7                     l2506 0C73  
                   l2530 160D                     l1634 1421                     l1626 001F  
                   l1618 0013                     l2292 0149                     l2268 00E5  
                   l2276 0105                     l2284 0130                     l2188 1413  
                   l1900 0347                     l1820 0251                     l1812 0240  
                   l1804 0230                     l2196 1441                     l1724 146F  
                   l2372 08A2                     l1740 0838                     l1716 152C  
                   l1708 14DE                     l2364 17D3                     l2348 175A  
                   l2460 0E2F                     l2444 0DD0                     l2436 0B2D  
                   l2428 0AAF                     l2524 0D8E                     l2508 0CE1  
                   l2516 0D0E                     l2540 164B                     l1636 142D  
                   l1628 0022                     l1644 140D                     l2294 014D  
                   l2286 0136                     l2278 0117                     l1910 0360  
                   l1902 0350                     l1830 0265                     l1822 0252  
                   l1814 0246                     l1806 0231                     l2198 1445  
                   l1726 1473                     l2374 08DF                     l1750 08A0  
                   l1742 083C                     l1734 0800                     l2358 1789  
                   l2390 09DC                     l2382 097E                     l2470 0EDF  
                   l2462 0E51                     l2454 0E05                     l2438 0B68  
                   l2518 0D27                     l2542 166A                     l1670 1493  
                   l1638 1430                     l2550 14B4                     l2296 014E  
                   l2288 013E                     l1920 03C4                     l1904 0352  
                   l1912 0365                     l1840 0281                     l1824 0257  
                   l1832 0267                     l1816 0247                     l1808 0233  
                   l1728 1482                     l2376 095D                     l1744 0860  
                   l1736 0814                     l1760 15A0                     l2368 17F5  
                   l2392 09E0                     l2384 09A7                     l2480 0FD2  
                   l2472 0F06                     l2464 0E56                     l2456 0E20  
                   l2448 0DDB                     l2544 1670                     l2536 1611  
                   l2528 1606                     l1680 14A0                     l2560 14CD  
                   l2552 14B9                     l2298 0157                     l1930 03F7  
                   l1914 037B                     l1922 03D3                     l1906 0356  
                   l1850 0295                     l1842 0285                     l1834 0275  
                   l1826 025C                     l1818 024D                     l2378 0965  
                   l1746 0864                     l1738 0830                     l1770 15C4  
                   l1762 15B5                     l1754 158A                     l2474 0F54  
                   l2466 0E6D                     l2490 0BD1                     l2546 1671  
                   l2538 162C                     l1682 14A6                     l2562 14D0  
                   l2554 14BF                     l1940 040E                     l1932 0400  
                   l1924 03E9                     l1916 03B9                     l1908 0357  
                   l1860 02A9                     l1852 0299                     l1844 0289  
                   l1836 0279                     l1828 0264                     l1748 089E  
                   l1764 15B6                     l1756 1597                     l2388 09B2  
                   l2484 0FDD                     l2476 0FA6                     l2468 0EAC  
                   l2492 0BF8                     l2548 1679                     l1676 1495  
                   l1668 148C                     l2564 14D5                     l2556 14C3  
                   l1950 041E                     l1942 0413                     l1934 0404  
                   l1926 03EE                     l1918 03BF                     l1870 02BA  
                   l1862 02AD                     l1854 029D                     l1846 028D  
                   l1838 027D                     l1790 020C                     l1766 15BE  
                   l2398 09ED                     l2478 0FAB                     l2494 0C13  
                   l1678 149F                     l2558 14C8                     l1960 043F  
                   l1952 0424                     l1936 0409                     l1944 0415  
                   l1880 0300                     l1872 02D1                     l1864 02B1  
                   l1856 02A1                     l1848 0291                     l1792 0213  
                   l1784 15E5                     l1776 15CC                     l1768 15C0  
                   l2488 0BCE                     l1970 0477                     l1962 0443  
                   l1938 040C                     l1946 0419                     l1890 031F  
                   l1882 0301                     l1874 02F1                     l1866 02B5  
                   l1858 02A5                     l1794 0219                     l1786 15F5  
                   l1778 15DE                     l2498 0C24                     l1980 048E  
                   l1972 047C                     l1964 0461                     l1956 042C  
                   l1948 041A                     l1884 030A                     l1876 02FA  
                   l1868 02B9                     l1796 021D                     l1788 15FA  
                   l1982 0492                     l1974 047D                     l1966 046A  
                   l1958 0431                     l1894 0328                     l1878 02FC  
                   l1886 030E                     l1798 021E                     l1990 04A5  
                   l1976 0481                     l1968 046F                     l1896 033F  
                   l1888 031A                     l1992 04A6                     l1984 0494  
                   l1978 0483                     l1898 0343                     l1994 04AB  
                   l1986 049B                     l1996 04B0                     l1988 04A1  
                   l1998 04B8                     ?_exp 00AA                     ?_log 00A4  
                   ?_pow 00B6                     u2000 089E                     u2001 089D  
                   u2010 1597                     u2011 1596                     u2100 15FA  
                   u2020 15AE                     u2005 089A                     u2101 15F9  
                   u2110 021D                     u2030 15C4                     u2111 021C  
                   u2031 15C3                     u2200 02D1                     u2120 0223  
                   u2040 15CB                     u3000 16F4                     u2201 02D0  
                   u2121 0222                     u2041 15CA                     u2025 15A9  
                   u3001 16F3                     u2210 02DC                     u2130 0228  
                   u2211 02DA                     u2131 0227                     u3100 003A  
                   u2300 0343                     u2220 02DD                     u2140 0246  
                   u2060 15DD                     u3020 1704                     u3101 0039  
                   u2301 0342                     u2205 02CD                     u2141 0245  
                   u2061 15DC                     u3021 1703                     u3110 0040  
                   u2310 0347                     u2230 02F1                     u2150 0251  
                   u2070 15E4                     u3030 170A                     u3111 003F  
                   u2311 0346                     u2231 02F0                     u2151 0250  
                   u2071 15E3                     u2055 15CD                     u3031 1709  
                   u3015 16F9                     u3120 0045                     u2320 0356  
                   u2240 0300                     u2160 0257                     u3040 170E  
                   u3121 0044                     u2321 0355                     u2241 02FF  
                   u2161 0256                     u3041 170D                     u3210 00FB  
                   u3130 0067                     u2410 0404                     u2170 025C  
                   u2090 15F5                     u3050 1723                     u3211 00FA  
                   u3131 0066                     u2411 0403                     u2171 025B  
                   u2091 15F4                     u3300 0161                     u3140 006D  
                   u2500 0452                     u2420 0409                     u2340 037B  
                   u2260 0316                     u2180 0275                     u3060 1733  
                   u3301 0160                     u3205 00F0                     u3141 006C  
                   u2421 0408                     u2405 03F9                     u2341 037A  
                   u2261 0315                     u2181 0274                     u2085 15E7  
                   u3061 1732                     u3310 0166                     u3230 0117  
                   u3150 0072                     u2510 0461                     u2430 0413  
                   u2270 031A                     u2190 0279                     u3070 1737  
                   u3311 0165                     u3231 0116                     u3151 0071  
                   u2511 0460                     u2431 0412                     u2351 0392  
                   u2343 0377                     u2335 0359                     u2271 0319  
                   u2255 0303                     u2191 0278                     u3071 1736  
                   u3055 171E                     u3320 017A                     u3240 012C  
                   u3160 008D                     u2520 046A                     u2440 0419  
                   u2360 03A6                     u2352 0393                     u2280 031F  
                   u2600 04D1                     u3080 1549                     u3400 175A  
                   u3321 0179                     u3225 00FE                     u3161 008C  
                   u2521 0469                     u2505 044D                     u2441 0418  
                   u2361 03A7                     u2353 0398                     u2281 031E  
                   u2601 04D0                     u3081 1548                     u3401 1759  
                   u3330 0181                     u3250 0136                     u3170 00AB  
                   u3090 141B                     u2530 046F                     u2450 041E  
                   u2370 03C4                     u2362 03AC                     u2354 0399  
                   u2610 04D7                     u3410 1773                     u3331 0180  
                   u3251 0135                     u3235 0113                     u3171 00AA  
                   u3091 141A                     u2531 046E                     u2451 041D  
                   u2371 03C3                     u2363 03AD                     u2355 039E  
                   u2291 0331                     u2611 04D6                     u3411 1772  
                   u3340 0187                     u3260 013E                     u3180 00E5  
                   u2540 047C                     u2460 0424                     u2380 03E9  
                   u2356 039F                     u2292 0338                     u2620 04DC  
                   u1900 152A                     u3420 1792                     u3500 0A19  
                   u3341 0186                     u3261 013D                     u3245 011F  
                   u3181 00E4                     u2541 047B                     u2461 0423  
                   u2381 03E8                     u2293 033F                     u2701 05E3  
                   u2621 04DB                     u1901 1529                     u3421 1791  
                   u3501 0A18                     u3350 0199                     u3246 0120  
                   u2550 0481                     u2470 042B                     u2390 03EE  
                   u1910 1473                     u2702 05EA                     u2630 04F3  
                   u3430 17D3                     u3510 0A77                     u1830 1493  
                   u3351 0198                     u3247 0125                     u2551 0480  
                   u2471 042A                     u2391 03ED                     u1911 1472  
                   u2711 0610                     u2703 05F1                     u2631 04F2  
                   u3431 17D2                     u3511 0A76                     u1831 1492  
                   u3360 01A8                     u3280 014D                     u3248 0126  
                   u2560 0492                     u2480 0431                     u2712 0617  
                   u2640 04F8                     u3600 0FD2                     u3520 0AAF  
                   u1840 149F                     u3281 014C                     u3249 012B  
                   u2561 0491                     u2481 0430                     u2713 061E  
                   u2641 04F7                     u1905 1526                     u3601 0FD1  
                   u3521 0AAE                     u1841 149E                     u3370 01C5  
                   u2490 0443                     u1930 1487                     u2570 04A5  
                   u3530 0DD0                     u3610 0BF8                     u1850 14B3  
                   u3371 01C4                     u3275 0142                     u3195 00E7  
                   u2491 0442                     u1931 1486                     u2731 0646  
                   u2651 0549                     u2571 04A4                     u3531 0DCF  
                   u3611 0BF7                     u1851 14B2                     u3380 01E2  
                   u2900 078B                     u2820 0730                     u2732 064D  
                   u2652 0550                     u2580 04AB                     u3460 0965  
                   u1940 0814                     u3540 0DF6                     u3620 0C13  
                   u3700 14BF                     u3381 01E1                     u3365 01A3  
                   u1925 147A                     u2821 072F                     u2805 070E  
                   u2741 0673                     u2733 0654                     u2725 0620  
                   u2661 0565                     u2653 0557                     u2581 04AA  
                   u3461 0964                     u3445 08A7                     u1941 0813  
                   u3541 0DF5                     u3621 0C12                     u3701 14BE  
                   u3390 01F9                     u2910 07A8                     u2742 067A  
                   u2662 056C                     u2590 04B0                     u1950 0830  
                   u3470 09A7                     u3550 0E20                     u3630 0C4D  
                   u3710 14C3                     u3391 01F8                     u3375 01C1  
                   u3295 0150                     u2911 07A7                     u2815 0725  
                   u2751 06A0                     u2743 0681                     u2671 0591  
                   u2663 0573                     u2591 04AF                     u3455 08E8  
                   u1951 082F                     u3471 09A6                     u3551 0E1F  
                   u3631 0C4C                     u1855 14AF                     u3711 14C2  
                   u2920 07C2                     u2840 0744                     u2760 06CA  
                   u2752 06A7                     u2672 0598                     u1960 083C  
                   u1880 14F4                     u3480 09E0                     u3560 0E4B  
                   u3640 0C73                     u3385 01DE                     u2921 07C1  
                   u2905 0786                     u2841 0743                     u2753 06AE  
                   u2681 05AD                     u2673 059F                     u1961 083B  
                   u1881 14F3                     u3481 09DF                     u3561 0E49  
                   u3641 0C72                     u2930 07E0                     u2850 0749  
                   u2682 05B4                     u1890 1510                     u3490 09FA  
                   u3570 0E4C                     u3650 0CE1                     u2931 07DF  
                   u2915 07A4                     u2851 0748                     u2835 0733  
                   u2771 06D6                     u2683 05BB                     u1971 084B  
                   u1891 150F                     u3491 09F9                     u3651 0CE0  
                   u2860 075D                     u2780 06F2                     u2772 06DD  
                   u1980 0864                     u1972 084C                     u2940 168D  
                   u3580 0E56                     u3660 0D8E                     u2925 07BE  
                   u2861 075C                     u2773 06E4                     u2765 06C5  
                   u1981 0863                     u1973 0851                     u2941 168C  
                   u3581 0E55                     u3661 0D8D                     u2870 0764  
                   u1974 0852                     u2950 1691                     u3590 0FAB  
                   u3670 160D                     u2871 0763                     u2791 06FE  
                   u2695 05BD                     u1991 0873                     u1975 0857  
                   u2951 1690                     u3495 09F6                     u3591 0FAA  
                   u3671 160C                     u3727 1427                     u2880 076A  
                   u2792 0705                     u1992 0874                     u1976 0858  
                   u2960 16B1                     u3680 1670                     u2881 0769  
                   u2793 070C                     u2785 06ED                     u1993 0879  
                   u2961 16B0                     u3681 166F                     u3737 1437  
                   u2890 077C                     u1994 087A                     u3690 1686  
                   u2891 077B                     u1995 087F                     u3691 1685  
                   u1996 0880                     u2980 16D2                     u2981 16D1  
                   u2975 16C4                     u3695 1682                     u2995 16E6  
                   _main 14B4                     btemp 007E                     exp@x 00AA  
                   log@x 00A4                     pow@x 00B6                     pow@y 00BA  
                   start 0000          ___fldiv@new_exp 0025                    ??_exp 00AE  
                  ??_log 006D                    ??_pow 00BE            ___fltol@sign1 0029  
        __end_of___fladd 0494                    ?_main 0070          __end_of___fldiv 020C  
        __end_of___flneg 141E          __end_of___flmul 07F5          __end_of___flsub 1465  
        __end_of___fltol 1606                    _ANSEL 0188                    _PORTA 0005  
                  _PORTB 0006                    _PORTC 0007                    _PORTD 0008  
                  _PORTE 0009                    _TRISA 0085                    _TRISB 0086  
                  _TRISC 0087                    _TRISD 0088                    _TRISE 0089  
                  _floor 1741                    _ldexp 097E                    _frexp 152E  
                  _errno 00D6                    _verde 140D                    _setup 0005  
                  pclath 000A                    pow@yi 00C8                    status 0003  
                  wtemp0 007E              exp@exponent 00B3              ldexp@newexp 00A8  
        __initialization 07F5              log@exponent 00A8             __end_of_main 14DE  
                 ??_main 007E                   ?_floor 0061                   ?_ldexp 00A4  
                 ?_frexp 002C                   ?_verde 0070                   ?_setup 0070  
                 _ANSELH 0189         __end_of___xxtofl 1741                   ___flge 0800  
                 ___fleq 14DE                ??___fladd 0055                ??___fldiv 0078  
              ??___flneg 0074                ??___flmul 003B                ??___flsub 007E  
              ??___fltol 0024                   floor@i 0066                   floor@x 0061  
       __end_of_semaforo 1441       __size_of__Umul8_16 0027               ___flge@ff1 0070  
             ___flge@ff2 0074             ___xxtofl@arg 007A         __end_ofexp@coeff 102E  
           ___xxtofl@exp 0079             ___xxtofl@val 0070               ___fleq@ff1 0020  
             ___fleq@ff2 0024         __end_oflog@coeff 1052  __end_of__initialization 07FC  
             ___flneg@f1 0070             eval_poly@res 00A0               ___fltol@f1 0020  
         __pcstackCOMMON 0070            __end_of_floor 1800            __end_of_ldexp 0A5C  
          __end_of_frexp 158A            __end_of_verde 1413            __end_of_setup 0029  
                ??_floor 0065                  ??_ldexp 006D                  ??_frexp 0031  
                ??_verde 0070                  ??_setup 0070               __pbssBANK0 006F  
             __pbssBANK1 00D6       __size_of_eval_poly 00DC        __end_of__Umul8_16 148C  
     __size_of_jugador_1 0081       __size_of_jugador_2 0028               __pmaintext 14B4  
                ?___flge 0070                  ?___fleq 0020                ?___xxtofl 0070  
             __stringtab 1000                ?_semaforo 0070          __size_of___flge 00A2  
        __size_of___fleq 0050                  ___fladd 020C                  ___fldiv 0029  
                ___flneg 1413                  ___flmul 0494                  ___flsub 1441  
                ___fltol 158A                  _exp$852 00AF        __end_of_eval_poly 097E  
                __ptext1 140D                  __ptext2 0005                  __ptext3 141E  
                __ptext4 148C                  __ptext5 1606                  __ptext6 0BCE  
                __ptext7 0A5C                  __ptext8 0DA7                  __ptext9 097E  
                _pow$850 00BF                  _pow$851 00C3            _jugador_1$848 00CC  
          _jugador_1$849 00D0                  _counter 006F             __size_of_exp 0259  
           __size_of_log 0172             __size_of_pow 01D9               ??___xxtofl 0074  
      __end_of_jugador_1 1687        __end_of_jugador_2 14B4     end_of_initialization 07FC  
                exp@sign 00B5               ??_semaforo 0070                  pow@sign 00C7  
              _PORTAbits 0005                _PORTBbits 0006                _PORTEbits 0009  
            ___fladd@grs 0060            ___xxtofl@sign 0078              ___fldiv@grs 0027  
            ___fldiv@rem 0020              ___flmul@grs 0041           __end_of___flge 08A2  
         __end_of___fleq 152E               floor@expon 006A      start_initialization 07F5  
             eval_poly@d 0065               eval_poly@n 0066               eval_poly@x 0061  
             ldexp@value 00A4              __end_of_exp 1000              __end_of_log 0BCE  
            __end_of_pow 0DA7               frexp@value 002C                 ??___flge 0078  
               ??___fleq 0028                __Umul8_16 1465                ___fladd@a 0051  
              ___fladd@b 004D                ___fldiv@a 0070                ___fldiv@b 0074  
              ___flmul@a 0037                ___flmul@b 0033                ___flsub@a 0061  
              ___flsub@b 0065                ___latbits 0002            __pcstackBANK0 0020  
          __pcstackBANK1 00A0        __size_of___xxtofl 00BA               jugador_1@i 00D4  
             jugador_2@i 0070                 ?___fladd 004D        __size_of_semaforo 0023  
               ?___fldiv 0070                 ?___flneg 0070                 ?___flmul 0033  
               ?___flsub 0061                 ?___fltol 0020               ?__Umul8_16 0070  
              __pstrings 1000                _eval_poly 08A2           __size_of_floor 00BF  
         __size_of_ldexp 00DE           __size_of_frexp 005C           __size_of_verde 0006  
         __size_of_setup 0024                _jugador_1 1606                _jugador_2 148C  
            __stringbase 1005               ?_eval_poly 0061               ?_jugador_1 0070  
             ?_jugador_2 0070                frexp@eptr 0030              ??__Umul8_16 0072  
       __size_of___fladd 0288         __size_of___fldiv 01E3         __size_of___flneg 000B  
       __size_of___flmul 0361         __size_of___flsub 0024         __size_of___fltol 007C  
     __end_of__stringtab 1006                 ___xxtofl 1687                 __ptext10 1741  
               __ptext11 152E                 __ptext20 020C                 __ptext12 14DE  
               __ptext21 1413                 __ptext13 1687                 __ptext22 0029  
               __ptext14 158A                 __ptext15 0800                 __ptext16 08A2  
               __ptext17 0494                 __ptext18 1465                 __ptext19 1441  
          __size_of_main 002A                 _semaforo 141E                 exp@coeff 1006  
               log@coeff 102E              ??_eval_poly 0068              ??_jugador_1 007E  
            ??_jugador_2 0070                stringcode 1000   __Umul8_16@multiplicand 0070  
               stringdir 1000                 stringtab 1000            ___fladd@signs 005D  
           ___fladd@aexp 005E             ___fladd@bexp 005F     __Umul8_16@multiplier 0078  
      __Umul8_16@product 0074  
