

Microchip MPLAB XC8 Assembler V2.31 build 20201012212115 
                                                                                               Fri Feb 05 22:29:50 2021

Microchip MPLAB XC8 C Compiler v2.31 (Free license) build 20201012212115 Og1 
     1                           	processor	16F887
     2                           	pagewidth 120
     3                           	opt	flic
     4                           	psect	cinit,global,class=CODE,merge=1,delta=2
     5                           	psect	bssCOMMON,global,class=COMMON,space=1,delta=1,noexec
     6                           	psect	bssBANK0,global,class=BANK0,space=1,delta=1,noexec
     7                           	psect	clrtext,global,class=CODE,delta=2
     8                           	psect	cstackCOMMON,global,class=COMMON,space=1,delta=1,noexec
     9                           	psect	cstackBANK0,global,class=BANK0,space=1,delta=1,noexec
    10                           	psect	maintext,global,class=CODE,split=1,delta=2
    11                           	psect	text1,local,class=CODE,merge=1,delta=2
    12                           	psect	text2,local,class=CODE,merge=1,delta=2
    13                           	psect	text3,local,class=CODE,merge=1,delta=2
    14                           	psect	text4,local,class=CODE,merge=1,delta=2
    15                           	psect	text5,local,class=CODE,merge=1,delta=2
    16                           	psect	text6,local,class=CODE,merge=1,delta=2
    17                           	psect	text7,local,class=CODE,merge=1,delta=2
    18                           	psect	text8,local,class=CODE,merge=1,delta=2
    19                           	psect	intentry,global,class=CODE,delta=2
    20                           	psect	text9,local,class=CODE,merge=1,delta=2
    21                           	psect	text10,local,class=CODE,merge=1,delta=2
    22                           	psect	text11,local,class=CODE,merge=1,delta=2
    23                           	psect	text12,local,class=CODE,merge=1,delta=2
    24                           	psect	text13,local,class=CODE,merge=1,delta=2,group=1
    25                           	psect	text14,local,class=CODE,merge=1,delta=2
    26                           	psect	text15,local,class=CODE,merge=1,delta=2
    27                           	psect	config,global,abs,ovrld,class=CONFIG,space=4,delta=2,noexec
    28                           	dabs	1,0x7E,2
    29  0000                     
    30                           ; Version 2.20
    31                           ; Generated 12/02/2020 GMT
    32                           ; 
    33                           ; Copyright © 2020, Microchip Technology Inc. and its subsidiaries ("Microchip")
    34                           ; All rights reserved.
    35                           ; 
    36                           ; This software is developed by Microchip Technology Inc. and its subsidiaries ("Microch
      +                          ip").
    37                           ; 
    38                           ; Redistribution and use in source and binary forms, with or without modification, are
    39                           ; permitted provided that the following conditions are met:
    40                           ; 
    41                           ;     1. Redistributions of source code must retain the above copyright notice, this lis
      +                          t of
    42                           ;        conditions and the following disclaimer.
    43                           ; 
    44                           ;     2. Redistributions in binary form must reproduce the above copyright notice, this 
      +                          list
    45                           ;        of conditions and the following disclaimer in the documentation and/or other
    46                           ;        materials provided with the distribution.
    47                           ; 
    48                           ;     3. Microchip's name may not be used to endorse or promote products derived from th
      +                          is
    49                           ;        software without specific prior written permission.
    50                           ; 
    51                           ; THIS SOFTWARE IS PROVIDED BY MICROCHIP "AS IS" AND ANY EXPRESS OR IMPLIED WARRANTIES,
    52                           ; INCLUDING, BUT NOT LIMITED TO, THE IMPLIED WARRANTIES OF MERCHANTABILITY AND FITNESS F
      +                          OR
    53                           ; PURPOSE ARE DISCLAIMED.  IN NO EVENT SHALL MICROCHIP BE LIABLE FOR ANY DIRECT, INDIREC
      +                          T,
    54                           ; INCIDENTAL, SPECIAL, EXEMPLARY, OR CONSEQUENTIAL DAMAGES (INCLUDING BUT NOT LIMITED TO
    55                           ; PROCUREMENT OF SUBSTITUTE GOODS OR SERVICES; LOSS OF USE, DATA OR PROFITS; OR BUSINESS
    56                           ; INTERRUPTION) HOWSOEVER CAUSED AND ON ANY THEORY OF LIABILITY, WHETHER IN CONTRACT, ST
      +                          RICT
    57                           ; LIABILITY, OR TORT (INCLUDING NEGLIGENCE OR OTHERWISE) ARISING IN ANY WAY OUT OF THE U
      +                          SE OF
    58                           ; THIS SOFTWARE, EVEN IF ADVISED OF THE POSSIBILITY OF SUCH DAMAGE.
    59                           ; 
    60                           ; 
    61                           ; Code-generator required, PIC16F887 Definitions
    62                           ; 
    63                           ; SFR Addresses
    64  0000                     	;# 
    65  0001                     	;# 
    66  0002                     	;# 
    67  0003                     	;# 
    68  0004                     	;# 
    69  0005                     	;# 
    70  0006                     	;# 
    71  0007                     	;# 
    72  0008                     	;# 
    73  0009                     	;# 
    74  000A                     	;# 
    75  000B                     	;# 
    76  000C                     	;# 
    77  000D                     	;# 
    78  000E                     	;# 
    79  000E                     	;# 
    80  000F                     	;# 
    81  0010                     	;# 
    82  0011                     	;# 
    83  0012                     	;# 
    84  0013                     	;# 
    85  0014                     	;# 
    86  0015                     	;# 
    87  0015                     	;# 
    88  0016                     	;# 
    89  0017                     	;# 
    90  0018                     	;# 
    91  0019                     	;# 
    92  001A                     	;# 
    93  001B                     	;# 
    94  001B                     	;# 
    95  001C                     	;# 
    96  001D                     	;# 
    97  001E                     	;# 
    98  001F                     	;# 
    99  0081                     	;# 
   100  0085                     	;# 
   101  0086                     	;# 
   102  0087                     	;# 
   103  0088                     	;# 
   104  0089                     	;# 
   105  008C                     	;# 
   106  008D                     	;# 
   107  008E                     	;# 
   108  008F                     	;# 
   109  0090                     	;# 
   110  0091                     	;# 
   111  0092                     	;# 
   112  0093                     	;# 
   113  0093                     	;# 
   114  0093                     	;# 
   115  0094                     	;# 
   116  0095                     	;# 
   117  0096                     	;# 
   118  0097                     	;# 
   119  0098                     	;# 
   120  0099                     	;# 
   121  009A                     	;# 
   122  009B                     	;# 
   123  009C                     	;# 
   124  009D                     	;# 
   125  009E                     	;# 
   126  009F                     	;# 
   127  0105                     	;# 
   128  0107                     	;# 
   129  0108                     	;# 
   130  0109                     	;# 
   131  010C                     	;# 
   132  010C                     	;# 
   133  010D                     	;# 
   134  010E                     	;# 
   135  010F                     	;# 
   136  0185                     	;# 
   137  0187                     	;# 
   138  0188                     	;# 
   139  0189                     	;# 
   140  018C                     	;# 
   141  018D                     	;# 
   142  0000                     	;# 
   143  0001                     	;# 
   144  0002                     	;# 
   145  0003                     	;# 
   146  0004                     	;# 
   147  0005                     	;# 
   148  0006                     	;# 
   149  0007                     	;# 
   150  0008                     	;# 
   151  0009                     	;# 
   152  000A                     	;# 
   153  000B                     	;# 
   154  000C                     	;# 
   155  000D                     	;# 
   156  000E                     	;# 
   157  000E                     	;# 
   158  000F                     	;# 
   159  0010                     	;# 
   160  0011                     	;# 
   161  0012                     	;# 
   162  0013                     	;# 
   163  0014                     	;# 
   164  0015                     	;# 
   165  0015                     	;# 
   166  0016                     	;# 
   167  0017                     	;# 
   168  0018                     	;# 
   169  0019                     	;# 
   170  001A                     	;# 
   171  001B                     	;# 
   172  001B                     	;# 
   173  001C                     	;# 
   174  001D                     	;# 
   175  001E                     	;# 
   176  001F                     	;# 
   177  0081                     	;# 
   178  0085                     	;# 
   179  0086                     	;# 
   180  0087                     	;# 
   181  0088                     	;# 
   182  0089                     	;# 
   183  008C                     	;# 
   184  008D                     	;# 
   185  008E                     	;# 
   186  008F                     	;# 
   187  0090                     	;# 
   188  0091                     	;# 
   189  0092                     	;# 
   190  0093                     	;# 
   191  0093                     	;# 
   192  0093                     	;# 
   193  0094                     	;# 
   194  0095                     	;# 
   195  0096                     	;# 
   196  0097                     	;# 
   197  0098                     	;# 
   198  0099                     	;# 
   199  009A                     	;# 
   200  009B                     	;# 
   201  009C                     	;# 
   202  009D                     	;# 
   203  009E                     	;# 
   204  009F                     	;# 
   205  0105                     	;# 
   206  0107                     	;# 
   207  0108                     	;# 
   208  0109                     	;# 
   209  010C                     	;# 
   210  010C                     	;# 
   211  010D                     	;# 
   212  010E                     	;# 
   213  010F                     	;# 
   214  0185                     	;# 
   215  0187                     	;# 
   216  0188                     	;# 
   217  0189                     	;# 
   218  018C                     	;# 
   219  018D                     	;# 
   220  0000                     	;# 
   221  0001                     	;# 
   222  0002                     	;# 
   223  0003                     	;# 
   224  0004                     	;# 
   225  0005                     	;# 
   226  0006                     	;# 
   227  0007                     	;# 
   228  0008                     	;# 
   229  0009                     	;# 
   230  000A                     	;# 
   231  000B                     	;# 
   232  000C                     	;# 
   233  000D                     	;# 
   234  000E                     	;# 
   235  000E                     	;# 
   236  000F                     	;# 
   237  0010                     	;# 
   238  0011                     	;# 
   239  0012                     	;# 
   240  0013                     	;# 
   241  0014                     	;# 
   242  0015                     	;# 
   243  0015                     	;# 
   244  0016                     	;# 
   245  0017                     	;# 
   246  0018                     	;# 
   247  0019                     	;# 
   248  001A                     	;# 
   249  001B                     	;# 
   250  001B                     	;# 
   251  001C                     	;# 
   252  001D                     	;# 
   253  001E                     	;# 
   254  001F                     	;# 
   255  0081                     	;# 
   256  0085                     	;# 
   257  0086                     	;# 
   258  0087                     	;# 
   259  0088                     	;# 
   260  0089                     	;# 
   261  008C                     	;# 
   262  008D                     	;# 
   263  008E                     	;# 
   264  008F                     	;# 
   265  0090                     	;# 
   266  0091                     	;# 
   267  0092                     	;# 
   268  0093                     	;# 
   269  0093                     	;# 
   270  0093                     	;# 
   271  0094                     	;# 
   272  0095                     	;# 
   273  0096                     	;# 
   274  0097                     	;# 
   275  0098                     	;# 
   276  0099                     	;# 
   277  009A                     	;# 
   278  009B                     	;# 
   279  009C                     	;# 
   280  009D                     	;# 
   281  009E                     	;# 
   282  009F                     	;# 
   283  0105                     	;# 
   284  0107                     	;# 
   285  0108                     	;# 
   286  0109                     	;# 
   287  010C                     	;# 
   288  010C                     	;# 
   289  010D                     	;# 
   290  010E                     	;# 
   291  010F                     	;# 
   292  0185                     	;# 
   293  0187                     	;# 
   294  0188                     	;# 
   295  0189                     	;# 
   296  018C                     	;# 
   297  018D                     	;# 
   298  0000                     	;# 
   299  0001                     	;# 
   300  0002                     	;# 
   301  0003                     	;# 
   302  0004                     	;# 
   303  0005                     	;# 
   304  0006                     	;# 
   305  0007                     	;# 
   306  0008                     	;# 
   307  0009                     	;# 
   308  000A                     	;# 
   309  000B                     	;# 
   310  000C                     	;# 
   311  000D                     	;# 
   312  000E                     	;# 
   313  000E                     	;# 
   314  000F                     	;# 
   315  0010                     	;# 
   316  0011                     	;# 
   317  0012                     	;# 
   318  0013                     	;# 
   319  0014                     	;# 
   320  0015                     	;# 
   321  0015                     	;# 
   322  0016                     	;# 
   323  0017                     	;# 
   324  0018                     	;# 
   325  0019                     	;# 
   326  001A                     	;# 
   327  001B                     	;# 
   328  001B                     	;# 
   329  001C                     	;# 
   330  001D                     	;# 
   331  001E                     	;# 
   332  001F                     	;# 
   333  0081                     	;# 
   334  0085                     	;# 
   335  0086                     	;# 
   336  0087                     	;# 
   337  0088                     	;# 
   338  0089                     	;# 
   339  008C                     	;# 
   340  008D                     	;# 
   341  008E                     	;# 
   342  008F                     	;# 
   343  0090                     	;# 
   344  0091                     	;# 
   345  0092                     	;# 
   346  0093                     	;# 
   347  0093                     	;# 
   348  0093                     	;# 
   349  0094                     	;# 
   350  0095                     	;# 
   351  0096                     	;# 
   352  0097                     	;# 
   353  0098                     	;# 
   354  0099                     	;# 
   355  009A                     	;# 
   356  009B                     	;# 
   357  009C                     	;# 
   358  009D                     	;# 
   359  009E                     	;# 
   360  009F                     	;# 
   361  0105                     	;# 
   362  0107                     	;# 
   363  0108                     	;# 
   364  0109                     	;# 
   365  010C                     	;# 
   366  010C                     	;# 
   367  010D                     	;# 
   368  010E                     	;# 
   369  010F                     	;# 
   370  0185                     	;# 
   371  0187                     	;# 
   372  0188                     	;# 
   373  0189                     	;# 
   374  018C                     	;# 
   375  018D                     	;# 
   376  0006                     _PORTBbits	set	6
   377  0009                     _PORTEbits	set	9
   378  0009                     _PORTE	set	9
   379  0008                     _PORTD	set	8
   380  0007                     _PORTC	set	7
   381  0005                     _PORTA	set	5
   382  001F                     _ADCON0bits	set	31
   383  0006                     _PORTB	set	6
   384  0001                     _TMR0	set	1
   385  000B                     _INTCONbits	set	11
   386  009F                     _ADCON1bits	set	159
   387  0081                     _OPTION_REGbits	set	129
   388  008F                     _OSCCONbits	set	143
   389  0096                     _IOCB	set	150
   390  0089                     _TRISE	set	137
   391  0088                     _TRISD	set	136
   392  0087                     _TRISC	set	135
   393  0086                     _TRISB	set	134
   394  0085                     _TRISA	set	133
   395  009E                     _ADRESL	set	158
   396  0189                     _ANSELH	set	393
   397  0188                     _ANSEL	set	392
   398                           
   399                           	psect	cinit
   400  0015                     start_initialization:	
   401                           ; #config settings
   402                           
   403  0015                     __initialization:
   404                           
   405                           ; Clear objects allocated to COMMON
   406  0015  01FC               	clrf	__pbssCOMMON& (0+127)
   407                           
   408                           ; Clear objects allocated to BANK0
   409  0016  1383               	bcf	3,7	;select IRP bank0
   410  0017  3020               	movlw	low __pbssBANK0
   411  0018  0084               	movwf	4
   412  0019  3036               	movlw	low (__pbssBANK0+22)
   413  001A  120A  118A  23AF  120A  118A  	fcall	clear_ram0
   414  001F                     end_of_initialization:	
   415                           ;End of C runtime variable initialization code
   416                           
   417  001F                     __end_of__initialization:
   418  001F  0183               	clrf	3
   419  0020  120A  118A  2ACE   	ljmp	_main	;jump to C main() function
   420                           
   421                           	psect	bssCOMMON
   422  007C                     __pbssCOMMON:
   423  007C                     _adc_value:
   424  007C                     	ds	1
   425                           
   426                           	psect	bssBANK0
   427  0020                     __pbssBANK0:
   428  0020                     _i:
   429  0020                     	ds	2
   430  0022                     _presionado2:
   431  0022                     	ds	2
   432  0024                     _released_ok2:
   433  0024                     	ds	2
   434  0026                     _pressed_ok2:
   435  0026                     	ds	2
   436  0028                     _contador2:
   437  0028                     	ds	2
   438  002A                     _presionado:
   439  002A                     	ds	2
   440  002C                     _released_ok:
   441  002C                     	ds	2
   442  002E                     _pressed_ok:
   443  002E                     	ds	2
   444  0030                     _contador:
   445  0030                     	ds	2
   446  0032                     _toogle:
   447  0032                     	ds	1
   448  0033                     _decena:
   449  0033                     	ds	1
   450  0034                     _unidad:
   451  0034                     	ds	1
   452  0035                     _show:
   453  0035                     	ds	1
   454                           
   455                           	psect	clrtext
   456  03AF                     clear_ram0:	
   457                           ;	Called with FSR containing the base address, and
   458                           ;	W with the last address+1
   459                           
   460  03AF  0064               	clrwdt	;clear the watchdog before getting into this loop
   461  03B0                     clrloop0:
   462  03B0  0180               	clrf	0	;clear RAM location pointed to by FSR
   463  03B1  0A84               	incf	4,f	;increment pointer
   464  03B2  0604               	xorwf	4,w	;XOR with final address
   465  03B3  1903               	btfsc	3,2	;have we reached the end yet?
   466  03B4  3400               	retlw	0	;all done for this memory range, return
   467  03B5  0604               	xorwf	4,w	;XOR again to restore value
   468  03B6  2BB0               	goto	clrloop0	;do the next byte
   469                           
   470                           	psect	cstackCOMMON
   471  0070                     __pcstackCOMMON:
   472  0070                     ?_multiplex_config:
   473  0070                     ?_incrementar:	
   474                           ; 1 bytes @ 0x0
   475                           
   476  0070                     ??_incrementar:	
   477                           ; 1 bytes @ 0x0
   478                           
   479  0070                     ?_decrementar:	
   480                           ; 1 bytes @ 0x0
   481                           
   482  0070                     ??_decrementar:	
   483                           ; 1 bytes @ 0x0
   484                           
   485  0070                     ?_setup:	
   486                           ; 1 bytes @ 0x0
   487                           
   488  0070                     ?_osc_config:	
   489                           ; 1 bytes @ 0x0
   490                           
   491  0070                     ?_interrup_config:	
   492                           ; 1 bytes @ 0x0
   493                           
   494  0070                     ?_tmr0_config:	
   495                           ; 1 bytes @ 0x0
   496                           
   497  0070                     ?_adc_config:	
   498                           ; 1 bytes @ 0x0
   499                           
   500  0070                     ?_big:	
   501                           ; 1 bytes @ 0x0
   502                           
   503  0070                     ?_initADC:	
   504                           ; 1 bytes @ 0x0
   505                           
   506  0070                     ?_division:	
   507                           ; 1 bytes @ 0x0
   508                           
   509  0070                     ?_multiplexar:	
   510                           ; 1 bytes @ 0x0
   511                           
   512  0070                     ??_multiplexar:	
   513                           ; 1 bytes @ 0x0
   514                           
   515  0070                     ?_hexadecimal:	
   516                           ; 1 bytes @ 0x0
   517                           
   518  0070                     ??_hexadecimal:	
   519                           ; 1 bytes @ 0x0
   520                           
   521  0070                     ?_ISR:	
   522                           ; 1 bytes @ 0x0
   523                           
   524  0070                     ?_main:	
   525                           ; 1 bytes @ 0x0
   526                           
   527  0070                     ?___awdiv:	
   528                           ; 1 bytes @ 0x0
   529                           
   530  0070                     incrementar@e:	
   531                           ; 2 bytes @ 0x0
   532                           
   533  0070                     decrementar@e:	
   534                           ; 2 bytes @ 0x0
   535                           
   536  0070                     ___awdiv@divisor:	
   537                           ; 2 bytes @ 0x0
   538                           
   539                           
   540                           ; 2 bytes @ 0x0
   541  0070                     	ds	2
   542  0072                     hexadecimal@show:
   543  0072                     incrementar@e_339:	
   544                           ; 1 bytes @ 0x2
   545                           
   546  0072                     decrementar@e_342:	
   547                           ; 2 bytes @ 0x2
   548                           
   549  0072                     ___awdiv@dividend:	
   550                           ; 2 bytes @ 0x2
   551                           
   552                           
   553                           ; 2 bytes @ 0x2
   554  0072                     	ds	2
   555  0074                     ??___awdiv:
   556                           
   557                           ; 1 bytes @ 0x4
   558  0074                     	ds	1
   559  0075                     ___awdiv@counter:
   560                           
   561                           ; 1 bytes @ 0x5
   562  0075                     	ds	1
   563  0076                     ___awdiv@sign:
   564                           
   565                           ; 1 bytes @ 0x6
   566  0076                     	ds	1
   567  0077                     ___awdiv@quotient:
   568                           
   569                           ; 2 bytes @ 0x7
   570  0077                     	ds	2
   571  0079                     ??_division:
   572                           
   573                           ; 1 bytes @ 0x9
   574  0079                     	ds	3
   575  007C                     ??_multiplex_config:
   576                           
   577                           	psect	cstackBANK0
   578  0036                     __pcstackBANK0:	
   579                           ; 1 bytes @ 0xC
   580                           
   581  0036                     ??_ISR:
   582                           
   583                           ; 1 bytes @ 0x0
   584  0036                     	ds	4
   585  003A                     ??_setup:
   586  003A                     ??_osc_config:	
   587                           ; 1 bytes @ 0x4
   588                           
   589  003A                     ??_interrup_config:	
   590                           ; 1 bytes @ 0x4
   591                           
   592  003A                     ??_tmr0_config:	
   593                           ; 1 bytes @ 0x4
   594                           
   595  003A                     ??_big:	
   596                           ; 1 bytes @ 0x4
   597                           
   598  003A                     ??_initADC:	
   599                           ; 1 bytes @ 0x4
   600                           
   601                           
   602                           ; 1 bytes @ 0x4
   603  003A                     	ds	2
   604  003C                     initADC@CHS:
   605                           
   606                           ; 1 bytes @ 0x6
   607  003C                     	ds	1
   608  003D                     ??_adc_config:
   609  003D                     ??_main:	
   610                           ; 1 bytes @ 0x7
   611                           
   612                           
   613                           ; 1 bytes @ 0x7
   614  003D                     	ds	2
   615                           
   616                           	psect	maintext
   617  02CE                     __pmaintext:	
   618 ;;
   619 ;;Main: autosize = 0, tempsize = 2, incstack = 0, save=0
   620 ;;
   621 ;; *************** function _main *****************
   622 ;; Defined at:
   623 ;;		line 104 in file "Interrup_Libreria.c"
   624 ;; Parameters:    Size  Location     Type
   625 ;;		None
   626 ;; Auto vars:     Size  Location     Type
   627 ;;		None
   628 ;; Return value:  Size  Location     Type
   629 ;;                  1    wreg      void 
   630 ;; Registers used:
   631 ;;		wreg, fsr0l, fsr0h, status,2, status,0, pclath, cstack
   632 ;; Tracked objects:
   633 ;;		On entry : B00/0
   634 ;;		On exit  : 0/0
   635 ;;		Unchanged: 0/0
   636 ;; Data sizes:     COMMON   BANK0   BANK1   BANK3   BANK2
   637 ;;      Params:         0       0       0       0       0
   638 ;;      Locals:         0       0       0       0       0
   639 ;;      Temps:          0       2       0       0       0
   640 ;;      Totals:         0       2       0       0       0
   641 ;;Total ram usage:        2 bytes
   642 ;; Hardware stack levels required when called:    6
   643 ;; This function calls:
   644 ;;		_adc_config
   645 ;;		_big
   646 ;;		_interrup_config
   647 ;;		_osc_config
   648 ;;		_setup
   649 ;;		_tmr0_config
   650 ;; This function is called by:
   651 ;;		Startup code after reset
   652 ;; This function uses a non-reentrant model
   653 ;;
   654                           
   655                           
   656                           ;psect for function _main
   657  02CE                     _main:
   658  02CE                     l1453:	
   659                           ;incstack = 0
   660                           ; Regs used in _main: [wreg-fsr0h+status,2+status,0+pclath+cstack]
   661                           
   662                           
   663                           ;Interrup_Libreria.c: 106: }
   664  02CE  120A  118A  2338  120A  118A  	fcall	_setup
   665  02D3                     l1455:
   666                           
   667                           ;Interrup_Libreria.c: 107: 
   668  02D3  120A  118A  23A5  120A  118A  	fcall	_osc_config
   669  02D8                     l1457:
   670                           
   671                           ;Interrup_Libreria.c: 108: void interrup_config (void)
   672  02D8  120A  118A  2380  120A  118A  	fcall	_interrup_config
   673  02DD                     l1459:
   674                           
   675                           ;Interrup_Libreria.c: 109: {
   676  02DD  120A  118A  2373  120A  118A  	fcall	_tmr0_config
   677  02E2                     l1461:
   678                           
   679                           ;Interrup_Libreria.c: 110:     INTCONbits.GIE = 1;
   680  02E2  120A  118A  23B7  120A  118A  	fcall	_adc_config
   681  02E7                     l1463:
   682                           
   683                           ;Interrup_Libreria.c: 113:     INTCONbits.INTE = 0;;Interrup_Libreria.c: 114:     INTCON
      +                          bits.RBIE = 1;
   684  02E7  1283               	bcf	3,5	;RP0=0, select bank0
   685  02E8  1303               	bcf	3,6	;RP1=0, select bank0
   686  02E9  149F               	bsf	31,1	;volatile
   687  02EA                     l1465:
   688                           
   689                           ;Interrup_Libreria.c: 115:     INTCONbits.T0IF = 0;
   690  02EA  301A               	movlw	26
   691  02EB  1283               	bcf	3,5	;RP0=0, select bank0
   692  02EC  1303               	bcf	3,6	;RP1=0, select bank0
   693  02ED  00BE               	movwf	??_main+1
   694  02EE  30F7               	movlw	247
   695  02EF  00BD               	movwf	??_main
   696  02F0                     u577:
   697  02F0  0BBD               	decfsz	??_main,f
   698  02F1  2AF0               	goto	u577
   699  02F2  0BBE               	decfsz	??_main+1,f
   700  02F3  2AF0               	goto	u577
   701  02F4  2AF5               	nop2
   702  02F5                     l1467:
   703                           
   704                           ;Interrup_Libreria.c: 116:     INTCONbits.INTF = 0;
   705  02F5  1283               	bcf	3,5	;RP0=0, select bank0
   706  02F6  1303               	bcf	3,6	;RP1=0, select bank0
   707  02F7  189F               	btfsc	31,1	;volatile
   708  02F8  2AFA               	goto	u561
   709  02F9  2AFB               	goto	u560
   710  02FA                     u561:
   711  02FA  2B04               	goto	l1473
   712  02FB                     u560:
   713  02FB                     l1469:
   714                           
   715                           ;Interrup_Libreria.c: 117:     INTCONbits.RBIF = 0;;Interrup_Libreria.c: 118:     IOCB =
      +                           0b00000011;
   716  02FB  149F               	bsf	31,1	;volatile
   717  02FC                     l1471:
   718                           
   719                           ;Interrup_Libreria.c: 119: }
   720  02FC  1683               	bsf	3,5	;RP0=1, select bank1
   721  02FD  1303               	bcf	3,6	;RP1=0, select bank1
   722  02FE  081E               	movf	30,w	;volatile
   723  02FF  1283               	bcf	3,5	;RP0=0, select bank0
   724  0300  1303               	bcf	3,6	;RP1=0, select bank0
   725  0301  00BD               	movwf	??_main
   726  0302  083D               	movf	??_main,w
   727  0303  00FC               	movwf	_adc_value
   728  0304                     l1473:
   729                           
   730                           ;Interrup_Libreria.c: 121: void osc_config (void)
   731  0304  120A  118A  238D  120A  118A  	fcall	_big
   732  0309  2AE7               	goto	l1463
   733  030A  120A  118A  2812   	ljmp	start
   734  030D                     __end_of_main:
   735                           
   736                           	psect	text1
   737  0373                     __ptext1:	
   738 ;; *************** function _tmr0_config *****************
   739 ;; Defined at:
   740 ;;		line 169 in file "Interrup_Libreria.c"
   741 ;; Parameters:    Size  Location     Type
   742 ;;		None
   743 ;; Auto vars:     Size  Location     Type
   744 ;;		None
   745 ;; Return value:  Size  Location     Type
   746 ;;                  1    wreg      void 
   747 ;; Registers used:
   748 ;;		wreg
   749 ;; Tracked objects:
   750 ;;		On entry : 0/0
   751 ;;		On exit  : 0/0
   752 ;;		Unchanged: 0/0
   753 ;; Data sizes:     COMMON   BANK0   BANK1   BANK3   BANK2
   754 ;;      Params:         0       0       0       0       0
   755 ;;      Locals:         0       0       0       0       0
   756 ;;      Temps:          0       0       0       0       0
   757 ;;      Totals:         0       0       0       0       0
   758 ;;Total ram usage:        0 bytes
   759 ;; Hardware stack levels used:    1
   760 ;; Hardware stack levels required when called:    4
   761 ;; This function calls:
   762 ;;		Nothing
   763 ;; This function is called by:
   764 ;;		_main
   765 ;; This function uses a non-reentrant model
   766 ;;
   767                           
   768                           
   769                           ;psect for function _tmr0_config
   770  0373                     _tmr0_config:
   771  0373                     l1425:	
   772                           ;incstack = 0
   773                           ; Regs used in _tmr0_config: [wreg]
   774                           
   775                           
   776                           ;Interrup_Libreria.c: 171:         PORTEbits.RE2 = 0;
   777  0373  1683               	bsf	3,5	;RP0=1, select bank1
   778  0374  1303               	bcf	3,6	;RP1=0, select bank1
   779  0375  1781               	bsf	1,7	;volatile
   780                           
   781                           ;Interrup_Libreria.c: 172:     }
   782  0376  1281               	bcf	1,5	;volatile
   783                           
   784                           ;Interrup_Libreria.c: 173: }
   785  0377  1181               	bcf	1,3	;volatile
   786                           
   787                           ;Interrup_Libreria.c: 174: 
   788  0378  1101               	bcf	1,2	;volatile
   789                           
   790                           ;Interrup_Libreria.c: 175: void incrementar(void)
   791  0379  1481               	bsf	1,1	;volatile
   792                           
   793                           ;Interrup_Libreria.c: 176: {
   794  037A  1001               	bcf	1,0	;volatile
   795  037B                     l1427:
   796                           
   797                           ;Interrup_Libreria.c: 177:     if (PORTBbits.RB0 == 1)
   798  037B  300A               	movlw	10
   799  037C  1283               	bcf	3,5	;RP0=0, select bank0
   800  037D  1303               	bcf	3,6	;RP1=0, select bank0
   801  037E  0081               	movwf	1	;volatile
   802  037F                     l126:
   803  037F  0008               	return
   804  0380                     __end_of_tmr0_config:
   805                           
   806                           	psect	text2
   807  0338                     __ptext2:	
   808 ;; *************** function _setup *****************
   809 ;; Defined at:
   810 ;;		line 129 in file "Interrup_Libreria.c"
   811 ;; Parameters:    Size  Location     Type
   812 ;;		None
   813 ;; Auto vars:     Size  Location     Type
   814 ;;		None
   815 ;; Return value:  Size  Location     Type
   816 ;;                  1    wreg      void 
   817 ;; Registers used:
   818 ;;		wreg, status,2
   819 ;; Tracked objects:
   820 ;;		On entry : 0/0
   821 ;;		On exit  : 0/0
   822 ;;		Unchanged: 0/0
   823 ;; Data sizes:     COMMON   BANK0   BANK1   BANK3   BANK2
   824 ;;      Params:         0       0       0       0       0
   825 ;;      Locals:         0       0       0       0       0
   826 ;;      Temps:          0       0       0       0       0
   827 ;;      Totals:         0       0       0       0       0
   828 ;;Total ram usage:        0 bytes
   829 ;; Hardware stack levels used:    1
   830 ;; Hardware stack levels required when called:    4
   831 ;; This function calls:
   832 ;;		Nothing
   833 ;; This function is called by:
   834 ;;		_main
   835 ;; This function uses a non-reentrant model
   836 ;;
   837                           
   838                           
   839                           ;psect for function _setup
   840  0338                     _setup:
   841  0338                     l1399:	
   842                           ;incstack = 0
   843                           ; Regs used in _setup: [wreg+status,2]
   844                           
   845                           
   846                           ;Interrup_Libreria.c: 131: 
   847  0338  3001               	movlw	1
   848  0339  1683               	bsf	3,5	;RP0=1, select bank3
   849  033A  1703               	bsf	3,6	;RP1=1, select bank3
   850  033B  0088               	movwf	8	;volatile
   851                           
   852                           ;Interrup_Libreria.c: 132: void tmr0_config (void)
   853  033C  3001               	movlw	1
   854  033D  1683               	bsf	3,5	;RP0=1, select bank1
   855  033E  1303               	bcf	3,6	;RP1=0, select bank1
   856  033F  0085               	movwf	5	;volatile
   857  0340                     l1401:
   858                           
   859                           ;Interrup_Libreria.c: 133: {
   860  0340  1283               	bcf	3,5	;RP0=0, select bank0
   861  0341  1303               	bcf	3,6	;RP1=0, select bank0
   862  0342  0185               	clrf	5	;volatile
   863  0343                     l1403:
   864                           
   865                           ;Interrup_Libreria.c: 134:     OPTION_REGbits.nRBPU = 1;
   866  0343  1683               	bsf	3,5	;RP0=1, select bank3
   867  0344  1703               	bsf	3,6	;RP1=1, select bank3
   868  0345  0189               	clrf	9	;volatile
   869                           
   870                           ;Interrup_Libreria.c: 135:     OPTION_REGbits.T0CS = 0;
   871  0346  3003               	movlw	3
   872  0347  1683               	bsf	3,5	;RP0=1, select bank1
   873  0348  1303               	bcf	3,6	;RP1=0, select bank1
   874  0349  0086               	movwf	6	;volatile
   875  034A                     l1405:
   876                           
   877                           ;Interrup_Libreria.c: 136:     OPTION_REGbits.PSA = 0;
   878  034A  1283               	bcf	3,5	;RP0=0, select bank0
   879  034B  1303               	bcf	3,6	;RP1=0, select bank0
   880  034C  0186               	clrf	6	;volatile
   881  034D                     l1407:
   882                           
   883                           ;Interrup_Libreria.c: 137:     OPTION_REGbits.PS2 = 0;
   884  034D  1683               	bsf	3,5	;RP0=1, select bank1
   885  034E  1303               	bcf	3,6	;RP1=0, select bank1
   886  034F  0187               	clrf	7	;volatile
   887  0350                     l1409:
   888                           
   889                           ;Interrup_Libreria.c: 138:     OPTION_REGbits.PS1 = 1;
   890  0350  1283               	bcf	3,5	;RP0=0, select bank0
   891  0351  1303               	bcf	3,6	;RP1=0, select bank0
   892  0352  0187               	clrf	7	;volatile
   893  0353                     l1411:
   894                           
   895                           ;Interrup_Libreria.c: 139:     OPTION_REGbits.PS0 = 0;
   896  0353  1683               	bsf	3,5	;RP0=1, select bank1
   897  0354  1303               	bcf	3,6	;RP1=0, select bank1
   898  0355  0188               	clrf	8	;volatile
   899  0356                     l1413:
   900                           
   901                           ;Interrup_Libreria.c: 140:     TMR0 = 10;
   902  0356  1283               	bcf	3,5	;RP0=0, select bank0
   903  0357  1303               	bcf	3,6	;RP1=0, select bank0
   904  0358  0188               	clrf	8	;volatile
   905  0359                     l1415:
   906                           
   907                           ;Interrup_Libreria.c: 141: }
   908  0359  1683               	bsf	3,5	;RP0=1, select bank1
   909  035A  1303               	bcf	3,6	;RP1=0, select bank1
   910  035B  0189               	clrf	9	;volatile
   911  035C                     l1417:
   912                           
   913                           ;Interrup_Libreria.c: 142: 
   914  035C  1283               	bcf	3,5	;RP0=0, select bank0
   915  035D  1303               	bcf	3,6	;RP1=0, select bank0
   916  035E  0189               	clrf	9	;volatile
   917  035F                     l117:
   918  035F  0008               	return
   919  0360                     __end_of_setup:
   920                           
   921                           	psect	text3
   922  03A5                     __ptext3:	
   923 ;; *************** function _osc_config *****************
   924 ;; Defined at:
   925 ;;		line 158 in file "Interrup_Libreria.c"
   926 ;; Parameters:    Size  Location     Type
   927 ;;		None
   928 ;; Auto vars:     Size  Location     Type
   929 ;;		None
   930 ;; Return value:  Size  Location     Type
   931 ;;                  1    wreg      void 
   932 ;; Registers used:
   933 ;;		None
   934 ;; Tracked objects:
   935 ;;		On entry : 0/0
   936 ;;		On exit  : 0/0
   937 ;;		Unchanged: 0/0
   938 ;; Data sizes:     COMMON   BANK0   BANK1   BANK3   BANK2
   939 ;;      Params:         0       0       0       0       0
   940 ;;      Locals:         0       0       0       0       0
   941 ;;      Temps:          0       0       0       0       0
   942 ;;      Totals:         0       0       0       0       0
   943 ;;Total ram usage:        0 bytes
   944 ;; Hardware stack levels used:    1
   945 ;; Hardware stack levels required when called:    4
   946 ;; This function calls:
   947 ;;		Nothing
   948 ;; This function is called by:
   949 ;;		_main
   950 ;; This function uses a non-reentrant model
   951 ;;
   952                           
   953                           
   954                           ;psect for function _osc_config
   955  03A5                     _osc_config:
   956  03A5                     l1419:	
   957                           ;incstack = 0
   958                           ; Regs used in _osc_config: []
   959                           
   960                           
   961                           ;Interrup_Libreria.c: 160: 
   962  03A5  1683               	bsf	3,5	;RP0=1, select bank1
   963  03A6  1303               	bcf	3,6	;RP1=0, select bank1
   964  03A7  170F               	bsf	15,6	;volatile
   965                           
   966                           ;Interrup_Libreria.c: 161: 
   967  03A8  168F               	bsf	15,5	;volatile
   968                           
   969                           ;Interrup_Libreria.c: 162: 
   970  03A9  130F               	bcf	15,6	;volatile
   971                           
   972                           ;Interrup_Libreria.c: 163: void big (void)
   973  03AA  118F               	bcf	15,3	;volatile
   974                           
   975                           ;Interrup_Libreria.c: 164: {
   976  03AB  110F               	bcf	15,2	;volatile
   977                           
   978                           ;Interrup_Libreria.c: 165:     if (adc_value > PORTD)
   979  03AC  148F               	bsf	15,1	;volatile
   980                           
   981                           ;Interrup_Libreria.c: 166:     {
   982  03AD  100F               	bcf	15,0	;volatile
   983  03AE                     l123:
   984  03AE  0008               	return
   985  03AF                     __end_of_osc_config:
   986                           
   987                           	psect	text4
   988  0380                     __ptext4:	
   989 ;; *************** function _interrup_config *****************
   990 ;; Defined at:
   991 ;;		line 145 in file "Interrup_Libreria.c"
   992 ;; Parameters:    Size  Location     Type
   993 ;;		None
   994 ;; Auto vars:     Size  Location     Type
   995 ;;		None
   996 ;; Return value:  Size  Location     Type
   997 ;;                  1    wreg      void 
   998 ;; Registers used:
   999 ;;		wreg
  1000 ;; Tracked objects:
  1001 ;;		On entry : 0/0
  1002 ;;		On exit  : 0/0
  1003 ;;		Unchanged: 0/0
  1004 ;; Data sizes:     COMMON   BANK0   BANK1   BANK3   BANK2
  1005 ;;      Params:         0       0       0       0       0
  1006 ;;      Locals:         0       0       0       0       0
  1007 ;;      Temps:          0       0       0       0       0
  1008 ;;      Totals:         0       0       0       0       0
  1009 ;;Total ram usage:        0 bytes
  1010 ;; Hardware stack levels used:    1
  1011 ;; Hardware stack levels required when called:    4
  1012 ;; This function calls:
  1013 ;;		Nothing
  1014 ;; This function is called by:
  1015 ;;		_main
  1016 ;; This function uses a non-reentrant model
  1017 ;;
  1018                           
  1019                           
  1020                           ;psect for function _interrup_config
  1021  0380                     _interrup_config:
  1022  0380                     l1421:	
  1023                           ;incstack = 0
  1024                           ; Regs used in _interrup_config: [wreg]
  1025                           
  1026                           
  1027                           ;Interrup_Libreria.c: 147: void adc_config (void)
  1028  0380  178B               	bsf	11,7	;volatile
  1029                           
  1030                           ;Interrup_Libreria.c: 148: {
  1031  0381  130B               	bcf	11,6	;volatile
  1032                           
  1033                           ;Interrup_Libreria.c: 149:     initADC (0);
  1034  0382  168B               	bsf	11,5	;volatile
  1035                           
  1036                           ;Interrup_Libreria.c: 150: }
  1037  0383  120B               	bcf	11,4	;volatile
  1038                           
  1039                           ;Interrup_Libreria.c: 151: 
  1040  0384  158B               	bsf	11,3	;volatile
  1041                           
  1042                           ;Interrup_Libreria.c: 152: void multiplex_config()
  1043  0385  110B               	bcf	11,2	;volatile
  1044                           
  1045                           ;Interrup_Libreria.c: 153: {
  1046  0386  108B               	bcf	11,1	;volatile
  1047                           
  1048                           ;Interrup_Libreria.c: 154:     division();
  1049  0387  100B               	bcf	11,0	;volatile
  1050  0388                     l1423:
  1051                           
  1052                           ;Interrup_Libreria.c: 155:     multiplexar();
  1053  0388  3003               	movlw	3
  1054  0389  1683               	bsf	3,5	;RP0=1, select bank1
  1055  038A  1303               	bcf	3,6	;RP1=0, select bank1
  1056  038B  0096               	movwf	22	;volatile
  1057  038C                     l120:
  1058  038C  0008               	return
  1059  038D                     __end_of_interrup_config:
  1060                           
  1061                           	psect	text5
  1062  038D                     __ptext5:	
  1063 ;; *************** function _big *****************
  1064 ;; Defined at:
  1065 ;;		line 200 in file "Interrup_Libreria.c"
  1066 ;; Parameters:    Size  Location     Type
  1067 ;;		None
  1068 ;; Auto vars:     Size  Location     Type
  1069 ;;		None
  1070 ;; Return value:  Size  Location     Type
  1071 ;;                  1    wreg      void 
  1072 ;; Registers used:
  1073 ;;		wreg
  1074 ;; Tracked objects:
  1075 ;;		On entry : 0/0
  1076 ;;		On exit  : 0/0
  1077 ;;		Unchanged: 0/0
  1078 ;; Data sizes:     COMMON   BANK0   BANK1   BANK3   BANK2
  1079 ;;      Params:         0       0       0       0       0
  1080 ;;      Locals:         0       0       0       0       0
  1081 ;;      Temps:          0       0       0       0       0
  1082 ;;      Totals:         0       0       0       0       0
  1083 ;;Total ram usage:        0 bytes
  1084 ;; Hardware stack levels used:    1
  1085 ;; Hardware stack levels required when called:    4
  1086 ;; This function calls:
  1087 ;;		Nothing
  1088 ;; This function is called by:
  1089 ;;		_main
  1090 ;; This function uses a non-reentrant model
  1091 ;;
  1092                           
  1093                           
  1094                           ;psect for function _big
  1095  038D                     _big:
  1096  038D                     l1431:	
  1097                           ;incstack = 0
  1098                           ; Regs used in _big: [wreg]
  1099                           
  1100                           
  1101                           ;Interrup_Libreria.c: 202:     }
  1102  038D  087C               	movf	_adc_value,w
  1103  038E  1283               	bcf	3,5	;RP0=0, select bank0
  1104  038F  1303               	bcf	3,6	;RP1=0, select bank0
  1105  0390  0208               	subwf	8,w	;volatile
  1106  0391  1803               	skipnc
  1107  0392  2B94               	goto	u531
  1108  0393  2B95               	goto	u530
  1109  0394                     u531:
  1110  0394  2B97               	goto	l135
  1111  0395                     u530:
  1112  0395                     l1433:
  1113                           
  1114                           ;Interrup_Libreria.c: 203:     return;;Interrup_Libreria.c: 204: }
  1115  0395  1509               	bsf	9,2	;volatile
  1116                           
  1117                           ;Interrup_Libreria.c: 205: 
  1118  0396  2B98               	goto	l137
  1119  0397                     l135:	
  1120                           ;Interrup_Libreria.c: 206: void decrementar(void)
  1121                           
  1122                           
  1123                           ;Interrup_Libreria.c: 207: {;Interrup_Libreria.c: 208:     if (PORTBbits.RB1 == 1)
  1124  0397  1109               	bcf	9,2	;volatile
  1125  0398                     l137:
  1126  0398  0008               	return
  1127  0399                     __end_of_big:
  1128                           
  1129                           	psect	text6
  1130  03B7                     __ptext6:	
  1131 ;; *************** function _adc_config *****************
  1132 ;; Defined at:
  1133 ;;		line 184 in file "Interrup_Libreria.c"
  1134 ;; Parameters:    Size  Location     Type
  1135 ;;		None
  1136 ;; Auto vars:     Size  Location     Type
  1137 ;;		None
  1138 ;; Return value:  Size  Location     Type
  1139 ;;                  1    wreg      void 
  1140 ;; Registers used:
  1141 ;;		wreg, fsr0l, fsr0h, status,2, status,0, pclath, cstack
  1142 ;; Tracked objects:
  1143 ;;		On entry : 0/0
  1144 ;;		On exit  : 0/0
  1145 ;;		Unchanged: 0/0
  1146 ;; Data sizes:     COMMON   BANK0   BANK1   BANK3   BANK2
  1147 ;;      Params:         0       0       0       0       0
  1148 ;;      Locals:         0       0       0       0       0
  1149 ;;      Temps:          0       0       0       0       0
  1150 ;;      Totals:         0       0       0       0       0
  1151 ;;Total ram usage:        0 bytes
  1152 ;; Hardware stack levels used:    1
  1153 ;; Hardware stack levels required when called:    5
  1154 ;; This function calls:
  1155 ;;		_initADC
  1156 ;; This function is called by:
  1157 ;;		_main
  1158 ;; This function uses a non-reentrant model
  1159 ;;
  1160                           
  1161                           
  1162                           ;psect for function _adc_config
  1163  03B7                     _adc_config:
  1164  03B7                     l1429:	
  1165                           ;incstack = 0
  1166                           ; Regs used in _adc_config: [wreg-fsr0h+status,2+status,0+pclath+cstack]
  1167                           
  1168                           
  1169                           ;Interrup_Libreria.c: 186:                 PORTD = PORTD + 1;
  1170  03B7  3000               	movlw	0
  1171  03B8  120A  118A  20B4  120A  118A  	fcall	_initADC
  1172  03BD                     l129:
  1173  03BD  0008               	return
  1174  03BE                     __end_of_adc_config:
  1175                           
  1176                           	psect	text7
  1177  00B4                     __ptext7:	
  1178 ;; *************** function _initADC *****************
  1179 ;; Defined at:
  1180 ;;		line 11 in file "ADC_lib.c"
  1181 ;; Parameters:    Size  Location     Type
  1182 ;;  CHS             1    wreg     unsigned char 
  1183 ;; Auto vars:     Size  Location     Type
  1184 ;;  CHS             1    6[BANK0 ] unsigned char 
  1185 ;; Return value:  Size  Location     Type
  1186 ;;                  1    wreg      void 
  1187 ;; Registers used:
  1188 ;;		wreg, fsr0l, fsr0h, status,2, status,0
  1189 ;; Tracked objects:
  1190 ;;		On entry : 0/0
  1191 ;;		On exit  : 0/0
  1192 ;;		Unchanged: 0/0
  1193 ;; Data sizes:     COMMON   BANK0   BANK1   BANK3   BANK2
  1194 ;;      Params:         0       0       0       0       0
  1195 ;;      Locals:         0       1       0       0       0
  1196 ;;      Temps:          0       2       0       0       0
  1197 ;;      Totals:         0       3       0       0       0
  1198 ;;Total ram usage:        3 bytes
  1199 ;; Hardware stack levels used:    1
  1200 ;; Hardware stack levels required when called:    4
  1201 ;; This function calls:
  1202 ;;		Nothing
  1203 ;; This function is called by:
  1204 ;;		_adc_config
  1205 ;; This function uses a non-reentrant model
  1206 ;;
  1207                           
  1208                           
  1209                           ;psect for function _initADC
  1210  00B4                     _initADC:
  1211                           
  1212                           ;incstack = 0
  1213                           ; Regs used in _initADC: [wreg-fsr0h+status,2+status,0]
  1214                           ;initADC@CHS stored from wreg
  1215  00B4  1283               	bcf	3,5	;RP0=0, select bank0
  1216  00B5  1303               	bcf	3,6	;RP1=0, select bank0
  1217  00B6  00BC               	movwf	initADC@CHS
  1218  00B7                     l1263:
  1219                           
  1220                           ;ADC_lib.c: 11: void initADC (uint8_t CHS);ADC_lib.c: 12: {;ADC_lib.c: 13:     switch (C
      +                          HS)
  1221  00B7  2903               	goto	l1267
  1222  00B8                     l169:	
  1223                           ;ADC_lib.c: 14:     {;ADC_lib.c: 15:         case 0:
  1224                           
  1225                           
  1226                           ;ADC_lib.c: 16:             ADCON0bits.CHS3 = 0;
  1227  00B8  129F               	bcf	31,5	;volatile
  1228                           
  1229                           ;ADC_lib.c: 17:             ADCON0bits.CHS2 = 0;
  1230  00B9  121F               	bcf	31,4	;volatile
  1231                           
  1232                           ;ADC_lib.c: 18:             ADCON0bits.CHS1 = 0;
  1233  00BA  119F               	bcf	31,3	;volatile
  1234                           
  1235                           ;ADC_lib.c: 19:             ADCON0bits.CHS0 = 0;
  1236  00BB  111F               	bcf	31,2	;volatile
  1237                           
  1238                           ;ADC_lib.c: 20:             break;
  1239  00BC  2937               	goto	l170
  1240  00BD                     l171:	
  1241                           ;ADC_lib.c: 21:         case 1:
  1242                           
  1243                           
  1244                           ;ADC_lib.c: 22:             ADCON0bits.CHS3 = 0;
  1245  00BD  129F               	bcf	31,5	;volatile
  1246                           
  1247                           ;ADC_lib.c: 23:             ADCON0bits.CHS2 = 0;
  1248  00BE  121F               	bcf	31,4	;volatile
  1249                           
  1250                           ;ADC_lib.c: 24:             ADCON0bits.CHS1 = 0;
  1251  00BF  119F               	bcf	31,3	;volatile
  1252                           
  1253                           ;ADC_lib.c: 25:             ADCON0bits.CHS0 = 1;
  1254  00C0  151F               	bsf	31,2	;volatile
  1255                           
  1256                           ;ADC_lib.c: 26:             break;
  1257  00C1  2937               	goto	l170
  1258  00C2                     l172:	
  1259                           ;ADC_lib.c: 28:         case 2:
  1260                           
  1261                           
  1262                           ;ADC_lib.c: 29:             ADCON0bits.CHS3 = 0;
  1263  00C2  129F               	bcf	31,5	;volatile
  1264                           
  1265                           ;ADC_lib.c: 30:             ADCON0bits.CHS2 = 0;
  1266  00C3  121F               	bcf	31,4	;volatile
  1267                           
  1268                           ;ADC_lib.c: 31:             ADCON0bits.CHS1 = 1;
  1269  00C4  159F               	bsf	31,3	;volatile
  1270                           
  1271                           ;ADC_lib.c: 32:             ADCON0bits.CHS0 = 0;
  1272  00C5  111F               	bcf	31,2	;volatile
  1273                           
  1274                           ;ADC_lib.c: 33:             break;
  1275  00C6  2937               	goto	l170
  1276  00C7                     l173:	
  1277                           ;ADC_lib.c: 35:         case 3:
  1278                           
  1279                           
  1280                           ;ADC_lib.c: 36:             ADCON0bits.CHS3 = 0;
  1281  00C7  129F               	bcf	31,5	;volatile
  1282                           
  1283                           ;ADC_lib.c: 37:             ADCON0bits.CHS2 = 0;
  1284  00C8  121F               	bcf	31,4	;volatile
  1285                           
  1286                           ;ADC_lib.c: 38:             ADCON0bits.CHS1 = 1;
  1287  00C9  159F               	bsf	31,3	;volatile
  1288                           
  1289                           ;ADC_lib.c: 39:             ADCON0bits.CHS0 = 1;
  1290  00CA  151F               	bsf	31,2	;volatile
  1291                           
  1292                           ;ADC_lib.c: 40:             break;
  1293  00CB  2937               	goto	l170
  1294  00CC                     l174:	
  1295                           ;ADC_lib.c: 42:         case 4:
  1296                           
  1297                           
  1298                           ;ADC_lib.c: 43:             ADCON0bits.CHS3 = 0;
  1299  00CC  129F               	bcf	31,5	;volatile
  1300                           
  1301                           ;ADC_lib.c: 44:             ADCON0bits.CHS2 = 1;
  1302  00CD  161F               	bsf	31,4	;volatile
  1303                           
  1304                           ;ADC_lib.c: 45:             ADCON0bits.CHS1 = 0;
  1305  00CE  119F               	bcf	31,3	;volatile
  1306                           
  1307                           ;ADC_lib.c: 46:             ADCON0bits.CHS0 = 0;
  1308  00CF  111F               	bcf	31,2	;volatile
  1309                           
  1310                           ;ADC_lib.c: 47:             break;
  1311  00D0  2937               	goto	l170
  1312  00D1                     l175:	
  1313                           ;ADC_lib.c: 49:         case 5:
  1314                           
  1315                           
  1316                           ;ADC_lib.c: 50:             ADCON0bits.CHS3 = 0;
  1317  00D1  129F               	bcf	31,5	;volatile
  1318                           
  1319                           ;ADC_lib.c: 51:             ADCON0bits.CHS2 = 1;
  1320  00D2  161F               	bsf	31,4	;volatile
  1321                           
  1322                           ;ADC_lib.c: 52:             ADCON0bits.CHS1 = 0;
  1323  00D3  119F               	bcf	31,3	;volatile
  1324                           
  1325                           ;ADC_lib.c: 53:             ADCON0bits.CHS0 = 1;
  1326  00D4  151F               	bsf	31,2	;volatile
  1327                           
  1328                           ;ADC_lib.c: 54:             break;
  1329  00D5  2937               	goto	l170
  1330  00D6                     l176:	
  1331                           ;ADC_lib.c: 56:         case 6:
  1332                           
  1333                           
  1334                           ;ADC_lib.c: 57:             ADCON0bits.CHS3 = 0;
  1335  00D6  129F               	bcf	31,5	;volatile
  1336                           
  1337                           ;ADC_lib.c: 58:             ADCON0bits.CHS2 = 1;
  1338  00D7  161F               	bsf	31,4	;volatile
  1339                           
  1340                           ;ADC_lib.c: 59:             ADCON0bits.CHS1 = 1;
  1341  00D8  159F               	bsf	31,3	;volatile
  1342                           
  1343                           ;ADC_lib.c: 60:             ADCON0bits.CHS0 = 0;
  1344  00D9  111F               	bcf	31,2	;volatile
  1345                           
  1346                           ;ADC_lib.c: 61:             break;
  1347  00DA  2937               	goto	l170
  1348  00DB                     l177:	
  1349                           ;ADC_lib.c: 63:         case 7:
  1350                           
  1351                           
  1352                           ;ADC_lib.c: 64:             ADCON0bits.CHS3 = 0;
  1353  00DB  129F               	bcf	31,5	;volatile
  1354                           
  1355                           ;ADC_lib.c: 65:             ADCON0bits.CHS2 = 1;
  1356  00DC  161F               	bsf	31,4	;volatile
  1357                           
  1358                           ;ADC_lib.c: 66:             ADCON0bits.CHS1 = 1;
  1359  00DD  159F               	bsf	31,3	;volatile
  1360                           
  1361                           ;ADC_lib.c: 67:             ADCON0bits.CHS0 = 1;
  1362  00DE  151F               	bsf	31,2	;volatile
  1363                           
  1364                           ;ADC_lib.c: 68:             break;
  1365  00DF  2937               	goto	l170
  1366  00E0                     l178:	
  1367                           ;ADC_lib.c: 70:         case 8:
  1368                           
  1369                           
  1370                           ;ADC_lib.c: 71:             ADCON0bits.CHS3 = 1;
  1371  00E0  169F               	bsf	31,5	;volatile
  1372                           
  1373                           ;ADC_lib.c: 72:             ADCON0bits.CHS2 = 0;
  1374  00E1  121F               	bcf	31,4	;volatile
  1375                           
  1376                           ;ADC_lib.c: 73:             ADCON0bits.CHS1 = 0;
  1377  00E2  119F               	bcf	31,3	;volatile
  1378                           
  1379                           ;ADC_lib.c: 74:             ADCON0bits.CHS0 = 0;
  1380  00E3  111F               	bcf	31,2	;volatile
  1381                           
  1382                           ;ADC_lib.c: 75:             break;
  1383  00E4  2937               	goto	l170
  1384  00E5                     l179:	
  1385                           ;ADC_lib.c: 77:         case 9:
  1386                           
  1387                           
  1388                           ;ADC_lib.c: 78:             ADCON0bits.CHS3 = 1;
  1389  00E5  169F               	bsf	31,5	;volatile
  1390                           
  1391                           ;ADC_lib.c: 79:             ADCON0bits.CHS2 = 0;
  1392  00E6  121F               	bcf	31,4	;volatile
  1393                           
  1394                           ;ADC_lib.c: 80:             ADCON0bits.CHS1 = 0;
  1395  00E7  119F               	bcf	31,3	;volatile
  1396                           
  1397                           ;ADC_lib.c: 81:             ADCON0bits.CHS0 = 1;
  1398  00E8  151F               	bsf	31,2	;volatile
  1399                           
  1400                           ;ADC_lib.c: 82:             break;
  1401  00E9  2937               	goto	l170
  1402  00EA                     l180:	
  1403                           ;ADC_lib.c: 84:         case 10:
  1404                           
  1405                           
  1406                           ;ADC_lib.c: 85:             ADCON0bits.CHS3 = 1;
  1407  00EA  169F               	bsf	31,5	;volatile
  1408                           
  1409                           ;ADC_lib.c: 86:             ADCON0bits.CHS2 = 0;
  1410  00EB  121F               	bcf	31,4	;volatile
  1411                           
  1412                           ;ADC_lib.c: 87:             ADCON0bits.CHS1 = 1;
  1413  00EC  159F               	bsf	31,3	;volatile
  1414                           
  1415                           ;ADC_lib.c: 88:             ADCON0bits.CHS0 = 0;
  1416  00ED  111F               	bcf	31,2	;volatile
  1417                           
  1418                           ;ADC_lib.c: 89:             break;
  1419  00EE  2937               	goto	l170
  1420  00EF                     l181:	
  1421                           ;ADC_lib.c: 91:         case 11:
  1422                           
  1423                           
  1424                           ;ADC_lib.c: 92:             ADCON0bits.CHS3 = 1;
  1425  00EF  169F               	bsf	31,5	;volatile
  1426                           
  1427                           ;ADC_lib.c: 93:             ADCON0bits.CHS2 = 0;
  1428  00F0  121F               	bcf	31,4	;volatile
  1429                           
  1430                           ;ADC_lib.c: 94:             ADCON0bits.CHS1 = 1;
  1431  00F1  159F               	bsf	31,3	;volatile
  1432                           
  1433                           ;ADC_lib.c: 95:             ADCON0bits.CHS0 = 1;
  1434  00F2  151F               	bsf	31,2	;volatile
  1435                           
  1436                           ;ADC_lib.c: 96:             break;
  1437  00F3  2937               	goto	l170
  1438  00F4                     l182:	
  1439                           ;ADC_lib.c: 98:         case 12:
  1440                           
  1441                           
  1442                           ;ADC_lib.c: 99:             ADCON0bits.CHS3 = 1;
  1443  00F4  169F               	bsf	31,5	;volatile
  1444                           
  1445                           ;ADC_lib.c: 100:             ADCON0bits.CHS2 = 1;
  1446  00F5  161F               	bsf	31,4	;volatile
  1447                           
  1448                           ;ADC_lib.c: 101:             ADCON0bits.CHS1 = 0;
  1449  00F6  119F               	bcf	31,3	;volatile
  1450                           
  1451                           ;ADC_lib.c: 102:             ADCON0bits.CHS0 = 0;
  1452  00F7  111F               	bcf	31,2	;volatile
  1453                           
  1454                           ;ADC_lib.c: 103:             break;
  1455  00F8  2937               	goto	l170
  1456  00F9                     l183:	
  1457                           ;ADC_lib.c: 105:         case 13:
  1458                           
  1459                           
  1460                           ;ADC_lib.c: 106:             ADCON0bits.CHS3 = 1;
  1461  00F9  169F               	bsf	31,5	;volatile
  1462                           
  1463                           ;ADC_lib.c: 107:             ADCON0bits.CHS2 = 1;
  1464  00FA  161F               	bsf	31,4	;volatile
  1465                           
  1466                           ;ADC_lib.c: 108:             ADCON0bits.CHS1 = 0;
  1467  00FB  119F               	bcf	31,3	;volatile
  1468                           
  1469                           ;ADC_lib.c: 109:             ADCON0bits.CHS0 = 1;
  1470  00FC  151F               	bsf	31,2	;volatile
  1471                           
  1472                           ;ADC_lib.c: 110:             break;
  1473  00FD  2937               	goto	l170
  1474  00FE                     l184:	
  1475                           ;ADC_lib.c: 112:         default:
  1476                           
  1477                           
  1478                           ;ADC_lib.c: 113:             ADCON0bits.CHS3 = 1;
  1479  00FE  169F               	bsf	31,5	;volatile
  1480                           
  1481                           ;ADC_lib.c: 114:             ADCON0bits.CHS2 = 1;
  1482  00FF  161F               	bsf	31,4	;volatile
  1483                           
  1484                           ;ADC_lib.c: 115:             ADCON0bits.CHS1 = 1;
  1485  0100  159F               	bsf	31,3	;volatile
  1486                           
  1487                           ;ADC_lib.c: 116:             ADCON0bits.CHS0 = 0;
  1488  0101  111F               	bcf	31,2	;volatile
  1489                           
  1490                           ;ADC_lib.c: 117:             break;
  1491  0102  2937               	goto	l170
  1492  0103                     l1267:
  1493  0103  083C               	movf	initADC@CHS,w
  1494  0104  00BA               	movwf	??_initADC
  1495  0105  01BB               	clrf	??_initADC+1
  1496                           
  1497                           ; Switch on 2 bytes has been partitioned into a top level switch of size 1, and 1 sub-sw
      +                          itches
  1498                           ; Switch size 1, requested type "simple"
  1499                           ; Number of cases is 1, Range of values is 0 to 0
  1500                           ; switch strategies available:
  1501                           ; Name         Instructions Cycles
  1502                           ; simple_byte            4     3 (average)
  1503                           ; direct_byte           11     8 (fixed)
  1504                           ; jumptable            260     6 (fixed)
  1505                           ;	Chosen strategy is simple_byte
  1506  0106  083B               	movf	??_initADC+1,w
  1507  0107  3A00               	xorlw	0	; case 0
  1508  0108  1903               	skipnz
  1509  0109  290B               	goto	l1525
  1510  010A  28FE               	goto	l184
  1511  010B                     l1525:
  1512                           
  1513                           ; Switch size 1, requested type "simple"
  1514                           ; Number of cases is 14, Range of values is 0 to 13
  1515                           ; switch strategies available:
  1516                           ; Name         Instructions Cycles
  1517                           ; simple_byte           43    22 (average)
  1518                           ; direct_byte           50     8 (fixed)
  1519                           ; jumptable            260     6 (fixed)
  1520                           ;	Chosen strategy is simple_byte
  1521  010B  083A               	movf	??_initADC,w
  1522  010C  3A00               	xorlw	0	; case 0
  1523  010D  1903               	skipnz
  1524  010E  28B8               	goto	l169
  1525  010F  3A01               	xorlw	1	; case 1
  1526  0110  1903               	skipnz
  1527  0111  28BD               	goto	l171
  1528  0112  3A03               	xorlw	3	; case 2
  1529  0113  1903               	skipnz
  1530  0114  28C2               	goto	l172
  1531  0115  3A01               	xorlw	1	; case 3
  1532  0116  1903               	skipnz
  1533  0117  28C7               	goto	l173
  1534  0118  3A07               	xorlw	7	; case 4
  1535  0119  1903               	skipnz
  1536  011A  28CC               	goto	l174
  1537  011B  3A01               	xorlw	1	; case 5
  1538  011C  1903               	skipnz
  1539  011D  28D1               	goto	l175
  1540  011E  3A03               	xorlw	3	; case 6
  1541  011F  1903               	skipnz
  1542  0120  28D6               	goto	l176
  1543  0121  3A01               	xorlw	1	; case 7
  1544  0122  1903               	skipnz
  1545  0123  28DB               	goto	l177
  1546  0124  3A0F               	xorlw	15	; case 8
  1547  0125  1903               	skipnz
  1548  0126  28E0               	goto	l178
  1549  0127  3A01               	xorlw	1	; case 9
  1550  0128  1903               	skipnz
  1551  0129  28E5               	goto	l179
  1552  012A  3A03               	xorlw	3	; case 10
  1553  012B  1903               	skipnz
  1554  012C  28EA               	goto	l180
  1555  012D  3A01               	xorlw	1	; case 11
  1556  012E  1903               	skipnz
  1557  012F  28EF               	goto	l181
  1558  0130  3A07               	xorlw	7	; case 12
  1559  0131  1903               	skipnz
  1560  0132  28F4               	goto	l182
  1561  0133  3A01               	xorlw	1	; case 13
  1562  0134  1903               	skipnz
  1563  0135  28F9               	goto	l183
  1564  0136  28FE               	goto	l184
  1565  0137                     l170:
  1566                           
  1567                           ;ADC_lib.c: 119:     ADCON0bits.ADCS1 = 1;
  1568  0137  179F               	bsf	31,7	;volatile
  1569                           
  1570                           ;ADC_lib.c: 120:     ADCON0bits.ADCS0 = 0;
  1571  0138  131F               	bcf	31,6	;volatile
  1572                           
  1573                           ;ADC_lib.c: 121:     ADCON0bits.GO_DONE= 0;
  1574  0139  109F               	bcf	31,1	;volatile
  1575                           
  1576                           ;ADC_lib.c: 122:     ADCON0bits.ADON = 1;
  1577  013A  141F               	bsf	31,0	;volatile
  1578                           
  1579                           ;ADC_lib.c: 124:     ADCON1bits.ADFM = 1;
  1580  013B  1683               	bsf	3,5	;RP0=1, select bank1
  1581  013C  1303               	bcf	3,6	;RP1=0, select bank1
  1582  013D  179F               	bsf	31,7	;volatile
  1583                           
  1584                           ;ADC_lib.c: 125:     ADCON1bits.VCFG1 = 0;
  1585  013E  129F               	bcf	31,5	;volatile
  1586                           
  1587                           ;ADC_lib.c: 126:     ADCON1bits.VCFG0 = 0;
  1588  013F  121F               	bcf	31,4	;volatile
  1589  0140                     l185:
  1590  0140  0008               	return
  1591  0141                     __end_of_initADC:
  1592                           
  1593                           	psect	text8
  1594  030D                     __ptext8:	
  1595 ;; *************** function _ISR *****************
  1596 ;; Defined at:
  1597 ;;		line 79 in file "Interrup_Libreria.c"
  1598 ;; Parameters:    Size  Location     Type
  1599 ;;		None
  1600 ;; Auto vars:     Size  Location     Type
  1601 ;;  a               1    0        unsigned char 
  1602 ;; Return value:  Size  Location     Type
  1603 ;;                  1    wreg      void 
  1604 ;; Registers used:
  1605 ;;		wreg, fsr0l, fsr0h, status,2, status,0, btemp+1, pclath, cstack
  1606 ;; Tracked objects:
  1607 ;;		On entry : 0/0
  1608 ;;		On exit  : 0/0
  1609 ;;		Unchanged: 0/0
  1610 ;; Data sizes:     COMMON   BANK0   BANK1   BANK3   BANK2
  1611 ;;      Params:         0       0       0       0       0
  1612 ;;      Locals:         1       0       0       0       0
  1613 ;;      Temps:          0       4       0       0       0
  1614 ;;      Totals:         1       4       0       0       0
  1615 ;;Total ram usage:        5 bytes
  1616 ;; Hardware stack levels used:    1
  1617 ;; Hardware stack levels required when called:    3
  1618 ;; This function calls:
  1619 ;;		_decrementar
  1620 ;;		_incrementar
  1621 ;;		_multiplex_config
  1622 ;; This function is called by:
  1623 ;;		Interrupt level 1
  1624 ;; This function uses a non-reentrant model
  1625 ;;
  1626                           
  1627                           
  1628                           ;psect for function _ISR
  1629  030D                     _ISR:
  1630  030D                     i1l1435:
  1631                           
  1632                           ;Interrup_Libreria.c: 82:             adc_value = ADRESL;
  1633  030D  1D0B               	btfss	11,2	;volatile
  1634  030E  2B10               	goto	u54_21
  1635  030F  2B11               	goto	u54_20
  1636  0310                     u54_21:
  1637  0310  2B19               	goto	i1l1443
  1638  0311                     u54_20:
  1639  0311                     i1l1437:
  1640                           
  1641                           ;Interrup_Libreria.c: 83:         };Interrup_Libreria.c: 84:         big();
  1642  0311  110B               	bcf	11,2	;volatile
  1643  0312                     i1l1439:
  1644                           
  1645                           ;Interrup_Libreria.c: 85:     }
  1646  0312  300A               	movlw	10
  1647  0313  0081               	movwf	1	;volatile
  1648  0314                     i1l1441:
  1649                           
  1650                           ;Interrup_Libreria.c: 86: }
  1651  0314  120A  118A  2360  120A  118A  	fcall	_multiplex_config
  1652  0319                     i1l1443:
  1653                           
  1654                           ;Interrup_Libreria.c: 89: 
  1655  0319  1C0B               	btfss	11,0	;volatile
  1656  031A  2B1C               	goto	u55_21
  1657  031B  2B1D               	goto	u55_20
  1658  031C                     u55_21:
  1659  031C  2B2B               	goto	i1l105
  1660  031D                     u55_20:
  1661  031D                     i1l1445:
  1662  031D  1283               	bcf	3,5	;RP0=0, select bank0
  1663  031E  1303               	bcf	3,6	;RP1=0, select bank0
  1664  031F  0806               	movf	6,w	;volatile
  1665  0320                     i1l1447:
  1666                           
  1667                           ;Interrup_Libreria.c: 93: {
  1668  0320  120A  118A  2141  120A  118A  	fcall	_incrementar
  1669  0325                     i1l1449:
  1670                           
  1671                           ;Interrup_Libreria.c: 94:     ANSEL = 1;
  1672  0325  120A  118A  21B4  120A  118A  	fcall	_decrementar
  1673  032A                     i1l1451:
  1674                           
  1675                           ;Interrup_Libreria.c: 95:     TRISA = 1;
  1676  032A  100B               	bcf	11,0	;volatile
  1677  032B                     i1l105:
  1678  032B  1283               	bcf	3,5	;RP0=0, select bank0
  1679  032C  1303               	bcf	3,6	;RP1=0, select bank0
  1680  032D  0839               	movf	??_ISR+3,w
  1681  032E  00FF               	movwf	btemp+1
  1682  032F  0838               	movf	??_ISR+2,w
  1683  0330  008A               	movwf	10
  1684  0331  0837               	movf	??_ISR+1,w
  1685  0332  0084               	movwf	4
  1686  0333  0E36               	swapf	??_ISR,w
  1687  0334  0083               	movwf	3
  1688  0335  0EFE               	swapf	btemp,f
  1689  0336  0E7E               	swapf	btemp,w
  1690  0337  0009               	retfie
  1691  0338                     __end_of_ISR:
  1692                           
  1693                           	psect	intentry
  1694  0004                     __pintentry:	
  1695                           ;incstack = 0
  1696                           ; Regs used in _ISR: [wreg-fsr0h+status,2+status,0+btemp+1+pclath+cstack]
  1697                           
  1698  0004                     interrupt_function:
  1699  007E                     saved_w	set	btemp
  1700  0004  00FE               	movwf	btemp
  1701  0005  0E03               	swapf	3,w
  1702  0006  1283               	bcf	3,5	;RP0=0, select bank0
  1703  0007  1303               	bcf	3,6	;RP1=0, select bank0
  1704  0008  00B6               	movwf	??_ISR
  1705  0009  0804               	movf	4,w
  1706  000A  00B7               	movwf	??_ISR+1
  1707  000B  080A               	movf	10,w
  1708  000C  00B8               	movwf	??_ISR+2
  1709  000D  087F               	movf	btemp+1,w
  1710  000E  00B9               	movwf	??_ISR+3
  1711  000F  120A  118A  2B0D   	ljmp	_ISR
  1712                           
  1713                           	psect	text9
  1714  0360                     __ptext9:	
  1715 ;; *************** function _multiplex_config *****************
  1716 ;; Defined at:
  1717 ;;		line 189 in file "Interrup_Libreria.c"
  1718 ;; Parameters:    Size  Location     Type
  1719 ;;		None
  1720 ;; Auto vars:     Size  Location     Type
  1721 ;;		None
  1722 ;; Return value:  Size  Location     Type
  1723 ;;                  1    wreg      void 
  1724 ;; Registers used:
  1725 ;;		wreg, fsr0l, fsr0h, status,2, status,0, pclath, cstack
  1726 ;; Tracked objects:
  1727 ;;		On entry : 0/0
  1728 ;;		On exit  : 0/0
  1729 ;;		Unchanged: 0/0
  1730 ;; Data sizes:     COMMON   BANK0   BANK1   BANK3   BANK2
  1731 ;;      Params:         0       0       0       0       0
  1732 ;;      Locals:         0       0       0       0       0
  1733 ;;      Temps:          0       0       0       0       0
  1734 ;;      Totals:         0       0       0       0       0
  1735 ;;Total ram usage:        0 bytes
  1736 ;; Hardware stack levels used:    1
  1737 ;; Hardware stack levels required when called:    2
  1738 ;; This function calls:
  1739 ;;		_division
  1740 ;;		_hexadecimal
  1741 ;;		_multiplexar
  1742 ;; This function is called by:
  1743 ;;		_ISR
  1744 ;; This function uses a non-reentrant model
  1745 ;;
  1746                           
  1747                           
  1748                           ;psect for function _multiplex_config
  1749  0360                     _multiplex_config:
  1750  0360                     i1l1301:	
  1751                           ;incstack = 0
  1752                           ; Regs used in _multiplex_config: [wreg-fsr0h+status,2+status,0+pclath+cstack]
  1753                           
  1754                           
  1755                           ;Interrup_Libreria.c: 191:         }
  1756  0360  120A  118A  228E  120A  118A  	fcall	_division
  1757  0365                     i1l1303:
  1758                           
  1759                           ;Interrup_Libreria.c: 192:     else
  1760  0365  120A  118A  2399  120A  118A  	fcall	_multiplexar
  1761  036A                     i1l1305:
  1762                           
  1763                           ;Interrup_Libreria.c: 193:     {
  1764  036A  1283               	bcf	3,5	;RP0=0, select bank0
  1765  036B  1303               	bcf	3,6	;RP1=0, select bank0
  1766  036C  0835               	movf	_show,w
  1767  036D  120A  118A  2023  120A  118A  	fcall	_hexadecimal
  1768  0372                     i1l132:
  1769  0372  0008               	return
  1770  0373                     __end_of_multiplex_config:
  1771                           
  1772                           	psect	text10
  1773  0399                     __ptext10:	
  1774 ;; *************** function _multiplexar *****************
  1775 ;; Defined at:
  1776 ;;		line 39 in file "multiplex_lib.c"
  1777 ;; Parameters:    Size  Location     Type
  1778 ;;		None
  1779 ;; Auto vars:     Size  Location     Type
  1780 ;;		None
  1781 ;; Return value:  Size  Location     Type
  1782 ;;                  1    wreg      void 
  1783 ;; Registers used:
  1784 ;;		wreg, status,2, status,0
  1785 ;; Tracked objects:
  1786 ;;		On entry : 0/0
  1787 ;;		On exit  : 0/0
  1788 ;;		Unchanged: 0/0
  1789 ;; Data sizes:     COMMON   BANK0   BANK1   BANK3   BANK2
  1790 ;;      Params:         0       0       0       0       0
  1791 ;;      Locals:         0       0       0       0       0
  1792 ;;      Temps:          0       0       0       0       0
  1793 ;;      Totals:         0       0       0       0       0
  1794 ;;Total ram usage:        0 bytes
  1795 ;; Hardware stack levels used:    1
  1796 ;; This function calls:
  1797 ;;		Nothing
  1798 ;; This function is called by:
  1799 ;;		_multiplex_config
  1800 ;; This function uses a non-reentrant model
  1801 ;;
  1802                           
  1803                           
  1804                           ;psect for function _multiplexar
  1805  0399                     _multiplexar:
  1806  0399                     i1l1295:	
  1807                           ;incstack = 0
  1808                           ; Regs used in _multiplexar: [wreg+status,2+status,0]
  1809                           
  1810                           
  1811                           ;multiplex_lib.c: 41:     if (toogle == 0)
  1812  0399  1283               	bcf	3,5	;RP0=0, select bank0
  1813  039A  1303               	bcf	3,6	;RP1=0, select bank0
  1814  039B  0832               	movf	_toogle,w
  1815  039C  1D03               	btfss	3,2
  1816  039D  2B9F               	goto	u40_21
  1817  039E  2BA0               	goto	u40_20
  1818  039F                     u40_21:
  1819  039F  2BA3               	goto	i1l1299
  1820  03A0                     u40_20:
  1821  03A0                     i1l1297:
  1822                           
  1823                           ;multiplex_lib.c: 42:     {;multiplex_lib.c: 43:         toogle = 1;
  1824  03A0  01B2               	clrf	_toogle
  1825  03A1  0AB2               	incf	_toogle,f
  1826                           
  1827                           ;multiplex_lib.c: 44:     }
  1828  03A2  2BA4               	goto	i1l211
  1829  03A3                     i1l1299:
  1830                           
  1831                           ;multiplex_lib.c: 46:     {;multiplex_lib.c: 47:         toogle = 0;
  1832  03A3  01B2               	clrf	_toogle
  1833  03A4                     i1l211:
  1834  03A4  0008               	return
  1835  03A5                     __end_of_multiplexar:
  1836                           
  1837                           	psect	text11
  1838  028E                     __ptext11:	
  1839 ;; *************** function _division *****************
  1840 ;; Defined at:
  1841 ;;		line 17 in file "multiplex_lib.c"
  1842 ;; Parameters:    Size  Location     Type
  1843 ;;		None
  1844 ;; Auto vars:     Size  Location     Type
  1845 ;;		None
  1846 ;; Return value:  Size  Location     Type
  1847 ;;                  1    wreg      void 
  1848 ;; Registers used:
  1849 ;;		wreg, fsr0l, fsr0h, status,2, status,0, pclath, cstack
  1850 ;; Tracked objects:
  1851 ;;		On entry : 0/0
  1852 ;;		On exit  : 0/0
  1853 ;;		Unchanged: 0/0
  1854 ;; Data sizes:     COMMON   BANK0   BANK1   BANK3   BANK2
  1855 ;;      Params:         0       0       0       0       0
  1856 ;;      Locals:         0       0       0       0       0
  1857 ;;      Temps:          3       0       0       0       0
  1858 ;;      Totals:         3       0       0       0       0
  1859 ;;Total ram usage:        3 bytes
  1860 ;; Hardware stack levels used:    1
  1861 ;; Hardware stack levels required when called:    1
  1862 ;; This function calls:
  1863 ;;		___awdiv
  1864 ;;		_hexadecimal
  1865 ;; This function is called by:
  1866 ;;		_multiplex_config
  1867 ;; This function uses a non-reentrant model
  1868 ;;
  1869                           
  1870                           
  1871                           ;psect for function _division
  1872  028E                     _division:
  1873  028E                     i1l1275:	
  1874                           ;incstack = 0
  1875                           ; Regs used in _division: [wreg-fsr0h+status,2+status,0+pclath+cstack]
  1876                           
  1877                           
  1878                           ;multiplex_lib.c: 19:     PORTEbits.RE0 = 0;
  1879  028E  1283               	bcf	3,5	;RP0=0, select bank0
  1880  028F  1303               	bcf	3,6	;RP1=0, select bank0
  1881  0290  1009               	bcf	9,0	;volatile
  1882                           
  1883                           ;multiplex_lib.c: 20:     PORTEbits.RE1 = 0;
  1884  0291  1089               	bcf	9,1	;volatile
  1885  0292                     i1l1277:
  1886                           
  1887                           ;multiplex_lib.c: 22:     decena = adc_value/16;
  1888  0292  3010               	movlw	16
  1889  0293  00F0               	movwf	___awdiv@divisor
  1890  0294  3000               	movlw	0
  1891  0295  00F1               	movwf	___awdiv@divisor+1
  1892  0296  087C               	movf	_adc_value,w
  1893  0297  00F9               	movwf	??_division
  1894  0298  01FA               	clrf	??_division+1
  1895  0299  0879               	movf	??_division,w
  1896  029A  00F2               	movwf	___awdiv@dividend
  1897  029B  087A               	movf	??_division+1,w
  1898  029C  00F3               	movwf	___awdiv@dividend+1
  1899  029D  120A  118A  2227  120A  118A  	fcall	___awdiv
  1900  02A2  0870               	movf	?___awdiv,w
  1901  02A3  00FB               	movwf	??_division+2
  1902  02A4  087B               	movf	??_division+2,w
  1903  02A5  1283               	bcf	3,5	;RP0=0, select bank0
  1904  02A6  1303               	bcf	3,6	;RP1=0, select bank0
  1905  02A7  00B3               	movwf	_decena
  1906  02A8                     i1l1279:
  1907                           
  1908                           ;multiplex_lib.c: 23:     unidad = adc_value%16;
  1909  02A8  087C               	movf	_adc_value,w
  1910  02A9  390F               	andlw	15
  1911  02AA  00F9               	movwf	??_division
  1912  02AB  0879               	movf	??_division,w
  1913  02AC  00B4               	movwf	_unidad
  1914  02AD                     i1l1281:
  1915                           
  1916                           ;multiplex_lib.c: 25:     if (toogle == 0)
  1917  02AD  0832               	movf	_toogle,w
  1918  02AE  1D03               	btfss	3,2
  1919  02AF  2AB1               	goto	u39_21
  1920  02B0  2AB2               	goto	u39_20
  1921  02B1                     u39_21:
  1922  02B1  2AC0               	goto	i1l1289
  1923  02B2                     u39_20:
  1924  02B2                     i1l1283:
  1925                           
  1926                           ;multiplex_lib.c: 26:     {;multiplex_lib.c: 27:         show = decena;
  1927  02B2  0833               	movf	_decena,w
  1928  02B3  00F9               	movwf	??_division
  1929  02B4  0879               	movf	??_division,w
  1930  02B5  00B5               	movwf	_show
  1931  02B6                     i1l1285:
  1932                           
  1933                           ;multiplex_lib.c: 28:         hexadecimal (show);
  1934  02B6  0835               	movf	_show,w
  1935  02B7  120A  118A  2023  120A  118A  	fcall	_hexadecimal
  1936  02BC                     i1l1287:
  1937                           
  1938                           ;multiplex_lib.c: 29:         PORTEbits.RE0 = 1;
  1939  02BC  1283               	bcf	3,5	;RP0=0, select bank0
  1940  02BD  1303               	bcf	3,6	;RP1=0, select bank0
  1941  02BE  1409               	bsf	9,0	;volatile
  1942                           
  1943                           ;multiplex_lib.c: 30:     }
  1944  02BF  2ACD               	goto	i1l206
  1945  02C0                     i1l1289:
  1946                           
  1947                           ;multiplex_lib.c: 32:     {;multiplex_lib.c: 33:         show = unidad;
  1948  02C0  0834               	movf	_unidad,w
  1949  02C1  00F9               	movwf	??_division
  1950  02C2  0879               	movf	??_division,w
  1951  02C3  00B5               	movwf	_show
  1952  02C4                     i1l1291:
  1953                           
  1954                           ;multiplex_lib.c: 34:         hexadecimal (show);
  1955  02C4  0835               	movf	_show,w
  1956  02C5  120A  118A  2023  120A  118A  	fcall	_hexadecimal
  1957  02CA                     i1l1293:
  1958                           
  1959                           ;multiplex_lib.c: 35:         PORTEbits.RE1 = 1;
  1960  02CA  1283               	bcf	3,5	;RP0=0, select bank0
  1961  02CB  1303               	bcf	3,6	;RP1=0, select bank0
  1962  02CC  1489               	bsf	9,1	;volatile
  1963  02CD                     i1l206:
  1964  02CD  0008               	return
  1965  02CE                     __end_of_division:
  1966                           
  1967                           	psect	text12
  1968  0023                     __ptext12:	
  1969 ;; *************** function _hexadecimal *****************
  1970 ;; Defined at:
  1971 ;;		line 51 in file "multiplex_lib.c"
  1972 ;; Parameters:    Size  Location     Type
  1973 ;;  show            1    wreg     unsigned char 
  1974 ;; Auto vars:     Size  Location     Type
  1975 ;;  show            1    2[COMMON] unsigned char 
  1976 ;; Return value:  Size  Location     Type
  1977 ;;                  1    wreg      void 
  1978 ;; Registers used:
  1979 ;;		wreg, fsr0l, fsr0h, status,2, status,0
  1980 ;; Tracked objects:
  1981 ;;		On entry : 0/0
  1982 ;;		On exit  : 0/0
  1983 ;;		Unchanged: 0/0
  1984 ;; Data sizes:     COMMON   BANK0   BANK1   BANK3   BANK2
  1985 ;;      Params:         0       0       0       0       0
  1986 ;;      Locals:         1       0       0       0       0
  1987 ;;      Temps:          2       0       0       0       0
  1988 ;;      Totals:         3       0       0       0       0
  1989 ;;Total ram usage:        3 bytes
  1990 ;; Hardware stack levels used:    1
  1991 ;; This function calls:
  1992 ;;		Nothing
  1993 ;; This function is called by:
  1994 ;;		_multiplex_config
  1995 ;;		_division
  1996 ;; This function uses a non-reentrant model
  1997 ;;
  1998                           
  1999                           
  2000                           ;psect for function _hexadecimal
  2001  0023                     _hexadecimal:
  2002                           
  2003                           ;incstack = 0
  2004                           ; Regs used in _hexadecimal: [wreg-fsr0h+status,2+status,0]
  2005                           ;hexadecimal@show stored from wreg
  2006  0023  00F2               	movwf	hexadecimal@show
  2007  0024                     i1l1175:
  2008                           
  2009                           ;multiplex_lib.c: 51: void hexadecimal (uint8_t show);multiplex_lib.c: 52: {;multiplex_l
      +                          ib.c: 53:     switch (show)
  2010  0024  2879               	goto	i1l1213
  2011  0025                     i1l1177:
  2012                           
  2013                           ;multiplex_lib.c: 56:             PORTC = 0b00111111;
  2014  0025  303F               	movlw	63
  2015  0026  1283               	bcf	3,5	;RP0=0, select bank0
  2016  0027  1303               	bcf	3,6	;RP1=0, select bank0
  2017  0028  0087               	movwf	7	;volatile
  2018                           
  2019                           ;multiplex_lib.c: 57:             break;
  2020  0029  28B3               	goto	i1l233
  2021  002A                     i1l1179:
  2022                           
  2023                           ;multiplex_lib.c: 59:             PORTC = 0b00000110;
  2024  002A  3006               	movlw	6
  2025  002B  1283               	bcf	3,5	;RP0=0, select bank0
  2026  002C  1303               	bcf	3,6	;RP1=0, select bank0
  2027  002D  0087               	movwf	7	;volatile
  2028                           
  2029                           ;multiplex_lib.c: 60:             break;
  2030  002E  28B3               	goto	i1l233
  2031  002F                     i1l1181:
  2032                           
  2033                           ;multiplex_lib.c: 62:             PORTC = 0b01011011;
  2034  002F  305B               	movlw	91
  2035  0030  1283               	bcf	3,5	;RP0=0, select bank0
  2036  0031  1303               	bcf	3,6	;RP1=0, select bank0
  2037  0032  0087               	movwf	7	;volatile
  2038                           
  2039                           ;multiplex_lib.c: 63:             break;
  2040  0033  28B3               	goto	i1l233
  2041  0034                     i1l1183:
  2042                           
  2043                           ;multiplex_lib.c: 65:             PORTC = 0b01001111;
  2044  0034  304F               	movlw	79
  2045  0035  1283               	bcf	3,5	;RP0=0, select bank0
  2046  0036  1303               	bcf	3,6	;RP1=0, select bank0
  2047  0037  0087               	movwf	7	;volatile
  2048                           
  2049                           ;multiplex_lib.c: 66:             break;
  2050  0038  28B3               	goto	i1l233
  2051  0039                     i1l1185:
  2052                           
  2053                           ;multiplex_lib.c: 68:             PORTC = 0b01100110;
  2054  0039  3066               	movlw	102
  2055  003A  1283               	bcf	3,5	;RP0=0, select bank0
  2056  003B  1303               	bcf	3,6	;RP1=0, select bank0
  2057  003C  0087               	movwf	7	;volatile
  2058                           
  2059                           ;multiplex_lib.c: 69:             break;
  2060  003D  28B3               	goto	i1l233
  2061  003E                     i1l1187:
  2062                           
  2063                           ;multiplex_lib.c: 71:             PORTC = 0b01101101;
  2064  003E  306D               	movlw	109
  2065  003F  1283               	bcf	3,5	;RP0=0, select bank0
  2066  0040  1303               	bcf	3,6	;RP1=0, select bank0
  2067  0041  0087               	movwf	7	;volatile
  2068                           
  2069                           ;multiplex_lib.c: 72:             break;
  2070  0042  28B3               	goto	i1l233
  2071  0043                     i1l1189:
  2072                           
  2073                           ;multiplex_lib.c: 74:             PORTC = 0b01111101;
  2074  0043  307D               	movlw	125
  2075  0044  1283               	bcf	3,5	;RP0=0, select bank0
  2076  0045  1303               	bcf	3,6	;RP1=0, select bank0
  2077  0046  0087               	movwf	7	;volatile
  2078                           
  2079                           ;multiplex_lib.c: 75:             break;
  2080  0047  28B3               	goto	i1l233
  2081  0048                     i1l1191:
  2082                           
  2083                           ;multiplex_lib.c: 77:             PORTC = 0b00000111;
  2084  0048  3007               	movlw	7
  2085  0049  1283               	bcf	3,5	;RP0=0, select bank0
  2086  004A  1303               	bcf	3,6	;RP1=0, select bank0
  2087  004B  0087               	movwf	7	;volatile
  2088                           
  2089                           ;multiplex_lib.c: 78:             break;
  2090  004C  28B3               	goto	i1l233
  2091  004D                     i1l1193:
  2092                           
  2093                           ;multiplex_lib.c: 80:             PORTC = 0b01111111;
  2094  004D  307F               	movlw	127
  2095  004E  1283               	bcf	3,5	;RP0=0, select bank0
  2096  004F  1303               	bcf	3,6	;RP1=0, select bank0
  2097  0050  0087               	movwf	7	;volatile
  2098                           
  2099                           ;multiplex_lib.c: 81:             break;
  2100  0051  28B3               	goto	i1l233
  2101  0052                     i1l1195:
  2102                           
  2103                           ;multiplex_lib.c: 83:             PORTC = 0b01101111;
  2104  0052  306F               	movlw	111
  2105  0053  1283               	bcf	3,5	;RP0=0, select bank0
  2106  0054  1303               	bcf	3,6	;RP1=0, select bank0
  2107  0055  0087               	movwf	7	;volatile
  2108                           
  2109                           ;multiplex_lib.c: 84:             break;
  2110  0056  28B3               	goto	i1l233
  2111  0057                     i1l1197:
  2112                           
  2113                           ;multiplex_lib.c: 86:             PORTC = 0b01110111;
  2114  0057  3077               	movlw	119
  2115  0058  1283               	bcf	3,5	;RP0=0, select bank0
  2116  0059  1303               	bcf	3,6	;RP1=0, select bank0
  2117  005A  0087               	movwf	7	;volatile
  2118                           
  2119                           ;multiplex_lib.c: 87:             break;
  2120  005B  28B3               	goto	i1l233
  2121  005C                     i1l1199:
  2122                           
  2123                           ;multiplex_lib.c: 89:             PORTC = 0b01111100;
  2124  005C  307C               	movlw	124
  2125  005D  1283               	bcf	3,5	;RP0=0, select bank0
  2126  005E  1303               	bcf	3,6	;RP1=0, select bank0
  2127  005F  0087               	movwf	7	;volatile
  2128                           
  2129                           ;multiplex_lib.c: 90:             break;
  2130  0060  28B3               	goto	i1l233
  2131  0061                     i1l1201:
  2132                           
  2133                           ;multiplex_lib.c: 92:             PORTC = 0b00111001;
  2134  0061  3039               	movlw	57
  2135  0062  1283               	bcf	3,5	;RP0=0, select bank0
  2136  0063  1303               	bcf	3,6	;RP1=0, select bank0
  2137  0064  0087               	movwf	7	;volatile
  2138                           
  2139                           ;multiplex_lib.c: 93:             break;
  2140  0065  28B3               	goto	i1l233
  2141  0066                     i1l1203:
  2142                           
  2143                           ;multiplex_lib.c: 95:             PORTC = 0b01011110;
  2144  0066  305E               	movlw	94
  2145  0067  1283               	bcf	3,5	;RP0=0, select bank0
  2146  0068  1303               	bcf	3,6	;RP1=0, select bank0
  2147  0069  0087               	movwf	7	;volatile
  2148                           
  2149                           ;multiplex_lib.c: 96:             break;
  2150  006A  28B3               	goto	i1l233
  2151  006B                     i1l1205:
  2152                           
  2153                           ;multiplex_lib.c: 98:             PORTC = 0b01111001;
  2154  006B  3079               	movlw	121
  2155  006C  1283               	bcf	3,5	;RP0=0, select bank0
  2156  006D  1303               	bcf	3,6	;RP1=0, select bank0
  2157  006E  0087               	movwf	7	;volatile
  2158                           
  2159                           ;multiplex_lib.c: 99:             break;
  2160  006F  28B3               	goto	i1l233
  2161  0070                     i1l1207:
  2162                           
  2163                           ;multiplex_lib.c: 101:             PORTC = 0b01110001;
  2164  0070  3071               	movlw	113
  2165  0071  1283               	bcf	3,5	;RP0=0, select bank0
  2166  0072  1303               	bcf	3,6	;RP1=0, select bank0
  2167  0073  0087               	movwf	7	;volatile
  2168                           
  2169                           ;multiplex_lib.c: 102:             break;
  2170  0074  28B3               	goto	i1l233
  2171  0075                     i1l1209:
  2172                           
  2173                           ;multiplex_lib.c: 104:             PORTC = 0b00000000;
  2174  0075  1283               	bcf	3,5	;RP0=0, select bank0
  2175  0076  1303               	bcf	3,6	;RP1=0, select bank0
  2176  0077  0187               	clrf	7	;volatile
  2177                           
  2178                           ;multiplex_lib.c: 105:             break;
  2179  0078  28B3               	goto	i1l233
  2180  0079                     i1l1213:
  2181  0079  0872               	movf	hexadecimal@show,w
  2182  007A  00F0               	movwf	??_hexadecimal
  2183  007B  01F1               	clrf	??_hexadecimal+1
  2184                           
  2185                           ; Switch on 2 bytes has been partitioned into a top level switch of size 1, and 1 sub-sw
      +                          itches
  2186                           ; Switch size 1, requested type "simple"
  2187                           ; Number of cases is 1, Range of values is 0 to 0
  2188                           ; switch strategies available:
  2189                           ; Name         Instructions Cycles
  2190                           ; simple_byte            4     3 (average)
  2191                           ; direct_byte           11     8 (fixed)
  2192                           ; jumptable            260     6 (fixed)
  2193                           ;	Chosen strategy is simple_byte
  2194  007C  0871               	movf	??_hexadecimal+1,w
  2195  007D  3A00               	xorlw	0	; case 0
  2196  007E  1903               	skipnz
  2197  007F  2881               	goto	i1l1527
  2198  0080  2875               	goto	i1l1209
  2199  0081                     i1l1527:
  2200                           
  2201                           ; Switch size 1, requested type "simple"
  2202                           ; Number of cases is 16, Range of values is 0 to 15
  2203                           ; switch strategies available:
  2204                           ; Name         Instructions Cycles
  2205                           ; simple_byte           49    25 (average)
  2206                           ; direct_byte           56     8 (fixed)
  2207                           ; jumptable            260     6 (fixed)
  2208                           ;	Chosen strategy is simple_byte
  2209  0081  0870               	movf	??_hexadecimal,w
  2210  0082  3A00               	xorlw	0	; case 0
  2211  0083  1903               	skipnz
  2212  0084  2825               	goto	i1l1177
  2213  0085  3A01               	xorlw	1	; case 1
  2214  0086  1903               	skipnz
  2215  0087  282A               	goto	i1l1179
  2216  0088  3A03               	xorlw	3	; case 2
  2217  0089  1903               	skipnz
  2218  008A  282F               	goto	i1l1181
  2219  008B  3A01               	xorlw	1	; case 3
  2220  008C  1903               	skipnz
  2221  008D  2834               	goto	i1l1183
  2222  008E  3A07               	xorlw	7	; case 4
  2223  008F  1903               	skipnz
  2224  0090  2839               	goto	i1l1185
  2225  0091  3A01               	xorlw	1	; case 5
  2226  0092  1903               	skipnz
  2227  0093  283E               	goto	i1l1187
  2228  0094  3A03               	xorlw	3	; case 6
  2229  0095  1903               	skipnz
  2230  0096  2843               	goto	i1l1189
  2231  0097  3A01               	xorlw	1	; case 7
  2232  0098  1903               	skipnz
  2233  0099  2848               	goto	i1l1191
  2234  009A  3A0F               	xorlw	15	; case 8
  2235  009B  1903               	skipnz
  2236  009C  284D               	goto	i1l1193
  2237  009D  3A01               	xorlw	1	; case 9
  2238  009E  1903               	skipnz
  2239  009F  2852               	goto	i1l1195
  2240  00A0  3A03               	xorlw	3	; case 10
  2241  00A1  1903               	skipnz
  2242  00A2  2857               	goto	i1l1197
  2243  00A3  3A01               	xorlw	1	; case 11
  2244  00A4  1903               	skipnz
  2245  00A5  285C               	goto	i1l1199
  2246  00A6  3A07               	xorlw	7	; case 12
  2247  00A7  1903               	skipnz
  2248  00A8  2861               	goto	i1l1201
  2249  00A9  3A01               	xorlw	1	; case 13
  2250  00AA  1903               	skipnz
  2251  00AB  2866               	goto	i1l1203
  2252  00AC  3A03               	xorlw	3	; case 14
  2253  00AD  1903               	skipnz
  2254  00AE  286B               	goto	i1l1205
  2255  00AF  3A01               	xorlw	1	; case 15
  2256  00B0  1903               	skipnz
  2257  00B1  2870               	goto	i1l1207
  2258  00B2  2875               	goto	i1l1209
  2259  00B3                     i1l233:
  2260  00B3  0008               	return
  2261  00B4                     __end_of_hexadecimal:
  2262                           
  2263                           	psect	text13
  2264  0227                     __ptext13:	
  2265 ;; *************** function ___awdiv *****************
  2266 ;; Defined at:
  2267 ;;		line 5 in file "C:\Program Files\Microchip\xc8\v2.31\pic\sources\c90\common\awdiv.c"
  2268 ;; Parameters:    Size  Location     Type
  2269 ;;  divisor         2    0[COMMON] int 
  2270 ;;  dividend        2    2[COMMON] int 
  2271 ;; Auto vars:     Size  Location     Type
  2272 ;;  quotient        2    7[COMMON] int 
  2273 ;;  sign            1    6[COMMON] unsigned char 
  2274 ;;  counter         1    5[COMMON] unsigned char 
  2275 ;; Return value:  Size  Location     Type
  2276 ;;                  2    0[COMMON] int 
  2277 ;; Registers used:
  2278 ;;		wreg, status,2, status,0
  2279 ;; Tracked objects:
  2280 ;;		On entry : 0/0
  2281 ;;		On exit  : 0/0
  2282 ;;		Unchanged: 0/0
  2283 ;; Data sizes:     COMMON   BANK0   BANK1   BANK3   BANK2
  2284 ;;      Params:         4       0       0       0       0
  2285 ;;      Locals:         4       0       0       0       0
  2286 ;;      Temps:          1       0       0       0       0
  2287 ;;      Totals:         9       0       0       0       0
  2288 ;;Total ram usage:        9 bytes
  2289 ;; Hardware stack levels used:    1
  2290 ;; This function calls:
  2291 ;;		Nothing
  2292 ;; This function is called by:
  2293 ;;		_division
  2294 ;; This function uses a non-reentrant model
  2295 ;;
  2296                           
  2297                           
  2298                           ;psect for function ___awdiv
  2299  0227                     ___awdiv:
  2300  0227                     i1l1219:	
  2301                           ;incstack = 0
  2302                           ; Regs used in ___awdiv: [wreg+status,2+status,0]
  2303                           
  2304  0227  01F6               	clrf	___awdiv@sign
  2305  0228                     i1l1221:
  2306  0228  1FF1               	btfss	___awdiv@divisor+1,7
  2307  0229  2A2B               	goto	u29_21
  2308  022A  2A2C               	goto	u29_20
  2309  022B                     u29_21:
  2310  022B  2A33               	goto	i1l1227
  2311  022C                     u29_20:
  2312  022C                     i1l1223:
  2313  022C  09F0               	comf	___awdiv@divisor,f
  2314  022D  09F1               	comf	___awdiv@divisor+1,f
  2315  022E  0AF0               	incf	___awdiv@divisor,f
  2316  022F  1903               	skipnz
  2317  0230  0AF1               	incf	___awdiv@divisor+1,f
  2318  0231                     i1l1225:
  2319  0231  01F6               	clrf	___awdiv@sign
  2320  0232  0AF6               	incf	___awdiv@sign,f
  2321  0233                     i1l1227:
  2322  0233  1FF3               	btfss	___awdiv@dividend+1,7
  2323  0234  2A36               	goto	u30_21
  2324  0235  2A37               	goto	u30_20
  2325  0236                     u30_21:
  2326  0236  2A40               	goto	i1l1233
  2327  0237                     u30_20:
  2328  0237                     i1l1229:
  2329  0237  09F2               	comf	___awdiv@dividend,f
  2330  0238  09F3               	comf	___awdiv@dividend+1,f
  2331  0239  0AF2               	incf	___awdiv@dividend,f
  2332  023A  1903               	skipnz
  2333  023B  0AF3               	incf	___awdiv@dividend+1,f
  2334  023C                     i1l1231:
  2335  023C  3001               	movlw	1
  2336  023D  00F4               	movwf	??___awdiv
  2337  023E  0874               	movf	??___awdiv,w
  2338  023F  06F6               	xorwf	___awdiv@sign,f
  2339  0240                     i1l1233:
  2340  0240  01F7               	clrf	___awdiv@quotient
  2341  0241  01F8               	clrf	___awdiv@quotient+1
  2342  0242                     i1l1235:
  2343  0242  0870               	movf	___awdiv@divisor,w
  2344  0243  0471               	iorwf	___awdiv@divisor+1,w
  2345  0244  1903               	btfsc	3,2
  2346  0245  2A47               	goto	u31_21
  2347  0246  2A48               	goto	u31_20
  2348  0247                     u31_21:
  2349  0247  2A7F               	goto	i1l1255
  2350  0248                     u31_20:
  2351  0248                     i1l1237:
  2352  0248  01F5               	clrf	___awdiv@counter
  2353  0249  0AF5               	incf	___awdiv@counter,f
  2354  024A  2A56               	goto	i1l1243
  2355  024B                     i1l1239:
  2356  024B  3001               	movlw	1
  2357  024C                     u32_25:
  2358  024C  1003               	clrc
  2359  024D  0DF0               	rlf	___awdiv@divisor,f
  2360  024E  0DF1               	rlf	___awdiv@divisor+1,f
  2361  024F  3EFF               	addlw	-1
  2362  0250  1D03               	skipz
  2363  0251  2A4C               	goto	u32_25
  2364  0252                     i1l1241:
  2365  0252  3001               	movlw	1
  2366  0253  00F4               	movwf	??___awdiv
  2367  0254  0874               	movf	??___awdiv,w
  2368  0255  07F5               	addwf	___awdiv@counter,f
  2369  0256                     i1l1243:
  2370  0256  1FF1               	btfss	___awdiv@divisor+1,7
  2371  0257  2A59               	goto	u33_21
  2372  0258  2A5A               	goto	u33_20
  2373  0259                     u33_21:
  2374  0259  2A4B               	goto	i1l1239
  2375  025A                     u33_20:
  2376  025A                     i1l1245:
  2377  025A  3001               	movlw	1
  2378  025B                     u34_25:
  2379  025B  1003               	clrc
  2380  025C  0DF7               	rlf	___awdiv@quotient,f
  2381  025D  0DF8               	rlf	___awdiv@quotient+1,f
  2382  025E  3EFF               	addlw	-1
  2383  025F  1D03               	skipz
  2384  0260  2A5B               	goto	u34_25
  2385  0261  0871               	movf	___awdiv@divisor+1,w
  2386  0262  0273               	subwf	___awdiv@dividend+1,w
  2387  0263  1D03               	skipz
  2388  0264  2A67               	goto	u35_25
  2389  0265  0870               	movf	___awdiv@divisor,w
  2390  0266  0272               	subwf	___awdiv@dividend,w
  2391  0267                     u35_25:
  2392  0267  1C03               	skipc
  2393  0268  2A6A               	goto	u35_21
  2394  0269  2A6B               	goto	u35_20
  2395  026A                     u35_21:
  2396  026A  2A72               	goto	i1l1251
  2397  026B                     u35_20:
  2398  026B                     i1l1247:
  2399  026B  0870               	movf	___awdiv@divisor,w
  2400  026C  02F2               	subwf	___awdiv@dividend,f
  2401  026D  0871               	movf	___awdiv@divisor+1,w
  2402  026E  1C03               	skipc
  2403  026F  03F3               	decf	___awdiv@dividend+1,f
  2404  0270  02F3               	subwf	___awdiv@dividend+1,f
  2405  0271                     i1l1249:
  2406  0271  1477               	bsf	___awdiv@quotient,0
  2407  0272                     i1l1251:
  2408  0272  3001               	movlw	1
  2409  0273                     u36_25:
  2410  0273  1003               	clrc
  2411  0274  0CF1               	rrf	___awdiv@divisor+1,f
  2412  0275  0CF0               	rrf	___awdiv@divisor,f
  2413  0276  3EFF               	addlw	-1
  2414  0277  1D03               	skipz
  2415  0278  2A73               	goto	u36_25
  2416  0279                     i1l1253:
  2417  0279  3001               	movlw	1
  2418  027A  02F5               	subwf	___awdiv@counter,f
  2419  027B  1D03               	btfss	3,2
  2420  027C  2A7E               	goto	u37_21
  2421  027D  2A7F               	goto	u37_20
  2422  027E                     u37_21:
  2423  027E  2A5A               	goto	i1l1245
  2424  027F                     u37_20:
  2425  027F                     i1l1255:
  2426  027F  0876               	movf	___awdiv@sign,w
  2427  0280  1903               	btfsc	3,2
  2428  0281  2A83               	goto	u38_21
  2429  0282  2A84               	goto	u38_20
  2430  0283                     u38_21:
  2431  0283  2A89               	goto	i1l1259
  2432  0284                     u38_20:
  2433  0284                     i1l1257:
  2434  0284  09F7               	comf	___awdiv@quotient,f
  2435  0285  09F8               	comf	___awdiv@quotient+1,f
  2436  0286  0AF7               	incf	___awdiv@quotient,f
  2437  0287  1903               	skipnz
  2438  0288  0AF8               	incf	___awdiv@quotient+1,f
  2439  0289                     i1l1259:
  2440  0289  0878               	movf	___awdiv@quotient+1,w
  2441  028A  00F1               	movwf	?___awdiv+1
  2442  028B  0877               	movf	___awdiv@quotient,w
  2443  028C  00F0               	movwf	?___awdiv
  2444  028D                     i1l472:
  2445  028D  0008               	return
  2446  028E                     __end_of___awdiv:
  2447                           
  2448                           	psect	text14
  2449  0141                     __ptext14:	
  2450 ;; *************** function _incrementar *****************
  2451 ;; Defined at:
  2452 ;;		line 212 in file "Interrup_Libreria.c"
  2453 ;; Parameters:    Size  Location     Type
  2454 ;;		None
  2455 ;; Auto vars:     Size  Location     Type
  2456 ;;  e               2    2[COMMON] int 
  2457 ;;  e               2    0[COMMON] int 
  2458 ;; Return value:  Size  Location     Type
  2459 ;;                  1    wreg      void 
  2460 ;; Registers used:
  2461 ;;		wreg, status,2, status,0, btemp+1
  2462 ;; Tracked objects:
  2463 ;;		On entry : 0/0
  2464 ;;		On exit  : 0/0
  2465 ;;		Unchanged: 0/0
  2466 ;; Data sizes:     COMMON   BANK0   BANK1   BANK3   BANK2
  2467 ;;      Params:         0       0       0       0       0
  2468 ;;      Locals:         4       0       0       0       0
  2469 ;;      Temps:          0       0       0       0       0
  2470 ;;      Totals:         4       0       0       0       0
  2471 ;;Total ram usage:        4 bytes
  2472 ;; Hardware stack levels used:    1
  2473 ;; This function calls:
  2474 ;;		Nothing
  2475 ;; This function is called by:
  2476 ;;		_ISR
  2477 ;; This function uses a non-reentrant model
  2478 ;;
  2479                           
  2480                           
  2481                           ;psect for function _incrementar
  2482  0141                     _incrementar:
  2483  0141                     i1l1307:	
  2484                           ;incstack = 0
  2485                           ; Regs used in _incrementar: [wreg+status,2+status,0+btemp+1]
  2486                           
  2487                           
  2488                           ;Interrup_Libreria.c: 214:         {
  2489  0141  1283               	bcf	3,5	;RP0=0, select bank0
  2490  0142  1303               	bcf	3,6	;RP1=0, select bank0
  2491  0143  1C06               	btfss	6,0	;volatile
  2492  0144  2946               	goto	u41_21
  2493  0145  2947               	goto	u41_20
  2494  0146                     u41_21:
  2495  0146  2983               	goto	i1l1333
  2496  0147                     u41_20:
  2497  0147                     i1l1309:
  2498                           
  2499                           ;Interrup_Libreria.c: 215:             if (presionado2 == 0);Interrup_Libreria.c: 216:  
      +                                     {
  2500  0147  01F0               	clrf	incrementar@e
  2501  0148  01F1               	clrf	incrementar@e+1
  2502  0149                     i1l1315:
  2503                           
  2504                           ;Interrup_Libreria.c: 217:                 PORTD = PORTD - 1;
  2505  0149  1283               	bcf	3,5	;RP0=0, select bank0
  2506  014A  1303               	bcf	3,6	;RP1=0, select bank0
  2507  014B  082E               	movf	_pressed_ok,w
  2508  014C  3E01               	addlw	1
  2509  014D  00AE               	movwf	_pressed_ok
  2510  014E  082F               	movf	_pressed_ok+1,w
  2511  014F  1803               	skipnc
  2512  0150  3E01               	addlw	1
  2513  0151  3E00               	addlw	0
  2514  0152  00AF               	movwf	_pressed_ok+1
  2515  0153                     i1l1317:
  2516  0153  3001               	movlw	1
  2517  0154  07F0               	addwf	incrementar@e,f
  2518  0155  1803               	skipnc
  2519  0156  0AF1               	incf	incrementar@e+1,f
  2520  0157  3000               	movlw	0
  2521  0158  07F1               	addwf	incrementar@e+1,f
  2522  0159                     i1l1319:
  2523  0159  0871               	movf	incrementar@e+1,w
  2524  015A  3A80               	xorlw	128
  2525  015B  00FF               	movwf	btemp+1
  2526  015C  3080               	movlw	128
  2527  015D  027F               	subwf	btemp+1,w
  2528  015E  1D03               	skipz
  2529  015F  2962               	goto	u42_25
  2530  0160  300B               	movlw	11
  2531  0161  0270               	subwf	incrementar@e,w
  2532  0162                     u42_25:
  2533  0162  1C03               	skipc
  2534  0163  2965               	goto	u42_21
  2535  0164  2966               	goto	u42_20
  2536  0165                     u42_21:
  2537  0165  2949               	goto	i1l1315
  2538  0166                     u42_20:
  2539  0166                     i1l1321:
  2540                           
  2541                           ;Interrup_Libreria.c: 218:                 presionado2 = 1;
  2542  0166  1283               	bcf	3,5	;RP0=0, select bank0
  2543  0167  1303               	bcf	3,6	;RP1=0, select bank0
  2544  0168  01AC               	clrf	_released_ok
  2545  0169  01AD               	clrf	_released_ok+1
  2546  016A                     i1l1323:
  2547                           
  2548                           ;Interrup_Libreria.c: 219:             }
  2549  016A  3000               	movlw	0
  2550  016B  022F               	subwf	_pressed_ok+1,w
  2551  016C  300B               	movlw	11
  2552  016D  1903               	skipnz
  2553  016E  022E               	subwf	_pressed_ok,w
  2554  016F  1C03               	skipc
  2555  0170  2972               	goto	u43_21
  2556  0171  2973               	goto	u43_20
  2557  0172                     u43_21:
  2558  0172  2980               	goto	i1l1331
  2559  0173                     u43_20:
  2560  0173                     i1l1325:
  2561                           
  2562                           ;Interrup_Libreria.c: 220:         };Interrup_Libreria.c: 221:         pressed_ok2 = 0;
  2563  0173  082A               	movf	_presionado,w
  2564  0174  042B               	iorwf	_presionado+1,w
  2565  0175  1D03               	btfss	3,2
  2566  0176  2978               	goto	u44_21
  2567  0177  2979               	goto	u44_20
  2568  0178                     u44_21:
  2569  0178  2980               	goto	i1l1331
  2570  0179                     u44_20:
  2571  0179                     i1l1327:
  2572                           
  2573                           ;Interrup_Libreria.c: 222:         };Interrup_Libreria.c: 223:     else
  2574  0179  0808               	movf	8,w	;volatile
  2575  017A  3E01               	addlw	1
  2576  017B  0088               	movwf	8	;volatile
  2577  017C                     i1l1329:
  2578                           
  2579                           ;Interrup_Libreria.c: 224:     {
  2580  017C  3001               	movlw	1
  2581  017D  00AA               	movwf	_presionado
  2582  017E  3000               	movlw	0
  2583  017F  00AB               	movwf	_presionado+1
  2584  0180                     i1l1331:
  2585                           
  2586                           ;Interrup_Libreria.c: 227:         pressed_ok2 = 0;
  2587  0180  01AE               	clrf	_pressed_ok
  2588  0181  01AF               	clrf	_pressed_ok+1
  2589                           
  2590                           ;Interrup_Libreria.c: 228:         if (released_ok2 > 10)
  2591  0182  29B3               	goto	i1l149
  2592  0183                     i1l1333:
  2593                           
  2594                           ;Interrup_Libreria.c: 230:             presionado2 = 0;;Interrup_Libreria.c: 231:       
      +                                released_ok = 0;
  2595  0183  01F2               	clrf	incrementar@e_339
  2596  0184  01F3               	clrf	incrementar@e_339+1
  2597  0185                     i1l1339:
  2598                           
  2599                           ;Interrup_Libreria.c: 232:         }
  2600  0185  1283               	bcf	3,5	;RP0=0, select bank0
  2601  0186  1303               	bcf	3,6	;RP1=0, select bank0
  2602  0187  082C               	movf	_released_ok,w
  2603  0188  3E01               	addlw	1
  2604  0189  00AC               	movwf	_released_ok
  2605  018A  082D               	movf	_released_ok+1,w
  2606  018B  1803               	skipnc
  2607  018C  3E01               	addlw	1
  2608  018D  3E00               	addlw	0
  2609  018E  00AD               	movwf	_released_ok+1
  2610  018F                     i1l1341:
  2611  018F  3001               	movlw	1
  2612  0190  07F2               	addwf	incrementar@e_339,f
  2613  0191  1803               	skipnc
  2614  0192  0AF3               	incf	incrementar@e_339+1,f
  2615  0193  3000               	movlw	0
  2616  0194  07F3               	addwf	incrementar@e_339+1,f
  2617  0195                     i1l1343:
  2618  0195  0873               	movf	incrementar@e_339+1,w
  2619  0196  3A80               	xorlw	128
  2620  0197  00FF               	movwf	btemp+1
  2621  0198  3080               	movlw	128
  2622  0199  027F               	subwf	btemp+1,w
  2623  019A  1D03               	skipz
  2624  019B  299E               	goto	u45_25
  2625  019C  300B               	movlw	11
  2626  019D  0272               	subwf	incrementar@e_339,w
  2627  019E                     u45_25:
  2628  019E  1C03               	skipc
  2629  019F  29A1               	goto	u45_21
  2630  01A0  29A2               	goto	u45_20
  2631  01A1                     u45_21:
  2632  01A1  2985               	goto	i1l1339
  2633  01A2                     u45_20:
  2634  01A2                     i1l1345:
  2635                           
  2636                           ;Interrup_Libreria.c: 233:     }
  2637  01A2  1283               	bcf	3,5	;RP0=0, select bank0
  2638  01A3  1303               	bcf	3,6	;RP1=0, select bank0
  2639  01A4  01AE               	clrf	_pressed_ok
  2640  01A5  01AF               	clrf	_pressed_ok+1
  2641  01A6                     i1l1347:
  2642                           
  2643                           ;Interrup_Libreria.c: 234:     return;
  2644  01A6  3000               	movlw	0
  2645  01A7  022D               	subwf	_released_ok+1,w
  2646  01A8  300B               	movlw	11
  2647  01A9  1903               	skipnz
  2648  01AA  022C               	subwf	_released_ok,w
  2649  01AB  1C03               	skipc
  2650  01AC  29AE               	goto	u46_21
  2651  01AD  29AF               	goto	u46_20
  2652  01AE                     u46_21:
  2653  01AE  29B3               	goto	i1l149
  2654  01AF                     u46_20:
  2655  01AF                     i1l1349:
  2656                           
  2657                           ;Interrup_Libreria.c: 235: }
  2658  01AF  01AA               	clrf	_presionado
  2659  01B0  01AB               	clrf	_presionado+1
  2660  01B1  01AC               	clrf	_released_ok
  2661  01B2  01AD               	clrf	_released_ok+1
  2662  01B3                     i1l149:
  2663  01B3  0008               	return
  2664  01B4                     __end_of_incrementar:
  2665                           
  2666                           	psect	text15
  2667  01B4                     __ptext15:	
  2668 ;; *************** function _decrementar *****************
  2669 ;; Defined at:
  2670 ;;		line 243 in file "Interrup_Libreria.c"
  2671 ;; Parameters:    Size  Location     Type
  2672 ;;		None
  2673 ;; Auto vars:     Size  Location     Type
  2674 ;;  e               2    2[COMMON] int 
  2675 ;;  e               2    0[COMMON] int 
  2676 ;; Return value:  Size  Location     Type
  2677 ;;                  1    wreg      void 
  2678 ;; Registers used:
  2679 ;;		wreg, status,2, status,0, btemp+1
  2680 ;; Tracked objects:
  2681 ;;		On entry : 0/0
  2682 ;;		On exit  : 0/0
  2683 ;;		Unchanged: 0/0
  2684 ;; Data sizes:     COMMON   BANK0   BANK1   BANK3   BANK2
  2685 ;;      Params:         0       0       0       0       0
  2686 ;;      Locals:         4       0       0       0       0
  2687 ;;      Temps:          0       0       0       0       0
  2688 ;;      Totals:         4       0       0       0       0
  2689 ;;Total ram usage:        4 bytes
  2690 ;; Hardware stack levels used:    1
  2691 ;; This function calls:
  2692 ;;		Nothing
  2693 ;; This function is called by:
  2694 ;;		_ISR
  2695 ;; This function uses a non-reentrant model
  2696 ;;
  2697                           
  2698                           
  2699                           ;psect for function _decrementar
  2700  01B4                     _decrementar:
  2701  01B4                     i1l1353:	
  2702                           ;incstack = 0
  2703                           ; Regs used in _decrementar: [wreg+status,2+status,0+btemp+1]
  2704                           
  2705  01B4  1283               	bcf	3,5	;RP0=0, select bank0
  2706  01B5  1303               	bcf	3,6	;RP1=0, select bank0
  2707  01B6  1C86               	btfss	6,1	;volatile
  2708  01B7  29B9               	goto	u47_21
  2709  01B8  29BA               	goto	u47_20
  2710  01B9                     u47_21:
  2711  01B9  29F6               	goto	i1l1379
  2712  01BA                     u47_20:
  2713  01BA                     i1l1355:
  2714  01BA  01F0               	clrf	decrementar@e
  2715  01BB  01F1               	clrf	decrementar@e+1
  2716  01BC                     i1l1361:
  2717  01BC  1283               	bcf	3,5	;RP0=0, select bank0
  2718  01BD  1303               	bcf	3,6	;RP1=0, select bank0
  2719  01BE  0826               	movf	_pressed_ok2,w
  2720  01BF  3E01               	addlw	1
  2721  01C0  00A6               	movwf	_pressed_ok2
  2722  01C1  0827               	movf	_pressed_ok2+1,w
  2723  01C2  1803               	skipnc
  2724  01C3  3E01               	addlw	1
  2725  01C4  3E00               	addlw	0
  2726  01C5  00A7               	movwf	_pressed_ok2+1
  2727  01C6                     i1l1363:
  2728  01C6  3001               	movlw	1
  2729  01C7  07F0               	addwf	decrementar@e,f
  2730  01C8  1803               	skipnc
  2731  01C9  0AF1               	incf	decrementar@e+1,f
  2732  01CA  3000               	movlw	0
  2733  01CB  07F1               	addwf	decrementar@e+1,f
  2734  01CC                     i1l1365:
  2735  01CC  0871               	movf	decrementar@e+1,w
  2736  01CD  3A80               	xorlw	128
  2737  01CE  00FF               	movwf	btemp+1
  2738  01CF  3080               	movlw	128
  2739  01D0  027F               	subwf	btemp+1,w
  2740  01D1  1D03               	skipz
  2741  01D2  29D5               	goto	u48_25
  2742  01D3  300B               	movlw	11
  2743  01D4  0270               	subwf	decrementar@e,w
  2744  01D5                     u48_25:
  2745  01D5  1C03               	skipc
  2746  01D6  29D8               	goto	u48_21
  2747  01D7  29D9               	goto	u48_20
  2748  01D8                     u48_21:
  2749  01D8  29BC               	goto	i1l1361
  2750  01D9                     u48_20:
  2751  01D9                     i1l1367:
  2752  01D9  1283               	bcf	3,5	;RP0=0, select bank0
  2753  01DA  1303               	bcf	3,6	;RP1=0, select bank0
  2754  01DB  01A4               	clrf	_released_ok2
  2755  01DC  01A5               	clrf	_released_ok2+1
  2756  01DD                     i1l1369:
  2757  01DD  3000               	movlw	0
  2758  01DE  0227               	subwf	_pressed_ok2+1,w
  2759  01DF  300B               	movlw	11
  2760  01E0  1903               	skipnz
  2761  01E1  0226               	subwf	_pressed_ok2,w
  2762  01E2  1C03               	skipc
  2763  01E3  29E5               	goto	u49_21
  2764  01E4  29E6               	goto	u49_20
  2765  01E5                     u49_21:
  2766  01E5  29F3               	goto	i1l1377
  2767  01E6                     u49_20:
  2768  01E6                     i1l1371:
  2769  01E6  0822               	movf	_presionado2,w
  2770  01E7  0423               	iorwf	_presionado2+1,w
  2771  01E8  1D03               	btfss	3,2
  2772  01E9  29EB               	goto	u50_21
  2773  01EA  29EC               	goto	u50_20
  2774  01EB                     u50_21:
  2775  01EB  29F3               	goto	i1l1377
  2776  01EC                     u50_20:
  2777  01EC                     i1l1373:
  2778  01EC  0808               	movf	8,w	;volatile
  2779  01ED  3EFF               	addlw	255
  2780  01EE  0088               	movwf	8	;volatile
  2781  01EF                     i1l1375:
  2782  01EF  3001               	movlw	1
  2783  01F0  00A2               	movwf	_presionado2
  2784  01F1  3000               	movlw	0
  2785  01F2  00A3               	movwf	_presionado2+1
  2786  01F3                     i1l1377:
  2787  01F3  01A6               	clrf	_pressed_ok2
  2788  01F4  01A7               	clrf	_pressed_ok2+1
  2789  01F5  2A26               	goto	i1l161
  2790  01F6                     i1l1379:
  2791  01F6  01F2               	clrf	decrementar@e_342
  2792  01F7  01F3               	clrf	decrementar@e_342+1
  2793  01F8                     i1l1385:
  2794  01F8  1283               	bcf	3,5	;RP0=0, select bank0
  2795  01F9  1303               	bcf	3,6	;RP1=0, select bank0
  2796  01FA  0824               	movf	_released_ok2,w
  2797  01FB  3E01               	addlw	1
  2798  01FC  00A4               	movwf	_released_ok2
  2799  01FD  0825               	movf	_released_ok2+1,w
  2800  01FE  1803               	skipnc
  2801  01FF  3E01               	addlw	1
  2802  0200  3E00               	addlw	0
  2803  0201  00A5               	movwf	_released_ok2+1
  2804  0202                     i1l1387:
  2805  0202  3001               	movlw	1
  2806  0203  07F2               	addwf	decrementar@e_342,f
  2807  0204  1803               	skipnc
  2808  0205  0AF3               	incf	decrementar@e_342+1,f
  2809  0206  3000               	movlw	0
  2810  0207  07F3               	addwf	decrementar@e_342+1,f
  2811  0208                     i1l1389:
  2812  0208  0873               	movf	decrementar@e_342+1,w
  2813  0209  3A80               	xorlw	128
  2814  020A  00FF               	movwf	btemp+1
  2815  020B  3080               	movlw	128
  2816  020C  027F               	subwf	btemp+1,w
  2817  020D  1D03               	skipz
  2818  020E  2A11               	goto	u51_25
  2819  020F  300B               	movlw	11
  2820  0210  0272               	subwf	decrementar@e_342,w
  2821  0211                     u51_25:
  2822  0211  1C03               	skipc
  2823  0212  2A14               	goto	u51_21
  2824  0213  2A15               	goto	u51_20
  2825  0214                     u51_21:
  2826  0214  29F8               	goto	i1l1385
  2827  0215                     u51_20:
  2828  0215                     i1l1391:
  2829  0215  1283               	bcf	3,5	;RP0=0, select bank0
  2830  0216  1303               	bcf	3,6	;RP1=0, select bank0
  2831  0217  01A6               	clrf	_pressed_ok2
  2832  0218  01A7               	clrf	_pressed_ok2+1
  2833  0219                     i1l1393:
  2834  0219  3000               	movlw	0
  2835  021A  0225               	subwf	_released_ok2+1,w
  2836  021B  300B               	movlw	11
  2837  021C  1903               	skipnz
  2838  021D  0224               	subwf	_released_ok2,w
  2839  021E  1C03               	skipc
  2840  021F  2A21               	goto	u52_21
  2841  0220  2A22               	goto	u52_20
  2842  0221                     u52_21:
  2843  0221  2A26               	goto	i1l161
  2844  0222                     u52_20:
  2845  0222                     i1l1395:
  2846  0222  01A2               	clrf	_presionado2
  2847  0223  01A3               	clrf	_presionado2+1
  2848  0224  01AC               	clrf	_released_ok
  2849  0225  01AD               	clrf	_released_ok+1
  2850  0226                     i1l161:
  2851  0226  0008               	return
  2852  0227                     __end_of_decrementar:
  2853  007E                     btemp	set	126	;btemp
  2854  007E                     wtemp0	set	126
  2855                           
  2856                           	psect	config
  2857                           
  2858                           ;Config register CONFIG1 @ 0x2007
  2859                           ;	Oscillator Selection bits
  2860                           ;	FOSC = INTRC_NOCLKOUT, INTOSCIO oscillator: I/O function on RA6/OSC2/CLKOUT pin, I/O f
      +                          unction on RA7/OSC1/CLKIN
  2861                           ;	Watchdog Timer Enable bit
  2862                           ;	WDTE = OFF, WDT disabled and can be enabled by SWDTEN bit of the WDTCON register
  2863                           ;	Power-up Timer Enable bit
  2864                           ;	PWRTE = OFF, PWRT disabled
  2865                           ;	RE3/MCLR pin function select bit
  2866                           ;	MCLRE = OFF, RE3/MCLR pin function is digital input, MCLR internally tied to VDD
  2867                           ;	Code Protection bit
  2868                           ;	CP = OFF, Program memory code protection is disabled
  2869                           ;	Data Code Protection bit
  2870                           ;	CPD = OFF, Data memory code protection is disabled
  2871                           ;	Brown Out Reset Selection bits
  2872                           ;	BOREN = OFF, BOR disabled
  2873                           ;	Internal External Switchover bit
  2874                           ;	IESO = OFF, Internal/External Switchover mode is disabled
  2875                           ;	Fail-Safe Clock Monitor Enabled bit
  2876                           ;	FCMEN = OFF, Fail-Safe Clock Monitor is disabled
  2877                           ;	Low Voltage Programming Enable bit
  2878                           ;	LVP = OFF, RB3 pin has digital I/O, HV on MCLR must be used for programming
  2879                           ;	In-Circuit Debugger Mode bit
  2880                           ;	DEBUG = 0x1, unprogrammed default
  2881  2007                     	org	8199
  2882  2007  20D4               	dw	8404
  2883                           
  2884                           ;Config register CONFIG2 @ 0x2008
  2885                           ;	Brown-out Reset Selection bit
  2886                           ;	BOR4V = BOR40V, Brown-out Reset set to 4.0V
  2887                           ;	Flash Program Memory Self Write Enable bits
  2888                           ;	WRT = OFF, Write protection off
  2889  2008                     	org	8200
  2890  2008  3FFF               	dw	16383

Data Sizes:
    Strings     0
    Constant    0
    Data        0
    BSS         23
    Persistent  0
    Stack       0

Auto Spaces:
    Space          Size  Autos    Used
    COMMON           14     13      14
    BANK0            80      9      31
    BANK1            80      0       0
    BANK3            96      0       0
    BANK2            96      0       0

Pointer List with Targets:

    None.

Critical Paths under _main in COMMON

    None.

Critical Paths under _ISR in COMMON

    _multiplex_config->_division
    _division->___awdiv

Critical Paths under _main in BANK0

    _adc_config->_initADC

Critical Paths under _ISR in BANK0

    None.

Critical Paths under _main in BANK1

    None.

Critical Paths under _ISR in BANK1

    None.

Critical Paths under _main in BANK3

    None.

Critical Paths under _ISR in BANK3

    None.

Critical Paths under _main in BANK2

    None.

Critical Paths under _ISR in BANK2

    None.

Call Graph Tables:

 ---------------------------------------------------------------------------------
 (Depth) Function   	        Calls       Base Space   Used Autos Params    Refs
 ---------------------------------------------------------------------------------
 (0) _main                                                 2     2      0      22
                                              7 BANK0      2     2      0
                         _adc_config
                                _big
                    _interrup_config
                         _osc_config
                              _setup
                        _tmr0_config
 ---------------------------------------------------------------------------------
 (1) _tmr0_config                                          0     0      0       0
 ---------------------------------------------------------------------------------
 (1) _setup                                                0     0      0       0
 ---------------------------------------------------------------------------------
 (1) _osc_config                                           0     0      0       0
 ---------------------------------------------------------------------------------
 (1) _interrup_config                                      0     0      0       0
 ---------------------------------------------------------------------------------
 (1) _big                                                  0     0      0       0
 ---------------------------------------------------------------------------------
 (1) _adc_config                                           0     0      0      22
                            _initADC
 ---------------------------------------------------------------------------------
 (2) _initADC                                              3     3      0      22
                                              4 BANK0      3     3      0
 ---------------------------------------------------------------------------------
 Estimated maximum stack depth 2
 ---------------------------------------------------------------------------------
 (Depth) Function   	        Calls       Base Space   Used Autos Params    Refs
 ---------------------------------------------------------------------------------
 (3) _ISR                                                  5     5      0     681
                                             12 COMMON     1     1      0
                                              0 BANK0      4     4      0
                        _decrementar
                        _incrementar
                   _multiplex_config
 ---------------------------------------------------------------------------------
 (4) _multiplex_config                                     0     0      0     496
                           _division
                        _hexadecimal
                        _multiplexar
 ---------------------------------------------------------------------------------
 (5) _multiplexar                                          0     0      0       0
 ---------------------------------------------------------------------------------
 (5) _division                                             3     3      0     474
                                              9 COMMON     3     3      0
                            ___awdiv
                        _hexadecimal
 ---------------------------------------------------------------------------------
 (5) _hexadecimal                                          3     3      0      22
                                              0 COMMON     3     3      0
 ---------------------------------------------------------------------------------
 (6) ___awdiv                                              9     5      4     452
                                              0 COMMON     9     5      4
 ---------------------------------------------------------------------------------
 (4) _incrementar                                          4     4      0      92
                                              0 COMMON     4     4      0
 ---------------------------------------------------------------------------------
 (4) _decrementar                                          4     4      0      92
                                              0 COMMON     4     4      0
 ---------------------------------------------------------------------------------
 Estimated maximum stack depth 6
 ---------------------------------------------------------------------------------

 Call Graph Graphs:

 _main (ROOT)
   _adc_config
     _initADC
   _big
   _interrup_config
   _osc_config
   _setup
   _tmr0_config

 _ISR (ROOT)
   _decrementar
   _incrementar
   _multiplex_config
     _division
       ___awdiv
       _hexadecimal
     _hexadecimal
     _multiplexar

 Address spaces:
Name               Size   Autos  Total    Cost      Usage
BITCOMMON            E      0       0       0        0.0%
EEDATA             100      0       0       0        0.0%
NULL                 0      0       0       0        0.0%
CODE                 0      0       0       0        0.0%
COMMON               E      D       E       1      100.0%
BITSFR0              0      0       0       1        0.0%
SFR0                 0      0       0       1        0.0%
BITSFR1              0      0       0       2        0.0%
SFR1                 0      0       0       2        0.0%
STACK                0      0       0       2        0.0%
ABS                  0      0      2D       3        0.0%
BITBANK0            50      0       0       4        0.0%
BITSFR3              0      0       0       4        0.0%
SFR3                 0      0       0       4        0.0%
BANK0               50      9      1F       5       38.8%
BITSFR2              0      0       0       5        0.0%
SFR2                 0      0       0       5        0.0%
BITBANK1            50      0       0       6        0.0%
BANK1               50      0       0       7        0.0%
BITBANK3            60      0       0       8        0.0%
BANK3               60      0       0       9        0.0%
BITBANK2            60      0       0      10        0.0%
BANK2               60      0       0      11        0.0%
DATA                 0      0      2D      12        0.0%


Microchip Technology PIC Macro Assembler V2.31 build 20201012212115 
Symbol Table                                                                                   Fri Feb 05 22:29:50 2021

                        _i 0020               ___awdiv@sign 0076                         fsr 0004  
                      l120 038C                        l123 03AE                        l117 035F  
                      l126 037F                        l135 0397                        l129 03BD  
                      l137 0398                        l170 0137                        l171 00BD  
                      l180 00EA                        l172 00C2                        l181 00EF  
                      l173 00C7                        l182 00F4                        l174 00CC  
                      l183 00F9                        l175 00D1                        l184 00FE  
                      l176 00D6                        l185 0140                        l177 00DB  
                      l169 00B8                        l178 00E0                        l179 00E5  
  __end_of_interrup_config 038D                        u530 0395                        u531 0394  
                      _ISR 030D                        u560 02FB                        u561 02FA  
                      u577 02F0               ?_hexadecimal 0070                        _big 038D  
                      fsr0 0004                        indf 0000                       ?_ISR 0070  
                     l1401 0340                       ?_big 0070                       l1411 0353  
                     l1403 0343                       l1421 0380                       l1413 0356  
                     l1405 034A                       l1263 00B7                       l1431 038D  
                     l1423 0388                       l1415 0359                       l1407 034D  
                     l1433 0395                       l1417 035C                       l1409 0350  
                     l1425 0373                       l1267 0103                       l1419 03A5  
                     l1427 037B                       l1525 010B                       l1429 03B7  
                     l1461 02E2                       l1453 02CE                       l1471 02FC  
                     l1463 02E7                       l1455 02D3                       l1473 0304  
                     l1465 02EA                       l1457 02D8                       l1467 02F5  
                     l1459 02DD                       l1469 02FB                       l1399 0338  
                     _IOCB 0096                       _TMR0 0001                       _main 02CE  
                     _show 0035                       btemp 007E                       start 0012  
             ?_incrementar 0070                      ??_ISR 0036                      ??_big 003A  
                    ?_main 0070            __end_of___awdiv 028E                      _ANSEL 0188  
          ___awdiv@divisor 0070                      i1l105 032B                      i1l211 03A4  
                    i1l132 0372                      i1l206 02CD                      i1l161 0226  
                    i1l233 00B3                      i1l149 01B3                      i1l472 028D  
          ___awdiv@counter 0075                      u30_20 0237                      u30_21 0236  
                    u31_20 0248                      u31_21 0247                      u40_20 03A0  
                    u40_21 039F                      u32_25 024C                      u41_20 0147  
                    u33_20 025A                      u41_21 0146                      u33_21 0259  
                    u50_20 01EC                      u42_20 0166                      u50_21 01EB  
                    u42_21 0165                      u42_25 0162                      u34_25 025B  
                    u51_20 0215                      u43_20 0173                      u35_20 026B  
                    u51_21 0214                      u43_21 0172                      u35_21 026A  
                    _PORTA 0005                      _PORTB 0006                      _PORTC 0007  
                    _PORTD 0008                      u51_25 0211                      u35_25 0267  
                    _PORTE 0009                      u52_20 0222                      u44_20 0179  
                    u52_21 0221                      u44_21 0178                      u36_25 0273  
                    u45_20 01A2                      u37_20 027F                      u29_20 022C  
                    u45_21 01A1                      u37_21 027E                      u29_21 022B  
                    u45_25 019E                      u46_20 01AF                      u38_20 0284  
                    u54_20 0311                      u46_21 01AE                      u38_21 0283  
                    u54_21 0310                      u47_20 01BA                      u39_20 02B2  
                    u55_20 031D                      u47_21 01B9                      u39_21 02B1  
                    u55_21 031C                      u48_20 01D9                      u48_21 01D8  
                    u48_25 01D5                      u49_20 01E6                      u49_21 01E5  
                    _TRISA 0085                      _TRISB 0086                      _TRISC 0087  
                    _TRISD 0088                      _TRISE 0089            __end_of_initADC 0141  
                    _setup 0338                      pclath 000A                      status 0003  
     __size_of_decrementar 0073                      wtemp0 007E            __initialization 0015  
             __end_of_main 030D                     ??_main 003D           ?_interrup_config 0070  
             ?_tmr0_config 0070                     _ADRESL 009E           ___awdiv@dividend 0072  
                   ?_setup 0070                     _ANSELH 0189                     i1l1201 0061  
                   i1l1203 0066                     i1l1221 0228                     i1l1205 006B  
                   i1l1213 0079                     i1l1301 0360                     i1l1231 023C  
                   i1l1223 022C                     i1l1207 0070                     i1l1303 0365  
                   i1l1321 0166                     i1l1241 0252                     i1l1233 0240  
                   i1l1225 0231                     i1l1209 0075                     i1l1305 036A  
                   i1l1331 0180                     i1l1323 016A                     i1l1315 0149  
                   i1l1307 0141                     i1l1251 0272                     i1l1243 0256  
                   i1l1235 0242                     i1l1227 0233                     i1l1219 0227  
                   i1l1341 018F                     i1l1325 0173                     i1l1317 0153  
                   i1l1309 0147                     i1l1333 0183                     i1l1253 0279  
                   i1l1245 025A                     i1l1237 0248                     i1l1229 0237  
                   i1l1181 002F                     i1l1343 0195                     i1l1327 0179  
                   i1l1319 0159                     i1l1247 026B                     i1l1239 024B  
                   i1l1255 027F                     i1l1191 0048                     i1l1183 0034  
                   i1l1175 0024                     i1l1361 01BC                     i1l1353 01B4  
                   i1l1345 01A2                     i1l1329 017C                     i1l1257 0284  
                   i1l1249 0271                     i1l1193 004D                     i1l1185 0039  
                   i1l1177 0025                     i1l1281 02AD                     i1l1441 0314  
                   i1l1371 01E6                     i1l1363 01C6                     i1l1355 01BA  
                   i1l1347 01A6                     i1l1339 0185                     i1l1259 0289  
                   i1l1195 0052                     i1l1187 003E                     i1l1179 002A  
                   i1l1291 02C4                     i1l1283 02B2                     i1l1275 028E  
                   i1l1451 032A                     i1l1443 0319                     i1l1435 030D  
                   i1l1373 01EC                     i1l1365 01CC                     i1l1349 01AF  
                   i1l1197 0057                     i1l1189 0043                     i1l1293 02CA  
                   i1l1285 02B6                     i1l1277 0292                     i1l1445 031D  
                   i1l1437 0311                     i1l1391 0215                     i1l1375 01EF  
                   i1l1367 01D9                     i1l1527 0081                     i1l1199 005C  
                   i1l1287 02BC                     i1l1279 02A8                     i1l1295 0399  
                   i1l1447 0320                     i1l1439 0312                     i1l1393 0219  
                   i1l1385 01F8                     i1l1377 01F3                     i1l1369 01DD  
                   i1l1289 02C0                     i1l1297 03A0                     i1l1449 0325  
                   i1l1395 0222                     i1l1387 0202                     i1l1379 01F6  
                   i1l1299 03A3                     i1l1389 0208  __size_of_multiplex_config 0013  
         __end_of_division 02CE                  ??___awdiv 0074                     _decena 0033  
         ___awdiv@quotient 0077                     _unidad 0034                     _toogle 0032  
                ??_initADC 003A                     saved_w 007E       __size_of_hexadecimal 0091  
             ?_multiplexar 0070    __end_of__initialization 001F             __pcstackCOMMON 0070  
               _adc_config 03B7              __end_of_setup 0360       __size_of_incrementar 0073  
           _OPTION_REGbits 0081                    ??_setup 003A                 __pbssBANK0 0020  
          hexadecimal@show 0072                 __pmaintext 02CE                 __pintentry 0004  
             incrementar@e 0070           decrementar@e_342 0072       __size_of_tmr0_config 000D  
                ?_division 0070           _multiplex_config 0360                ?_adc_config 0070  
                  ___awdiv 0227                    __ptext1 0373                    __ptext2 0338  
                  __ptext3 03A5                    __ptext4 0380                    __ptext5 038D  
                  __ptext6 03B7                    __ptext7 00B4                    __ptext8 030D  
                  __ptext9 0360                    _initADC 00B4               __size_of_ISR 002B  
             __size_of_big 000C                    clrloop0 03B0              ??_decrementar 0070  
     end_of_initialization 001F                 ??_division 0079                 _osc_config 03A5  
     __size_of_multiplexar 000C                  _PORTBbits 0006                  _PORTEbits 0009  
               _presionado 002A                 _pressed_ok 002E        __size_of_adc_config 0007  
 __size_of_interrup_config 000D        __end_of_decrementar 0227                 initADC@CHS 003C  
            ??_hexadecimal 0070        start_initialization 0015                __end_of_ISR 0338  
              __end_of_big 0399                ?_osc_config 0070              ??_incrementar 0070  
 __end_of_multiplex_config 0373                __pbssCOMMON 007C                  ___latbits 0002  
            __pcstackBANK0 0036                  _adc_value 007C        __end_of_hexadecimal 00B4  
              _decrementar 01B4          __size_of_division 0040           incrementar@e_339 0072  
        ??_interrup_config 003A               ??_adc_config 003D                   ?___awdiv 0070  
      __end_of_incrementar 01B4                  _contador2 0028                   ?_initADC 0070  
      __size_of_osc_config 000A              ??_tmr0_config 003A             __size_of_setup 0028  
             decrementar@e 0070         __end_of_adc_config 03BE          interrupt_function 0004  
                clear_ram0 03AF                 _ADCON0bits 001F                 _ADCON1bits 009F  
              _hexadecimal 0023               _released_ok2 0024              ??_multiplexar 0070  
      __end_of_tmr0_config 0380                _incrementar 0141           __size_of___awdiv 0067  
         __size_of_initADC 008D                   __ptext10 0399                   __ptext11 028E  
                 __ptext12 0023                   __ptext13 0227                   __ptext14 0141  
                 __ptext15 01B4                   _division 028E                   _contador 0030  
             ??_osc_config 003A              __size_of_main 003F        __end_of_multiplexar 03A5  
              _released_ok 002C          ?_multiplex_config 0070                 _INTCONbits 000B  
       __end_of_osc_config 03AF                _tmr0_config 0373         ??_multiplex_config 007C  
          _interrup_config 0380               ?_decrementar 0070                   intlevel1 0000  
               _OSCCONbits 008F                _presionado2 0022                _pressed_ok2 0026  
              _multiplexar 0399  
