

Microchip MPLAB XC8 Assembler V2.31 build 20201012212115 
                                                                                               Fri Mar 05 01:25:13 2021

Microchip MPLAB XC8 C Compiler v2.31 (Free license) build 20201012212115 Og1 
     1                           	processor	16F887
     2                           	pagewidth 120
     3                           	opt	flic
     4                           	psect	stringtext,global,reloc=256,class=STRCODE,delta=2,noexec
     5                           	psect	cinit,global,class=CODE,merge=1,delta=2
     6                           	psect	bssCOMMON,global,class=COMMON,space=1,delta=1,noexec
     7                           	psect	bssBANK1,global,class=BANK1,space=1,delta=1,noexec
     8                           	psect	cstackBANK3,global,class=BANK3,space=1,delta=1,noexec
     9                           	psect	cstackBANK1,global,class=BANK1,space=1,delta=1,noexec
    10                           	psect	cstackCOMMON,global,class=COMMON,space=1,delta=1,noexec
    11                           	psect	cstackBANK0,global,class=BANK0,space=1,delta=1,noexec
    12                           	psect	maintext,global,class=CODE,split=1,delta=2
    13                           	psect	text1,local,class=CODE,merge=1,delta=2
    14                           	psect	text2,local,class=CODE,merge=1,delta=2,group=1
    15                           	psect	text3,local,class=CODE,merge=1,delta=2,group=1
    16                           	psect	text4,local,class=CODE,merge=1,delta=2,group=2
    17                           	psect	text5,local,class=CODE,merge=1,delta=2,group=2
    18                           	psect	text6,local,class=CODE,merge=1,delta=2,group=3
    19                           	psect	text7,local,class=CODE,merge=1,delta=2,group=1
    20                           	psect	text8,local,class=CODE,merge=1,delta=2,group=2
    21                           	psect	text9,local,class=CODE,merge=1,delta=2,group=2
    22                           	psect	text10,local,class=CODE,merge=1,delta=2,group=2
    23                           	psect	text11,local,class=CODE,merge=1,delta=2,group=2
    24                           	psect	text12,local,class=CODE,merge=1,delta=2,group=2
    25                           	psect	text13,local,class=CODE,merge=1,delta=2,group=2
    26                           	psect	text14,local,class=CODE,merge=1,delta=2,group=2
    27                           	psect	text15,local,class=CODE,merge=1,delta=2,group=2
    28                           	psect	text16,local,class=CODE,merge=1,delta=2,group=2
    29                           	psect	text17,local,class=CODE,merge=1,delta=2,group=2
    30                           	psect	text18,local,class=CODE,merge=1,delta=2,group=2
    31                           	psect	text19,local,class=CODE,merge=1,delta=2,group=2
    32                           	psect	text20,local,class=CODE,merge=1,delta=2,group=2
    33                           	psect	text21,local,class=CODE,merge=1,delta=2,group=2
    34                           	psect	text22,local,class=CODE,merge=1,delta=2,group=2
    35                           	psect	text23,local,class=CODE,merge=1,delta=2
    36                           	psect	text24,local,class=CODE,merge=1,delta=2
    37                           	psect	text25,local,class=CODE,merge=1,delta=2,group=2
    38                           	psect	text26,local,class=CODE,merge=1,delta=2
    39                           	psect	text27,local,class=CODE,merge=1,delta=2
    40                           	psect	text28,local,class=CODE,merge=1,delta=2,group=2
    41                           	psect	text29,local,class=CODE,merge=1,delta=2
    42                           	psect	text30,local,class=CODE,merge=1,delta=2
    43                           	psect	text31,local,class=CODE,merge=1,delta=2
    44                           	psect	text32,local,class=CODE,merge=1,delta=2
    45                           	psect	text33,local,class=CODE,merge=1,delta=2
    46                           	psect	text34,local,class=CODE,merge=1,delta=2
    47                           	psect	text35,local,class=CODE,merge=1,delta=2
    48                           	psect	text36,local,class=CODE,merge=1,delta=2
    49                           	psect	text37,local,class=CODE,merge=1,delta=2
    50                           	psect	text38,local,class=CODE,merge=1,delta=2
    51                           	psect	text39,local,class=CODE,merge=1,delta=2
    52                           	psect	text40,local,class=CODE,merge=1,delta=2
    53                           	psect	text41,local,class=CODE,merge=1,delta=2
    54                           	psect	text42,local,class=CODE,merge=1,delta=2
    55                           	psect	intentry,global,class=CODE,delta=2
    56                           	psect	text43,local,class=CODE,merge=1,delta=2
    57                           	psect	config,global,abs,ovrld,class=CONFIG,space=4,delta=2,noexec
    58                           	dabs	1,0x7E,2
    59  0000                     
    60                           ; Version 2.20
    61                           ; Generated 12/02/2020 GMT
    62                           ; 
    63                           ; Copyright © 2020, Microchip Technology Inc. and its subsidiaries ("Microchip")
    64                           ; All rights reserved.
    65                           ; 
    66                           ; This software is developed by Microchip Technology Inc. and its subsidiaries ("Microch
      +                          ip").
    67                           ; 
    68                           ; Redistribution and use in source and binary forms, with or without modification, are
    69                           ; permitted provided that the following conditions are met:
    70                           ; 
    71                           ;     1. Redistributions of source code must retain the above copyright notice, this lis
      +                          t of
    72                           ;        conditions and the following disclaimer.
    73                           ; 
    74                           ;     2. Redistributions in binary form must reproduce the above copyright notice, this 
      +                          list
    75                           ;        of conditions and the following disclaimer in the documentation and/or other
    76                           ;        materials provided with the distribution.
    77                           ; 
    78                           ;     3. Microchip's name may not be used to endorse or promote products derived from th
      +                          is
    79                           ;        software without specific prior written permission.
    80                           ; 
    81                           ; THIS SOFTWARE IS PROVIDED BY MICROCHIP "AS IS" AND ANY EXPRESS OR IMPLIED WARRANTIES,
    82                           ; INCLUDING, BUT NOT LIMITED TO, THE IMPLIED WARRANTIES OF MERCHANTABILITY AND FITNESS F
      +                          OR
    83                           ; PURPOSE ARE DISCLAIMED.  IN NO EVENT SHALL MICROCHIP BE LIABLE FOR ANY DIRECT, INDIREC
      +                          T,
    84                           ; INCIDENTAL, SPECIAL, EXEMPLARY, OR CONSEQUENTIAL DAMAGES (INCLUDING BUT NOT LIMITED TO
    85                           ; PROCUREMENT OF SUBSTITUTE GOODS OR SERVICES; LOSS OF USE, DATA OR PROFITS; OR BUSINESS
    86                           ; INTERRUPTION) HOWSOEVER CAUSED AND ON ANY THEORY OF LIABILITY, WHETHER IN CONTRACT, ST
      +                          RICT
    87                           ; LIABILITY, OR TORT (INCLUDING NEGLIGENCE OR OTHERWISE) ARISING IN ANY WAY OUT OF THE U
      +                          SE OF
    88                           ; THIS SOFTWARE, EVEN IF ADVISED OF THE POSSIBILITY OF SUCH DAMAGE.
    89                           ; 
    90                           ; 
    91                           ; Code-generator required, PIC16F887 Definitions
    92                           ; 
    93                           ; SFR Addresses
    94  0000                     	;# 
    95  0001                     	;# 
    96  0002                     	;# 
    97  0003                     	;# 
    98  0004                     	;# 
    99  0005                     	;# 
   100  0006                     	;# 
   101  0007                     	;# 
   102  0008                     	;# 
   103  0009                     	;# 
   104  000A                     	;# 
   105  000B                     	;# 
   106  000C                     	;# 
   107  000D                     	;# 
   108  000E                     	;# 
   109  000E                     	;# 
   110  000F                     	;# 
   111  0010                     	;# 
   112  0011                     	;# 
   113  0012                     	;# 
   114  0013                     	;# 
   115  0014                     	;# 
   116  0015                     	;# 
   117  0015                     	;# 
   118  0016                     	;# 
   119  0017                     	;# 
   120  0018                     	;# 
   121  0019                     	;# 
   122  001A                     	;# 
   123  001B                     	;# 
   124  001B                     	;# 
   125  001C                     	;# 
   126  001D                     	;# 
   127  001E                     	;# 
   128  001F                     	;# 
   129  0081                     	;# 
   130  0085                     	;# 
   131  0086                     	;# 
   132  0087                     	;# 
   133  0088                     	;# 
   134  0089                     	;# 
   135  008C                     	;# 
   136  008D                     	;# 
   137  008E                     	;# 
   138  008F                     	;# 
   139  0090                     	;# 
   140  0091                     	;# 
   141  0092                     	;# 
   142  0093                     	;# 
   143  0093                     	;# 
   144  0093                     	;# 
   145  0094                     	;# 
   146  0095                     	;# 
   147  0096                     	;# 
   148  0097                     	;# 
   149  0098                     	;# 
   150  0099                     	;# 
   151  009A                     	;# 
   152  009B                     	;# 
   153  009C                     	;# 
   154  009D                     	;# 
   155  009E                     	;# 
   156  009F                     	;# 
   157  0105                     	;# 
   158  0107                     	;# 
   159  0108                     	;# 
   160  0109                     	;# 
   161  010C                     	;# 
   162  010C                     	;# 
   163  010D                     	;# 
   164  010E                     	;# 
   165  010F                     	;# 
   166  0185                     	;# 
   167  0187                     	;# 
   168  0188                     	;# 
   169  0189                     	;# 
   170  018C                     	;# 
   171  018D                     	;# 
   172  0000                     	;# 
   173  0001                     	;# 
   174  0002                     	;# 
   175  0003                     	;# 
   176  0004                     	;# 
   177  0005                     	;# 
   178  0006                     	;# 
   179  0007                     	;# 
   180  0008                     	;# 
   181  0009                     	;# 
   182  000A                     	;# 
   183  000B                     	;# 
   184  000C                     	;# 
   185  000D                     	;# 
   186  000E                     	;# 
   187  000E                     	;# 
   188  000F                     	;# 
   189  0010                     	;# 
   190  0011                     	;# 
   191  0012                     	;# 
   192  0013                     	;# 
   193  0014                     	;# 
   194  0015                     	;# 
   195  0015                     	;# 
   196  0016                     	;# 
   197  0017                     	;# 
   198  0018                     	;# 
   199  0019                     	;# 
   200  001A                     	;# 
   201  001B                     	;# 
   202  001B                     	;# 
   203  001C                     	;# 
   204  001D                     	;# 
   205  001E                     	;# 
   206  001F                     	;# 
   207  0081                     	;# 
   208  0085                     	;# 
   209  0086                     	;# 
   210  0087                     	;# 
   211  0088                     	;# 
   212  0089                     	;# 
   213  008C                     	;# 
   214  008D                     	;# 
   215  008E                     	;# 
   216  008F                     	;# 
   217  0090                     	;# 
   218  0091                     	;# 
   219  0092                     	;# 
   220  0093                     	;# 
   221  0093                     	;# 
   222  0093                     	;# 
   223  0094                     	;# 
   224  0095                     	;# 
   225  0096                     	;# 
   226  0097                     	;# 
   227  0098                     	;# 
   228  0099                     	;# 
   229  009A                     	;# 
   230  009B                     	;# 
   231  009C                     	;# 
   232  009D                     	;# 
   233  009E                     	;# 
   234  009F                     	;# 
   235  0105                     	;# 
   236  0107                     	;# 
   237  0108                     	;# 
   238  0109                     	;# 
   239  010C                     	;# 
   240  010C                     	;# 
   241  010D                     	;# 
   242  010E                     	;# 
   243  010F                     	;# 
   244  0185                     	;# 
   245  0187                     	;# 
   246  0188                     	;# 
   247  0189                     	;# 
   248  018C                     	;# 
   249  018D                     	;# 
   250  0000                     	;# 
   251  0001                     	;# 
   252  0002                     	;# 
   253  0003                     	;# 
   254  0004                     	;# 
   255  0005                     	;# 
   256  0006                     	;# 
   257  0007                     	;# 
   258  0008                     	;# 
   259  0009                     	;# 
   260  000A                     	;# 
   261  000B                     	;# 
   262  000C                     	;# 
   263  000D                     	;# 
   264  000E                     	;# 
   265  000E                     	;# 
   266  000F                     	;# 
   267  0010                     	;# 
   268  0011                     	;# 
   269  0012                     	;# 
   270  0013                     	;# 
   271  0014                     	;# 
   272  0015                     	;# 
   273  0015                     	;# 
   274  0016                     	;# 
   275  0017                     	;# 
   276  0018                     	;# 
   277  0019                     	;# 
   278  001A                     	;# 
   279  001B                     	;# 
   280  001B                     	;# 
   281  001C                     	;# 
   282  001D                     	;# 
   283  001E                     	;# 
   284  001F                     	;# 
   285  0081                     	;# 
   286  0085                     	;# 
   287  0086                     	;# 
   288  0087                     	;# 
   289  0088                     	;# 
   290  0089                     	;# 
   291  008C                     	;# 
   292  008D                     	;# 
   293  008E                     	;# 
   294  008F                     	;# 
   295  0090                     	;# 
   296  0091                     	;# 
   297  0092                     	;# 
   298  0093                     	;# 
   299  0093                     	;# 
   300  0093                     	;# 
   301  0094                     	;# 
   302  0095                     	;# 
   303  0096                     	;# 
   304  0097                     	;# 
   305  0098                     	;# 
   306  0099                     	;# 
   307  009A                     	;# 
   308  009B                     	;# 
   309  009C                     	;# 
   310  009D                     	;# 
   311  009E                     	;# 
   312  009F                     	;# 
   313  0105                     	;# 
   314  0107                     	;# 
   315  0108                     	;# 
   316  0109                     	;# 
   317  010C                     	;# 
   318  010C                     	;# 
   319  010D                     	;# 
   320  010E                     	;# 
   321  010F                     	;# 
   322  0185                     	;# 
   323  0187                     	;# 
   324  0188                     	;# 
   325  0189                     	;# 
   326  018C                     	;# 
   327  018D                     	;# 
   328  0000                     	;# 
   329  0001                     	;# 
   330  0002                     	;# 
   331  0003                     	;# 
   332  0004                     	;# 
   333  0005                     	;# 
   334  0006                     	;# 
   335  0007                     	;# 
   336  0008                     	;# 
   337  0009                     	;# 
   338  000A                     	;# 
   339  000B                     	;# 
   340  000C                     	;# 
   341  000D                     	;# 
   342  000E                     	;# 
   343  000E                     	;# 
   344  000F                     	;# 
   345  0010                     	;# 
   346  0011                     	;# 
   347  0012                     	;# 
   348  0013                     	;# 
   349  0014                     	;# 
   350  0015                     	;# 
   351  0015                     	;# 
   352  0016                     	;# 
   353  0017                     	;# 
   354  0018                     	;# 
   355  0019                     	;# 
   356  001A                     	;# 
   357  001B                     	;# 
   358  001B                     	;# 
   359  001C                     	;# 
   360  001D                     	;# 
   361  001E                     	;# 
   362  001F                     	;# 
   363  0081                     	;# 
   364  0085                     	;# 
   365  0086                     	;# 
   366  0087                     	;# 
   367  0088                     	;# 
   368  0089                     	;# 
   369  008C                     	;# 
   370  008D                     	;# 
   371  008E                     	;# 
   372  008F                     	;# 
   373  0090                     	;# 
   374  0091                     	;# 
   375  0092                     	;# 
   376  0093                     	;# 
   377  0093                     	;# 
   378  0093                     	;# 
   379  0094                     	;# 
   380  0095                     	;# 
   381  0096                     	;# 
   382  0097                     	;# 
   383  0098                     	;# 
   384  0099                     	;# 
   385  009A                     	;# 
   386  009B                     	;# 
   387  009C                     	;# 
   388  009D                     	;# 
   389  009E                     	;# 
   390  009F                     	;# 
   391  0105                     	;# 
   392  0107                     	;# 
   393  0108                     	;# 
   394  0109                     	;# 
   395  010C                     	;# 
   396  010C                     	;# 
   397  010D                     	;# 
   398  010E                     	;# 
   399  010F                     	;# 
   400  0185                     	;# 
   401  0187                     	;# 
   402  0188                     	;# 
   403  0189                     	;# 
   404  018C                     	;# 
   405  018D                     	;# 
   406                           
   407                           	psect	stringtext
   408  0000'                    __pstringtext:
   409  0000'                    stringtab:
   410  0000'                    __stringtab:
   411                           
   412                           ;	String table - string pointers are 2 bytes each
   413  0000' 1BFF               	btfsc	btemp+1,7
   414  0001' 2800'              	ljmp	stringcode
   415  0002' 1383               	bcf	3,7
   416  0003' 187F               	btfsc	btemp+1,0
   417  0004' 1783               	bsf	3,7
   418  0005' 0800               	movf	0,w
   419  0006' 0A84               	incf	4,f
   420  0007' 1903               	skipnz
   421  0008' 0AFF               	incf	btemp+1,f
   422  0009' 0008               	return
   423  000A'                    stringcode:
   424  000A' 087F               	movf	btemp+1,w
   425  000B' 397F               	andlw	127
   426  000C' 008A               	movwf	10
   427  000D' 0804               	movf	4,w
   428  000E' 0A84               	incf	4,f
   429  000F' 1903               	skipnz
   430  0010' 0AFF               	incf	btemp+1,f
   431  0011' 0082               	movwf	2
   432  0012'                    __stringbase:
   433  0012'                    __end_of__stringtab:
   434  0012'                    __powers_:
   435  0012' 3400               	retlw	0
   436  0013' 3400               	retlw	0
   437  0014' 3480               	retlw	128
   438  0015' 343F               	retlw	63
   439  0016' 3400               	retlw	0
   440  0017' 3400               	retlw	0
   441  0018' 3420               	retlw	32
   442  0019' 3441               	retlw	65
   443  001A' 3400               	retlw	0
   444  001B' 3400               	retlw	0
   445  001C' 34C8               	retlw	200
   446  001D' 3442               	retlw	66
   447  001E' 3400               	retlw	0
   448  001F' 3400               	retlw	0
   449  0020' 347A               	retlw	122
   450  0021' 3444               	retlw	68
   451  0022' 3400               	retlw	0
   452  0023' 3440               	retlw	64
   453  0024' 341C               	retlw	28
   454  0025' 3446               	retlw	70
   455  0026' 3400               	retlw	0
   456  0027' 3450               	retlw	80
   457  0028' 34C3               	retlw	195
   458  0029' 3447               	retlw	71
   459  002A' 3400               	retlw	0
   460  002B' 3424               	retlw	36
   461  002C' 3474               	retlw	116
   462  002D' 3449               	retlw	73
   463  002E' 3480               	retlw	128
   464  002F' 3496               	retlw	150
   465  0030' 3418               	retlw	24
   466  0031' 344B               	retlw	75
   467  0032' 3420               	retlw	32
   468  0033' 34BC               	retlw	188
   469  0034' 34BE               	retlw	190
   470  0035' 344C               	retlw	76
   471  0036' 3428               	retlw	40
   472  0037' 346B               	retlw	107
   473  0038' 346E               	retlw	110
   474  0039' 344E               	retlw	78
   475  003A' 34F9               	retlw	249
   476  003B' 3402               	retlw	2
   477  003C' 3415               	retlw	21
   478  003D' 3450               	retlw	80
   479  003E' 34EC               	retlw	236
   480  003F' 3478               	retlw	120
   481  0040' 34AD               	retlw	173
   482  0041' 3460               	retlw	96
   483  0042' 34CA               	retlw	202
   484  0043' 34F2               	retlw	242
   485  0044' 3449               	retlw	73
   486  0045' 3471               	retlw	113
   487  0046'                    __end_of__powers_:
   488  0046'                    __npowers_:
   489  0046' 3400               	retlw	0
   490  0047' 3400               	retlw	0
   491  0048' 3480               	retlw	128
   492  0049' 343F               	retlw	63
   493  004A' 34CD               	retlw	205
   494  004B' 34CC               	retlw	204
   495  004C' 34CC               	retlw	204
   496  004D' 343D               	retlw	61
   497  004E' 340A               	retlw	10
   498  004F' 34D7               	retlw	215
   499  0050' 3423               	retlw	35
   500  0051' 343C               	retlw	60
   501  0052' 346F               	retlw	111
   502  0053' 3412               	retlw	18
   503  0054' 3483               	retlw	131
   504  0055' 343A               	retlw	58
   505  0056' 3417               	retlw	23
   506  0057' 34B7               	retlw	183
   507  0058' 34D1               	retlw	209
   508  0059' 3438               	retlw	56
   509  005A' 34AC               	retlw	172
   510  005B' 34C5               	retlw	197
   511  005C' 3427               	retlw	39
   512  005D' 3437               	retlw	55
   513  005E' 34BD               	retlw	189
   514  005F' 3437               	retlw	55
   515  0060' 3486               	retlw	134
   516  0061' 3435               	retlw	53
   517  0062' 3495               	retlw	149
   518  0063' 34BF               	retlw	191
   519  0064' 34D6               	retlw	214
   520  0065' 3433               	retlw	51
   521  0066' 3477               	retlw	119
   522  0067' 34CC               	retlw	204
   523  0068' 342B               	retlw	43
   524  0069' 3432               	retlw	50
   525  006A' 345F               	retlw	95
   526  006B' 3470               	retlw	112
   527  006C' 3489               	retlw	137
   528  006D' 3430               	retlw	48
   529  006E' 34FF               	retlw	255
   530  006F' 34E6               	retlw	230
   531  0070' 34DB               	retlw	219
   532  0071' 342E               	retlw	46
   533  0072' 3408               	retlw	8
   534  0073' 34E5               	retlw	229
   535  0074' 343C               	retlw	60
   536  0075' 341E               	retlw	30
   537  0076' 3460               	retlw	96
   538  0077' 3442               	retlw	66
   539  0078' 34A2               	retlw	162
   540  0079' 340D               	retlw	13
   541  007A'                    __end_of__npowers_:
   542  007A'                    _dpowers:
   543  007A' 3401               	retlw	1
   544  007B' 3400               	retlw	0
   545  007C' 3400               	retlw	0
   546  007D' 3400               	retlw	0
   547  007E' 340A               	retlw	10
   548  007F' 3400               	retlw	0
   549  0080' 3400               	retlw	0
   550  0081' 3400               	retlw	0
   551  0082' 3464               	retlw	100
   552  0083' 3400               	retlw	0
   553  0084' 3400               	retlw	0
   554  0085' 3400               	retlw	0
   555  0086' 34E8               	retlw	232
   556  0087' 3403               	retlw	3
   557  0088' 3400               	retlw	0
   558  0089' 3400               	retlw	0
   559  008A' 3410               	retlw	16
   560  008B' 3427               	retlw	39
   561  008C' 3400               	retlw	0
   562  008D' 3400               	retlw	0
   563  008E' 34A0               	retlw	160
   564  008F' 3486               	retlw	134
   565  0090' 3401               	retlw	1
   566  0091' 3400               	retlw	0
   567  0092' 3440               	retlw	64
   568  0093' 3442               	retlw	66
   569  0094' 340F               	retlw	15
   570  0095' 3400               	retlw	0
   571  0096' 3480               	retlw	128
   572  0097' 3496               	retlw	150
   573  0098' 3498               	retlw	152
   574  0099' 3400               	retlw	0
   575  009A' 3400               	retlw	0
   576  009B' 34E1               	retlw	225
   577  009C' 34F5               	retlw	245
   578  009D' 3405               	retlw	5
   579  009E' 3400               	retlw	0
   580  009F' 34CA               	retlw	202
   581  00A0' 349A               	retlw	154
   582  00A1' 343B               	retlw	59
   583  00A2'                    __end_of_dpowers:
   584  0013                     _SSPBUF	set	19
   585  0014                     _SSPCON	set	20
   586  0009                     _PORTEbits	set	9
   587  001A                     _RCREG	set	26
   588  0018                     _RCSTAbits	set	24
   589  000C                     _PIR1bits	set	12
   590  0019                     _TXREG	set	25
   591  0009                     _PORTE	set	9
   592  0008                     _PORTD	set	8
   593  0007                     _PORTC	set	7
   594  0005                     _PORTA	set	5
   595  0006                     _PORTB	set	6
   596  0001                     _TMR0	set	1
   597  000B                     _INTCONbits	set	11
   598  0063                     _SSPIF	set	99
   599  005E                     _PEIE	set	94
   600  005F                     _GIE	set	95
   601  00C4                     _CREN	set	196
   602  008C                     _PIE1bits	set	140
   603  0098                     _TXSTAbits	set	152
   604  0099                     _SPBRG	set	153
   605  0094                     _SSPSTATbits	set	148
   606  0091                     _SSPCON2bits	set	145
   607  0094                     _SSPSTAT	set	148
   608  0093                     _SSPADD	set	147
   609  0091                     _SSPCON2	set	145
   610  0081                     _OPTION_REGbits	set	129
   611  008F                     _OSCCONbits	set	143
   612  0096                     _IOCB	set	150
   613  0089                     _TRISEbits	set	137
   614  0089                     _TRISE	set	137
   615  0088                     _TRISD	set	136
   616  0087                     _TRISCbits	set	135
   617  0087                     _TRISC	set	135
   618  0086                     _TRISB	set	134
   619  0085                     _TRISA	set	133
   620  0489                     _RSEN	set	1161
   621  048E                     _ACKSTAT	set	1166
   622  0463                     _SSPIE	set	1123
   623  043C                     _TRISC4	set	1084
   624  043B                     _TRISC3	set	1083
   625  0189                     _ANSELH	set	393
   626  0188                     _ANSEL	set	392
   627  00A2'                    STR_7:
   628  00A2' 3420               	retlw	32	;' '
   629  00A3' 3447               	retlw	71	;'G'
   630  00A4' 347A               	retlw	122	;'z'
   631  00A5' 3420               	retlw	32	;' '
   632  00A6' 343D               	retlw	61	;'='
   633  00A7' 3420               	retlw	32	;' '
   634  00A8' 3425               	retlw	37	;'%'
   635  00A9' 342E               	retlw	46	;'.'
   636  00AA' 3432               	retlw	50	;'2'
   637  00AB' 3466               	retlw	102	;'f'
   638  00AC' 3425               	retlw	37	;'%'
   639  00AD' 3463               	retlw	99	;'c'
   640  00AE' 342F               	retlw	47	;'/'
   641  00AF' 3473               	retlw	115	;'s'
   642  00B0' 340D               	retlw	13
   643  00B1' 340A               	retlw	10
   644  00B2' 3400               	retlw	0
   645  00B3'                    STR_5:
   646  00B3' 3420               	retlw	32	;' '
   647  00B4' 3447               	retlw	71	;'G'
   648  00B5' 3478               	retlw	120	;'x'
   649  00B6' 3420               	retlw	32	;' '
   650  00B7' 343D               	retlw	61	;'='
   651  00B8' 3420               	retlw	32	;' '
   652  00B9' 3425               	retlw	37	;'%'
   653  00BA' 342E               	retlw	46	;'.'
   654  00BB' 3432               	retlw	50	;'2'
   655  00BC' 3466               	retlw	102	;'f'
   656  00BD' 3425               	retlw	37	;'%'
   657  00BE' 3463               	retlw	99	;'c'
   658  00BF' 342F               	retlw	47	;'/'
   659  00C0' 3473               	retlw	115	;'s'
   660  00C1' 3409               	retlw	9
   661  00C2' 3400               	retlw	0
   662  00C3'                    STR_6:
   663  00C3' 3420               	retlw	32	;' '
   664  00C4' 3447               	retlw	71	;'G'
   665  00C5' 3479               	retlw	121	;'y'
   666  00C6' 3420               	retlw	32	;' '
   667  00C7' 343D               	retlw	61	;'='
   668  00C8' 3420               	retlw	32	;' '
   669  00C9' 3425               	retlw	37	;'%'
   670  00CA' 342E               	retlw	46	;'.'
   671  00CB' 3432               	retlw	50	;'2'
   672  00CC' 3466               	retlw	102	;'f'
   673  00CD' 3425               	retlw	37	;'%'
   674  00CE' 3463               	retlw	99	;'c'
   675  00CF' 342F               	retlw	47	;'/'
   676  00D0' 3473               	retlw	115	;'s'
   677  00D1' 3409               	retlw	9
   678  00D2' 3400               	retlw	0
   679  00D3'                    STR_4:
   680  00D3' 3420               	retlw	32	;' '
   681  00D4' 3454               	retlw	84	;'T'
   682  00D5' 3420               	retlw	32	;' '
   683  00D6' 343D               	retlw	61	;'='
   684  00D7' 3420               	retlw	32	;' '
   685  00D8' 3425               	retlw	37	;'%'
   686  00D9' 342E               	retlw	46	;'.'
   687  00DA' 3432               	retlw	50	;'2'
   688  00DB' 3466               	retlw	102	;'f'
   689  00DC' 3425               	retlw	37	;'%'
   690  00DD' 3463               	retlw	99	;'c'
   691  00DE' 3443               	retlw	67	;'C'
   692  00DF' 3409               	retlw	9
   693  00E0' 3400               	retlw	0
   694  00E1'                    STR_1:
   695  00E1' 3420               	retlw	32	;' '
   696  00E2' 3441               	retlw	65	;'A'
   697  00E3' 3478               	retlw	120	;'x'
   698  00E4' 3420               	retlw	32	;' '
   699  00E5' 343D               	retlw	61	;'='
   700  00E6' 3420               	retlw	32	;' '
   701  00E7' 3425               	retlw	37	;'%'
   702  00E8' 342E               	retlw	46	;'.'
   703  00E9' 3432               	retlw	50	;'2'
   704  00EA' 3466               	retlw	102	;'f'
   705  00EB' 3420               	retlw	32	;' '
   706  00EC' 3467               	retlw	103	;'g'
   707  00ED' 3409               	retlw	9
   708  00EE' 3400               	retlw	0
   709  00EF'                    STR_2:
   710  00EF' 3420               	retlw	32	;' '
   711  00F0' 3441               	retlw	65	;'A'
   712  00F1' 3479               	retlw	121	;'y'
   713  00F2' 3420               	retlw	32	;' '
   714  00F3' 343D               	retlw	61	;'='
   715  00F4' 3420               	retlw	32	;' '
   716  00F5' 3425               	retlw	37	;'%'
   717  00F6' 342E               	retlw	46	;'.'
   718  00F7' 3432               	retlw	50	;'2'
   719  00F8' 3466               	retlw	102	;'f'
   720  00F9' 3420               	retlw	32	;' '
   721  00FA' 3467               	retlw	103	;'g'
   722  00FB' 3409               	retlw	9
   723  00FC' 3400               	retlw	0
   724  00FD'                    STR_3:
   725  00FD' 3420               	retlw	32	;' '
   726  00FE' 3441               	retlw	65	;'A'
   727  00FF' 347A               	retlw	122	;'z'
   728  0100' 3420               	retlw	32	;' '
   729  0101' 343D               	retlw	61	;'='
   730  0102' 3420               	retlw	32	;' '
   731  0103' 3425               	retlw	37	;'%'
   732  0104' 342E               	retlw	46	;'.'
   733  0105' 3432               	retlw	50	;'2'
   734  0106' 3466               	retlw	102	;'f'
   735  0107' 3420               	retlw	32	;' '
   736  0108' 3467               	retlw	103	;'g'
   737  0109' 3409               	retlw	9
   738  010A' 3400               	retlw	0
   739                           
   740                           	psect	cinit
   741  0000'                    start_initialization:	
   742                           ; #config settings
   743                           
   744  0000'                    __initialization:
   745                           
   746                           ; Clear objects allocated to COMMON
   747  0000' 0180'              	clrf	__pbssCOMMON& (0+127)
   748  0001' 0180'              	clrf	(__pbssCOMMON+1)& (0+127)
   749                           
   750                           ; Clear objects allocated to BANK1
   751  0002' 1683               	bsf	3,5	;RP0=1, select bank1
   752  0003' 1303               	bcf	3,6	;RP1=0, select bank1
   753  0004' 0180'              	clrf	__pbssBANK1& (0+127)
   754  0005' 0180'              	clrf	(__pbssBANK1+1)& (0+127)
   755  0006'                    end_of_initialization:	
   756                           ;End of C runtime variable initialization code
   757                           
   758  0006'                    __end_of__initialization:
   759  0006' 0183               	clrf	3
   760  0007' 120A' 118A' 2800'  	ljmp	_main	;jump to C main() function
   761                           
   762                           	psect	bssCOMMON
   763  0000'                    __pbssCOMMON:
   764  0000'                    _str:
   765  0000'                    	ds	1
   766  0001'                    _valor:
   767  0001'                    	ds	1
   768                           
   769                           	psect	bssBANK1
   770  0000'                    __pbssBANK1:
   771  0000'                    _contador:
   772  0000'                    	ds	2
   773                           
   774                           	psect	cstackBANK3
   775  0000'                    __pcstackBANK3:
   776  0000'                    main@buffer:
   777                           
   778                           ; 20 bytes @ 0x0
   779  0000'                    	ds	20
   780  0014'                    main@Xa:
   781                           
   782                           ; 4 bytes @ 0x14
   783  0014'                    	ds	4
   784  0018'                    main@Ya:
   785                           
   786                           ; 4 bytes @ 0x18
   787  0018'                    	ds	4
   788  001C'                    main@Za:
   789                           
   790                           ; 4 bytes @ 0x1C
   791  001C'                    	ds	4
   792  0020'                    main@t:
   793                           
   794                           ; 4 bytes @ 0x20
   795  0020'                    	ds	4
   796  0024'                    main@Xg:
   797                           
   798                           ; 4 bytes @ 0x24
   799  0024'                    	ds	4
   800  0028'                    main@Yg:
   801                           
   802                           ; 4 bytes @ 0x28
   803  0028'                    	ds	4
   804  002C'                    main@Zg:
   805                           
   806                           ; 4 bytes @ 0x2C
   807  002C'                    	ds	4
   808  0030'                    main@Ax:
   809                           
   810                           ; 2 bytes @ 0x30
   811  0030'                    	ds	2
   812  0032'                    main@Ay:
   813                           
   814                           ; 2 bytes @ 0x32
   815  0032'                    	ds	2
   816  0034'                    main@Az:
   817                           
   818                           ; 2 bytes @ 0x34
   819  0034'                    	ds	2
   820  0036'                    main@T:
   821                           
   822                           ; 2 bytes @ 0x36
   823  0036'                    	ds	2
   824  0038'                    main@Gx:
   825                           
   826                           ; 2 bytes @ 0x38
   827  0038'                    	ds	2
   828  003A'                    main@Gy:
   829                           
   830                           ; 2 bytes @ 0x3A
   831  003A'                    	ds	2
   832  003C'                    main@Gz:
   833                           
   834                           ; 2 bytes @ 0x3C
   835  003C'                    	ds	2
   836                           
   837                           	psect	cstackBANK1
   838  0000'                    __pcstackBANK1:
   839  0000'                    ?___flsub:
   840  0000'                    ___flsub@a:	
   841                           ; 4 bytes @ 0x0
   842                           
   843                           
   844                           ; 4 bytes @ 0x0
   845  0000'                    	ds	4
   846  0004'                    ___flsub@b:
   847                           
   848                           ; 4 bytes @ 0x4
   849  0004'                    	ds	4
   850  0008'                    ?_sprintf:
   851  0008'                    sprintf@f:	
   852                           ; 2 bytes @ 0x8
   853                           
   854                           
   855                           ; 2 bytes @ 0x8
   856  0008'                    	ds	8
   857  0010'                    _sprintf$1397:
   858                           
   859                           ; 4 bytes @ 0x10
   860  0010'                    	ds	4
   861  0014'                    sprintf@cp:
   862                           
   863                           ; 1 bytes @ 0x14
   864  0014'                    	ds	1
   865  0015'                    sprintf@len:
   866                           
   867                           ; 2 bytes @ 0x15
   868  0015'                    	ds	2
   869  0017'                    sprintf@ap:
   870                           
   871                           ; 1 bytes @ 0x17
   872  0017'                    	ds	1
   873  0018'                    sprintf@flag:
   874                           
   875                           ; 2 bytes @ 0x18
   876  0018'                    	ds	2
   877  001A'                    sprintf@val:
   878                           
   879                           ; 4 bytes @ 0x1A
   880  001A'                    	ds	4
   881  001E'                    sprintf@eexp:
   882                           
   883                           ; 2 bytes @ 0x1E
   884  001E'                    	ds	2
   885  0020'                    sprintf@tmpval:
   886                           
   887                           ; 4 bytes @ 0x20
   888  0020'                    	ds	4
   889  0024'                    sprintf@fval:
   890                           
   891                           ; 4 bytes @ 0x24
   892  0024'                    	ds	4
   893  0028'                    sprintf@sp:
   894                           
   895                           ; 1 bytes @ 0x28
   896  0028'                    	ds	1
   897  0029'                    sprintf@prec:
   898                           
   899                           ; 2 bytes @ 0x29
   900  0029'                    	ds	2
   901  002B'                    sprintf@c:
   902                           
   903                           ; 1 bytes @ 0x2B
   904  002B'                    	ds	1
   905  002C'                    ??_main:
   906                           
   907                           ; 1 bytes @ 0x2C
   908  002C'                    	ds	2
   909                           
   910                           	psect	cstackCOMMON
   911  0000'                    __pcstackCOMMON:
   912  0000'                    ?_isdigit:
   913  0000'                    ?_Led:	
   914                           ; 1 bit 
   915                           
   916  0000'                    ??_Led:	
   917                           ; 1 bytes @ 0x0
   918                           
   919  0000'                    ?_setup:	
   920                           ; 1 bytes @ 0x0
   921                           
   922  0000'                    ?_USART_config:	
   923                           ; 1 bytes @ 0x0
   924                           
   925  0000'                    ?_osc_config:	
   926                           ; 1 bytes @ 0x0
   927                           
   928  0000'                    ?_interrup_config:	
   929                           ; 1 bytes @ 0x0
   930                           
   931  0000'                    ?_tmr0_config:	
   932                           ; 1 bytes @ 0x0
   933                           
   934  0000'                    ?_MPU6050_Init:	
   935                           ; 1 bytes @ 0x0
   936                           
   937  0000'                    ?_escribir_char:	
   938                           ; 1 bytes @ 0x0
   939                           
   940  0000'                    ?_MPU_Start_Loc:	
   941                           ; 1 bytes @ 0x0
   942                           
   943  0000'                    ?_I2C_Master_Stop:	
   944                           ; 1 bytes @ 0x0
   945                           
   946  0000'                    ?_USART_SendString:	
   947                           ; 1 bytes @ 0x0
   948                           
   949  0000'                    ?_USART_lib_config:	
   950                           ; 1 bytes @ 0x0
   951                           
   952  0000'                    ?_I2C_Start_Wait:	
   953                           ; 1 bytes @ 0x0
   954                           
   955  0000'                    ?_I2C_Repeated_Start:	
   956                           ; 1 bytes @ 0x0
   957                           
   958  0000'                    ??_I2C_Write:	
   959                           ; 1 bytes @ 0x0
   960                           
   961  0000'                    ?_ISR:	
   962                           ; 1 bytes @ 0x0
   963                           
   964  0000'                    ??_ISR:	
   965                           ; 1 bytes @ 0x0
   966                           
   967  0000'                    ?_main:	
   968                           ; 1 bytes @ 0x0
   969                           
   970  0000'                    ?_I2C_Master_Wait:	
   971                           ; 1 bytes @ 0x0
   972                           
   973  0000'                    ?_I2C_Write:	
   974                           ; 1 bytes @ 0x0
   975                           
   976                           
   977                           ; 2 bytes @ 0x0
   978  0000'                    	ds	2
   979  0002'                    ?___fleq:
   980  0002'                    ?___flge:	
   981                           ; 1 bit 
   982                           
   983  0002'                    ??_USART_config:	
   984                           ; 1 bit 
   985                           
   986  0002'                    ??_osc_config:	
   987                           ; 1 bytes @ 0x2
   988                           
   989  0002'                    ??_interrup_config:	
   990                           ; 1 bytes @ 0x2
   991                           
   992  0002'                    ??_tmr0_config:	
   993                           ; 1 bytes @ 0x2
   994                           
   995  0002'                    ??_escribir_char:	
   996                           ; 1 bytes @ 0x2
   997                           
   998  0002'                    ??_I2C_Master_Stop:	
   999                           ; 1 bytes @ 0x2
  1000                           
  1001  0002'                    ??_USART_lib_config:	
  1002                           ; 1 bytes @ 0x2
  1003                           
  1004  0002'                    ?_I2C_Master_Write:	
  1005                           ; 1 bytes @ 0x2
  1006                           
  1007  0002'                    ??_I2C_Repeated_Start:	
  1008                           ; 1 bytes @ 0x2
  1009                           
  1010  0002'                    ?_MSdelay:	
  1011                           ; 1 bytes @ 0x2
  1012                           
  1013  0002'                    ??_isdigit:	
  1014                           ; 1 bytes @ 0x2
  1015                           
  1016  0002'                    ??_I2C_Master_Wait:	
  1017                           ; 1 bytes @ 0x2
  1018                           
  1019  0002'                    ?_I2C_Master_Read:	
  1020                           ; 1 bytes @ 0x2
  1021                           
  1022  0002'                    ?__Umul8_16:	
  1023                           ; 2 bytes @ 0x2
  1024                           
  1025  0002'                    ?___wmul:	
  1026                           ; 2 bytes @ 0x2
  1027                           
  1028  0002'                    ?___awmod:	
  1029                           ; 2 bytes @ 0x2
  1030                           
  1031  0002'                    ?___lwmod:	
  1032                           ; 2 bytes @ 0x2
  1033                           
  1034  0002'                    ?__tdiv_to_l_:	
  1035                           ; 2 bytes @ 0x2
  1036                           
  1037  0002'                    ?__div_to_l_:	
  1038                           ; 4 bytes @ 0x2
  1039                           
  1040  0002'                    ?___lldiv:	
  1041                           ; 4 bytes @ 0x2
  1042                           
  1043  0002'                    ?___flneg:	
  1044                           ; 4 bytes @ 0x2
  1045                           
  1046  0002'                    ?___llmod:	
  1047                           ; 4 bytes @ 0x2
  1048                           
  1049  0002'                    ?___xxtofl:	
  1050                           ; 4 bytes @ 0x2
  1051                           
  1052  0002'                    escribir_char@valor:	
  1053                           ; 4 bytes @ 0x2
  1054                           
  1055  0002'                    __Umul8_16@multiplicand:	
  1056                           ; 1 bytes @ 0x2
  1057                           
  1058  0002'                    _isdigit$1211:	
  1059                           ; 1 bytes @ 0x2
  1060                           
  1061  0002'                    I2C_Master_Write@d:	
  1062                           ; 1 bytes @ 0x2
  1063                           
  1064  0002'                    I2C_Master_Read@a:	
  1065                           ; 2 bytes @ 0x2
  1066                           
  1067  0002'                    MSdelay@val:	
  1068                           ; 2 bytes @ 0x2
  1069                           
  1070  0002'                    ___wmul@multiplier:	
  1071                           ; 2 bytes @ 0x2
  1072                           
  1073  0002'                    ___awmod@divisor:	
  1074                           ; 2 bytes @ 0x2
  1075                           
  1076  0002'                    ___lwmod@divisor:	
  1077                           ; 2 bytes @ 0x2
  1078                           
  1079  0002'                    ___lldiv@divisor:	
  1080                           ; 2 bytes @ 0x2
  1081                           
  1082  0002'                    __div_to_l_@f1:	
  1083                           ; 4 bytes @ 0x2
  1084                           
  1085  0002'                    ___fleq@ff1:	
  1086                           ; 4 bytes @ 0x2
  1087                           
  1088  0002'                    ___flge@ff1:	
  1089                           ; 4 bytes @ 0x2
  1090                           
  1091  0002'                    ___flneg@f1:	
  1092                           ; 4 bytes @ 0x2
  1093                           
  1094  0002'                    __tdiv_to_l_@f1:	
  1095                           ; 4 bytes @ 0x2
  1096                           
  1097  0002'                    ___llmod@divisor:	
  1098                           ; 4 bytes @ 0x2
  1099                           
  1100  0002'                    ___xxtofl@val:	
  1101                           ; 4 bytes @ 0x2
  1102                           
  1103                           
  1104                           ; 4 bytes @ 0x2
  1105  0002'                    	ds	1
  1106  0003'                    ??_USART_SendString:
  1107  0003'                    isdigit@c:	
  1108                           ; 1 bytes @ 0x3
  1109                           
  1110                           
  1111                           ; 1 bytes @ 0x3
  1112  0003'                    	ds	1
  1113  0004'                    ??_I2C_Master_Read:
  1114  0004'                    ??_I2C_Start_Wait:	
  1115                           ; 1 bytes @ 0x4
  1116                           
  1117  0004'                    ??_I2C_Master_Write:	
  1118                           ; 1 bytes @ 0x4
  1119                           
  1120  0004'                    ??_MSdelay:	
  1121                           ; 1 bytes @ 0x4
  1122                           
  1123  0004'                    ??__Umul8_16:	
  1124                           ; 1 bytes @ 0x4
  1125                           
  1126  0004'                    USART_SendString@str:	
  1127                           ; 1 bytes @ 0x4
  1128                           
  1129  0004'                    I2C_Repeated_Start@slave_read_address:	
  1130                           ; 1 bytes @ 0x4
  1131                           
  1132  0004'                    MSdelay@i:	
  1133                           ; 1 bytes @ 0x4
  1134                           
  1135  0004'                    ___wmul@multiplicand:	
  1136                           ; 2 bytes @ 0x4
  1137                           
  1138  0004'                    ___awmod@dividend:	
  1139                           ; 2 bytes @ 0x4
  1140                           
  1141  0004'                    ___lwmod@dividend:	
  1142                           ; 2 bytes @ 0x4
  1143                           
  1144                           
  1145                           ; 2 bytes @ 0x4
  1146  0004'                    	ds	2
  1147  0006'                    ??___wmul:
  1148  0006'                    ??___awmod:	
  1149                           ; 1 bytes @ 0x6
  1150                           
  1151  0006'                    ??___flneg:	
  1152                           ; 1 bytes @ 0x6
  1153                           
  1154  0006'                    ??___lwmod:	
  1155                           ; 1 bytes @ 0x6
  1156                           
  1157  0006'                    ??___xxtofl:	
  1158                           ; 1 bytes @ 0x6
  1159                           
  1160  0006'                    I2C_Start_Wait@slave_write_address:	
  1161                           ; 1 bytes @ 0x6
  1162                           
  1163  0006'                    I2C_Master_Read@temp:	
  1164                           ; 1 bytes @ 0x6
  1165                           
  1166  0006'                    MSdelay@j:	
  1167                           ; 2 bytes @ 0x6
  1168                           
  1169  0006'                    ___wmul@product:	
  1170                           ; 2 bytes @ 0x6
  1171                           
  1172  0006'                    ___lldiv@dividend:	
  1173                           ; 2 bytes @ 0x6
  1174                           
  1175  0006'                    __div_to_l_@f2:	
  1176                           ; 4 bytes @ 0x6
  1177                           
  1178  0006'                    ___fleq@ff2:	
  1179                           ; 4 bytes @ 0x6
  1180                           
  1181  0006'                    ___flge@ff2:	
  1182                           ; 4 bytes @ 0x6
  1183                           
  1184  0006'                    __tdiv_to_l_@f2:	
  1185                           ; 4 bytes @ 0x6
  1186                           
  1187  0006'                    ___llmod@dividend:	
  1188                           ; 4 bytes @ 0x6
  1189                           
  1190                           
  1191                           ; 4 bytes @ 0x6
  1192  0006'                    	ds	1
  1193  0007'                    ??_MPU_Start_Loc:
  1194  0007'                    ___awmod@counter:	
  1195                           ; 1 bytes @ 0x7
  1196                           
  1197  0007'                    ___lwmod@counter:	
  1198                           ; 1 bytes @ 0x7
  1199                           
  1200                           
  1201                           ; 1 bytes @ 0x7
  1202  0007'                    	ds	1
  1203  0008'                    ??_MPU6050_Init:
  1204  0008'                    ??___lwdiv:	
  1205                           ; 1 bytes @ 0x8
  1206                           
  1207  0008'                    ___awmod@sign:	
  1208                           ; 1 bytes @ 0x8
  1209                           
  1210                           
  1211                           ; 1 bytes @ 0x8
  1212  0008'                    	ds	1
  1213  0009'                    ??___awdiv:
  1214                           
  1215                           ; 1 bytes @ 0x9
  1216  0009'                    	ds	1
  1217  000A'                    ??_setup:
  1218  000A'                    ??___flsub:	
  1219                           ; 1 bytes @ 0xA
  1220                           
  1221                           
  1222                           	psect	cstackBANK0
  1223  0000'                    __pcstackBANK0:	
  1224                           ; 1 bytes @ 0xA
  1225                           
  1226  0000'                    ??__tdiv_to_l_:
  1227  0000'                    ??__div_to_l_:	
  1228                           ; 1 bytes @ 0x0
  1229                           
  1230  0000'                    ??___lldiv:	
  1231                           ; 1 bytes @ 0x0
  1232                           
  1233  0000'                    ??___fleq:	
  1234                           ; 1 bytes @ 0x0
  1235                           
  1236  0000'                    ??___flge:	
  1237                           ; 1 bytes @ 0x0
  1238                           
  1239  0000'                    ??___llmod:	
  1240                           ; 1 bytes @ 0x0
  1241                           
  1242  0000'                    ?___awdiv:	
  1243                           ; 1 bytes @ 0x0
  1244                           
  1245  0000'                    ?___lwdiv:	
  1246                           ; 2 bytes @ 0x0
  1247                           
  1248  0000'                    ___xxtofl@sign:	
  1249                           ; 2 bytes @ 0x0
  1250                           
  1251  0000'                    ___awdiv@divisor:	
  1252                           ; 1 bytes @ 0x0
  1253                           
  1254  0000'                    ___lwdiv@divisor:	
  1255                           ; 2 bytes @ 0x0
  1256                           
  1257  0000'                    __Umul8_16@product:	
  1258                           ; 2 bytes @ 0x0
  1259                           
  1260                           
  1261                           ; 2 bytes @ 0x0
  1262  0000'                    	ds	1
  1263  0001'                    ___llmod@counter:
  1264  0001'                    ___xxtofl@exp:	
  1265                           ; 1 bytes @ 0x1
  1266                           
  1267  0001'                    ___lldiv@quotient:	
  1268                           ; 1 bytes @ 0x1
  1269                           
  1270  0001'                    __div_to_l_@quot:	
  1271                           ; 4 bytes @ 0x1
  1272                           
  1273                           
  1274                           ; 4 bytes @ 0x1
  1275  0001'                    	ds	1
  1276  0002'                    ___awdiv@dividend:
  1277  0002'                    ___lwdiv@dividend:	
  1278                           ; 2 bytes @ 0x2
  1279                           
  1280  0002'                    __Umul8_16@word_mpld:	
  1281                           ; 2 bytes @ 0x2
  1282                           
  1283  0002'                    ___xxtofl@arg:	
  1284                           ; 2 bytes @ 0x2
  1285                           
  1286                           
  1287                           ; 4 bytes @ 0x2
  1288  0002'                    	ds	2
  1289  0004'                    ___awdiv@counter:
  1290  0004'                    ___lwdiv@counter:	
  1291                           ; 1 bytes @ 0x4
  1292                           
  1293  0004'                    __Umul8_16@multiplier:	
  1294                           ; 1 bytes @ 0x4
  1295                           
  1296  0004'                    __tdiv_to_l_@quot:	
  1297                           ; 1 bytes @ 0x4
  1298                           
  1299                           
  1300                           ; 4 bytes @ 0x4
  1301  0004'                    	ds	1
  1302  0005'                    ___lldiv@counter:
  1303  0005'                    ___awdiv@sign:	
  1304                           ; 1 bytes @ 0x5
  1305                           
  1306  0005'                    __div_to_l_@cntr:	
  1307                           ; 1 bytes @ 0x5
  1308                           
  1309  0005'                    ___lwdiv@quotient:	
  1310                           ; 1 bytes @ 0x5
  1311                           
  1312                           
  1313                           ; 2 bytes @ 0x5
  1314  0005'                    	ds	1
  1315  0006'                    ?_I2C_Master_Init:
  1316  0006'                    ?___fldiv:	
  1317                           ; 1 bytes @ 0x6
  1318                           
  1319  0006'                    __div_to_l_@exp1:	
  1320                           ; 4 bytes @ 0x6
  1321                           
  1322  0006'                    ___awdiv@quotient:	
  1323                           ; 1 bytes @ 0x6
  1324                           
  1325  0006'                    I2C_Master_Init@c:	
  1326                           ; 2 bytes @ 0x6
  1327                           
  1328  0006'                    ___fldiv@a:	
  1329                           ; 4 bytes @ 0x6
  1330                           
  1331                           
  1332                           ; 4 bytes @ 0x6
  1333  0006'                    	ds	2
  1334  0008'                    ?___flmul:
  1335  0008'                    __tdiv_to_l_@cntr:	
  1336                           ; 4 bytes @ 0x8
  1337                           
  1338  0008'                    ___flmul@b:	
  1339                           ; 1 bytes @ 0x8
  1340                           
  1341                           
  1342                           ; 4 bytes @ 0x8
  1343  0008'                    	ds	1
  1344  0009'                    __tdiv_to_l_@exp1:
  1345                           
  1346                           ; 1 bytes @ 0x9
  1347  0009'                    	ds	1
  1348  000A'                    ??_I2C_Master_Init:
  1349  000A'                    ___fldiv@b:	
  1350                           ; 1 bytes @ 0xA
  1351                           
  1352                           
  1353                           ; 4 bytes @ 0xA
  1354  000A'                    	ds	2
  1355  000C'                    ___flmul@a:
  1356                           
  1357                           ; 4 bytes @ 0xC
  1358  000C'                    	ds	2
  1359  000E'                    ??___fldiv:
  1360                           
  1361                           ; 1 bytes @ 0xE
  1362  000E'                    	ds	2
  1363  0010'                    ??___flmul:
  1364                           
  1365                           ; 1 bytes @ 0x10
  1366  0010'                    	ds	3
  1367  0013'                    ___fldiv@rem:
  1368                           
  1369                           ; 4 bytes @ 0x13
  1370  0013'                    	ds	2
  1371  0015'                    ___flmul@sign:
  1372                           
  1373                           ; 1 bytes @ 0x15
  1374  0015'                    	ds	1
  1375  0016'                    ___flmul@aexp:
  1376                           
  1377                           ; 1 bytes @ 0x16
  1378  0016'                    	ds	1
  1379  0017'                    ___fldiv@sign:
  1380  0017'                    ___flmul@grs:	
  1381                           ; 1 bytes @ 0x17
  1382                           
  1383                           
  1384                           ; 4 bytes @ 0x17
  1385  0017'                    	ds	1
  1386  0018'                    ___fldiv@new_exp:
  1387                           
  1388                           ; 2 bytes @ 0x18
  1389  0018'                    	ds	2
  1390  001A'                    ___fldiv@grs:
  1391                           
  1392                           ; 4 bytes @ 0x1A
  1393  001A'                    	ds	1
  1394  001B'                    ___flmul@bexp:
  1395                           
  1396                           ; 1 bytes @ 0x1B
  1397  001B'                    	ds	1
  1398  001C'                    ___flmul@prod:
  1399                           
  1400                           ; 4 bytes @ 0x1C
  1401  001C'                    	ds	2
  1402  001E'                    ___fldiv@bexp:
  1403                           
  1404                           ; 1 bytes @ 0x1E
  1405  001E'                    	ds	1
  1406  001F'                    ___fldiv@aexp:
  1407                           
  1408                           ; 1 bytes @ 0x1F
  1409  001F'                    	ds	1
  1410  0020'                    ___flmul@temp:
  1411                           
  1412                           ; 2 bytes @ 0x20
  1413  0020'                    	ds	2
  1414  0022'                    ?_fround:
  1415  0022'                    ?_scale:	
  1416                           ; 4 bytes @ 0x22
  1417                           
  1418                           
  1419                           ; 4 bytes @ 0x22
  1420  0022'                    	ds	4
  1421  0026'                    ??_fround:
  1422  0026'                    ??_scale:	
  1423                           ; 1 bytes @ 0x26
  1424                           
  1425                           
  1426                           ; 1 bytes @ 0x26
  1427  0026'                    	ds	7
  1428  002D'                    _fround$1395:
  1429                           
  1430                           ; 4 bytes @ 0x2D
  1431  002D'                    	ds	3
  1432  0030'                    _scale$1396:
  1433                           
  1434                           ; 4 bytes @ 0x30
  1435  0030'                    	ds	1
  1436  0031'                    _fround$1394:
  1437                           
  1438                           ; 4 bytes @ 0x31
  1439  0031'                    	ds	3
  1440  0034'                    scale@scl:
  1441                           
  1442                           ; 1 bytes @ 0x34
  1443  0034'                    	ds	1
  1444  0035'                    ?___fltol:
  1445  0035'                    fround@prec:	
  1446                           ; 4 bytes @ 0x35
  1447                           
  1448  0035'                    ___fltol@f1:	
  1449                           ; 1 bytes @ 0x35
  1450                           
  1451                           
  1452                           ; 4 bytes @ 0x35
  1453  0035'                    	ds	1
  1454  0036'                    ?___fladd:
  1455  0036'                    ___fladd@b:	
  1456                           ; 4 bytes @ 0x36
  1457                           
  1458                           
  1459                           ; 4 bytes @ 0x36
  1460  0036'                    	ds	3
  1461  0039'                    ??___fltol:
  1462                           
  1463                           ; 1 bytes @ 0x39
  1464  0039'                    	ds	1
  1465  003A'                    ___fladd@a:
  1466                           
  1467                           ; 4 bytes @ 0x3A
  1468  003A'                    	ds	4
  1469  003E'                    ??___fladd:
  1470  003E'                    ___fltol@sign1:	
  1471                           ; 1 bytes @ 0x3E
  1472                           
  1473                           
  1474                           ; 1 bytes @ 0x3E
  1475  003E'                    	ds	1
  1476  003F'                    ___fltol@exp1:
  1477                           
  1478                           ; 1 bytes @ 0x3F
  1479  003F'                    	ds	7
  1480  0046'                    ___fladd@signs:
  1481                           
  1482                           ; 1 bytes @ 0x46
  1483  0046'                    	ds	1
  1484  0047'                    ___fladd@aexp:
  1485                           
  1486                           ; 1 bytes @ 0x47
  1487  0047'                    	ds	1
  1488  0048'                    ___fladd@bexp:
  1489                           
  1490                           ; 1 bytes @ 0x48
  1491  0048'                    	ds	1
  1492  0049'                    ___fladd@grs:
  1493                           
  1494                           ; 1 bytes @ 0x49
  1495  0049'                    	ds	1
  1496  004A'                    ??_sprintf:
  1497                           
  1498                           ; 1 bytes @ 0x4A
  1499  004A'                    	ds	5
  1500                           
  1501                           	psect	maintext
  1502  0000'                    __pmaintext:	
  1503 ;;
  1504 ;;Main: autosize = 0, tempsize = 2, incstack = 0, save=0
  1505 ;;
  1506 ;; *************** function _main *****************
  1507 ;; Defined at:
  1508 ;;		line 86 in file "MAIN_I2C.c"
  1509 ;; Parameters:    Size  Location     Type
  1510 ;;		None
  1511 ;; Auto vars:     Size  Location     Type
  1512 ;;  buffer         20    0[BANK3 ] unsigned char [20]
  1513 ;;  Zg              4   44[BANK3 ] float 
  1514 ;;  Yg              4   40[BANK3 ] float 
  1515 ;;  Xg              4   36[BANK3 ] float 
  1516 ;;  t               4   32[BANK3 ] float 
  1517 ;;  Za              4   28[BANK3 ] float 
  1518 ;;  Ya              4   24[BANK3 ] float 
  1519 ;;  Xa              4   20[BANK3 ] float 
  1520 ;;  Gz              2   60[BANK3 ] int 
  1521 ;;  Gy              2   58[BANK3 ] int 
  1522 ;;  Gx              2   56[BANK3 ] int 
  1523 ;;  T               2   54[BANK3 ] int 
  1524 ;;  Az              2   52[BANK3 ] int 
  1525 ;;  Ay              2   50[BANK3 ] int 
  1526 ;;  Ax              2   48[BANK3 ] int 
  1527 ;; Return value:  Size  Location     Type
  1528 ;;                  1    wreg      void 
  1529 ;; Registers used:
  1530 ;;		wreg, fsr0l, fsr0h, fsr1l, fsr1h, fsr1l, fsr1h, status,2, status,0, btemp+1, pclath, cstack
  1531 ;; Tracked objects:
  1532 ;;		On entry : B00/0
  1533 ;;		On exit  : 0/0
  1534 ;;		Unchanged: 0/0
  1535 ;; Data sizes:     COMMON   BANK0   BANK1   BANK3   BANK2
  1536 ;;      Params:         0       0       0       0       0
  1537 ;;      Locals:         0       0       0      62       0
  1538 ;;      Temps:          0       0       2       0       0
  1539 ;;      Totals:         0       0       2      62       0
  1540 ;;Total ram usage:       64 bytes
  1541 ;; Hardware stack levels required when called:    6
  1542 ;; This function calls:
  1543 ;;		_I2C_Master_Read
  1544 ;;		_I2C_Master_Stop
  1545 ;;		_MPU6050_Init
  1546 ;;		_MPU_Start_Loc
  1547 ;;		_USART_SendString
  1548 ;;		_USART_config
  1549 ;;		___fladd
  1550 ;;		___fldiv
  1551 ;;		___xxtofl
  1552 ;;		_escribir_char
  1553 ;;		_interrup_config
  1554 ;;		_osc_config
  1555 ;;		_setup
  1556 ;;		_sprintf
  1557 ;;		_tmr0_config
  1558 ;; This function is called by:
  1559 ;;		Startup code after reset
  1560 ;; This function uses a non-reentrant model
  1561 ;;
  1562                           
  1563                           
  1564                           ;psect for function _main
  1565  0000'                    _main:
  1566  0000'                    l4621:	
  1567                           ;incstack = 0
  1568                           ; Regs used in _main: [allreg]
  1569                           
  1570                           
  1571                           ;MAIN_I2C.c: 87:   t = ((float)T/340.00)+36.53;
  1572  0000' 120A' 118A' 2000' 120A' 118A' 	fcall	_setup
  1573                           
  1574                           ;MAIN_I2C.c: 88: 
  1575  0005' 120A' 118A' 2000' 120A' 118A' 	fcall	_USART_config
  1576  000A'                    l4623:
  1577                           
  1578                           ;MAIN_I2C.c: 89: 
  1579  000A' 120A' 118A' 2000' 120A' 118A' 	fcall	_osc_config
  1580  000F'                    l4625:
  1581                           
  1582                           ;MAIN_I2C.c: 90: 
  1583  000F' 120A' 118A' 2000' 120A' 118A' 	fcall	_interrup_config
  1584                           
  1585                           ;MAIN_I2C.c: 91:   sprintf(buffer," Ax = %.2f g\t",Xa);
  1586  0014' 120A' 118A' 2000' 120A' 118A' 	fcall	_tmr0_config
  1587                           
  1588                           ;MAIN_I2C.c: 92:   USART_SendString(buffer);
  1589  0019' 120A' 118A' 2000' 120A' 118A' 	fcall	_MPU6050_Init
  1590  001E'                    l109:	
  1591                           ;MAIN_I2C.c: 94:   sprintf(buffer," Ay = %.2f g\t",Ya);;MAIN_I2C.c: 95:   USART_SendStri
      +                          ng(buffer);;MAIN_I2C.c: 96: ;MAIN_I2C.c: 98:   USART_SendString(buffer);
  1592                           
  1593                           
  1594                           ;MAIN_I2C.c: 104:   USART_SendString(buffer);
  1595  001E' 3030               	movlw	48
  1596  001F' 120A' 118A' 2000' 120A' 118A' 	fcall	_escribir_char
  1597  0024'                    l4627:
  1598                           
  1599                           ;MAIN_I2C.c: 105: 
  1600  0024' 300D               	movlw	13
  1601  0025' 1683               	bsf	3,5	;RP0=1, select bank1
  1602  0026' 1303               	bcf	3,6	;RP1=0, select bank1
  1603  0027' 0081'              	movwf	(??_main^(0+128)+1)
  1604  0028' 30FB               	movlw	251
  1605  0029' 0080'              	movwf	??_main^(0+128)
  1606  002A'                    u7547:
  1607  002A' 0B80'              	decfsz	??_main^(0+128),f
  1608  002B' 2800'              	goto	u7547
  1609  002C' 0B81'              	decfsz	(??_main^(0+128)+1),f
  1610  002D' 2800'              	goto	u7547
  1611  002E'                    l4629:
  1612                           
  1613                           ;MAIN_I2C.c: 106:   sprintf(buffer," Gy = %.2f%c/s\t",Yg,0xF8);
  1614  002E' 300A               	movlw	10
  1615  002F' 120A' 118A' 2000' 120A' 118A' 	fcall	_escribir_char
  1616  0034'                    l4631:
  1617                           
  1618                           ;MAIN_I2C.c: 109:   sprintf(buffer," Gz = %.2f%c/s\r\n",Zg,0xF8);
  1619  0034' 120A' 118A' 2000' 120A' 118A' 	fcall	_MPU_Start_Loc
  1620  0039'                    l4633:
  1621                           
  1622                           ;MAIN_I2C.c: 111: 
  1623  0039' 3000               	movlw	0
  1624  003A' 0082'              	movwf	I2C_Master_Read@a
  1625  003B' 0083'              	movwf	I2C_Master_Read@a+1
  1626  003C' 120A' 118A' 2000' 120A' 118A' 	fcall	_I2C_Master_Read
  1627  0041' 0802'              	movf	?_I2C_Master_Read,w
  1628  0042' 1683               	bsf	3,5	;RP0=1, select bank1
  1629  0043' 1303               	bcf	3,6	;RP1=0, select bank1
  1630  0044' 0080'              	movwf	??_main^(0+128)
  1631  0045' 0803'              	movf	?_I2C_Master_Read+1,w
  1632  0046' 0081'              	movwf	(??_main^(0+128)+1)
  1633  0047' 0800'              	movf	??_main^(0+128),w
  1634  0048' 0081'              	movwf	(??_main^(0+128)+1)
  1635  0049' 0180'              	clrf	??_main^(0+128)
  1636  004A' 3000               	movlw	0
  1637  004B' 0082'              	movwf	I2C_Master_Read@a
  1638  004C' 0083'              	movwf	I2C_Master_Read@a+1
  1639  004D' 120A' 118A' 2000' 120A' 118A' 	fcall	_I2C_Master_Read
  1640  0052' 0802'              	movf	?_I2C_Master_Read,w
  1641  0053' 1683               	bsf	3,5	;RP0=1, select bank1
  1642  0054' 1303               	bcf	3,6	;RP1=0, select bank1
  1643  0055' 0400'              	iorwf	??_main^(0+128),w
  1644  0056' 1683               	bsf	3,5	;RP0=1, select bank3
  1645  0057' 1703               	bsf	3,6	;RP1=1, select bank3
  1646  0058' 0080'              	movwf	main@Ax^(0+384)
  1647  0059' 0803'              	movf	?_I2C_Master_Read+1,w
  1648  005A' 1683               	bsf	3,5	;RP0=1, select bank1
  1649  005B' 1303               	bcf	3,6	;RP1=0, select bank1
  1650  005C' 0400'              	iorwf	(??_main+1)^(0+128),w
  1651  005D' 1683               	bsf	3,5	;RP0=1, select bank3
  1652  005E' 1703               	bsf	3,6	;RP1=1, select bank3
  1653  005F' 0080'              	movwf	(main@Ax+1)^(0+384)
  1654  0060'                    l4635:
  1655                           
  1656                           ;MAIN_I2C.c: 112: 
  1657  0060' 3000               	movlw	0
  1658  0061' 0082'              	movwf	I2C_Master_Read@a
  1659  0062' 0083'              	movwf	I2C_Master_Read@a+1
  1660  0063' 120A' 118A' 2000' 120A' 118A' 	fcall	_I2C_Master_Read
  1661  0068' 0802'              	movf	?_I2C_Master_Read,w
  1662  0069' 1683               	bsf	3,5	;RP0=1, select bank1
  1663  006A' 1303               	bcf	3,6	;RP1=0, select bank1
  1664  006B' 0080'              	movwf	??_main^(0+128)
  1665  006C' 0803'              	movf	?_I2C_Master_Read+1,w
  1666  006D' 0081'              	movwf	(??_main^(0+128)+1)
  1667  006E' 0800'              	movf	??_main^(0+128),w
  1668  006F' 0081'              	movwf	(??_main^(0+128)+1)
  1669  0070' 0180'              	clrf	??_main^(0+128)
  1670  0071' 3000               	movlw	0
  1671  0072' 0082'              	movwf	I2C_Master_Read@a
  1672  0073' 0083'              	movwf	I2C_Master_Read@a+1
  1673  0074' 120A' 118A' 2000' 120A' 118A' 	fcall	_I2C_Master_Read
  1674  0079' 0802'              	movf	?_I2C_Master_Read,w
  1675  007A' 1683               	bsf	3,5	;RP0=1, select bank1
  1676  007B' 1303               	bcf	3,6	;RP1=0, select bank1
  1677  007C' 0400'              	iorwf	??_main^(0+128),w
  1678  007D' 1683               	bsf	3,5	;RP0=1, select bank3
  1679  007E' 1703               	bsf	3,6	;RP1=1, select bank3
  1680  007F' 0080'              	movwf	main@Ay^(0+384)
  1681  0080' 0803'              	movf	?_I2C_Master_Read+1,w
  1682  0081' 1683               	bsf	3,5	;RP0=1, select bank1
  1683  0082' 1303               	bcf	3,6	;RP1=0, select bank1
  1684  0083' 0400'              	iorwf	(??_main+1)^(0+128),w
  1685  0084' 1683               	bsf	3,5	;RP0=1, select bank3
  1686  0085' 1703               	bsf	3,6	;RP1=1, select bank3
  1687  0086' 0080'              	movwf	(main@Ay+1)^(0+384)
  1688  0087'                    l4637:
  1689                           
  1690                           ;MAIN_I2C.c: 113: 
  1691  0087' 3000               	movlw	0
  1692  0088' 0082'              	movwf	I2C_Master_Read@a
  1693  0089' 0083'              	movwf	I2C_Master_Read@a+1
  1694  008A' 120A' 118A' 2000' 120A' 118A' 	fcall	_I2C_Master_Read
  1695  008F' 0802'              	movf	?_I2C_Master_Read,w
  1696  0090' 1683               	bsf	3,5	;RP0=1, select bank1
  1697  0091' 1303               	bcf	3,6	;RP1=0, select bank1
  1698  0092' 0080'              	movwf	??_main^(0+128)
  1699  0093' 0803'              	movf	?_I2C_Master_Read+1,w
  1700  0094' 0081'              	movwf	(??_main^(0+128)+1)
  1701  0095' 0800'              	movf	??_main^(0+128),w
  1702  0096' 0081'              	movwf	(??_main^(0+128)+1)
  1703  0097' 0180'              	clrf	??_main^(0+128)
  1704  0098' 3000               	movlw	0
  1705  0099' 0082'              	movwf	I2C_Master_Read@a
  1706  009A' 0083'              	movwf	I2C_Master_Read@a+1
  1707  009B' 120A' 118A' 2000' 120A' 118A' 	fcall	_I2C_Master_Read
  1708  00A0' 0802'              	movf	?_I2C_Master_Read,w
  1709  00A1' 1683               	bsf	3,5	;RP0=1, select bank1
  1710  00A2' 1303               	bcf	3,6	;RP1=0, select bank1
  1711  00A3' 0400'              	iorwf	??_main^(0+128),w
  1712  00A4' 1683               	bsf	3,5	;RP0=1, select bank3
  1713  00A5' 1703               	bsf	3,6	;RP1=1, select bank3
  1714  00A6' 0080'              	movwf	main@Az^(0+384)
  1715  00A7' 0803'              	movf	?_I2C_Master_Read+1,w
  1716  00A8' 1683               	bsf	3,5	;RP0=1, select bank1
  1717  00A9' 1303               	bcf	3,6	;RP1=0, select bank1
  1718  00AA' 0400'              	iorwf	(??_main+1)^(0+128),w
  1719  00AB' 1683               	bsf	3,5	;RP0=1, select bank3
  1720  00AC' 1703               	bsf	3,6	;RP1=1, select bank3
  1721  00AD' 0080'              	movwf	(main@Az+1)^(0+384)
  1722  00AE'                    l4639:
  1723                           
  1724                           ;MAIN_I2C.c: 114: 
  1725  00AE' 3000               	movlw	0
  1726  00AF' 0082'              	movwf	I2C_Master_Read@a
  1727  00B0' 0083'              	movwf	I2C_Master_Read@a+1
  1728  00B1' 120A' 118A' 2000' 120A' 118A' 	fcall	_I2C_Master_Read
  1729  00B6' 0802'              	movf	?_I2C_Master_Read,w
  1730  00B7' 1683               	bsf	3,5	;RP0=1, select bank1
  1731  00B8' 1303               	bcf	3,6	;RP1=0, select bank1
  1732  00B9' 0080'              	movwf	??_main^(0+128)
  1733  00BA' 0803'              	movf	?_I2C_Master_Read+1,w
  1734  00BB' 0081'              	movwf	(??_main^(0+128)+1)
  1735  00BC' 0800'              	movf	??_main^(0+128),w
  1736  00BD' 0081'              	movwf	(??_main^(0+128)+1)
  1737  00BE' 0180'              	clrf	??_main^(0+128)
  1738  00BF' 3000               	movlw	0
  1739  00C0' 0082'              	movwf	I2C_Master_Read@a
  1740  00C1' 0083'              	movwf	I2C_Master_Read@a+1
  1741  00C2' 120A' 118A' 2000' 120A' 118A' 	fcall	_I2C_Master_Read
  1742  00C7' 0802'              	movf	?_I2C_Master_Read,w
  1743  00C8' 1683               	bsf	3,5	;RP0=1, select bank1
  1744  00C9' 1303               	bcf	3,6	;RP1=0, select bank1
  1745  00CA' 0400'              	iorwf	??_main^(0+128),w
  1746  00CB' 1683               	bsf	3,5	;RP0=1, select bank3
  1747  00CC' 1703               	bsf	3,6	;RP1=1, select bank3
  1748  00CD' 0080'              	movwf	main@T^(0+384)
  1749  00CE' 0803'              	movf	?_I2C_Master_Read+1,w
  1750  00CF' 1683               	bsf	3,5	;RP0=1, select bank1
  1751  00D0' 1303               	bcf	3,6	;RP1=0, select bank1
  1752  00D1' 0400'              	iorwf	(??_main+1)^(0+128),w
  1753  00D2' 1683               	bsf	3,5	;RP0=1, select bank3
  1754  00D3' 1703               	bsf	3,6	;RP1=1, select bank3
  1755  00D4' 0080'              	movwf	(main@T+1)^(0+384)
  1756  00D5'                    l4641:
  1757                           
  1758                           ;MAIN_I2C.c: 115: 
  1759  00D5' 3000               	movlw	0
  1760  00D6' 0082'              	movwf	I2C_Master_Read@a
  1761  00D7' 0083'              	movwf	I2C_Master_Read@a+1
  1762  00D8' 120A' 118A' 2000' 120A' 118A' 	fcall	_I2C_Master_Read
  1763  00DD' 0802'              	movf	?_I2C_Master_Read,w
  1764  00DE' 1683               	bsf	3,5	;RP0=1, select bank1
  1765  00DF' 1303               	bcf	3,6	;RP1=0, select bank1
  1766  00E0' 0080'              	movwf	??_main^(0+128)
  1767  00E1' 0803'              	movf	?_I2C_Master_Read+1,w
  1768  00E2' 0081'              	movwf	(??_main^(0+128)+1)
  1769  00E3' 0800'              	movf	??_main^(0+128),w
  1770  00E4' 0081'              	movwf	(??_main^(0+128)+1)
  1771  00E5' 0180'              	clrf	??_main^(0+128)
  1772  00E6' 3000               	movlw	0
  1773  00E7' 0082'              	movwf	I2C_Master_Read@a
  1774  00E8' 0083'              	movwf	I2C_Master_Read@a+1
  1775  00E9' 120A' 118A' 2000' 120A' 118A' 	fcall	_I2C_Master_Read
  1776  00EE' 0802'              	movf	?_I2C_Master_Read,w
  1777  00EF' 1683               	bsf	3,5	;RP0=1, select bank1
  1778  00F0' 1303               	bcf	3,6	;RP1=0, select bank1
  1779  00F1' 0400'              	iorwf	??_main^(0+128),w
  1780  00F2' 1683               	bsf	3,5	;RP0=1, select bank3
  1781  00F3' 1703               	bsf	3,6	;RP1=1, select bank3
  1782  00F4' 0080'              	movwf	main@Gx^(0+384)
  1783  00F5' 0803'              	movf	?_I2C_Master_Read+1,w
  1784  00F6' 1683               	bsf	3,5	;RP0=1, select bank1
  1785  00F7' 1303               	bcf	3,6	;RP1=0, select bank1
  1786  00F8' 0400'              	iorwf	(??_main+1)^(0+128),w
  1787  00F9' 1683               	bsf	3,5	;RP0=1, select bank3
  1788  00FA' 1703               	bsf	3,6	;RP1=1, select bank3
  1789  00FB' 0080'              	movwf	(main@Gx+1)^(0+384)
  1790  00FC'                    l4643:
  1791                           
  1792                           ;MAIN_I2C.c: 116: 
  1793  00FC' 3000               	movlw	0
  1794  00FD' 0082'              	movwf	I2C_Master_Read@a
  1795  00FE' 0083'              	movwf	I2C_Master_Read@a+1
  1796  00FF' 120A' 118A' 2000' 120A' 118A' 	fcall	_I2C_Master_Read
  1797  0104' 0802'              	movf	?_I2C_Master_Read,w
  1798  0105' 1683               	bsf	3,5	;RP0=1, select bank1
  1799  0106' 1303               	bcf	3,6	;RP1=0, select bank1
  1800  0107' 0080'              	movwf	??_main^(0+128)
  1801  0108' 0803'              	movf	?_I2C_Master_Read+1,w
  1802  0109' 0081'              	movwf	(??_main^(0+128)+1)
  1803  010A' 0800'              	movf	??_main^(0+128),w
  1804  010B' 0081'              	movwf	(??_main^(0+128)+1)
  1805  010C' 0180'              	clrf	??_main^(0+128)
  1806  010D' 3000               	movlw	0
  1807  010E' 0082'              	movwf	I2C_Master_Read@a
  1808  010F' 0083'              	movwf	I2C_Master_Read@a+1
  1809  0110' 120A' 118A' 2000' 120A' 118A' 	fcall	_I2C_Master_Read
  1810  0115' 0802'              	movf	?_I2C_Master_Read,w
  1811  0116' 1683               	bsf	3,5	;RP0=1, select bank1
  1812  0117' 1303               	bcf	3,6	;RP1=0, select bank1
  1813  0118' 0400'              	iorwf	??_main^(0+128),w
  1814  0119' 1683               	bsf	3,5	;RP0=1, select bank3
  1815  011A' 1703               	bsf	3,6	;RP1=1, select bank3
  1816  011B' 0080'              	movwf	main@Gy^(0+384)
  1817  011C' 0803'              	movf	?_I2C_Master_Read+1,w
  1818  011D' 1683               	bsf	3,5	;RP0=1, select bank1
  1819  011E' 1303               	bcf	3,6	;RP1=0, select bank1
  1820  011F' 0400'              	iorwf	(??_main+1)^(0+128),w
  1821  0120' 1683               	bsf	3,5	;RP0=1, select bank3
  1822  0121' 1703               	bsf	3,6	;RP1=1, select bank3
  1823  0122' 0080'              	movwf	(main@Gy+1)^(0+384)
  1824  0123'                    l4645:
  1825                           
  1826                           ;MAIN_I2C.c: 117: 
  1827  0123' 3000               	movlw	0
  1828  0124' 0082'              	movwf	I2C_Master_Read@a
  1829  0125' 0083'              	movwf	I2C_Master_Read@a+1
  1830  0126' 120A' 118A' 2000' 120A' 118A' 	fcall	_I2C_Master_Read
  1831  012B' 0802'              	movf	?_I2C_Master_Read,w
  1832  012C' 1683               	bsf	3,5	;RP0=1, select bank1
  1833  012D' 1303               	bcf	3,6	;RP1=0, select bank1
  1834  012E' 0080'              	movwf	??_main^(0+128)
  1835  012F' 0803'              	movf	?_I2C_Master_Read+1,w
  1836  0130' 0081'              	movwf	(??_main^(0+128)+1)
  1837  0131' 0800'              	movf	??_main^(0+128),w
  1838  0132' 0081'              	movwf	(??_main^(0+128)+1)
  1839  0133' 0180'              	clrf	??_main^(0+128)
  1840  0134' 3001               	movlw	1
  1841  0135' 0082'              	movwf	I2C_Master_Read@a
  1842  0136' 3000               	movlw	0
  1843  0137' 0083'              	movwf	I2C_Master_Read@a+1
  1844  0138' 120A' 118A' 2000' 120A' 118A' 	fcall	_I2C_Master_Read
  1845  013D' 0802'              	movf	?_I2C_Master_Read,w
  1846  013E' 1683               	bsf	3,5	;RP0=1, select bank1
  1847  013F' 1303               	bcf	3,6	;RP1=0, select bank1
  1848  0140' 0400'              	iorwf	??_main^(0+128),w
  1849  0141' 1683               	bsf	3,5	;RP0=1, select bank3
  1850  0142' 1703               	bsf	3,6	;RP1=1, select bank3
  1851  0143' 0080'              	movwf	main@Gz^(0+384)
  1852  0144' 0803'              	movf	?_I2C_Master_Read+1,w
  1853  0145' 1683               	bsf	3,5	;RP0=1, select bank1
  1854  0146' 1303               	bcf	3,6	;RP1=0, select bank1
  1855  0147' 0400'              	iorwf	(??_main+1)^(0+128),w
  1856  0148' 1683               	bsf	3,5	;RP0=1, select bank3
  1857  0149' 1703               	bsf	3,6	;RP1=1, select bank3
  1858  014A' 0080'              	movwf	(main@Gz+1)^(0+384)
  1859  014B'                    l4647:
  1860                           
  1861                           ;MAIN_I2C.c: 118:         PORTB++;
  1862  014B' 120A' 118A' 2000' 120A' 118A' 	fcall	_I2C_Master_Stop
  1863  0150'                    l4649:
  1864                           
  1865                           ;MAIN_I2C.c: 121: }
  1866  0150' 3046               	movlw	70
  1867  0151' 1283               	bcf	3,5	;RP0=0, select bank0
  1868  0152' 1303               	bcf	3,6	;RP1=0, select bank0
  1869  0153' 0089'              	movwf	___fldiv@a+3
  1870  0154' 3080               	movlw	128
  1871  0155' 0088'              	movwf	___fldiv@a+2
  1872  0156' 3000               	movlw	0
  1873  0157' 0087'              	movwf	___fldiv@a+1
  1874  0158' 3000               	movlw	0
  1875  0159' 0086'              	movwf	___fldiv@a
  1876  015A' 1683               	bsf	3,5	;RP0=1, select bank3
  1877  015B' 1703               	bsf	3,6	;RP1=1, select bank3
  1878  015C' 0800'              	movf	main@Ax^(0+384),w
  1879  015D' 0082'              	movwf	___xxtofl@val
  1880  015E' 0800'              	movf	(main@Ax+1)^(0+384),w
  1881  015F' 0083'              	movwf	___xxtofl@val+1
  1882  0160' 3000               	movlw	0
  1883  0161' 1B83'              	btfsc	___xxtofl@val+1,7
  1884  0162' 30FF               	movlw	255
  1885  0163' 0084'              	movwf	___xxtofl@val+2
  1886  0164' 0085'              	movwf	___xxtofl@val+3
  1887  0165' 3001               	movlw	1
  1888  0166' 120A' 118A' 2000' 120A' 118A' 	fcall	___xxtofl
  1889  016B' 0805'              	movf	?___xxtofl+3,w
  1890  016C' 1283               	bcf	3,5	;RP0=0, select bank0
  1891  016D' 1303               	bcf	3,6	;RP1=0, select bank0
  1892  016E' 008D'              	movwf	___fldiv@b+3
  1893  016F' 0804'              	movf	?___xxtofl+2,w
  1894  0170' 008C'              	movwf	___fldiv@b+2
  1895  0171' 0803'              	movf	?___xxtofl+1,w
  1896  0172' 008B'              	movwf	___fldiv@b+1
  1897  0173' 0802'              	movf	?___xxtofl,w
  1898  0174' 008A'              	movwf	___fldiv@b
  1899  0175' 120A' 118A' 2000' 120A' 118A' 	fcall	___fldiv
  1900  017A' 1283               	bcf	3,5	;RP0=0, select bank0
  1901  017B' 1303               	bcf	3,6	;RP1=0, select bank0
  1902  017C' 0809'              	movf	?___fldiv+3,w
  1903  017D' 1683               	bsf	3,5	;RP0=1, select bank3
  1904  017E' 1703               	bsf	3,6	;RP1=1, select bank3
  1905  017F' 0080'              	movwf	(main@Xa+3)^(0+384)
  1906  0180' 1283               	bcf	3,5	;RP0=0, select bank0
  1907  0181' 1303               	bcf	3,6	;RP1=0, select bank0
  1908  0182' 0808'              	movf	?___fldiv+2,w
  1909  0183' 1683               	bsf	3,5	;RP0=1, select bank3
  1910  0184' 1703               	bsf	3,6	;RP1=1, select bank3
  1911  0185' 0080'              	movwf	(main@Xa+2)^(0+384)
  1912  0186' 1283               	bcf	3,5	;RP0=0, select bank0
  1913  0187' 1303               	bcf	3,6	;RP1=0, select bank0
  1914  0188' 0807'              	movf	?___fldiv+1,w
  1915  0189' 1683               	bsf	3,5	;RP0=1, select bank3
  1916  018A' 1703               	bsf	3,6	;RP1=1, select bank3
  1917  018B' 0080'              	movwf	(main@Xa+1)^(0+384)
  1918  018C' 1283               	bcf	3,5	;RP0=0, select bank0
  1919  018D' 1303               	bcf	3,6	;RP1=0, select bank0
  1920  018E' 0806'              	movf	?___fldiv,w
  1921  018F' 1683               	bsf	3,5	;RP0=1, select bank3
  1922  0190' 1703               	bsf	3,6	;RP1=1, select bank3
  1923  0191' 0080'              	movwf	main@Xa^(0+384)
  1924  0192'                    l4651:
  1925                           
  1926                           ;MAIN_I2C.c: 122: 
  1927  0192' 3046               	movlw	70
  1928  0193' 1283               	bcf	3,5	;RP0=0, select bank0
  1929  0194' 1303               	bcf	3,6	;RP1=0, select bank0
  1930  0195' 0089'              	movwf	___fldiv@a+3
  1931  0196' 3080               	movlw	128
  1932  0197' 0088'              	movwf	___fldiv@a+2
  1933  0198' 3000               	movlw	0
  1934  0199' 0087'              	movwf	___fldiv@a+1
  1935  019A' 3000               	movlw	0
  1936  019B' 0086'              	movwf	___fldiv@a
  1937  019C' 1683               	bsf	3,5	;RP0=1, select bank3
  1938  019D' 1703               	bsf	3,6	;RP1=1, select bank3
  1939  019E' 0800'              	movf	main@Ay^(0+384),w
  1940  019F' 0082'              	movwf	___xxtofl@val
  1941  01A0' 0800'              	movf	(main@Ay+1)^(0+384),w
  1942  01A1' 0083'              	movwf	___xxtofl@val+1
  1943  01A2' 3000               	movlw	0
  1944  01A3' 1B83'              	btfsc	___xxtofl@val+1,7
  1945  01A4' 30FF               	movlw	255
  1946  01A5' 0084'              	movwf	___xxtofl@val+2
  1947  01A6' 0085'              	movwf	___xxtofl@val+3
  1948  01A7' 3001               	movlw	1
  1949  01A8' 120A' 118A' 2000' 120A' 118A' 	fcall	___xxtofl
  1950  01AD' 0805'              	movf	?___xxtofl+3,w
  1951  01AE' 1283               	bcf	3,5	;RP0=0, select bank0
  1952  01AF' 1303               	bcf	3,6	;RP1=0, select bank0
  1953  01B0' 008D'              	movwf	___fldiv@b+3
  1954  01B1' 0804'              	movf	?___xxtofl+2,w
  1955  01B2' 008C'              	movwf	___fldiv@b+2
  1956  01B3' 0803'              	movf	?___xxtofl+1,w
  1957  01B4' 008B'              	movwf	___fldiv@b+1
  1958  01B5' 0802'              	movf	?___xxtofl,w
  1959  01B6' 008A'              	movwf	___fldiv@b
  1960  01B7' 120A' 118A' 2000' 120A' 118A' 	fcall	___fldiv
  1961  01BC' 1283               	bcf	3,5	;RP0=0, select bank0
  1962  01BD' 1303               	bcf	3,6	;RP1=0, select bank0
  1963  01BE' 0809'              	movf	?___fldiv+3,w
  1964  01BF' 1683               	bsf	3,5	;RP0=1, select bank3
  1965  01C0' 1703               	bsf	3,6	;RP1=1, select bank3
  1966  01C1' 0080'              	movwf	(main@Ya+3)^(0+384)
  1967  01C2' 1283               	bcf	3,5	;RP0=0, select bank0
  1968  01C3' 1303               	bcf	3,6	;RP1=0, select bank0
  1969  01C4' 0808'              	movf	?___fldiv+2,w
  1970  01C5' 1683               	bsf	3,5	;RP0=1, select bank3
  1971  01C6' 1703               	bsf	3,6	;RP1=1, select bank3
  1972  01C7' 0080'              	movwf	(main@Ya+2)^(0+384)
  1973  01C8' 1283               	bcf	3,5	;RP0=0, select bank0
  1974  01C9' 1303               	bcf	3,6	;RP1=0, select bank0
  1975  01CA' 0807'              	movf	?___fldiv+1,w
  1976  01CB' 1683               	bsf	3,5	;RP0=1, select bank3
  1977  01CC' 1703               	bsf	3,6	;RP1=1, select bank3
  1978  01CD' 0080'              	movwf	(main@Ya+1)^(0+384)
  1979  01CE' 1283               	bcf	3,5	;RP0=0, select bank0
  1980  01CF' 1303               	bcf	3,6	;RP1=0, select bank0
  1981  01D0' 0806'              	movf	?___fldiv,w
  1982  01D1' 1683               	bsf	3,5	;RP0=1, select bank3
  1983  01D2' 1703               	bsf	3,6	;RP1=1, select bank3
  1984  01D3' 0080'              	movwf	main@Ya^(0+384)
  1985  01D4'                    l4653:
  1986                           
  1987                           ;MAIN_I2C.c: 123: 
  1988  01D4' 3046               	movlw	70
  1989  01D5' 1283               	bcf	3,5	;RP0=0, select bank0
  1990  01D6' 1303               	bcf	3,6	;RP1=0, select bank0
  1991  01D7' 0089'              	movwf	___fldiv@a+3
  1992  01D8' 3080               	movlw	128
  1993  01D9' 0088'              	movwf	___fldiv@a+2
  1994  01DA' 3000               	movlw	0
  1995  01DB' 0087'              	movwf	___fldiv@a+1
  1996  01DC' 3000               	movlw	0
  1997  01DD' 0086'              	movwf	___fldiv@a
  1998  01DE' 1683               	bsf	3,5	;RP0=1, select bank3
  1999  01DF' 1703               	bsf	3,6	;RP1=1, select bank3
  2000  01E0' 0800'              	movf	main@Az^(0+384),w
  2001  01E1' 0082'              	movwf	___xxtofl@val
  2002  01E2' 0800'              	movf	(main@Az+1)^(0+384),w
  2003  01E3' 0083'              	movwf	___xxtofl@val+1
  2004  01E4' 3000               	movlw	0
  2005  01E5' 1B83'              	btfsc	___xxtofl@val+1,7
  2006  01E6' 30FF               	movlw	255
  2007  01E7' 0084'              	movwf	___xxtofl@val+2
  2008  01E8' 0085'              	movwf	___xxtofl@val+3
  2009  01E9' 3001               	movlw	1
  2010  01EA' 120A' 118A' 2000' 120A' 118A' 	fcall	___xxtofl
  2011  01EF' 0805'              	movf	?___xxtofl+3,w
  2012  01F0' 1283               	bcf	3,5	;RP0=0, select bank0
  2013  01F1' 1303               	bcf	3,6	;RP1=0, select bank0
  2014  01F2' 008D'              	movwf	___fldiv@b+3
  2015  01F3' 0804'              	movf	?___xxtofl+2,w
  2016  01F4' 008C'              	movwf	___fldiv@b+2
  2017  01F5' 0803'              	movf	?___xxtofl+1,w
  2018  01F6' 008B'              	movwf	___fldiv@b+1
  2019  01F7' 0802'              	movf	?___xxtofl,w
  2020  01F8' 008A'              	movwf	___fldiv@b
  2021  01F9' 120A' 118A' 2000' 120A' 118A' 	fcall	___fldiv
  2022  01FE' 1283               	bcf	3,5	;RP0=0, select bank0
  2023  01FF' 1303               	bcf	3,6	;RP1=0, select bank0
  2024  0200' 0809'              	movf	?___fldiv+3,w
  2025  0201' 1683               	bsf	3,5	;RP0=1, select bank3
  2026  0202' 1703               	bsf	3,6	;RP1=1, select bank3
  2027  0203' 0080'              	movwf	(main@Za+3)^(0+384)
  2028  0204' 1283               	bcf	3,5	;RP0=0, select bank0
  2029  0205' 1303               	bcf	3,6	;RP1=0, select bank0
  2030  0206' 0808'              	movf	?___fldiv+2,w
  2031  0207' 1683               	bsf	3,5	;RP0=1, select bank3
  2032  0208' 1703               	bsf	3,6	;RP1=1, select bank3
  2033  0209' 0080'              	movwf	(main@Za+2)^(0+384)
  2034  020A' 1283               	bcf	3,5	;RP0=0, select bank0
  2035  020B' 1303               	bcf	3,6	;RP1=0, select bank0
  2036  020C' 0807'              	movf	?___fldiv+1,w
  2037  020D' 1683               	bsf	3,5	;RP0=1, select bank3
  2038  020E' 1703               	bsf	3,6	;RP1=1, select bank3
  2039  020F' 0080'              	movwf	(main@Za+1)^(0+384)
  2040  0210' 1283               	bcf	3,5	;RP0=0, select bank0
  2041  0211' 1303               	bcf	3,6	;RP1=0, select bank0
  2042  0212' 0806'              	movf	?___fldiv,w
  2043  0213' 1683               	bsf	3,5	;RP0=1, select bank3
  2044  0214' 1703               	bsf	3,6	;RP1=1, select bank3
  2045  0215' 0080'              	movwf	main@Za^(0+384)
  2046  0216'                    l4655:
  2047                           
  2048                           ;MAIN_I2C.c: 124: 
  2049  0216' 3043               	movlw	67
  2050  0217' 1283               	bcf	3,5	;RP0=0, select bank0
  2051  0218' 1303               	bcf	3,6	;RP1=0, select bank0
  2052  0219' 0089'              	movwf	___fldiv@a+3
  2053  021A' 3003               	movlw	3
  2054  021B' 0088'              	movwf	___fldiv@a+2
  2055  021C' 3000               	movlw	0
  2056  021D' 0087'              	movwf	___fldiv@a+1
  2057  021E' 3000               	movlw	0
  2058  021F' 0086'              	movwf	___fldiv@a
  2059  0220' 1683               	bsf	3,5	;RP0=1, select bank3
  2060  0221' 1703               	bsf	3,6	;RP1=1, select bank3
  2061  0222' 0800'              	movf	main@Gx^(0+384),w
  2062  0223' 0082'              	movwf	___xxtofl@val
  2063  0224' 0800'              	movf	(main@Gx+1)^(0+384),w
  2064  0225' 0083'              	movwf	___xxtofl@val+1
  2065  0226' 3000               	movlw	0
  2066  0227' 1B83'              	btfsc	___xxtofl@val+1,7
  2067  0228' 30FF               	movlw	255
  2068  0229' 0084'              	movwf	___xxtofl@val+2
  2069  022A' 0085'              	movwf	___xxtofl@val+3
  2070  022B' 3001               	movlw	1
  2071  022C' 120A' 118A' 2000' 120A' 118A' 	fcall	___xxtofl
  2072  0231' 0805'              	movf	?___xxtofl+3,w
  2073  0232' 1283               	bcf	3,5	;RP0=0, select bank0
  2074  0233' 1303               	bcf	3,6	;RP1=0, select bank0
  2075  0234' 008D'              	movwf	___fldiv@b+3
  2076  0235' 0804'              	movf	?___xxtofl+2,w
  2077  0236' 008C'              	movwf	___fldiv@b+2
  2078  0237' 0803'              	movf	?___xxtofl+1,w
  2079  0238' 008B'              	movwf	___fldiv@b+1
  2080  0239' 0802'              	movf	?___xxtofl,w
  2081  023A' 008A'              	movwf	___fldiv@b
  2082  023B' 120A' 118A' 2000' 120A' 118A' 	fcall	___fldiv
  2083  0240' 1283               	bcf	3,5	;RP0=0, select bank0
  2084  0241' 1303               	bcf	3,6	;RP1=0, select bank0
  2085  0242' 0809'              	movf	?___fldiv+3,w
  2086  0243' 1683               	bsf	3,5	;RP0=1, select bank3
  2087  0244' 1703               	bsf	3,6	;RP1=1, select bank3
  2088  0245' 0080'              	movwf	(main@Xg+3)^(0+384)
  2089  0246' 1283               	bcf	3,5	;RP0=0, select bank0
  2090  0247' 1303               	bcf	3,6	;RP1=0, select bank0
  2091  0248' 0808'              	movf	?___fldiv+2,w
  2092  0249' 1683               	bsf	3,5	;RP0=1, select bank3
  2093  024A' 1703               	bsf	3,6	;RP1=1, select bank3
  2094  024B' 0080'              	movwf	(main@Xg+2)^(0+384)
  2095  024C' 1283               	bcf	3,5	;RP0=0, select bank0
  2096  024D' 1303               	bcf	3,6	;RP1=0, select bank0
  2097  024E' 0807'              	movf	?___fldiv+1,w
  2098  024F' 1683               	bsf	3,5	;RP0=1, select bank3
  2099  0250' 1703               	bsf	3,6	;RP1=1, select bank3
  2100  0251' 0080'              	movwf	(main@Xg+1)^(0+384)
  2101  0252' 1283               	bcf	3,5	;RP0=0, select bank0
  2102  0253' 1303               	bcf	3,6	;RP1=0, select bank0
  2103  0254' 0806'              	movf	?___fldiv,w
  2104  0255' 1683               	bsf	3,5	;RP0=1, select bank3
  2105  0256' 1703               	bsf	3,6	;RP1=1, select bank3
  2106  0257' 0080'              	movwf	main@Xg^(0+384)
  2107  0258'                    l4657:
  2108                           
  2109                           ;MAIN_I2C.c: 125: 
  2110  0258' 3043               	movlw	67
  2111  0259' 1283               	bcf	3,5	;RP0=0, select bank0
  2112  025A' 1303               	bcf	3,6	;RP1=0, select bank0
  2113  025B' 0089'              	movwf	___fldiv@a+3
  2114  025C' 3003               	movlw	3
  2115  025D' 0088'              	movwf	___fldiv@a+2
  2116  025E' 3000               	movlw	0
  2117  025F' 0087'              	movwf	___fldiv@a+1
  2118  0260' 3000               	movlw	0
  2119  0261' 0086'              	movwf	___fldiv@a
  2120  0262' 1683               	bsf	3,5	;RP0=1, select bank3
  2121  0263' 1703               	bsf	3,6	;RP1=1, select bank3
  2122  0264' 0800'              	movf	main@Gy^(0+384),w
  2123  0265' 0082'              	movwf	___xxtofl@val
  2124  0266' 0800'              	movf	(main@Gy+1)^(0+384),w
  2125  0267' 0083'              	movwf	___xxtofl@val+1
  2126  0268' 3000               	movlw	0
  2127  0269' 1B83'              	btfsc	___xxtofl@val+1,7
  2128  026A' 30FF               	movlw	255
  2129  026B' 0084'              	movwf	___xxtofl@val+2
  2130  026C' 0085'              	movwf	___xxtofl@val+3
  2131  026D' 3001               	movlw	1
  2132  026E' 120A' 118A' 2000' 120A' 118A' 	fcall	___xxtofl
  2133  0273' 0805'              	movf	?___xxtofl+3,w
  2134  0274' 1283               	bcf	3,5	;RP0=0, select bank0
  2135  0275' 1303               	bcf	3,6	;RP1=0, select bank0
  2136  0276' 008D'              	movwf	___fldiv@b+3
  2137  0277' 0804'              	movf	?___xxtofl+2,w
  2138  0278' 008C'              	movwf	___fldiv@b+2
  2139  0279' 0803'              	movf	?___xxtofl+1,w
  2140  027A' 008B'              	movwf	___fldiv@b+1
  2141  027B' 0802'              	movf	?___xxtofl,w
  2142  027C' 008A'              	movwf	___fldiv@b
  2143  027D' 120A' 118A' 2000' 120A' 118A' 	fcall	___fldiv
  2144  0282' 1283               	bcf	3,5	;RP0=0, select bank0
  2145  0283' 1303               	bcf	3,6	;RP1=0, select bank0
  2146  0284' 0809'              	movf	?___fldiv+3,w
  2147  0285' 1683               	bsf	3,5	;RP0=1, select bank3
  2148  0286' 1703               	bsf	3,6	;RP1=1, select bank3
  2149  0287' 0080'              	movwf	(main@Yg+3)^(0+384)
  2150  0288' 1283               	bcf	3,5	;RP0=0, select bank0
  2151  0289' 1303               	bcf	3,6	;RP1=0, select bank0
  2152  028A' 0808'              	movf	?___fldiv+2,w
  2153  028B' 1683               	bsf	3,5	;RP0=1, select bank3
  2154  028C' 1703               	bsf	3,6	;RP1=1, select bank3
  2155  028D' 0080'              	movwf	(main@Yg+2)^(0+384)
  2156  028E' 1283               	bcf	3,5	;RP0=0, select bank0
  2157  028F' 1303               	bcf	3,6	;RP1=0, select bank0
  2158  0290' 0807'              	movf	?___fldiv+1,w
  2159  0291' 1683               	bsf	3,5	;RP0=1, select bank3
  2160  0292' 1703               	bsf	3,6	;RP1=1, select bank3
  2161  0293' 0080'              	movwf	(main@Yg+1)^(0+384)
  2162  0294' 1283               	bcf	3,5	;RP0=0, select bank0
  2163  0295' 1303               	bcf	3,6	;RP1=0, select bank0
  2164  0296' 0806'              	movf	?___fldiv,w
  2165  0297' 1683               	bsf	3,5	;RP0=1, select bank3
  2166  0298' 1703               	bsf	3,6	;RP1=1, select bank3
  2167  0299' 0080'              	movwf	main@Yg^(0+384)
  2168  029A'                    l4659:
  2169                           
  2170                           ;MAIN_I2C.c: 126: 
  2171  029A' 3043               	movlw	67
  2172  029B' 1283               	bcf	3,5	;RP0=0, select bank0
  2173  029C' 1303               	bcf	3,6	;RP1=0, select bank0
  2174  029D' 0089'              	movwf	___fldiv@a+3
  2175  029E' 3003               	movlw	3
  2176  029F' 0088'              	movwf	___fldiv@a+2
  2177  02A0' 3000               	movlw	0
  2178  02A1' 0087'              	movwf	___fldiv@a+1
  2179  02A2' 3000               	movlw	0
  2180  02A3' 0086'              	movwf	___fldiv@a
  2181  02A4' 1683               	bsf	3,5	;RP0=1, select bank3
  2182  02A5' 1703               	bsf	3,6	;RP1=1, select bank3
  2183  02A6' 0800'              	movf	main@Gz^(0+384),w
  2184  02A7' 0082'              	movwf	___xxtofl@val
  2185  02A8' 0800'              	movf	(main@Gz+1)^(0+384),w
  2186  02A9' 0083'              	movwf	___xxtofl@val+1
  2187  02AA' 3000               	movlw	0
  2188  02AB' 1B83'              	btfsc	___xxtofl@val+1,7
  2189  02AC' 30FF               	movlw	255
  2190  02AD' 0084'              	movwf	___xxtofl@val+2
  2191  02AE' 0085'              	movwf	___xxtofl@val+3
  2192  02AF' 3001               	movlw	1
  2193  02B0' 120A' 118A' 2000' 120A' 118A' 	fcall	___xxtofl
  2194  02B5' 0805'              	movf	?___xxtofl+3,w
  2195  02B6' 1283               	bcf	3,5	;RP0=0, select bank0
  2196  02B7' 1303               	bcf	3,6	;RP1=0, select bank0
  2197  02B8' 008D'              	movwf	___fldiv@b+3
  2198  02B9' 0804'              	movf	?___xxtofl+2,w
  2199  02BA' 008C'              	movwf	___fldiv@b+2
  2200  02BB' 0803'              	movf	?___xxtofl+1,w
  2201  02BC' 008B'              	movwf	___fldiv@b+1
  2202  02BD' 0802'              	movf	?___xxtofl,w
  2203  02BE' 008A'              	movwf	___fldiv@b
  2204  02BF' 120A' 118A' 2000' 120A' 118A' 	fcall	___fldiv
  2205  02C4' 1283               	bcf	3,5	;RP0=0, select bank0
  2206  02C5' 1303               	bcf	3,6	;RP1=0, select bank0
  2207  02C6' 0809'              	movf	?___fldiv+3,w
  2208  02C7' 1683               	bsf	3,5	;RP0=1, select bank3
  2209  02C8' 1703               	bsf	3,6	;RP1=1, select bank3
  2210  02C9' 0080'              	movwf	(main@Zg+3)^(0+384)
  2211  02CA' 1283               	bcf	3,5	;RP0=0, select bank0
  2212  02CB' 1303               	bcf	3,6	;RP1=0, select bank0
  2213  02CC' 0808'              	movf	?___fldiv+2,w
  2214  02CD' 1683               	bsf	3,5	;RP0=1, select bank3
  2215  02CE' 1703               	bsf	3,6	;RP1=1, select bank3
  2216  02CF' 0080'              	movwf	(main@Zg+2)^(0+384)
  2217  02D0' 1283               	bcf	3,5	;RP0=0, select bank0
  2218  02D1' 1303               	bcf	3,6	;RP1=0, select bank0
  2219  02D2' 0807'              	movf	?___fldiv+1,w
  2220  02D3' 1683               	bsf	3,5	;RP0=1, select bank3
  2221  02D4' 1703               	bsf	3,6	;RP1=1, select bank3
  2222  02D5' 0080'              	movwf	(main@Zg+1)^(0+384)
  2223  02D6' 1283               	bcf	3,5	;RP0=0, select bank0
  2224  02D7' 1303               	bcf	3,6	;RP1=0, select bank0
  2225  02D8' 0806'              	movf	?___fldiv,w
  2226  02D9' 1683               	bsf	3,5	;RP0=1, select bank3
  2227  02DA' 1703               	bsf	3,6	;RP1=1, select bank3
  2228  02DB' 0080'              	movwf	main@Zg^(0+384)
  2229  02DC'                    l4661:
  2230                           
  2231                           ;MAIN_I2C.c: 127: void setup(void)
  2232  02DC' 3042               	movlw	66
  2233  02DD' 1283               	bcf	3,5	;RP0=0, select bank0
  2234  02DE' 1303               	bcf	3,6	;RP1=0, select bank0
  2235  02DF' 00B9'              	movwf	___fladd@b+3
  2236  02E0' 3012               	movlw	18
  2237  02E1' 00B8'              	movwf	___fladd@b+2
  2238  02E2' 301E               	movlw	30
  2239  02E3' 00B7'              	movwf	___fladd@b+1
  2240  02E4' 30B8               	movlw	184
  2241  02E5' 00B6'              	movwf	___fladd@b
  2242  02E6' 3043               	movlw	67
  2243  02E7' 0089'              	movwf	___fldiv@a+3
  2244  02E8' 30AA               	movlw	170
  2245  02E9' 0088'              	movwf	___fldiv@a+2
  2246  02EA' 3000               	movlw	0
  2247  02EB' 0087'              	movwf	___fldiv@a+1
  2248  02EC' 3000               	movlw	0
  2249  02ED' 0086'              	movwf	___fldiv@a
  2250  02EE' 1683               	bsf	3,5	;RP0=1, select bank3
  2251  02EF' 1703               	bsf	3,6	;RP1=1, select bank3
  2252  02F0' 0800'              	movf	main@T^(0+384),w
  2253  02F1' 0082'              	movwf	___xxtofl@val
  2254  02F2' 0800'              	movf	(main@T+1)^(0+384),w
  2255  02F3' 0083'              	movwf	___xxtofl@val+1
  2256  02F4' 3000               	movlw	0
  2257  02F5' 1B83'              	btfsc	___xxtofl@val+1,7
  2258  02F6' 30FF               	movlw	255
  2259  02F7' 0084'              	movwf	___xxtofl@val+2
  2260  02F8' 0085'              	movwf	___xxtofl@val+3
  2261  02F9' 3001               	movlw	1
  2262  02FA' 120A' 118A' 2000' 120A' 118A' 	fcall	___xxtofl
  2263  02FF' 0805'              	movf	?___xxtofl+3,w
  2264  0300' 1283               	bcf	3,5	;RP0=0, select bank0
  2265  0301' 1303               	bcf	3,6	;RP1=0, select bank0
  2266  0302' 008D'              	movwf	___fldiv@b+3
  2267  0303' 0804'              	movf	?___xxtofl+2,w
  2268  0304' 008C'              	movwf	___fldiv@b+2
  2269  0305' 0803'              	movf	?___xxtofl+1,w
  2270  0306' 008B'              	movwf	___fldiv@b+1
  2271  0307' 0802'              	movf	?___xxtofl,w
  2272  0308' 008A'              	movwf	___fldiv@b
  2273  0309' 120A' 118A' 2000' 120A' 118A' 	fcall	___fldiv
  2274  030E' 1283               	bcf	3,5	;RP0=0, select bank0
  2275  030F' 1303               	bcf	3,6	;RP1=0, select bank0
  2276  0310' 0809'              	movf	?___fldiv+3,w
  2277  0311' 00BD'              	movwf	___fladd@a+3
  2278  0312' 0808'              	movf	?___fldiv+2,w
  2279  0313' 00BC'              	movwf	___fladd@a+2
  2280  0314' 0807'              	movf	?___fldiv+1,w
  2281  0315' 00BB'              	movwf	___fladd@a+1
  2282  0316' 0806'              	movf	?___fldiv,w
  2283  0317' 00BA'              	movwf	___fladd@a
  2284  0318' 120A' 118A' 2000' 120A' 118A' 	fcall	___fladd
  2285  031D' 1283               	bcf	3,5	;RP0=0, select bank0
  2286  031E' 1303               	bcf	3,6	;RP1=0, select bank0
  2287  031F' 0839'              	movf	?___fladd+3,w
  2288  0320' 1683               	bsf	3,5	;RP0=1, select bank3
  2289  0321' 1703               	bsf	3,6	;RP1=1, select bank3
  2290  0322' 0080'              	movwf	(main@t+3)^(0+384)
  2291  0323' 1283               	bcf	3,5	;RP0=0, select bank0
  2292  0324' 1303               	bcf	3,6	;RP1=0, select bank0
  2293  0325' 0838'              	movf	?___fladd+2,w
  2294  0326' 1683               	bsf	3,5	;RP0=1, select bank3
  2295  0327' 1703               	bsf	3,6	;RP1=1, select bank3
  2296  0328' 0080'              	movwf	(main@t+2)^(0+384)
  2297  0329' 1283               	bcf	3,5	;RP0=0, select bank0
  2298  032A' 1303               	bcf	3,6	;RP1=0, select bank0
  2299  032B' 0837'              	movf	?___fladd+1,w
  2300  032C' 1683               	bsf	3,5	;RP0=1, select bank3
  2301  032D' 1703               	bsf	3,6	;RP1=1, select bank3
  2302  032E' 0080'              	movwf	(main@t+1)^(0+384)
  2303  032F' 1283               	bcf	3,5	;RP0=0, select bank0
  2304  0330' 1303               	bcf	3,6	;RP1=0, select bank0
  2305  0331' 0836'              	movf	?___fladd,w
  2306  0332' 1683               	bsf	3,5	;RP0=1, select bank3
  2307  0333' 1703               	bsf	3,6	;RP1=1, select bank3
  2308  0334' 0080'              	movwf	main@t^(0+384)
  2309  0335'                    l4663:
  2310                           
  2311                           ;MAIN_I2C.c: 131:     PORTA = 0;
  2312  0335' 3000'              	movlw	low (STR_1| (0+32768))
  2313  0336' 1683               	bsf	3,5	;RP0=1, select bank1
  2314  0337' 1303               	bcf	3,6	;RP1=0, select bank1
  2315  0338' 0080'              	movwf	sprintf@f^(0+128)
  2316  0339' 3000'              	movlw	high (STR_1| (0+32768))
  2317  033A' 0081'              	movwf	(sprintf@f^(0+128)+1)
  2318  033B' 1683               	bsf	3,5	;RP0=1, select bank3
  2319  033C' 1703               	bsf	3,6	;RP1=1, select bank3
  2320  033D' 0800'              	movf	(main@Xa+3)^(0+384),w
  2321  033E' 1683               	bsf	3,5	;RP0=1, select bank1
  2322  033F' 1303               	bcf	3,6	;RP1=0, select bank1
  2323  0340' 0082'              	movwf	((?_sprintf+3)^(0+128)+2)
  2324  0341' 1683               	bsf	3,5	;RP0=1, select bank3
  2325  0342' 1703               	bsf	3,6	;RP1=1, select bank3
  2326  0343' 0800'              	movf	(main@Xa+2)^(0+384),w
  2327  0344' 1683               	bsf	3,5	;RP0=1, select bank1
  2328  0345' 1303               	bcf	3,6	;RP1=0, select bank1
  2329  0346' 0082'              	movwf	((?_sprintf+2)^(0+128)+2)
  2330  0347' 1683               	bsf	3,5	;RP0=1, select bank3
  2331  0348' 1703               	bsf	3,6	;RP1=1, select bank3
  2332  0349' 0800'              	movf	(main@Xa+1)^(0+384),w
  2333  034A' 1683               	bsf	3,5	;RP0=1, select bank1
  2334  034B' 1303               	bcf	3,6	;RP1=0, select bank1
  2335  034C' 0082'              	movwf	((?_sprintf+1)^(0+128)+2)
  2336  034D' 1683               	bsf	3,5	;RP0=1, select bank3
  2337  034E' 1703               	bsf	3,6	;RP1=1, select bank3
  2338  034F' 0800'              	movf	main@Xa^(0+384),w
  2339  0350' 1683               	bsf	3,5	;RP0=1, select bank1
  2340  0351' 1303               	bcf	3,6	;RP1=0, select bank1
  2341  0352' 0082'              	movwf	(?_sprintf^(0+128)+2)
  2342  0353' 3000'              	movlw	(low (main@buffer| (0+256)))& (0+255)
  2343  0354' 120A' 118A' 2000' 120A' 118A' 	fcall	_sprintf
  2344  0359'                    l4665:
  2345                           
  2346                           ;MAIN_I2C.c: 132:     ANSELH = 0;
  2347  0359' 3000'              	movlw	(low (main@buffer| (0+256)))& (0+255)
  2348  035A' 120A' 118A' 2000' 120A' 118A' 	fcall	_USART_SendString
  2349  035F'                    l4667:
  2350                           
  2351                           ;MAIN_I2C.c: 134:     PORTB = 0;
  2352  035F' 3000'              	movlw	low (STR_2| (0+32768))
  2353  0360' 1683               	bsf	3,5	;RP0=1, select bank1
  2354  0361' 1303               	bcf	3,6	;RP1=0, select bank1
  2355  0362' 0080'              	movwf	sprintf@f^(0+128)
  2356  0363' 3000'              	movlw	high (STR_2| (0+32768))
  2357  0364' 0081'              	movwf	(sprintf@f^(0+128)+1)
  2358  0365' 1683               	bsf	3,5	;RP0=1, select bank3
  2359  0366' 1703               	bsf	3,6	;RP1=1, select bank3
  2360  0367' 0800'              	movf	(main@Ya+3)^(0+384),w
  2361  0368' 1683               	bsf	3,5	;RP0=1, select bank1
  2362  0369' 1303               	bcf	3,6	;RP1=0, select bank1
  2363  036A' 0082'              	movwf	((?_sprintf+3)^(0+128)+2)
  2364  036B' 1683               	bsf	3,5	;RP0=1, select bank3
  2365  036C' 1703               	bsf	3,6	;RP1=1, select bank3
  2366  036D' 0800'              	movf	(main@Ya+2)^(0+384),w
  2367  036E' 1683               	bsf	3,5	;RP0=1, select bank1
  2368  036F' 1303               	bcf	3,6	;RP1=0, select bank1
  2369  0370' 0082'              	movwf	((?_sprintf+2)^(0+128)+2)
  2370  0371' 1683               	bsf	3,5	;RP0=1, select bank3
  2371  0372' 1703               	bsf	3,6	;RP1=1, select bank3
  2372  0373' 0800'              	movf	(main@Ya+1)^(0+384),w
  2373  0374' 1683               	bsf	3,5	;RP0=1, select bank1
  2374  0375' 1303               	bcf	3,6	;RP1=0, select bank1
  2375  0376' 0082'              	movwf	((?_sprintf+1)^(0+128)+2)
  2376  0377' 1683               	bsf	3,5	;RP0=1, select bank3
  2377  0378' 1703               	bsf	3,6	;RP1=1, select bank3
  2378  0379' 0800'              	movf	main@Ya^(0+384),w
  2379  037A' 1683               	bsf	3,5	;RP0=1, select bank1
  2380  037B' 1303               	bcf	3,6	;RP1=0, select bank1
  2381  037C' 0082'              	movwf	(?_sprintf^(0+128)+2)
  2382  037D' 3000'              	movlw	(low (main@buffer| (0+256)))& (0+255)
  2383  037E' 120A' 118A' 2000' 120A' 118A' 	fcall	_sprintf
  2384  0383'                    l4669:
  2385                           
  2386                           ;MAIN_I2C.c: 135:     TRISC = 0;
  2387  0383' 3000'              	movlw	(low (main@buffer| (0+256)))& (0+255)
  2388  0384' 120A' 118A' 2000' 120A' 118A' 	fcall	_USART_SendString
  2389  0389'                    l4671:
  2390                           
  2391                           ;MAIN_I2C.c: 137:     TRISCbits.TRISC6 = 0;
  2392  0389' 3000'              	movlw	low (STR_3| (0+32768))
  2393  038A' 1683               	bsf	3,5	;RP0=1, select bank1
  2394  038B' 1303               	bcf	3,6	;RP1=0, select bank1
  2395  038C' 0080'              	movwf	sprintf@f^(0+128)
  2396  038D' 3000'              	movlw	high (STR_3| (0+32768))
  2397  038E' 0081'              	movwf	(sprintf@f^(0+128)+1)
  2398  038F' 1683               	bsf	3,5	;RP0=1, select bank3
  2399  0390' 1703               	bsf	3,6	;RP1=1, select bank3
  2400  0391' 0800'              	movf	(main@Za+3)^(0+384),w
  2401  0392' 1683               	bsf	3,5	;RP0=1, select bank1
  2402  0393' 1303               	bcf	3,6	;RP1=0, select bank1
  2403  0394' 0082'              	movwf	((?_sprintf+3)^(0+128)+2)
  2404  0395' 1683               	bsf	3,5	;RP0=1, select bank3
  2405  0396' 1703               	bsf	3,6	;RP1=1, select bank3
  2406  0397' 0800'              	movf	(main@Za+2)^(0+384),w
  2407  0398' 1683               	bsf	3,5	;RP0=1, select bank1
  2408  0399' 1303               	bcf	3,6	;RP1=0, select bank1
  2409  039A' 0082'              	movwf	((?_sprintf+2)^(0+128)+2)
  2410  039B' 1683               	bsf	3,5	;RP0=1, select bank3
  2411  039C' 1703               	bsf	3,6	;RP1=1, select bank3
  2412  039D' 0800'              	movf	(main@Za+1)^(0+384),w
  2413  039E' 1683               	bsf	3,5	;RP0=1, select bank1
  2414  039F' 1303               	bcf	3,6	;RP1=0, select bank1
  2415  03A0' 0082'              	movwf	((?_sprintf+1)^(0+128)+2)
  2416  03A1' 1683               	bsf	3,5	;RP0=1, select bank3
  2417  03A2' 1703               	bsf	3,6	;RP1=1, select bank3
  2418  03A3' 0800'              	movf	main@Za^(0+384),w
  2419  03A4' 1683               	bsf	3,5	;RP0=1, select bank1
  2420  03A5' 1303               	bcf	3,6	;RP1=0, select bank1
  2421  03A6' 0082'              	movwf	(?_sprintf^(0+128)+2)
  2422  03A7' 3000'              	movlw	(low (main@buffer| (0+256)))& (0+255)
  2423  03A8' 120A' 118A' 2000' 120A' 118A' 	fcall	_sprintf
  2424  03AD'                    l4673:
  2425                           
  2426                           ;MAIN_I2C.c: 138: 
  2427  03AD' 3000'              	movlw	(low (main@buffer| (0+256)))& (0+255)
  2428  03AE' 120A' 118A' 2000' 120A' 118A' 	fcall	_USART_SendString
  2429  03B3'                    l4675:
  2430                           
  2431                           ;MAIN_I2C.c: 140:     PORTD = 0;
  2432  03B3' 3000'              	movlw	low (STR_4| (0+32768))
  2433  03B4' 1683               	bsf	3,5	;RP0=1, select bank1
  2434  03B5' 1303               	bcf	3,6	;RP1=0, select bank1
  2435  03B6' 0080'              	movwf	sprintf@f^(0+128)
  2436  03B7' 3000'              	movlw	high (STR_4| (0+32768))
  2437  03B8' 0081'              	movwf	(sprintf@f^(0+128)+1)
  2438  03B9' 1683               	bsf	3,5	;RP0=1, select bank3
  2439  03BA' 1703               	bsf	3,6	;RP1=1, select bank3
  2440  03BB' 0800'              	movf	(main@t+3)^(0+384),w
  2441  03BC' 1683               	bsf	3,5	;RP0=1, select bank1
  2442  03BD' 1303               	bcf	3,6	;RP1=0, select bank1
  2443  03BE' 0082'              	movwf	((?_sprintf+3)^(0+128)+2)
  2444  03BF' 1683               	bsf	3,5	;RP0=1, select bank3
  2445  03C0' 1703               	bsf	3,6	;RP1=1, select bank3
  2446  03C1' 0800'              	movf	(main@t+2)^(0+384),w
  2447  03C2' 1683               	bsf	3,5	;RP0=1, select bank1
  2448  03C3' 1303               	bcf	3,6	;RP1=0, select bank1
  2449  03C4' 0082'              	movwf	((?_sprintf+2)^(0+128)+2)
  2450  03C5' 1683               	bsf	3,5	;RP0=1, select bank3
  2451  03C6' 1703               	bsf	3,6	;RP1=1, select bank3
  2452  03C7' 0800'              	movf	(main@t+1)^(0+384),w
  2453  03C8' 1683               	bsf	3,5	;RP0=1, select bank1
  2454  03C9' 1303               	bcf	3,6	;RP1=0, select bank1
  2455  03CA' 0082'              	movwf	((?_sprintf+1)^(0+128)+2)
  2456  03CB' 1683               	bsf	3,5	;RP0=1, select bank3
  2457  03CC' 1703               	bsf	3,6	;RP1=1, select bank3
  2458  03CD' 0800'              	movf	main@t^(0+384),w
  2459  03CE' 1683               	bsf	3,5	;RP0=1, select bank1
  2460  03CF' 1303               	bcf	3,6	;RP1=0, select bank1
  2461  03D0' 0082'              	movwf	(?_sprintf^(0+128)+2)
  2462  03D1' 30F8               	movlw	248
  2463  03D2' 0086'              	movwf	(?_sprintf^(0+128)+6)
  2464  03D3' 3000               	movlw	0
  2465  03D4' 0087'              	movwf	(?_sprintf^(0+128)+7)
  2466  03D5' 3000'              	movlw	(low (main@buffer| (0+256)))& (0+255)
  2467  03D6' 120A' 118A' 2000' 120A' 118A' 	fcall	_sprintf
  2468  03DB'                    l4677:
  2469                           
  2470                           ;MAIN_I2C.c: 141:     TRISE = 0;
  2471  03DB' 3000'              	movlw	(low (main@buffer| (0+256)))& (0+255)
  2472  03DC' 120A' 118A' 2000' 120A' 118A' 	fcall	_USART_SendString
  2473  03E1'                    l4679:
  2474                           
  2475                           ;MAIN_I2C.c: 143:     TRISEbits.TRISE0 = 0;
  2476  03E1' 3000'              	movlw	low (STR_5| (0+32768))
  2477  03E2' 1683               	bsf	3,5	;RP0=1, select bank1
  2478  03E3' 1303               	bcf	3,6	;RP1=0, select bank1
  2479  03E4' 0080'              	movwf	sprintf@f^(0+128)
  2480  03E5' 3000'              	movlw	high (STR_5| (0+32768))
  2481  03E6' 0081'              	movwf	(sprintf@f^(0+128)+1)
  2482  03E7' 1683               	bsf	3,5	;RP0=1, select bank3
  2483  03E8' 1703               	bsf	3,6	;RP1=1, select bank3
  2484  03E9' 0800'              	movf	(main@Xg+3)^(0+384),w
  2485  03EA' 1683               	bsf	3,5	;RP0=1, select bank1
  2486  03EB' 1303               	bcf	3,6	;RP1=0, select bank1
  2487  03EC' 0082'              	movwf	((?_sprintf+3)^(0+128)+2)
  2488  03ED' 1683               	bsf	3,5	;RP0=1, select bank3
  2489  03EE' 1703               	bsf	3,6	;RP1=1, select bank3
  2490  03EF' 0800'              	movf	(main@Xg+2)^(0+384),w
  2491  03F0' 1683               	bsf	3,5	;RP0=1, select bank1
  2492  03F1' 1303               	bcf	3,6	;RP1=0, select bank1
  2493  03F2' 0082'              	movwf	((?_sprintf+2)^(0+128)+2)
  2494  03F3' 1683               	bsf	3,5	;RP0=1, select bank3
  2495  03F4' 1703               	bsf	3,6	;RP1=1, select bank3
  2496  03F5' 0800'              	movf	(main@Xg+1)^(0+384),w
  2497  03F6' 1683               	bsf	3,5	;RP0=1, select bank1
  2498  03F7' 1303               	bcf	3,6	;RP1=0, select bank1
  2499  03F8' 0082'              	movwf	((?_sprintf+1)^(0+128)+2)
  2500  03F9' 1683               	bsf	3,5	;RP0=1, select bank3
  2501  03FA' 1703               	bsf	3,6	;RP1=1, select bank3
  2502  03FB' 0800'              	movf	main@Xg^(0+384),w
  2503  03FC' 1683               	bsf	3,5	;RP0=1, select bank1
  2504  03FD' 1303               	bcf	3,6	;RP1=0, select bank1
  2505  03FE' 0082'              	movwf	(?_sprintf^(0+128)+2)
  2506  03FF' 30F8               	movlw	248
  2507  0400' 0086'              	movwf	(?_sprintf^(0+128)+6)
  2508  0401' 3000               	movlw	0
  2509  0402' 0087'              	movwf	(?_sprintf^(0+128)+7)
  2510  0403' 3000'              	movlw	(low (main@buffer| (0+256)))& (0+255)
  2511  0404' 120A' 118A' 2000' 120A' 118A' 	fcall	_sprintf
  2512  0409'                    l4681:
  2513                           
  2514                           ;MAIN_I2C.c: 144:     TRISEbits.TRISE3 = 0;
  2515  0409' 3000'              	movlw	(low (main@buffer| (0+256)))& (0+255)
  2516  040A' 120A' 118A' 2000' 120A' 118A' 	fcall	_USART_SendString
  2517  040F'                    l4683:
  2518                           
  2519                           ;MAIN_I2C.c: 146: }
  2520  040F' 3000'              	movlw	low (STR_6| (0+32768))
  2521  0410' 1683               	bsf	3,5	;RP0=1, select bank1
  2522  0411' 1303               	bcf	3,6	;RP1=0, select bank1
  2523  0412' 0080'              	movwf	sprintf@f^(0+128)
  2524  0413' 3000'              	movlw	high (STR_6| (0+32768))
  2525  0414' 0081'              	movwf	(sprintf@f^(0+128)+1)
  2526  0415' 1683               	bsf	3,5	;RP0=1, select bank3
  2527  0416' 1703               	bsf	3,6	;RP1=1, select bank3
  2528  0417' 0800'              	movf	(main@Yg+3)^(0+384),w
  2529  0418' 1683               	bsf	3,5	;RP0=1, select bank1
  2530  0419' 1303               	bcf	3,6	;RP1=0, select bank1
  2531  041A' 0082'              	movwf	((?_sprintf+3)^(0+128)+2)
  2532  041B' 1683               	bsf	3,5	;RP0=1, select bank3
  2533  041C' 1703               	bsf	3,6	;RP1=1, select bank3
  2534  041D' 0800'              	movf	(main@Yg+2)^(0+384),w
  2535  041E' 1683               	bsf	3,5	;RP0=1, select bank1
  2536  041F' 1303               	bcf	3,6	;RP1=0, select bank1
  2537  0420' 0082'              	movwf	((?_sprintf+2)^(0+128)+2)
  2538  0421' 1683               	bsf	3,5	;RP0=1, select bank3
  2539  0422' 1703               	bsf	3,6	;RP1=1, select bank3
  2540  0423' 0800'              	movf	(main@Yg+1)^(0+384),w
  2541  0424' 1683               	bsf	3,5	;RP0=1, select bank1
  2542  0425' 1303               	bcf	3,6	;RP1=0, select bank1
  2543  0426' 0082'              	movwf	((?_sprintf+1)^(0+128)+2)
  2544  0427' 1683               	bsf	3,5	;RP0=1, select bank3
  2545  0428' 1703               	bsf	3,6	;RP1=1, select bank3
  2546  0429' 0800'              	movf	main@Yg^(0+384),w
  2547  042A' 1683               	bsf	3,5	;RP0=1, select bank1
  2548  042B' 1303               	bcf	3,6	;RP1=0, select bank1
  2549  042C' 0082'              	movwf	(?_sprintf^(0+128)+2)
  2550  042D' 30F8               	movlw	248
  2551  042E' 0086'              	movwf	(?_sprintf^(0+128)+6)
  2552  042F' 3000               	movlw	0
  2553  0430' 0087'              	movwf	(?_sprintf^(0+128)+7)
  2554  0431' 3000'              	movlw	(low (main@buffer| (0+256)))& (0+255)
  2555  0432' 120A' 118A' 2000' 120A' 118A' 	fcall	_sprintf
  2556  0437'                    l4685:
  2557                           
  2558                           ;MAIN_I2C.c: 147: 
  2559  0437' 3000'              	movlw	(low (main@buffer| (0+256)))& (0+255)
  2560  0438' 120A' 118A' 2000' 120A' 118A' 	fcall	_USART_SendString
  2561  043D'                    l4687:
  2562                           
  2563                           ;MAIN_I2C.c: 149: {
  2564  043D' 3000'              	movlw	low (STR_7| (0+32768))
  2565  043E' 1683               	bsf	3,5	;RP0=1, select bank1
  2566  043F' 1303               	bcf	3,6	;RP1=0, select bank1
  2567  0440' 0080'              	movwf	sprintf@f^(0+128)
  2568  0441' 3000'              	movlw	high (STR_7| (0+32768))
  2569  0442' 0081'              	movwf	(sprintf@f^(0+128)+1)
  2570  0443' 1683               	bsf	3,5	;RP0=1, select bank3
  2571  0444' 1703               	bsf	3,6	;RP1=1, select bank3
  2572  0445' 0800'              	movf	(main@Zg+3)^(0+384),w
  2573  0446' 1683               	bsf	3,5	;RP0=1, select bank1
  2574  0447' 1303               	bcf	3,6	;RP1=0, select bank1
  2575  0448' 0082'              	movwf	((?_sprintf+3)^(0+128)+2)
  2576  0449' 1683               	bsf	3,5	;RP0=1, select bank3
  2577  044A' 1703               	bsf	3,6	;RP1=1, select bank3
  2578  044B' 0800'              	movf	(main@Zg+2)^(0+384),w
  2579  044C' 1683               	bsf	3,5	;RP0=1, select bank1
  2580  044D' 1303               	bcf	3,6	;RP1=0, select bank1
  2581  044E' 0082'              	movwf	((?_sprintf+2)^(0+128)+2)
  2582  044F' 1683               	bsf	3,5	;RP0=1, select bank3
  2583  0450' 1703               	bsf	3,6	;RP1=1, select bank3
  2584  0451' 0800'              	movf	(main@Zg+1)^(0+384),w
  2585  0452' 1683               	bsf	3,5	;RP0=1, select bank1
  2586  0453' 1303               	bcf	3,6	;RP1=0, select bank1
  2587  0454' 0082'              	movwf	((?_sprintf+1)^(0+128)+2)
  2588  0455' 1683               	bsf	3,5	;RP0=1, select bank3
  2589  0456' 1703               	bsf	3,6	;RP1=1, select bank3
  2590  0457' 0800'              	movf	main@Zg^(0+384),w
  2591  0458' 1683               	bsf	3,5	;RP0=1, select bank1
  2592  0459' 1303               	bcf	3,6	;RP1=0, select bank1
  2593  045A' 0082'              	movwf	(?_sprintf^(0+128)+2)
  2594  045B' 30F8               	movlw	248
  2595  045C' 0086'              	movwf	(?_sprintf^(0+128)+6)
  2596  045D' 3000               	movlw	0
  2597  045E' 0087'              	movwf	(?_sprintf^(0+128)+7)
  2598  045F' 3000'              	movlw	(low (main@buffer| (0+256)))& (0+255)
  2599  0460' 120A' 118A' 2000' 120A' 118A' 	fcall	_sprintf
  2600  0465'                    l4689:
  2601                           
  2602                           ;MAIN_I2C.c: 150:     INTCONbits.GIE = 1;
  2603  0465' 3000'              	movlw	(low (main@buffer| (0+256)))& (0+255)
  2604  0466' 120A' 118A' 2000' 120A' 118A' 	fcall	_USART_SendString
  2605  046B'                    l4691:
  2606                           
  2607                           ;MAIN_I2C.c: 158:     IOCB = 0b00000000;
  2608  046B' 3001               	movlw	1
  2609  046C' 1683               	bsf	3,5	;RP0=1, select bank1
  2610  046D' 1303               	bcf	3,6	;RP1=0, select bank1
  2611  046E' 0080'              	movwf	??_main^(0+128)
  2612  046F' 0800'              	movf	??_main^(0+128),w
  2613  0470' 1283               	bcf	3,5	;RP0=0, select bank0
  2614  0471' 1303               	bcf	3,6	;RP1=0, select bank0
  2615  0472' 0786               	addwf	6,f	;volatile
  2616  0473' 2800'              	goto	l109
  2617  0474' 120A' 118A' 2800'  	ljmp	start
  2618  0477'                    __end_of_main:
  2619                           
  2620                           	psect	text1
  2621  0000'                    __ptext1:	
  2622 ;; *************** function _tmr0_config *****************
  2623 ;; Defined at:
  2624 ;;		line 212 in file "MAIN_I2C.c"
  2625 ;; Parameters:    Size  Location     Type
  2626 ;;		None
  2627 ;; Auto vars:     Size  Location     Type
  2628 ;;		None
  2629 ;; Return value:  Size  Location     Type
  2630 ;;                  1    wreg      void 
  2631 ;; Registers used:
  2632 ;;		wreg
  2633 ;; Tracked objects:
  2634 ;;		On entry : 0/0
  2635 ;;		On exit  : 0/0
  2636 ;;		Unchanged: 0/0
  2637 ;; Data sizes:     COMMON   BANK0   BANK1   BANK3   BANK2
  2638 ;;      Params:         0       0       0       0       0
  2639 ;;      Locals:         0       0       0       0       0
  2640 ;;      Temps:          0       0       0       0       0
  2641 ;;      Totals:         0       0       0       0       0
  2642 ;;Total ram usage:        0 bytes
  2643 ;; Hardware stack levels used:    1
  2644 ;; Hardware stack levels required when called:    2
  2645 ;; This function calls:
  2646 ;;		Nothing
  2647 ;; This function is called by:
  2648 ;;		_main
  2649 ;; This function uses a non-reentrant model
  2650 ;;
  2651                           
  2652                           
  2653                           ;psect for function _tmr0_config
  2654  0000'                    _tmr0_config:
  2655  0000'                    l3501:	
  2656                           ;incstack = 0
  2657                           ; Regs used in _tmr0_config: [wreg]
  2658                           
  2659                           
  2660                           ;MAIN_I2C.c: 214: 
  2661  0000' 1683               	bsf	3,5	;RP0=1, select bank1
  2662  0001' 1303               	bcf	3,6	;RP1=0, select bank1
  2663  0002' 1381               	bcf	1,7	;volatile
  2664                           
  2665                           ;MAIN_I2C.c: 215: void MPU_Start_Loc()
  2666  0003' 1281               	bcf	1,5	;volatile
  2667                           
  2668                           ;MAIN_I2C.c: 216: 
  2669  0004' 1181               	bcf	1,3	;volatile
  2670                           
  2671                           ;MAIN_I2C.c: 217: {
  2672  0005' 1101               	bcf	1,2	;volatile
  2673                           
  2674                           ;MAIN_I2C.c: 218:  I2C_Start_Wait(0xD0);
  2675  0006' 1481               	bsf	1,1	;volatile
  2676                           
  2677                           ;MAIN_I2C.c: 219:  I2C_Master_Write(0x3B);
  2678  0007' 1001               	bcf	1,0	;volatile
  2679  0008'                    l3503:
  2680                           
  2681                           ;MAIN_I2C.c: 220:  I2C_Repeated_Start(0xD1);
  2682  0008' 3064               	movlw	100
  2683  0009' 1283               	bcf	3,5	;RP0=0, select bank0
  2684  000A' 1303               	bcf	3,6	;RP1=0, select bank0
  2685  000B' 0081               	movwf	1	;volatile
  2686  000C'                    l124:
  2687  000C' 0008               	return
  2688  000D'                    __end_of_tmr0_config:
  2689                           
  2690                           	psect	text2
  2691  0000'                    __ptext2:	
  2692 ;; *************** function _sprintf *****************
  2693 ;; Defined at:
  2694 ;;		line 505 in file "C:\Program Files\Microchip\xc8\v2.31\pic\sources\c90\common\doprnt.c"
  2695 ;; Parameters:    Size  Location     Type
  2696 ;;  sp              1    wreg     PTR unsigned char 
  2697 ;;		 -> main@buffer(20), 
  2698 ;;  f               2    8[BANK1 ] PTR const unsigned char 
  2699 ;;		 -> STR_7(17), STR_6(16), STR_5(16), STR_4(14), 
  2700 ;;		 -> STR_3(14), STR_2(14), STR_1(14), 
  2701 ;; Auto vars:     Size  Location     Type
  2702 ;;  sp              1   40[BANK1 ] PTR unsigned char 
  2703 ;;		 -> main@buffer(20), 
  2704 ;;  fval            4   36[BANK1 ] PTR unsigned char 
  2705 ;;  tmpval          4   32[BANK1 ] struct .
  2706 ;;  val             4   26[BANK1 ] unsigned long 
  2707 ;;  prec            2   41[BANK1 ] int 
  2708 ;;  eexp            2   30[BANK1 ] int 
  2709 ;;  flag            2   24[BANK1 ] unsigned short 
  2710 ;;  len             2   21[BANK1 ] unsigned int 
  2711 ;;  width           2    0        int 
  2712 ;;  c               1   43[BANK1 ] unsigned char 
  2713 ;;  ap              1   23[BANK1 ] PTR void [1]
  2714 ;;		 -> ?_sprintf(2), 
  2715 ;;  cp              1   20[BANK1 ] PTR const unsigned char 
  2716 ;;		 -> sprintf@c(1), 
  2717 ;;  d               1    0        unsigned char 
  2718 ;; Return value:  Size  Location     Type
  2719 ;;                  2    8[BANK1 ] int 
  2720 ;; Registers used:
  2721 ;;		wreg, fsr0l, fsr0h, status,2, status,0, btemp+1, pclath, cstack
  2722 ;; Tracked objects:
  2723 ;;		On entry : 0/0
  2724 ;;		On exit  : 0/0
  2725 ;;		Unchanged: 0/0
  2726 ;; Data sizes:     COMMON   BANK0   BANK1   BANK3   BANK2
  2727 ;;      Params:         0       0       8       0       0
  2728 ;;      Locals:         0       0      28       0       0
  2729 ;;      Temps:          0       5       0       0       0
  2730 ;;      Totals:         0       5      36       0       0
  2731 ;;Total ram usage:       41 bytes
  2732 ;; Hardware stack levels used:    1
  2733 ;; Hardware stack levels required when called:    5
  2734 ;; This function calls:
  2735 ;;		___awdiv
  2736 ;;		___fladd
  2737 ;;		___fleq
  2738 ;;		___flge
  2739 ;;		___flmul
  2740 ;;		___flneg
  2741 ;;		___flsub
  2742 ;;		___fltol
  2743 ;;		___lldiv
  2744 ;;		___llmod
  2745 ;;		___wmul
  2746 ;;		___xxtofl
  2747 ;;		__div_to_l_
  2748 ;;		__tdiv_to_l_
  2749 ;;		_fround
  2750 ;;		_isdigit
  2751 ;;		_scale
  2752 ;; This function is called by:
  2753 ;;		_main
  2754 ;; This function uses a non-reentrant model
  2755 ;;
  2756                           
  2757                           
  2758                           ;psect for function _sprintf
  2759  0000'                    _sprintf:
  2760                           
  2761                           ;incstack = 0
  2762                           ; Regs used in _sprintf: [wreg-fsr0h+status,2+status,0+btemp+1+pclath+cstack]
  2763                           ;sprintf@sp stored from wreg
  2764  0000' 1683               	bsf	3,5	;RP0=1, select bank1
  2765  0001' 1303               	bcf	3,6	;RP1=0, select bank1
  2766  0002' 0080'              	movwf	sprintf@sp^(0+128)
  2767  0003'                    l4387:
  2768                           
  2769                           ;C:\Program Files\Microchip\xc8\v2.31\pic\sources\c90\common\doprnt.c: 505: sprintf(char
      +                           * sp, const char * f, ...);C:\Program Files\Microchip\xc8\v2.31\pic\sources\c90\common\
      +                          doprnt.c: 506: {;C:\Program Files\Microchip\xc8\v2.31\pic\sources\c90\common\doprnt.c: 5
      +                          07:  va_list ap;;C:\Program Files\Microchip\xc8\v2.31\pic\sources\c90\common\doprnt.c: 5
      +                          12:  char c;;C:\Program Files\Microchip\xc8\v2.31\pic\sources\c90\common\doprnt.c: 514: 
      +                           int width;;C:\Program Files\Microchip\xc8\v2.31\pic\sources\c90\common\doprnt.c: 517:  
      +                          int prec;
  2770  0003' 3000'              	movlw	(low ((?_sprintf| 0+2)))& (0+255)
  2771  0004' 1283               	bcf	3,5	;RP0=0, select bank0
  2772  0005' 1303               	bcf	3,6	;RP1=0, select bank0
  2773  0006' 00CA'              	movwf	??_sprintf
  2774  0007' 084A'              	movf	??_sprintf,w
  2775  0008' 1683               	bsf	3,5	;RP0=1, select bank1
  2776  0009' 1303               	bcf	3,6	;RP1=0, select bank1
  2777  000A' 0080'              	movwf	sprintf@ap^(0+128)
  2778                           
  2779                           ;C:\Program Files\Microchip\xc8\v2.31\pic\sources\c90\common\doprnt.c: 553:  while((c = 
      +                          *f++)) {
  2780  000B' 2800'              	goto	l4609
  2781  000C'                    l4389:
  2782                           
  2783                           ;C:\Program Files\Microchip\xc8\v2.31\pic\sources\c90\common\doprnt.c: 555:   if(c != '%
      +                          ')
  2784  000C' 3025               	movlw	37
  2785  000D' 0600'              	xorwf	sprintf@c^(0+128),w
  2786  000E' 1903               	btfsc	3,2
  2787  000F' 2800'              	goto	u7151
  2788  0010' 2800'              	goto	u7150
  2789  0011'                    u7151:
  2790  0011' 2800'              	goto	l4395
  2791  0012'                    u7150:
  2792  0012'                    l4391:
  2793                           
  2794                           ;C:\Program Files\Microchip\xc8\v2.31\pic\sources\c90\common\doprnt.c: 557:   {;C:\Progr
      +                          am Files\Microchip\xc8\v2.31\pic\sources\c90\common\doprnt.c: 558:    ((*sp++ = (c)));
  2795  0012' 0800'              	movf	sprintf@c^(0+128),w
  2796  0013' 1283               	bcf	3,5	;RP0=0, select bank0
  2797  0014' 1303               	bcf	3,6	;RP1=0, select bank0
  2798  0015' 00CA'              	movwf	??_sprintf
  2799  0016' 1683               	bsf	3,5	;RP0=1, select bank1
  2800  0017' 1303               	bcf	3,6	;RP1=0, select bank1
  2801  0018' 0800'              	movf	sprintf@sp^(0+128),w
  2802  0019' 0084               	movwf	4
  2803  001A' 1283               	bcf	3,5	;RP0=0, select bank0
  2804  001B' 1303               	bcf	3,6	;RP1=0, select bank0
  2805  001C' 084A'              	movf	??_sprintf,w
  2806  001D' 1783               	bsf	3,7	;select IRP bank2
  2807  001E' 0080               	movwf	0
  2808  001F'                    l4393:
  2809  001F' 3001               	movlw	1
  2810  0020' 00CA'              	movwf	??_sprintf
  2811  0021' 084A'              	movf	??_sprintf,w
  2812  0022' 1683               	bsf	3,5	;RP0=1, select bank1
  2813  0023' 1303               	bcf	3,6	;RP1=0, select bank1
  2814  0024' 0780'              	addwf	sprintf@sp^(0+128),f
  2815                           
  2816                           ;C:\Program Files\Microchip\xc8\v2.31\pic\sources\c90\common\doprnt.c: 559:    continue;
  2817  0025' 2800'              	goto	l4609
  2818  0026'                    l4395:
  2819                           
  2820                           ;C:\Program Files\Microchip\xc8\v2.31\pic\sources\c90\common\doprnt.c: 565:   flag = 0;
  2821  0026' 0180'              	clrf	sprintf@flag^(0+128)
  2822  0027' 0180'              	clrf	(sprintf@flag+1)^(0+128)
  2823  0028'                    l4397:
  2824                           
  2825                           ;C:\Program Files\Microchip\xc8\v2.31\pic\sources\c90\common\doprnt.c: 628:   if(*f == '
      +                          .') {
  2826  0028' 0800'              	movf	(sprintf@f+1)^(0+128),w
  2827  0029' 1283               	bcf	3,5	;RP0=0, select bank0
  2828  002A' 1303               	bcf	3,6	;RP1=0, select bank0
  2829  002B' 00FF               	movwf	btemp+1
  2830  002C' 1683               	bsf	3,5	;RP0=1, select bank1
  2831  002D' 1303               	bcf	3,6	;RP1=0, select bank1
  2832  002E' 0800'              	movf	sprintf@f^(0+128),w
  2833  002F' 0084               	movwf	4
  2834  0030' 1283               	bcf	3,5	;RP0=0, select bank0
  2835  0031' 1303               	bcf	3,6	;RP1=0, select bank0
  2836  0032' 120A' 118A' 2000' 120A' 118A' 	fcall	stringtab
  2837  0037' 3A2E               	xorlw	46
  2838  0038' 1D03               	skipz
  2839  0039' 2800'              	goto	u7161
  2840  003A' 2800'              	goto	u7160
  2841  003B'                    u7161:
  2842  003B' 2800'              	goto	l4413
  2843  003C'                    u7160:
  2844  003C'                    l4399:
  2845                           
  2846                           ;C:\Program Files\Microchip\xc8\v2.31\pic\sources\c90\common\doprnt.c: 629:    flag |= 0
      +                          x4000;
  2847  003C' 1683               	bsf	3,5	;RP0=1, select bank1
  2848  003D' 1303               	bcf	3,6	;RP1=0, select bank1
  2849  003E' 1701'              	bsf	(sprintf@flag^(0+128)+1),6
  2850  003F'                    l4401:
  2851                           
  2852                           ;C:\Program Files\Microchip\xc8\v2.31\pic\sources\c90\common\doprnt.c: 630:    f++;
  2853  003F' 3001               	movlw	1
  2854  0040' 0780'              	addwf	sprintf@f^(0+128),f
  2855  0041' 1803               	skipnc
  2856  0042' 0A80'              	incf	(sprintf@f+1)^(0+128),f
  2857  0043' 3000               	movlw	0
  2858  0044' 0780'              	addwf	(sprintf@f+1)^(0+128),f
  2859  0045'                    l4403:
  2860                           
  2861                           ;C:\Program Files\Microchip\xc8\v2.31\pic\sources\c90\common\doprnt.c: 644:    {;C:\Prog
      +                          ram Files\Microchip\xc8\v2.31\pic\sources\c90\common\doprnt.c: 645:     prec = 0;
  2862  0045' 0180'              	clrf	sprintf@prec^(0+128)
  2863  0046' 0180'              	clrf	(sprintf@prec+1)^(0+128)
  2864                           
  2865                           ;C:\Program Files\Microchip\xc8\v2.31\pic\sources\c90\common\doprnt.c: 646:     while(is
      +                          digit((unsigned)*f)) {
  2866  0047' 2800'              	goto	l4411
  2867  0048'                    l4405:
  2868                           
  2869                           ;C:\Program Files\Microchip\xc8\v2.31\pic\sources\c90\common\doprnt.c: 647:      prec *=
      +                           10;
  2870  0048' 300A               	movlw	10
  2871  0049' 0082'              	movwf	___wmul@multiplier
  2872  004A' 3000               	movlw	0
  2873  004B' 0083'              	movwf	___wmul@multiplier+1
  2874  004C' 1683               	bsf	3,5	;RP0=1, select bank1
  2875  004D' 1303               	bcf	3,6	;RP1=0, select bank1
  2876  004E' 0800'              	movf	(sprintf@prec+1)^(0+128),w
  2877  004F' 0085'              	movwf	___wmul@multiplicand+1
  2878  0050' 0800'              	movf	sprintf@prec^(0+128),w
  2879  0051' 0084'              	movwf	___wmul@multiplicand
  2880  0052' 120A' 118A' 2000' 120A' 118A' 	fcall	___wmul
  2881  0057' 0803'              	movf	?___wmul+1,w
  2882  0058' 1683               	bsf	3,5	;RP0=1, select bank1
  2883  0059' 1303               	bcf	3,6	;RP1=0, select bank1
  2884  005A' 0080'              	movwf	(sprintf@prec+1)^(0+128)
  2885  005B' 0802'              	movf	?___wmul,w
  2886  005C' 0080'              	movwf	sprintf@prec^(0+128)
  2887  005D'                    l4407:
  2888                           
  2889                           ;C:\Program Files\Microchip\xc8\v2.31\pic\sources\c90\common\doprnt.c: 648:         prec
      +                           += *f++ - '0';
  2890  005D' 0800'              	movf	(sprintf@f+1)^(0+128),w
  2891  005E' 1283               	bcf	3,5	;RP0=0, select bank0
  2892  005F' 1303               	bcf	3,6	;RP1=0, select bank0
  2893  0060' 00FF               	movwf	btemp+1
  2894  0061' 1683               	bsf	3,5	;RP0=1, select bank1
  2895  0062' 1303               	bcf	3,6	;RP1=0, select bank1
  2896  0063' 0800'              	movf	sprintf@f^(0+128),w
  2897  0064' 0084               	movwf	4
  2898  0065' 1283               	bcf	3,5	;RP0=0, select bank0
  2899  0066' 1303               	bcf	3,6	;RP1=0, select bank0
  2900  0067' 120A' 118A' 2000' 120A' 118A' 	fcall	stringtab
  2901  006C' 3ED0               	addlw	208
  2902  006D' 00CA'              	movwf	??_sprintf
  2903  006E' 30FF               	movlw	255
  2904  006F' 1803               	skipnc
  2905  0070' 3000               	movlw	0
  2906  0071' 00CB'              	movwf	??_sprintf+1
  2907  0072' 084A'              	movf	??_sprintf,w
  2908  0073' 1683               	bsf	3,5	;RP0=1, select bank1
  2909  0074' 1303               	bcf	3,6	;RP1=0, select bank1
  2910  0075' 0780'              	addwf	sprintf@prec^(0+128),f
  2911  0076' 1803               	skipnc
  2912  0077' 0A80'              	incf	(sprintf@prec+1)^(0+128),f
  2913  0078' 1283               	bcf	3,5	;RP0=0, select bank0
  2914  0079' 1303               	bcf	3,6	;RP1=0, select bank0
  2915  007A' 084B'              	movf	??_sprintf+1,w
  2916  007B' 1683               	bsf	3,5	;RP0=1, select bank1
  2917  007C' 1303               	bcf	3,6	;RP1=0, select bank1
  2918  007D' 0780'              	addwf	(sprintf@prec+1)^(0+128),f
  2919  007E'                    l4409:
  2920  007E' 3001               	movlw	1
  2921  007F' 0780'              	addwf	sprintf@f^(0+128),f
  2922  0080' 1803               	skipnc
  2923  0081' 0A80'              	incf	(sprintf@f+1)^(0+128),f
  2924  0082' 3000               	movlw	0
  2925  0083' 0780'              	addwf	(sprintf@f+1)^(0+128),f
  2926  0084'                    l4411:
  2927                           
  2928                           ;C:\Program Files\Microchip\xc8\v2.31\pic\sources\c90\common\doprnt.c: 646:     while(is
      +                          digit((unsigned)*f)) {
  2929  0084' 0800'              	movf	(sprintf@f+1)^(0+128),w
  2930  0085' 1283               	bcf	3,5	;RP0=0, select bank0
  2931  0086' 1303               	bcf	3,6	;RP1=0, select bank0
  2932  0087' 00FF               	movwf	btemp+1
  2933  0088' 1683               	bsf	3,5	;RP0=1, select bank1
  2934  0089' 1303               	bcf	3,6	;RP1=0, select bank1
  2935  008A' 0800'              	movf	sprintf@f^(0+128),w
  2936  008B' 0084               	movwf	4
  2937  008C' 1283               	bcf	3,5	;RP0=0, select bank0
  2938  008D' 1303               	bcf	3,6	;RP1=0, select bank0
  2939  008E' 120A' 118A' 2000' 120A' 118A' 	fcall	stringtab
  2940  0093' 120A' 118A' 2000' 120A' 118A' 	fcall	_isdigit
  2941  0098' 1803               	btfsc	3,0
  2942  0099' 2800'              	goto	u7171
  2943  009A' 2800'              	goto	u7170
  2944  009B'                    u7171:
  2945  009B' 2800'              	goto	l4405
  2946  009C'                    u7170:
  2947  009C' 2800'              	goto	l4441
  2948  009D'                    l4413:
  2949                           
  2950                           ;C:\Program Files\Microchip\xc8\v2.31\pic\sources\c90\common\doprnt.c: 652:    prec = 0;
  2951  009D' 1683               	bsf	3,5	;RP0=1, select bank1
  2952  009E' 1303               	bcf	3,6	;RP1=0, select bank1
  2953  009F' 0180'              	clrf	sprintf@prec^(0+128)
  2954  00A0' 0180'              	clrf	(sprintf@prec+1)^(0+128)
  2955  00A1'                    l4415:
  2956                           
  2957                           ;C:\Program Files\Microchip\xc8\v2.31\pic\sources\c90\common\doprnt.c: 654:    flag |= 0
      +                          x1000;
  2958  00A1' 1601'              	bsf	(sprintf@flag^(0+128)+1),4
  2959  00A2' 2800'              	goto	l4441
  2960  00A3'                    l387:	
  2961                           ;C:\Program Files\Microchip\xc8\v2.31\pic\sources\c90\common\doprnt.c: 688:   case 'f':
  2962                           
  2963                           
  2964                           ;C:\Program Files\Microchip\xc8\v2.31\pic\sources\c90\common\doprnt.c: 689:    flag |= 0
      +                          x400;
  2965  00A3' 1683               	bsf	3,5	;RP0=1, select bank1
  2966  00A4' 1303               	bcf	3,6	;RP1=0, select bank1
  2967  00A5' 1501'              	bsf	(sprintf@flag^(0+128)+1),2
  2968                           
  2969                           ;C:\Program Files\Microchip\xc8\v2.31\pic\sources\c90\common\doprnt.c: 690:    break;
  2970  00A6' 2800'              	goto	l4443
  2971  00A7'                    l4417:
  2972                           
  2973                           ;C:\Program Files\Microchip\xc8\v2.31\pic\sources\c90\common\doprnt.c: 779:    if(prec &
      +                          & (prec < ((int)len)))
  2974  00A7' 0800'              	movf	sprintf@prec^(0+128),w
  2975  00A8' 0400'              	iorwf	(sprintf@prec+1)^(0+128),w
  2976  00A9' 1903               	btfsc	3,2
  2977  00AA' 2800'              	goto	u7181
  2978  00AB' 2800'              	goto	u7180
  2979  00AC'                    u7181:
  2980  00AC' 2800'              	goto	l4429
  2981  00AD'                    u7180:
  2982  00AD'                    l4419:
  2983  00AD' 0800'              	movf	(sprintf@prec+1)^(0+128),w
  2984  00AE' 3A80               	xorlw	128
  2985  00AF' 00FF               	movwf	btemp+1
  2986  00B0' 3080               	movlw	128
  2987  00B1' 027F               	subwf	btemp+1,w
  2988  00B2' 1D03               	skipz
  2989  00B3' 2800'              	goto	u7195
  2990  00B4' 3001               	movlw	1
  2991  00B5' 0200'              	subwf	sprintf@prec^(0+128),w
  2992  00B6'                    u7195:
  2993  00B6' 1803               	skipnc
  2994  00B7' 2800'              	goto	u7191
  2995  00B8' 2800'              	goto	u7190
  2996  00B9'                    u7191:
  2997  00B9' 2800'              	goto	l4429
  2998  00BA'                    u7190:
  2999  00BA'                    l4421:
  3000                           
  3001                           ;C:\Program Files\Microchip\xc8\v2.31\pic\sources\c90\common\doprnt.c: 780:     len = (u
      +                          nsigned int)prec;
  3002  00BA' 1683               	bsf	3,5	;RP0=1, select bank1
  3003  00BB' 1303               	bcf	3,6	;RP1=0, select bank1
  3004  00BC' 0800'              	movf	(sprintf@prec+1)^(0+128),w
  3005  00BD' 0080'              	movwf	(sprintf@len+1)^(0+128)
  3006  00BE' 0800'              	movf	sprintf@prec^(0+128),w
  3007  00BF' 0080'              	movwf	sprintf@len^(0+128)
  3008  00C0' 2800'              	goto	l4429
  3009  00C1'                    l4423:
  3010                           
  3011                           ;C:\Program Files\Microchip\xc8\v2.31\pic\sources\c90\common\doprnt.c: 794:     ((*sp++ 
      +                          = (*cp++)));
  3012  00C1' 0800'              	movf	sprintf@cp^(0+128),w
  3013  00C2' 0084               	movwf	4
  3014  00C3' 1383               	bcf	3,7	;select IRP bank0
  3015  00C4' 0800               	movf	0,w
  3016  00C5' 1283               	bcf	3,5	;RP0=0, select bank0
  3017  00C6' 1303               	bcf	3,6	;RP1=0, select bank0
  3018  00C7' 00CA'              	movwf	??_sprintf
  3019  00C8' 1683               	bsf	3,5	;RP0=1, select bank1
  3020  00C9' 1303               	bcf	3,6	;RP1=0, select bank1
  3021  00CA' 0800'              	movf	sprintf@sp^(0+128),w
  3022  00CB' 0084               	movwf	4
  3023  00CC' 1283               	bcf	3,5	;RP0=0, select bank0
  3024  00CD' 1303               	bcf	3,6	;RP1=0, select bank0
  3025  00CE' 084A'              	movf	??_sprintf,w
  3026  00CF' 1783               	bsf	3,7	;select IRP bank2
  3027  00D0' 0080               	movwf	0
  3028  00D1'                    l4425:
  3029  00D1' 3001               	movlw	1
  3030  00D2' 00CA'              	movwf	??_sprintf
  3031  00D3' 084A'              	movf	??_sprintf,w
  3032  00D4' 1683               	bsf	3,5	;RP0=1, select bank1
  3033  00D5' 1303               	bcf	3,6	;RP1=0, select bank1
  3034  00D6' 0780'              	addwf	sprintf@cp^(0+128),f
  3035  00D7'                    l4427:
  3036  00D7' 3001               	movlw	1
  3037  00D8' 1283               	bcf	3,5	;RP0=0, select bank0
  3038  00D9' 1303               	bcf	3,6	;RP1=0, select bank0
  3039  00DA' 00CA'              	movwf	??_sprintf
  3040  00DB' 084A'              	movf	??_sprintf,w
  3041  00DC' 1683               	bsf	3,5	;RP0=1, select bank1
  3042  00DD' 1303               	bcf	3,6	;RP1=0, select bank1
  3043  00DE' 0780'              	addwf	sprintf@sp^(0+128),f
  3044  00DF'                    l4429:
  3045                           
  3046                           ;C:\Program Files\Microchip\xc8\v2.31\pic\sources\c90\common\doprnt.c: 793:    while(len
      +                          --)
  3047  00DF' 3001               	movlw	1
  3048  00E0' 1683               	bsf	3,5	;RP0=1, select bank1
  3049  00E1' 1303               	bcf	3,6	;RP1=0, select bank1
  3050  00E2' 0280'              	subwf	sprintf@len^(0+128),f
  3051  00E3' 3000               	movlw	0
  3052  00E4' 1C03               	skipc
  3053  00E5' 0380'              	decf	(sprintf@len+1)^(0+128),f
  3054  00E6' 0280'              	subwf	(sprintf@len+1)^(0+128),f
  3055  00E7' 0A00'              	incf	sprintf@len^(0+128),w
  3056  00E8' 1D03               	skipz
  3057  00E9' 2800'              	goto	u7201
  3058  00EA' 0A00'              	incf	(sprintf@len+1)^(0+128),w
  3059  00EB' 1D03               	btfss	3,2
  3060  00EC' 2800'              	goto	u7201
  3061  00ED' 2800'              	goto	u7200
  3062  00EE'                    u7201:
  3063  00EE' 2800'              	goto	l4423
  3064  00EF'                    u7200:
  3065  00EF' 2800'              	goto	l4609
  3066  00F0'                    l4431:
  3067                           
  3068                           ;C:\Program Files\Microchip\xc8\v2.31\pic\sources\c90\common\doprnt.c: 825:    c = (char
      +                          )(*(int *)__va_arg((*(int **)ap), (int)0));
  3069  00F0' 1683               	bsf	3,5	;RP0=1, select bank1
  3070  00F1' 1303               	bcf	3,6	;RP1=0, select bank1
  3071  00F2' 0800'              	movf	sprintf@ap^(0+128),w
  3072  00F3' 0084               	movwf	4
  3073  00F4' 1383               	bcf	3,7	;select IRP bank0
  3074  00F5' 0800               	movf	0,w
  3075  00F6' 1283               	bcf	3,5	;RP0=0, select bank0
  3076  00F7' 1303               	bcf	3,6	;RP1=0, select bank0
  3077  00F8' 00CA'              	movwf	??_sprintf
  3078  00F9' 084A'              	movf	??_sprintf,w
  3079  00FA' 1683               	bsf	3,5	;RP0=1, select bank1
  3080  00FB' 1303               	bcf	3,6	;RP1=0, select bank1
  3081  00FC' 0080'              	movwf	sprintf@c^(0+128)
  3082  00FD'                    l4433:
  3083  00FD' 3002               	movlw	2
  3084  00FE' 1283               	bcf	3,5	;RP0=0, select bank0
  3085  00FF' 1303               	bcf	3,6	;RP1=0, select bank0
  3086  0100' 00CA'              	movwf	??_sprintf
  3087  0101' 084A'              	movf	??_sprintf,w
  3088  0102' 1683               	bsf	3,5	;RP0=1, select bank1
  3089  0103' 1303               	bcf	3,6	;RP1=0, select bank1
  3090  0104' 0780'              	addwf	sprintf@ap^(0+128),f
  3091  0105'                    l4435:
  3092                           
  3093                           ;C:\Program Files\Microchip\xc8\v2.31\pic\sources\c90\common\doprnt.c: 831:    cp = (cha
      +                          r *)&c;
  3094  0105' 3000'              	movlw	(low (sprintf@c| 0))& (0+255)
  3095  0106' 1283               	bcf	3,5	;RP0=0, select bank0
  3096  0107' 00CA'              	movwf	??_sprintf
  3097  0108' 084A'              	movf	??_sprintf,w
  3098  0109' 1683               	bsf	3,5	;RP0=1, select bank1
  3099  010A' 1303               	bcf	3,6	;RP1=0, select bank1
  3100  010B' 0080'              	movwf	sprintf@cp^(0+128)
  3101  010C'                    l4437:
  3102                           
  3103                           ;C:\Program Files\Microchip\xc8\v2.31\pic\sources\c90\common\doprnt.c: 832:    len = 1;
  3104  010C' 3001               	movlw	1
  3105  010D' 0080'              	movwf	sprintf@len^(0+128)
  3106  010E' 3000               	movlw	0
  3107  010F' 0081'              	movwf	(sprintf@len^(0+128)+1)
  3108                           
  3109                           ;C:\Program Files\Microchip\xc8\v2.31\pic\sources\c90\common\doprnt.c: 833:    goto dost
      +                          ring;
  3110  0110' 2800'              	goto	l4417
  3111  0111'                    l4441:
  3112  0111' 1683               	bsf	3,5	;RP0=1, select bank1
  3113  0112' 1303               	bcf	3,6	;RP1=0, select bank1
  3114  0113' 0800'              	movf	(sprintf@f+1)^(0+128),w
  3115  0114' 1283               	bcf	3,5	;RP0=0, select bank0
  3116  0115' 1303               	bcf	3,6	;RP1=0, select bank0
  3117  0116' 00CB'              	movwf	??_sprintf+1
  3118  0117' 1683               	bsf	3,5	;RP0=1, select bank1
  3119  0118' 1303               	bcf	3,6	;RP1=0, select bank1
  3120  0119' 0800'              	movf	sprintf@f^(0+128),w
  3121  011A' 1283               	bcf	3,5	;RP0=0, select bank0
  3122  011B' 1303               	bcf	3,6	;RP1=0, select bank0
  3123  011C' 00CA'              	movwf	??_sprintf
  3124  011D' 1683               	bsf	3,5	;RP0=1, select bank1
  3125  011E' 1303               	bcf	3,6	;RP1=0, select bank1
  3126  011F' 0A80'              	incf	sprintf@f^(0+128),f
  3127  0120' 1903               	skipnz
  3128  0121' 0A80'              	incf	(sprintf@f+1)^(0+128),f
  3129  0122' 1283               	bcf	3,5	;RP0=0, select bank0
  3130  0123' 1303               	bcf	3,6	;RP1=0, select bank0
  3131  0124' 084B'              	movf	??_sprintf+1,w
  3132  0125' 00FF               	movwf	btemp+1
  3133  0126' 084A'              	movf	??_sprintf,w
  3134  0127' 0084               	movwf	4
  3135  0128' 120A' 118A' 2000' 120A' 118A' 	fcall	stringtab
  3136  012D' 1683               	bsf	3,5	;RP0=1, select bank1
  3137  012E' 1303               	bcf	3,6	;RP1=0, select bank1
  3138  012F' 0080'              	movwf	sprintf@c^(0+128)
  3139  0130' 1283               	bcf	3,5	;RP0=0, select bank0
  3140  0131' 1303               	bcf	3,6	;RP1=0, select bank0
  3141  0132' 00CC'              	movwf	??_sprintf+2
  3142  0133' 01CD'              	clrf	??_sprintf+3
  3143                           
  3144                           ; Switch on 2 bytes has been partitioned into a top level switch of size 1, and 1 sub-sw
      +                          itches
  3145                           ; Switch size 1, requested type "simple"
  3146                           ; Number of cases is 1, Range of values is 0 to 0
  3147                           ; switch strategies available:
  3148                           ; Name         Instructions Cycles
  3149                           ; simple_byte            4     3 (average)
  3150                           ; direct_byte           11     8 (fixed)
  3151                           ; jumptable            260     6 (fixed)
  3152                           ;	Chosen strategy is simple_byte
  3153  0134' 084D'              	movf	??_sprintf+3,w
  3154  0135' 3A00               	xorlw	0	; case 0
  3155  0136' 1903               	skipnz
  3156  0137' 2800'              	goto	l4723
  3157  0138' 2800'              	goto	l4435
  3158  0139'                    l4723:
  3159                           
  3160                           ; Switch size 1, requested type "simple"
  3161                           ; Number of cases is 3, Range of values is 0 to 102
  3162                           ; switch strategies available:
  3163                           ; Name         Instructions Cycles
  3164                           ; simple_byte           10     6 (average)
  3165                           ; jumptable            260     6 (fixed)
  3166                           ;	Chosen strategy is simple_byte
  3167  0139' 084C'              	movf	??_sprintf+2,w
  3168  013A' 3A00               	xorlw	0	; case 0
  3169  013B' 1903               	skipnz
  3170  013C' 2800'              	goto	l4611
  3171  013D' 3A63               	xorlw	99	; case 99
  3172  013E' 1903               	skipnz
  3173  013F' 2800'              	goto	l4431
  3174  0140' 3A05               	xorlw	5	; case 102
  3175  0141' 1903               	skipnz
  3176  0142' 2800'              	goto	l387
  3177  0143' 2800'              	goto	l4435
  3178  0144'                    l4443:
  3179                           
  3180                           ;C:\Program Files\Microchip\xc8\v2.31\pic\sources\c90\common\doprnt.c: 851:   if(flag & 
      +                          (0x700)) {
  3181  0144' 3000               	movlw	0
  3182  0145' 0500'              	andwf	sprintf@flag^(0+128),w
  3183  0146' 1283               	bcf	3,5	;RP0=0, select bank0
  3184  0147' 1303               	bcf	3,6	;RP1=0, select bank0
  3185  0148' 00CA'              	movwf	??_sprintf
  3186  0149' 3007               	movlw	7
  3187  014A' 1683               	bsf	3,5	;RP0=1, select bank1
  3188  014B' 1303               	bcf	3,6	;RP1=0, select bank1
  3189  014C' 0500'              	andwf	(sprintf@flag+1)^(0+128),w
  3190  014D' 1283               	bcf	3,5	;RP0=0, select bank0
  3191  014E' 1303               	bcf	3,6	;RP1=0, select bank0
  3192  014F' 00CB'              	movwf	??_sprintf+1
  3193  0150' 084A'              	movf	??_sprintf,w
  3194  0151' 044B'              	iorwf	??_sprintf+1,w
  3195  0152' 1903               	btfsc	3,2
  3196  0153' 2800'              	goto	u7211
  3197  0154' 2800'              	goto	u7210
  3198  0155'                    u7211:
  3199  0155' 2800'              	goto	l4591
  3200  0156'                    u7210:
  3201  0156'                    l4445:
  3202                           
  3203                           ;C:\Program Files\Microchip\xc8\v2.31\pic\sources\c90\common\doprnt.c: 853:    if(flag &
      +                           0x1000)
  3204  0156' 1683               	bsf	3,5	;RP0=1, select bank1
  3205  0157' 1303               	bcf	3,6	;RP1=0, select bank1
  3206  0158' 1E00'              	btfss	(sprintf@flag+1)^(0+128),4
  3207  0159' 2800'              	goto	u7221
  3208  015A' 2800'              	goto	u7220
  3209  015B'                    u7221:
  3210  015B' 2800'              	goto	l4449
  3211  015C'                    u7220:
  3212  015C'                    l4447:
  3213                           
  3214                           ;C:\Program Files\Microchip\xc8\v2.31\pic\sources\c90\common\doprnt.c: 855:     prec = 6
      +                          ;
  3215  015C' 3006               	movlw	6
  3216  015D' 0080'              	movwf	sprintf@prec^(0+128)
  3217  015E' 3000               	movlw	0
  3218  015F' 0081'              	movwf	(sprintf@prec^(0+128)+1)
  3219  0160'                    l4449:
  3220                           
  3221                           ;C:\Program Files\Microchip\xc8\v2.31\pic\sources\c90\common\doprnt.c: 856:    fval = (*
      +                          (double *)__va_arg((*(double **)ap), (double)0));
  3222  0160' 0800'              	movf	sprintf@ap^(0+128),w
  3223  0161' 0084               	movwf	4
  3224  0162' 1383               	bcf	3,7	;select IRP bank0
  3225  0163' 0800               	movf	0,w
  3226  0164' 0080'              	movwf	sprintf@fval^(0+128)
  3227  0165' 0A84               	incf	4,f
  3228  0166' 0800               	movf	0,w
  3229  0167' 0080'              	movwf	(sprintf@fval+1)^(0+128)
  3230  0168' 0A84               	incf	4,f
  3231  0169' 0800               	movf	0,w
  3232  016A' 0080'              	movwf	(sprintf@fval+2)^(0+128)
  3233  016B' 0A84               	incf	4,f
  3234  016C' 0800               	movf	0,w
  3235  016D' 0080'              	movwf	(sprintf@fval+3)^(0+128)
  3236  016E'                    l4451:
  3237  016E' 3004               	movlw	4
  3238  016F' 1283               	bcf	3,5	;RP0=0, select bank0
  3239  0170' 1303               	bcf	3,6	;RP1=0, select bank0
  3240  0171' 00CA'              	movwf	??_sprintf
  3241  0172' 084A'              	movf	??_sprintf,w
  3242  0173' 1683               	bsf	3,5	;RP0=1, select bank1
  3243  0174' 1303               	bcf	3,6	;RP1=0, select bank1
  3244  0175' 0780'              	addwf	sprintf@ap^(0+128),f
  3245  0176'                    l4453:
  3246                           
  3247                           ;C:\Program Files\Microchip\xc8\v2.31\pic\sources\c90\common\doprnt.c: 857:    if(fval <
      +                           0.0) {
  3248  0176' 0800'              	movf	(sprintf@fval+3)^(0+128),w
  3249  0177' 0085'              	movwf	___flge@ff1+3
  3250  0178' 0800'              	movf	(sprintf@fval+2)^(0+128),w
  3251  0179' 0084'              	movwf	___flge@ff1+2
  3252  017A' 0800'              	movf	(sprintf@fval+1)^(0+128),w
  3253  017B' 0083'              	movwf	___flge@ff1+1
  3254  017C' 0800'              	movf	sprintf@fval^(0+128),w
  3255  017D' 0082'              	movwf	___flge@ff1
  3256  017E' 3000               	movlw	0
  3257  017F' 0089'              	movwf	___flge@ff2+3
  3258  0180' 3000               	movlw	0
  3259  0181' 0088'              	movwf	___flge@ff2+2
  3260  0182' 3000               	movlw	0
  3261  0183' 0087'              	movwf	___flge@ff2+1
  3262  0184' 3000               	movlw	0
  3263  0185' 0086'              	movwf	___flge@ff2
  3264  0186' 120A' 118A' 2000' 120A' 118A' 	fcall	___flge
  3265  018B' 1803               	btfsc	3,0
  3266  018C' 2800'              	goto	u7231
  3267  018D' 2800'              	goto	u7230
  3268  018E'                    u7231:
  3269  018E' 2800'              	goto	l4459
  3270  018F'                    u7230:
  3271  018F'                    l4455:
  3272                           
  3273                           ;C:\Program Files\Microchip\xc8\v2.31\pic\sources\c90\common\doprnt.c: 858:     fval = -
      +                          fval;
  3274  018F' 1683               	bsf	3,5	;RP0=1, select bank1
  3275  0190' 1303               	bcf	3,6	;RP1=0, select bank1
  3276  0191' 0800'              	movf	(sprintf@fval+3)^(0+128),w
  3277  0192' 0085'              	movwf	___flneg@f1+3
  3278  0193' 0800'              	movf	(sprintf@fval+2)^(0+128),w
  3279  0194' 0084'              	movwf	___flneg@f1+2
  3280  0195' 0800'              	movf	(sprintf@fval+1)^(0+128),w
  3281  0196' 0083'              	movwf	___flneg@f1+1
  3282  0197' 0800'              	movf	sprintf@fval^(0+128),w
  3283  0198' 0082'              	movwf	___flneg@f1
  3284  0199' 120A' 118A' 2000' 120A' 118A' 	fcall	___flneg
  3285  019E' 0805'              	movf	?___flneg+3,w
  3286  019F' 1683               	bsf	3,5	;RP0=1, select bank1
  3287  01A0' 1303               	bcf	3,6	;RP1=0, select bank1
  3288  01A1' 0080'              	movwf	(sprintf@fval+3)^(0+128)
  3289  01A2' 0804'              	movf	?___flneg+2,w
  3290  01A3' 0080'              	movwf	(sprintf@fval+2)^(0+128)
  3291  01A4' 0803'              	movf	?___flneg+1,w
  3292  01A5' 0080'              	movwf	(sprintf@fval+1)^(0+128)
  3293  01A6' 0802'              	movf	?___flneg,w
  3294  01A7' 0080'              	movwf	sprintf@fval^(0+128)
  3295  01A8'                    l4457:
  3296                           
  3297                           ;C:\Program Files\Microchip\xc8\v2.31\pic\sources\c90\common\doprnt.c: 859:     flag |= 
      +                          0x03;
  3298  01A8' 3003               	movlw	3
  3299  01A9' 0480'              	iorwf	sprintf@flag^(0+128),f
  3300  01AA' 3000               	movlw	0
  3301  01AB' 0480'              	iorwf	(sprintf@flag+1)^(0+128),f
  3302  01AC'                    l4459:
  3303                           
  3304                           ;C:\Program Files\Microchip\xc8\v2.31\pic\sources\c90\common\doprnt.c: 861:    eexp = 0;
  3305  01AC' 1683               	bsf	3,5	;RP0=1, select bank1
  3306  01AD' 1303               	bcf	3,6	;RP1=0, select bank1
  3307  01AE' 0180'              	clrf	sprintf@eexp^(0+128)
  3308  01AF' 0180'              	clrf	(sprintf@eexp+1)^(0+128)
  3309  01B0'                    l4461:
  3310                           
  3311                           ;C:\Program Files\Microchip\xc8\v2.31\pic\sources\c90\common\doprnt.c: 862:    if( fval!
      +                          =0) {
  3312  01B0' 0800'              	movf	(sprintf@fval+3)^(0+128),w
  3313  01B1' 0085'              	movwf	___fleq@ff1+3
  3314  01B2' 0800'              	movf	(sprintf@fval+2)^(0+128),w
  3315  01B3' 0084'              	movwf	___fleq@ff1+2
  3316  01B4' 0800'              	movf	(sprintf@fval+1)^(0+128),w
  3317  01B5' 0083'              	movwf	___fleq@ff1+1
  3318  01B6' 0800'              	movf	sprintf@fval^(0+128),w
  3319  01B7' 0082'              	movwf	___fleq@ff1
  3320  01B8' 3000               	movlw	0
  3321  01B9' 0089'              	movwf	___fleq@ff2+3
  3322  01BA' 3000               	movlw	0
  3323  01BB' 0088'              	movwf	___fleq@ff2+2
  3324  01BC' 3000               	movlw	0
  3325  01BD' 0087'              	movwf	___fleq@ff2+1
  3326  01BE' 3000               	movlw	0
  3327  01BF' 0086'              	movwf	___fleq@ff2
  3328  01C0' 120A' 118A' 2000' 120A' 118A' 	fcall	___fleq
  3329  01C5' 1803               	btfsc	3,0
  3330  01C6' 2800'              	goto	u7241
  3331  01C7' 2800'              	goto	u7240
  3332  01C8'                    u7241:
  3333  01C8' 2800'              	goto	l4487
  3334  01C9'                    u7240:
  3335  01C9'                    l4463:
  3336                           
  3337                           ;C:\Program Files\Microchip\xc8\v2.31\pic\sources\c90\common\doprnt.c: 863:     (void)(*
      +                          (&eexp) = (unsigned char)((*(unsigned long *)&fval >> 23) & 255) - 126);
  3338  01C9' 1003               	clrc
  3339  01CA' 1683               	bsf	3,5	;RP0=1, select bank1
  3340  01CB' 1303               	bcf	3,6	;RP1=0, select bank1
  3341  01CC' 0D00'              	rlf	(sprintf@fval+2)^(0+128),w
  3342  01CD' 0D00'              	rlf	(sprintf@fval+3)^(0+128),w
  3343  01CE' 3E82               	addlw	130
  3344  01CF' 0080'              	movwf	sprintf@eexp^(0+128)
  3345  01D0' 30FF               	movlw	255
  3346  01D1' 1803               	skipnc
  3347  01D2' 3000               	movlw	0
  3348  01D3' 0081'              	movwf	(sprintf@eexp^(0+128)+1)
  3349  01D4'                    l4465:
  3350                           
  3351                           ;C:\Program Files\Microchip\xc8\v2.31\pic\sources\c90\common\doprnt.c: 864:     eexp--;
  3352  01D4' 30FF               	movlw	255
  3353  01D5' 0780'              	addwf	sprintf@eexp^(0+128),f
  3354  01D6' 1803               	skipnc
  3355  01D7' 0A80'              	incf	(sprintf@eexp+1)^(0+128),f
  3356  01D8' 30FF               	movlw	255
  3357  01D9' 0780'              	addwf	(sprintf@eexp+1)^(0+128),f
  3358  01DA'                    l4467:
  3359                           
  3360                           ;C:\Program Files\Microchip\xc8\v2.31\pic\sources\c90\common\doprnt.c: 865:     eexp *= 
      +                          3;
  3361  01DA' 3003               	movlw	3
  3362  01DB' 0082'              	movwf	___wmul@multiplier
  3363  01DC' 3000               	movlw	0
  3364  01DD' 0083'              	movwf	___wmul@multiplier+1
  3365  01DE' 0800'              	movf	(sprintf@eexp+1)^(0+128),w
  3366  01DF' 0085'              	movwf	___wmul@multiplicand+1
  3367  01E0' 0800'              	movf	sprintf@eexp^(0+128),w
  3368  01E1' 0084'              	movwf	___wmul@multiplicand
  3369  01E2' 120A' 118A' 2000' 120A' 118A' 	fcall	___wmul
  3370  01E7' 0803'              	movf	?___wmul+1,w
  3371  01E8' 1683               	bsf	3,5	;RP0=1, select bank1
  3372  01E9' 1303               	bcf	3,6	;RP1=0, select bank1
  3373  01EA' 0080'              	movwf	(sprintf@eexp+1)^(0+128)
  3374  01EB' 0802'              	movf	?___wmul,w
  3375  01EC' 0080'              	movwf	sprintf@eexp^(0+128)
  3376  01ED'                    l4469:
  3377                           
  3378                           ;C:\Program Files\Microchip\xc8\v2.31\pic\sources\c90\common\doprnt.c: 866:     eexp /= 
      +                          10;
  3379  01ED' 300A               	movlw	10
  3380  01EE' 1283               	bcf	3,5	;RP0=0, select bank0
  3381  01EF' 1303               	bcf	3,6	;RP1=0, select bank0
  3382  01F0' 0080'              	movwf	___awdiv@divisor
  3383  01F1' 3000               	movlw	0
  3384  01F2' 0081'              	movwf	___awdiv@divisor+1
  3385  01F3' 1683               	bsf	3,5	;RP0=1, select bank1
  3386  01F4' 1303               	bcf	3,6	;RP1=0, select bank1
  3387  01F5' 0800'              	movf	(sprintf@eexp+1)^(0+128),w
  3388  01F6' 1283               	bcf	3,5	;RP0=0, select bank0
  3389  01F7' 1303               	bcf	3,6	;RP1=0, select bank0
  3390  01F8' 0083'              	movwf	___awdiv@dividend+1
  3391  01F9' 1683               	bsf	3,5	;RP0=1, select bank1
  3392  01FA' 1303               	bcf	3,6	;RP1=0, select bank1
  3393  01FB' 0800'              	movf	sprintf@eexp^(0+128),w
  3394  01FC' 1283               	bcf	3,5	;RP0=0, select bank0
  3395  01FD' 1303               	bcf	3,6	;RP1=0, select bank0
  3396  01FE' 0082'              	movwf	___awdiv@dividend
  3397  01FF' 120A' 118A' 2000' 120A' 118A' 	fcall	___awdiv
  3398  0204' 1283               	bcf	3,5	;RP0=0, select bank0
  3399  0205' 1303               	bcf	3,6	;RP1=0, select bank0
  3400  0206' 0801'              	movf	?___awdiv+1,w
  3401  0207' 1683               	bsf	3,5	;RP0=1, select bank1
  3402  0208' 1303               	bcf	3,6	;RP1=0, select bank1
  3403  0209' 0080'              	movwf	(sprintf@eexp+1)^(0+128)
  3404  020A' 1283               	bcf	3,5	;RP0=0, select bank0
  3405  020B' 1303               	bcf	3,6	;RP1=0, select bank0
  3406  020C' 0800'              	movf	?___awdiv,w
  3407  020D' 1683               	bsf	3,5	;RP0=1, select bank1
  3408  020E' 1303               	bcf	3,6	;RP1=0, select bank1
  3409  020F' 0080'              	movwf	sprintf@eexp^(0+128)
  3410  0210'                    l4471:
  3411                           
  3412                           ;C:\Program Files\Microchip\xc8\v2.31\pic\sources\c90\common\doprnt.c: 867:     if(eexp 
      +                          < 0)
  3413  0210' 1F80'              	btfss	(sprintf@eexp+1)^(0+128),7
  3414  0211' 2800'              	goto	u7251
  3415  0212' 2800'              	goto	u7250
  3416  0213'                    u7251:
  3417  0213' 2800'              	goto	l4475
  3418  0214'                    u7250:
  3419  0214'                    l4473:
  3420                           
  3421                           ;C:\Program Files\Microchip\xc8\v2.31\pic\sources\c90\common\doprnt.c: 868:      eexp--;
  3422  0214' 30FF               	movlw	255
  3423  0215' 0780'              	addwf	sprintf@eexp^(0+128),f
  3424  0216' 1803               	skipnc
  3425  0217' 0A80'              	incf	(sprintf@eexp+1)^(0+128),f
  3426  0218' 30FF               	movlw	255
  3427  0219' 0780'              	addwf	(sprintf@eexp+1)^(0+128),f
  3428  021A'                    l4475:
  3429                           
  3430                           ;C:\Program Files\Microchip\xc8\v2.31\pic\sources\c90\common\doprnt.c: 872:     tmpval.i
      +                          nteg = scale(-eexp);
  3431  021A' 0300'              	decf	sprintf@eexp^(0+128),w
  3432  021B' 3AFF               	xorlw	255
  3433  021C' 120A' 118A' 2000' 120A' 118A' 	fcall	_scale
  3434  0221' 1283               	bcf	3,5	;RP0=0, select bank0
  3435  0222' 1303               	bcf	3,6	;RP1=0, select bank0
  3436  0223' 0825'              	movf	?_scale+3,w
  3437  0224' 1683               	bsf	3,5	;RP0=1, select bank1
  3438  0225' 1303               	bcf	3,6	;RP1=0, select bank1
  3439  0226' 0080'              	movwf	(sprintf@tmpval+3)^(0+128)
  3440  0227' 1283               	bcf	3,5	;RP0=0, select bank0
  3441  0228' 1303               	bcf	3,6	;RP1=0, select bank0
  3442  0229' 0824'              	movf	?_scale+2,w
  3443  022A' 1683               	bsf	3,5	;RP0=1, select bank1
  3444  022B' 1303               	bcf	3,6	;RP1=0, select bank1
  3445  022C' 0080'              	movwf	(sprintf@tmpval+2)^(0+128)
  3446  022D' 1283               	bcf	3,5	;RP0=0, select bank0
  3447  022E' 1303               	bcf	3,6	;RP1=0, select bank0
  3448  022F' 0823'              	movf	?_scale+1,w
  3449  0230' 1683               	bsf	3,5	;RP0=1, select bank1
  3450  0231' 1303               	bcf	3,6	;RP1=0, select bank1
  3451  0232' 0080'              	movwf	(sprintf@tmpval+1)^(0+128)
  3452  0233' 1283               	bcf	3,5	;RP0=0, select bank0
  3453  0234' 1303               	bcf	3,6	;RP1=0, select bank0
  3454  0235' 0822'              	movf	?_scale,w
  3455  0236' 1683               	bsf	3,5	;RP0=1, select bank1
  3456  0237' 1303               	bcf	3,6	;RP1=0, select bank1
  3457  0238' 0080'              	movwf	sprintf@tmpval^(0+128)
  3458  0239'                    l4477:
  3459                           
  3460                           ;C:\Program Files\Microchip\xc8\v2.31\pic\sources\c90\common\doprnt.c: 873:     tmpval.i
      +                          nteg *= fval;
  3461  0239' 0800'              	movf	(sprintf@fval+3)^(0+128),w
  3462  023A' 1283               	bcf	3,5	;RP0=0, select bank0
  3463  023B' 1303               	bcf	3,6	;RP1=0, select bank0
  3464  023C' 008B'              	movwf	___flmul@b+3
  3465  023D' 1683               	bsf	3,5	;RP0=1, select bank1
  3466  023E' 1303               	bcf	3,6	;RP1=0, select bank1
  3467  023F' 0800'              	movf	(sprintf@fval+2)^(0+128),w
  3468  0240' 1283               	bcf	3,5	;RP0=0, select bank0
  3469  0241' 1303               	bcf	3,6	;RP1=0, select bank0
  3470  0242' 008A'              	movwf	___flmul@b+2
  3471  0243' 1683               	bsf	3,5	;RP0=1, select bank1
  3472  0244' 1303               	bcf	3,6	;RP1=0, select bank1
  3473  0245' 0800'              	movf	(sprintf@fval+1)^(0+128),w
  3474  0246' 1283               	bcf	3,5	;RP0=0, select bank0
  3475  0247' 1303               	bcf	3,6	;RP1=0, select bank0
  3476  0248' 0089'              	movwf	___flmul@b+1
  3477  0249' 1683               	bsf	3,5	;RP0=1, select bank1
  3478  024A' 1303               	bcf	3,6	;RP1=0, select bank1
  3479  024B' 0800'              	movf	sprintf@fval^(0+128),w
  3480  024C' 1283               	bcf	3,5	;RP0=0, select bank0
  3481  024D' 1303               	bcf	3,6	;RP1=0, select bank0
  3482  024E' 0088'              	movwf	___flmul@b
  3483  024F' 1683               	bsf	3,5	;RP0=1, select bank1
  3484  0250' 1303               	bcf	3,6	;RP1=0, select bank1
  3485  0251' 0800'              	movf	(sprintf@tmpval+3)^(0+128),w
  3486  0252' 1283               	bcf	3,5	;RP0=0, select bank0
  3487  0253' 1303               	bcf	3,6	;RP1=0, select bank0
  3488  0254' 008F'              	movwf	___flmul@a+3
  3489  0255' 1683               	bsf	3,5	;RP0=1, select bank1
  3490  0256' 1303               	bcf	3,6	;RP1=0, select bank1
  3491  0257' 0800'              	movf	(sprintf@tmpval+2)^(0+128),w
  3492  0258' 1283               	bcf	3,5	;RP0=0, select bank0
  3493  0259' 1303               	bcf	3,6	;RP1=0, select bank0
  3494  025A' 008E'              	movwf	___flmul@a+2
  3495  025B' 1683               	bsf	3,5	;RP0=1, select bank1
  3496  025C' 1303               	bcf	3,6	;RP1=0, select bank1
  3497  025D' 0800'              	movf	(sprintf@tmpval+1)^(0+128),w
  3498  025E' 1283               	bcf	3,5	;RP0=0, select bank0
  3499  025F' 1303               	bcf	3,6	;RP1=0, select bank0
  3500  0260' 008D'              	movwf	___flmul@a+1
  3501  0261' 1683               	bsf	3,5	;RP0=1, select bank1
  3502  0262' 1303               	bcf	3,6	;RP1=0, select bank1
  3503  0263' 0800'              	movf	sprintf@tmpval^(0+128),w
  3504  0264' 1283               	bcf	3,5	;RP0=0, select bank0
  3505  0265' 1303               	bcf	3,6	;RP1=0, select bank0
  3506  0266' 008C'              	movwf	___flmul@a
  3507  0267' 120A' 118A' 2000' 120A' 118A' 	fcall	___flmul
  3508  026C' 1283               	bcf	3,5	;RP0=0, select bank0
  3509  026D' 1303               	bcf	3,6	;RP1=0, select bank0
  3510  026E' 080B'              	movf	?___flmul+3,w
  3511  026F' 1683               	bsf	3,5	;RP0=1, select bank1
  3512  0270' 1303               	bcf	3,6	;RP1=0, select bank1
  3513  0271' 0080'              	movwf	(sprintf@tmpval+3)^(0+128)
  3514  0272' 1283               	bcf	3,5	;RP0=0, select bank0
  3515  0273' 1303               	bcf	3,6	;RP1=0, select bank0
  3516  0274' 080A'              	movf	?___flmul+2,w
  3517  0275' 1683               	bsf	3,5	;RP0=1, select bank1
  3518  0276' 1303               	bcf	3,6	;RP1=0, select bank1
  3519  0277' 0080'              	movwf	(sprintf@tmpval+2)^(0+128)
  3520  0278' 1283               	bcf	3,5	;RP0=0, select bank0
  3521  0279' 1303               	bcf	3,6	;RP1=0, select bank0
  3522  027A' 0809'              	movf	?___flmul+1,w
  3523  027B' 1683               	bsf	3,5	;RP0=1, select bank1
  3524  027C' 1303               	bcf	3,6	;RP1=0, select bank1
  3525  027D' 0080'              	movwf	(sprintf@tmpval+1)^(0+128)
  3526  027E' 1283               	bcf	3,5	;RP0=0, select bank0
  3527  027F' 1303               	bcf	3,6	;RP1=0, select bank0
  3528  0280' 0808'              	movf	?___flmul,w
  3529  0281' 1683               	bsf	3,5	;RP0=1, select bank1
  3530  0282' 1303               	bcf	3,6	;RP1=0, select bank1
  3531  0283' 0080'              	movwf	sprintf@tmpval^(0+128)
  3532  0284'                    l4479:
  3533                           
  3534                           ;C:\Program Files\Microchip\xc8\v2.31\pic\sources\c90\common\doprnt.c: 874:     if(tmpva
      +                          l.integ < 1.0)
  3535  0284' 0800'              	movf	(sprintf@tmpval+3)^(0+128),w
  3536  0285' 0085'              	movwf	___flge@ff1+3
  3537  0286' 0800'              	movf	(sprintf@tmpval+2)^(0+128),w
  3538  0287' 0084'              	movwf	___flge@ff1+2
  3539  0288' 0800'              	movf	(sprintf@tmpval+1)^(0+128),w
  3540  0289' 0083'              	movwf	___flge@ff1+1
  3541  028A' 0800'              	movf	sprintf@tmpval^(0+128),w
  3542  028B' 0082'              	movwf	___flge@ff1
  3543  028C' 303F               	movlw	63
  3544  028D' 0089'              	movwf	___flge@ff2+3
  3545  028E' 3080               	movlw	128
  3546  028F' 0088'              	movwf	___flge@ff2+2
  3547  0290' 3000               	movlw	0
  3548  0291' 0087'              	movwf	___flge@ff2+1
  3549  0292' 3000               	movlw	0
  3550  0293' 0086'              	movwf	___flge@ff2
  3551  0294' 120A' 118A' 2000' 120A' 118A' 	fcall	___flge
  3552  0299' 1803               	btfsc	3,0
  3553  029A' 2800'              	goto	u7261
  3554  029B' 2800'              	goto	u7260
  3555  029C'                    u7261:
  3556  029C' 2800'              	goto	l4483
  3557  029D'                    u7260:
  3558  029D'                    l4481:
  3559                           
  3560                           ;C:\Program Files\Microchip\xc8\v2.31\pic\sources\c90\common\doprnt.c: 875:      eexp--;
  3561  029D' 30FF               	movlw	255
  3562  029E' 1683               	bsf	3,5	;RP0=1, select bank1
  3563  029F' 1303               	bcf	3,6	;RP1=0, select bank1
  3564  02A0' 0780'              	addwf	sprintf@eexp^(0+128),f
  3565  02A1' 1803               	skipnc
  3566  02A2' 0A80'              	incf	(sprintf@eexp+1)^(0+128),f
  3567  02A3' 30FF               	movlw	255
  3568  02A4' 0780'              	addwf	(sprintf@eexp+1)^(0+128),f
  3569  02A5' 2800'              	goto	l4487
  3570  02A6'                    l4483:
  3571  02A6' 1683               	bsf	3,5	;RP0=1, select bank1
  3572  02A7' 1303               	bcf	3,6	;RP1=0, select bank1
  3573  02A8' 0800'              	movf	(sprintf@tmpval+3)^(0+128),w
  3574  02A9' 0085'              	movwf	___flge@ff1+3
  3575  02AA' 0800'              	movf	(sprintf@tmpval+2)^(0+128),w
  3576  02AB' 0084'              	movwf	___flge@ff1+2
  3577  02AC' 0800'              	movf	(sprintf@tmpval+1)^(0+128),w
  3578  02AD' 0083'              	movwf	___flge@ff1+1
  3579  02AE' 0800'              	movf	sprintf@tmpval^(0+128),w
  3580  02AF' 0082'              	movwf	___flge@ff1
  3581  02B0' 3041               	movlw	65
  3582  02B1' 0089'              	movwf	___flge@ff2+3
  3583  02B2' 3020               	movlw	32
  3584  02B3' 0088'              	movwf	___flge@ff2+2
  3585  02B4' 3000               	movlw	0
  3586  02B5' 0087'              	movwf	___flge@ff2+1
  3587  02B6' 3000               	movlw	0
  3588  02B7' 0086'              	movwf	___flge@ff2
  3589  02B8' 120A' 118A' 2000' 120A' 118A' 	fcall	___flge
  3590  02BD' 1C03               	btfss	3,0
  3591  02BE' 2800'              	goto	u7271
  3592  02BF' 2800'              	goto	u7270
  3593  02C0'                    u7271:
  3594  02C0' 2800'              	goto	l4487
  3595  02C1'                    u7270:
  3596  02C1'                    l4485:
  3597                           
  3598                           ;C:\Program Files\Microchip\xc8\v2.31\pic\sources\c90\common\doprnt.c: 877:      eexp++;
  3599  02C1' 3001               	movlw	1
  3600  02C2' 1683               	bsf	3,5	;RP0=1, select bank1
  3601  02C3' 1303               	bcf	3,6	;RP1=0, select bank1
  3602  02C4' 0780'              	addwf	sprintf@eexp^(0+128),f
  3603  02C5' 1803               	skipnc
  3604  02C6' 0A80'              	incf	(sprintf@eexp+1)^(0+128),f
  3605  02C7' 3000               	movlw	0
  3606  02C8' 0780'              	addwf	(sprintf@eexp+1)^(0+128),f
  3607  02C9'                    l4487:
  3608                           
  3609                           ;C:\Program Files\Microchip\xc8\v2.31\pic\sources\c90\common\doprnt.c: 1138:      if(pre
      +                          c <= 12)
  3610  02C9' 1683               	bsf	3,5	;RP0=1, select bank1
  3611  02CA' 1303               	bcf	3,6	;RP1=0, select bank1
  3612  02CB' 0800'              	movf	(sprintf@prec+1)^(0+128),w
  3613  02CC' 3A80               	xorlw	128
  3614  02CD' 00FF               	movwf	btemp+1
  3615  02CE' 3080               	movlw	128
  3616  02CF' 027F               	subwf	btemp+1,w
  3617  02D0' 1D03               	skipz
  3618  02D1' 2800'              	goto	u7285
  3619  02D2' 300D               	movlw	13
  3620  02D3' 0200'              	subwf	sprintf@prec^(0+128),w
  3621  02D4'                    u7285:
  3622  02D4' 1803               	skipnc
  3623  02D5' 2800'              	goto	u7281
  3624  02D6' 2800'              	goto	u7280
  3625  02D7'                    u7281:
  3626  02D7' 2800'              	goto	l4491
  3627  02D8'                    u7280:
  3628  02D8'                    l4489:
  3629                           
  3630                           ;C:\Program Files\Microchip\xc8\v2.31\pic\sources\c90\common\doprnt.c: 1139:       fval 
      +                          += fround((unsigned int)prec);
  3631  02D8' 1683               	bsf	3,5	;RP0=1, select bank1
  3632  02D9' 1303               	bcf	3,6	;RP1=0, select bank1
  3633  02DA' 0800'              	movf	sprintf@prec^(0+128),w
  3634  02DB' 120A' 118A' 2000' 120A' 118A' 	fcall	_fround
  3635  02E0' 1283               	bcf	3,5	;RP0=0, select bank0
  3636  02E1' 1303               	bcf	3,6	;RP1=0, select bank0
  3637  02E2' 0825'              	movf	?_fround+3,w
  3638  02E3' 00B9'              	movwf	___fladd@b+3
  3639  02E4' 0824'              	movf	?_fround+2,w
  3640  02E5' 00B8'              	movwf	___fladd@b+2
  3641  02E6' 0823'              	movf	?_fround+1,w
  3642  02E7' 00B7'              	movwf	___fladd@b+1
  3643  02E8' 0822'              	movf	?_fround,w
  3644  02E9' 00B6'              	movwf	___fladd@b
  3645  02EA' 1683               	bsf	3,5	;RP0=1, select bank1
  3646  02EB' 1303               	bcf	3,6	;RP1=0, select bank1
  3647  02EC' 0800'              	movf	(sprintf@fval+3)^(0+128),w
  3648  02ED' 1283               	bcf	3,5	;RP0=0, select bank0
  3649  02EE' 1303               	bcf	3,6	;RP1=0, select bank0
  3650  02EF' 00BD'              	movwf	___fladd@a+3
  3651  02F0' 1683               	bsf	3,5	;RP0=1, select bank1
  3652  02F1' 1303               	bcf	3,6	;RP1=0, select bank1
  3653  02F2' 0800'              	movf	(sprintf@fval+2)^(0+128),w
  3654  02F3' 1283               	bcf	3,5	;RP0=0, select bank0
  3655  02F4' 1303               	bcf	3,6	;RP1=0, select bank0
  3656  02F5' 00BC'              	movwf	___fladd@a+2
  3657  02F6' 1683               	bsf	3,5	;RP0=1, select bank1
  3658  02F7' 1303               	bcf	3,6	;RP1=0, select bank1
  3659  02F8' 0800'              	movf	(sprintf@fval+1)^(0+128),w
  3660  02F9' 1283               	bcf	3,5	;RP0=0, select bank0
  3661  02FA' 1303               	bcf	3,6	;RP1=0, select bank0
  3662  02FB' 00BB'              	movwf	___fladd@a+1
  3663  02FC' 1683               	bsf	3,5	;RP0=1, select bank1
  3664  02FD' 1303               	bcf	3,6	;RP1=0, select bank1
  3665  02FE' 0800'              	movf	sprintf@fval^(0+128),w
  3666  02FF' 1283               	bcf	3,5	;RP0=0, select bank0
  3667  0300' 1303               	bcf	3,6	;RP1=0, select bank0
  3668  0301' 00BA'              	movwf	___fladd@a
  3669  0302' 120A' 118A' 2000' 120A' 118A' 	fcall	___fladd
  3670  0307' 1283               	bcf	3,5	;RP0=0, select bank0
  3671  0308' 1303               	bcf	3,6	;RP1=0, select bank0
  3672  0309' 0839'              	movf	?___fladd+3,w
  3673  030A' 1683               	bsf	3,5	;RP0=1, select bank1
  3674  030B' 1303               	bcf	3,6	;RP1=0, select bank1
  3675  030C' 0080'              	movwf	(sprintf@fval+3)^(0+128)
  3676  030D' 1283               	bcf	3,5	;RP0=0, select bank0
  3677  030E' 1303               	bcf	3,6	;RP1=0, select bank0
  3678  030F' 0838'              	movf	?___fladd+2,w
  3679  0310' 1683               	bsf	3,5	;RP0=1, select bank1
  3680  0311' 1303               	bcf	3,6	;RP1=0, select bank1
  3681  0312' 0080'              	movwf	(sprintf@fval+2)^(0+128)
  3682  0313' 1283               	bcf	3,5	;RP0=0, select bank0
  3683  0314' 1303               	bcf	3,6	;RP1=0, select bank0
  3684  0315' 0837'              	movf	?___fladd+1,w
  3685  0316' 1683               	bsf	3,5	;RP0=1, select bank1
  3686  0317' 1303               	bcf	3,6	;RP1=0, select bank1
  3687  0318' 0080'              	movwf	(sprintf@fval+1)^(0+128)
  3688  0319' 1283               	bcf	3,5	;RP0=0, select bank0
  3689  031A' 1303               	bcf	3,6	;RP1=0, select bank0
  3690  031B' 0836'              	movf	?___fladd,w
  3691  031C' 1683               	bsf	3,5	;RP0=1, select bank1
  3692  031D' 1303               	bcf	3,6	;RP1=0, select bank1
  3693  031E' 0080'              	movwf	sprintf@fval^(0+128)
  3694  031F'                    l4491:
  3695                           
  3696                           ;C:\Program Files\Microchip\xc8\v2.31\pic\sources\c90\common\doprnt.c: 1142:     if((eex
      +                          p > 9)||(fval != 0 && (unsigned long)fval == 0 && eexp > 1)) {
  3697  031F' 1683               	bsf	3,5	;RP0=1, select bank1
  3698  0320' 1303               	bcf	3,6	;RP1=0, select bank1
  3699  0321' 0800'              	movf	(sprintf@eexp+1)^(0+128),w
  3700  0322' 3A80               	xorlw	128
  3701  0323' 00FF               	movwf	btemp+1
  3702  0324' 3080               	movlw	128
  3703  0325' 027F               	subwf	btemp+1,w
  3704  0326' 1D03               	skipz
  3705  0327' 2800'              	goto	u7295
  3706  0328' 300A               	movlw	10
  3707  0329' 0200'              	subwf	sprintf@eexp^(0+128),w
  3708  032A'                    u7295:
  3709  032A' 1803               	skipnc
  3710  032B' 2800'              	goto	u7291
  3711  032C' 2800'              	goto	u7290
  3712  032D'                    u7291:
  3713  032D' 2800'              	goto	l4499
  3714  032E'                    u7290:
  3715  032E'                    l4493:
  3716  032E' 1683               	bsf	3,5	;RP0=1, select bank1
  3717  032F' 1303               	bcf	3,6	;RP1=0, select bank1
  3718  0330' 0800'              	movf	(sprintf@fval+3)^(0+128),w
  3719  0331' 0085'              	movwf	___fleq@ff1+3
  3720  0332' 0800'              	movf	(sprintf@fval+2)^(0+128),w
  3721  0333' 0084'              	movwf	___fleq@ff1+2
  3722  0334' 0800'              	movf	(sprintf@fval+1)^(0+128),w
  3723  0335' 0083'              	movwf	___fleq@ff1+1
  3724  0336' 0800'              	movf	sprintf@fval^(0+128),w
  3725  0337' 0082'              	movwf	___fleq@ff1
  3726  0338' 3000               	movlw	0
  3727  0339' 0089'              	movwf	___fleq@ff2+3
  3728  033A' 3000               	movlw	0
  3729  033B' 0088'              	movwf	___fleq@ff2+2
  3730  033C' 3000               	movlw	0
  3731  033D' 0087'              	movwf	___fleq@ff2+1
  3732  033E' 3000               	movlw	0
  3733  033F' 0086'              	movwf	___fleq@ff2
  3734  0340' 120A' 118A' 2000' 120A' 118A' 	fcall	___fleq
  3735  0345' 1803               	btfsc	3,0
  3736  0346' 2800'              	goto	u7301
  3737  0347' 2800'              	goto	u7300
  3738  0348'                    u7301:
  3739  0348' 2800'              	goto	l4513
  3740  0349'                    u7300:
  3741  0349'                    l4495:
  3742  0349' 1683               	bsf	3,5	;RP0=1, select bank1
  3743  034A' 1303               	bcf	3,6	;RP1=0, select bank1
  3744  034B' 0800'              	movf	(sprintf@fval+3)^(0+128),w
  3745  034C' 1283               	bcf	3,5	;RP0=0, select bank0
  3746  034D' 1303               	bcf	3,6	;RP1=0, select bank0
  3747  034E' 00B8'              	movwf	___fltol@f1+3
  3748  034F' 1683               	bsf	3,5	;RP0=1, select bank1
  3749  0350' 1303               	bcf	3,6	;RP1=0, select bank1
  3750  0351' 0800'              	movf	(sprintf@fval+2)^(0+128),w
  3751  0352' 1283               	bcf	3,5	;RP0=0, select bank0
  3752  0353' 1303               	bcf	3,6	;RP1=0, select bank0
  3753  0354' 00B7'              	movwf	___fltol@f1+2
  3754  0355' 1683               	bsf	3,5	;RP0=1, select bank1
  3755  0356' 1303               	bcf	3,6	;RP1=0, select bank1
  3756  0357' 0800'              	movf	(sprintf@fval+1)^(0+128),w
  3757  0358' 1283               	bcf	3,5	;RP0=0, select bank0
  3758  0359' 1303               	bcf	3,6	;RP1=0, select bank0
  3759  035A' 00B6'              	movwf	___fltol@f1+1
  3760  035B' 1683               	bsf	3,5	;RP0=1, select bank1
  3761  035C' 1303               	bcf	3,6	;RP1=0, select bank1
  3762  035D' 0800'              	movf	sprintf@fval^(0+128),w
  3763  035E' 1283               	bcf	3,5	;RP0=0, select bank0
  3764  035F' 1303               	bcf	3,6	;RP1=0, select bank0
  3765  0360' 00B5'              	movwf	___fltol@f1
  3766  0361' 120A' 118A' 2000' 120A' 118A' 	fcall	___fltol
  3767  0366' 1283               	bcf	3,5	;RP0=0, select bank0
  3768  0367' 1303               	bcf	3,6	;RP1=0, select bank0
  3769  0368' 0838'              	movf	?___fltol+3,w
  3770  0369' 0437'              	iorwf	?___fltol+2,w
  3771  036A' 0436'              	iorwf	?___fltol+1,w
  3772  036B' 0435'              	iorwf	?___fltol,w
  3773  036C' 1D03               	skipz
  3774  036D' 2800'              	goto	u7311
  3775  036E' 2800'              	goto	u7310
  3776  036F'                    u7311:
  3777  036F' 2800'              	goto	l4513
  3778  0370'                    u7310:
  3779  0370'                    l4497:
  3780  0370' 1683               	bsf	3,5	;RP0=1, select bank1
  3781  0371' 1303               	bcf	3,6	;RP1=0, select bank1
  3782  0372' 0800'              	movf	(sprintf@eexp+1)^(0+128),w
  3783  0373' 3A80               	xorlw	128
  3784  0374' 00FF               	movwf	btemp+1
  3785  0375' 3080               	movlw	128
  3786  0376' 027F               	subwf	btemp+1,w
  3787  0377' 1D03               	skipz
  3788  0378' 2800'              	goto	u7325
  3789  0379' 3002               	movlw	2
  3790  037A' 0200'              	subwf	sprintf@eexp^(0+128),w
  3791  037B'                    u7325:
  3792  037B' 1C03               	skipc
  3793  037C' 2800'              	goto	u7321
  3794  037D' 2800'              	goto	u7320
  3795  037E'                    u7321:
  3796  037E' 2800'              	goto	l4513
  3797  037F'                    u7320:
  3798  037F'                    l4499:
  3799                           
  3800                           ;C:\Program Files\Microchip\xc8\v2.31\pic\sources\c90\common\doprnt.c: 1146:      if(tmp
      +                          val.integ < 4.294967296){
  3801  037F' 1683               	bsf	3,5	;RP0=1, select bank1
  3802  0380' 1303               	bcf	3,6	;RP1=0, select bank1
  3803  0381' 0800'              	movf	(sprintf@tmpval+3)^(0+128),w
  3804  0382' 0085'              	movwf	___flge@ff1+3
  3805  0383' 0800'              	movf	(sprintf@tmpval+2)^(0+128),w
  3806  0384' 0084'              	movwf	___flge@ff1+2
  3807  0385' 0800'              	movf	(sprintf@tmpval+1)^(0+128),w
  3808  0386' 0083'              	movwf	___flge@ff1+1
  3809  0387' 0800'              	movf	sprintf@tmpval^(0+128),w
  3810  0388' 0082'              	movwf	___flge@ff1
  3811  0389' 3040               	movlw	64
  3812  038A' 0089'              	movwf	___flge@ff2+3
  3813  038B' 3089               	movlw	137
  3814  038C' 0088'              	movwf	___flge@ff2+2
  3815  038D' 3070               	movlw	112
  3816  038E' 0087'              	movwf	___flge@ff2+1
  3817  038F' 305F               	movlw	95
  3818  0390' 0086'              	movwf	___flge@ff2
  3819  0391' 120A' 118A' 2000' 120A' 118A' 	fcall	___flge
  3820  0396' 1803               	btfsc	3,0
  3821  0397' 2800'              	goto	u7331
  3822  0398' 2800'              	goto	u7330
  3823  0399'                    u7331:
  3824  0399' 2800'              	goto	l4503
  3825  039A'                    u7330:
  3826  039A'                    l4501:
  3827                           
  3828                           ;C:\Program Files\Microchip\xc8\v2.31\pic\sources\c90\common\doprnt.c: 1147:       eexp 
      +                          -= (sizeof dpowers/sizeof dpowers[0])-1;
  3829  039A' 30F7               	movlw	247
  3830  039B' 1683               	bsf	3,5	;RP0=1, select bank1
  3831  039C' 1303               	bcf	3,6	;RP1=0, select bank1
  3832  039D' 0780'              	addwf	sprintf@eexp^(0+128),f
  3833  039E' 1803               	skipnc
  3834  039F' 0A80'              	incf	(sprintf@eexp+1)^(0+128),f
  3835  03A0' 30FF               	movlw	255
  3836  03A1' 0780'              	addwf	(sprintf@eexp+1)^(0+128),f
  3837                           
  3838                           ;C:\Program Files\Microchip\xc8\v2.31\pic\sources\c90\common\doprnt.c: 1148:      }else{
  3839  03A2' 2800'              	goto	l4505
  3840  03A3'                    l4503:
  3841                           
  3842                           ;C:\Program Files\Microchip\xc8\v2.31\pic\sources\c90\common\doprnt.c: 1149:       eexp 
      +                          -= (sizeof dpowers/sizeof dpowers[0])-2;
  3843  03A3' 30F8               	movlw	248
  3844  03A4' 1683               	bsf	3,5	;RP0=1, select bank1
  3845  03A5' 1303               	bcf	3,6	;RP1=0, select bank1
  3846  03A6' 0780'              	addwf	sprintf@eexp^(0+128),f
  3847  03A7' 1803               	skipnc
  3848  03A8' 0A80'              	incf	(sprintf@eexp+1)^(0+128),f
  3849  03A9' 30FF               	movlw	255
  3850  03AA' 0780'              	addwf	(sprintf@eexp+1)^(0+128),f
  3851  03AB'                    l4505:
  3852                           
  3853                           ;C:\Program Files\Microchip\xc8\v2.31\pic\sources\c90\common\doprnt.c: 1152:      val = 
      +                          ((sizeof(double)== 3) ? _tdiv_to_l_(fval,tmpval.integ) : _div_to_l_(fval,tmpval.integ));
  3854  03AB' 0800'              	movf	sprintf@eexp^(0+128),w
  3855  03AC' 120A' 118A' 2000' 120A' 118A' 	fcall	_scale
  3856  03B1' 1283               	bcf	3,5	;RP0=0, select bank0
  3857  03B2' 1303               	bcf	3,6	;RP1=0, select bank0
  3858  03B3' 0825'              	movf	?_scale+3,w
  3859  03B4' 1683               	bsf	3,5	;RP0=1, select bank1
  3860  03B5' 1303               	bcf	3,6	;RP1=0, select bank1
  3861  03B6' 0080'              	movwf	(sprintf@tmpval+3)^(0+128)
  3862  03B7' 1283               	bcf	3,5	;RP0=0, select bank0
  3863  03B8' 1303               	bcf	3,6	;RP1=0, select bank0
  3864  03B9' 0824'              	movf	?_scale+2,w
  3865  03BA' 1683               	bsf	3,5	;RP0=1, select bank1
  3866  03BB' 1303               	bcf	3,6	;RP1=0, select bank1
  3867  03BC' 0080'              	movwf	(sprintf@tmpval+2)^(0+128)
  3868  03BD' 1283               	bcf	3,5	;RP0=0, select bank0
  3869  03BE' 1303               	bcf	3,6	;RP1=0, select bank0
  3870  03BF' 0823'              	movf	?_scale+1,w
  3871  03C0' 1683               	bsf	3,5	;RP0=1, select bank1
  3872  03C1' 1303               	bcf	3,6	;RP1=0, select bank1
  3873  03C2' 0080'              	movwf	(sprintf@tmpval+1)^(0+128)
  3874  03C3' 1283               	bcf	3,5	;RP0=0, select bank0
  3875  03C4' 1303               	bcf	3,6	;RP1=0, select bank0
  3876  03C5' 0822'              	movf	?_scale,w
  3877  03C6' 1683               	bsf	3,5	;RP0=1, select bank1
  3878  03C7' 1303               	bcf	3,6	;RP1=0, select bank1
  3879  03C8' 0080'              	movwf	sprintf@tmpval^(0+128)
  3880  03C9'                    l4507:
  3881  03C9' 0800'              	movf	(sprintf@fval+3)^(0+128),w
  3882  03CA' 0085'              	movwf	__div_to_l_@f1+3
  3883  03CB' 0800'              	movf	(sprintf@fval+2)^(0+128),w
  3884  03CC' 0084'              	movwf	__div_to_l_@f1+2
  3885  03CD' 0800'              	movf	(sprintf@fval+1)^(0+128),w
  3886  03CE' 0083'              	movwf	__div_to_l_@f1+1
  3887  03CF' 0800'              	movf	sprintf@fval^(0+128),w
  3888  03D0' 0082'              	movwf	__div_to_l_@f1
  3889  03D1' 0800'              	movf	(sprintf@tmpval+3)^(0+128),w
  3890  03D2' 0089'              	movwf	__div_to_l_@f2+3
  3891  03D3' 0800'              	movf	(sprintf@tmpval+2)^(0+128),w
  3892  03D4' 0088'              	movwf	__div_to_l_@f2+2
  3893  03D5' 0800'              	movf	(sprintf@tmpval+1)^(0+128),w
  3894  03D6' 0087'              	movwf	__div_to_l_@f2+1
  3895  03D7' 0800'              	movf	sprintf@tmpval^(0+128),w
  3896  03D8' 0086'              	movwf	__div_to_l_@f2
  3897  03D9' 120A' 118A' 2000' 120A' 118A' 	fcall	__div_to_l_
  3898  03DE' 0805'              	movf	?__div_to_l_+3,w
  3899  03DF' 1683               	bsf	3,5	;RP0=1, select bank1
  3900  03E0' 1303               	bcf	3,6	;RP1=0, select bank1
  3901  03E1' 0080'              	movwf	(sprintf@val+3)^(0+128)
  3902  03E2' 0804'              	movf	?__div_to_l_+2,w
  3903  03E3' 0080'              	movwf	(sprintf@val+2)^(0+128)
  3904  03E4' 0803'              	movf	?__div_to_l_+1,w
  3905  03E5' 0080'              	movwf	(sprintf@val+1)^(0+128)
  3906  03E6' 0802'              	movf	?__div_to_l_,w
  3907  03E7' 0080'              	movwf	sprintf@val^(0+128)
  3908  03E8'                    l4511:
  3909                           
  3910                           ;C:\Program Files\Microchip\xc8\v2.31\pic\sources\c90\common\doprnt.c: 1155:      fval =
      +                           0.0;
  3911  03E8' 3000               	movlw	0
  3912  03E9' 0080'              	movwf	(sprintf@fval+3)^(0+128)
  3913  03EA' 3000               	movlw	0
  3914  03EB' 0080'              	movwf	(sprintf@fval+2)^(0+128)
  3915  03EC' 3000               	movlw	0
  3916  03ED' 0080'              	movwf	(sprintf@fval+1)^(0+128)
  3917  03EE' 3000               	movlw	0
  3918  03EF' 0080'              	movwf	sprintf@fval^(0+128)
  3919                           
  3920                           ;C:\Program Files\Microchip\xc8\v2.31\pic\sources\c90\common\doprnt.c: 1156:     } else 
      +                          {
  3921  03F0' 2800'              	goto	l4519
  3922  03F1'                    l4513:
  3923                           
  3924                           ;C:\Program Files\Microchip\xc8\v2.31\pic\sources\c90\common\doprnt.c: 1157:      val = 
      +                          (unsigned long)fval;
  3925  03F1' 1683               	bsf	3,5	;RP0=1, select bank1
  3926  03F2' 1303               	bcf	3,6	;RP1=0, select bank1
  3927  03F3' 0800'              	movf	(sprintf@fval+3)^(0+128),w
  3928  03F4' 1283               	bcf	3,5	;RP0=0, select bank0
  3929  03F5' 1303               	bcf	3,6	;RP1=0, select bank0
  3930  03F6' 00B8'              	movwf	___fltol@f1+3
  3931  03F7' 1683               	bsf	3,5	;RP0=1, select bank1
  3932  03F8' 1303               	bcf	3,6	;RP1=0, select bank1
  3933  03F9' 0800'              	movf	(sprintf@fval+2)^(0+128),w
  3934  03FA' 1283               	bcf	3,5	;RP0=0, select bank0
  3935  03FB' 1303               	bcf	3,6	;RP1=0, select bank0
  3936  03FC' 00B7'              	movwf	___fltol@f1+2
  3937  03FD' 1683               	bsf	3,5	;RP0=1, select bank1
  3938  03FE' 1303               	bcf	3,6	;RP1=0, select bank1
  3939  03FF' 0800'              	movf	(sprintf@fval+1)^(0+128),w
  3940  0400' 1283               	bcf	3,5	;RP0=0, select bank0
  3941  0401' 1303               	bcf	3,6	;RP1=0, select bank0
  3942  0402' 00B6'              	movwf	___fltol@f1+1
  3943  0403' 1683               	bsf	3,5	;RP0=1, select bank1
  3944  0404' 1303               	bcf	3,6	;RP1=0, select bank1
  3945  0405' 0800'              	movf	sprintf@fval^(0+128),w
  3946  0406' 1283               	bcf	3,5	;RP0=0, select bank0
  3947  0407' 1303               	bcf	3,6	;RP1=0, select bank0
  3948  0408' 00B5'              	movwf	___fltol@f1
  3949  0409' 120A' 118A' 2000' 120A' 118A' 	fcall	___fltol
  3950  040E' 1283               	bcf	3,5	;RP0=0, select bank0
  3951  040F' 1303               	bcf	3,6	;RP1=0, select bank0
  3952  0410' 0838'              	movf	?___fltol+3,w
  3953  0411' 1683               	bsf	3,5	;RP0=1, select bank1
  3954  0412' 1303               	bcf	3,6	;RP1=0, select bank1
  3955  0413' 0080'              	movwf	(sprintf@val+3)^(0+128)
  3956  0414' 1283               	bcf	3,5	;RP0=0, select bank0
  3957  0415' 1303               	bcf	3,6	;RP1=0, select bank0
  3958  0416' 0837'              	movf	?___fltol+2,w
  3959  0417' 1683               	bsf	3,5	;RP0=1, select bank1
  3960  0418' 1303               	bcf	3,6	;RP1=0, select bank1
  3961  0419' 0080'              	movwf	(sprintf@val+2)^(0+128)
  3962  041A' 1283               	bcf	3,5	;RP0=0, select bank0
  3963  041B' 1303               	bcf	3,6	;RP1=0, select bank0
  3964  041C' 0836'              	movf	?___fltol+1,w
  3965  041D' 1683               	bsf	3,5	;RP0=1, select bank1
  3966  041E' 1303               	bcf	3,6	;RP1=0, select bank1
  3967  041F' 0080'              	movwf	(sprintf@val+1)^(0+128)
  3968  0420' 1283               	bcf	3,5	;RP0=0, select bank0
  3969  0421' 1303               	bcf	3,6	;RP1=0, select bank0
  3970  0422' 0835'              	movf	?___fltol,w
  3971  0423' 1683               	bsf	3,5	;RP0=1, select bank1
  3972  0424' 1303               	bcf	3,6	;RP1=0, select bank1
  3973  0425' 0080'              	movwf	sprintf@val^(0+128)
  3974  0426'                    l4515:
  3975                           
  3976                           ;C:\Program Files\Microchip\xc8\v2.31\pic\sources\c90\common\doprnt.c: 1158:      fval -
      +                          = (double)val;
  3977  0426' 0800'              	movf	(sprintf@val+3)^(0+128),w
  3978  0427' 0085'              	movwf	___xxtofl@val+3
  3979  0428' 0800'              	movf	(sprintf@val+2)^(0+128),w
  3980  0429' 0084'              	movwf	___xxtofl@val+2
  3981  042A' 0800'              	movf	(sprintf@val+1)^(0+128),w
  3982  042B' 0083'              	movwf	___xxtofl@val+1
  3983  042C' 0800'              	movf	sprintf@val^(0+128),w
  3984  042D' 0082'              	movwf	___xxtofl@val
  3985  042E' 3000               	movlw	0
  3986  042F' 120A' 118A' 2000' 120A' 118A' 	fcall	___xxtofl
  3987  0434' 0805'              	movf	?___xxtofl+3,w
  3988  0435' 1683               	bsf	3,5	;RP0=1, select bank1
  3989  0436' 1303               	bcf	3,6	;RP1=0, select bank1
  3990  0437' 0080'              	movwf	(___flsub@a+3)^(0+128)
  3991  0438' 0804'              	movf	?___xxtofl+2,w
  3992  0439' 0080'              	movwf	(___flsub@a+2)^(0+128)
  3993  043A' 0803'              	movf	?___xxtofl+1,w
  3994  043B' 0080'              	movwf	(___flsub@a+1)^(0+128)
  3995  043C' 0802'              	movf	?___xxtofl,w
  3996  043D' 0080'              	movwf	___flsub@a^(0+128)
  3997  043E' 0800'              	movf	(sprintf@fval+3)^(0+128),w
  3998  043F' 0080'              	movwf	(___flsub@b+3)^(0+128)
  3999  0440' 0800'              	movf	(sprintf@fval+2)^(0+128),w
  4000  0441' 0080'              	movwf	(___flsub@b+2)^(0+128)
  4001  0442' 0800'              	movf	(sprintf@fval+1)^(0+128),w
  4002  0443' 0080'              	movwf	(___flsub@b+1)^(0+128)
  4003  0444' 0800'              	movf	sprintf@fval^(0+128),w
  4004  0445' 0080'              	movwf	___flsub@b^(0+128)
  4005  0446' 120A' 118A' 2000' 120A' 118A' 	fcall	___flsub
  4006  044B' 1683               	bsf	3,5	;RP0=1, select bank1
  4007  044C' 1303               	bcf	3,6	;RP1=0, select bank1
  4008  044D' 0800'              	movf	(?___flsub+3)^(0+128),w
  4009  044E' 0080'              	movwf	(sprintf@fval+3)^(0+128)
  4010  044F' 0800'              	movf	(?___flsub+2)^(0+128),w
  4011  0450' 0080'              	movwf	(sprintf@fval+2)^(0+128)
  4012  0451' 0800'              	movf	(?___flsub+1)^(0+128),w
  4013  0452' 0080'              	movwf	(sprintf@fval+1)^(0+128)
  4014  0453' 0800'              	movf	?___flsub^(0+128),w
  4015  0454' 0080'              	movwf	sprintf@fval^(0+128)
  4016  0455'                    l4517:
  4017                           
  4018                           ;C:\Program Files\Microchip\xc8\v2.31\pic\sources\c90\common\doprnt.c: 1159:      eexp =
      +                           0;
  4019  0455' 0180'              	clrf	sprintf@eexp^(0+128)
  4020  0456' 0180'              	clrf	(sprintf@eexp+1)^(0+128)
  4021  0457'                    l4519:
  4022                           
  4023                           ;C:\Program Files\Microchip\xc8\v2.31\pic\sources\c90\common\doprnt.c: 1162:     for(c =
      +                           1 ; c != (sizeof dpowers/sizeof dpowers[0]) ; c++)
  4024  0457' 0180'              	clrf	sprintf@c^(0+128)
  4025  0458' 0A80'              	incf	sprintf@c^(0+128),f
  4026  0459'                    l4521:
  4027  0459' 300A               	movlw	10
  4028  045A' 0600'              	xorwf	sprintf@c^(0+128),w
  4029  045B' 1D03               	btfss	3,2
  4030  045C' 2800'              	goto	u7341
  4031  045D' 2800'              	goto	u7340
  4032  045E'                    u7341:
  4033  045E' 2800'              	goto	l4525
  4034  045F'                    u7340:
  4035  045F' 2800'              	goto	l4531
  4036  0460'                    l4525:
  4037                           
  4038                           ;C:\Program Files\Microchip\xc8\v2.31\pic\sources\c90\common\doprnt.c: 1163:      if(val
      +                           < dpowers[c])
  4039  0460' 0800'              	movf	sprintf@c^(0+128),w
  4040  0461' 1283               	bcf	3,5	;RP0=0, select bank0
  4041  0462' 1303               	bcf	3,6	;RP1=0, select bank0
  4042  0463' 00CA'              	movwf	??_sprintf
  4043  0464' 3001               	movlw	1
  4044  0465'                    u7355:
  4045  0465' 1003               	clrc
  4046  0466' 0DCA'              	rlf	??_sprintf,f
  4047  0467' 3EFF               	addlw	-1
  4048  0468' 1D03               	skipz
  4049  0469' 2800'              	goto	u7355
  4050  046A' 1003               	clrc
  4051  046B' 0D4A'              	rlf	??_sprintf,w
  4052  046C' 3E00'              	addlw	low (_dpowers| (0+32768))
  4053  046D' 0084               	movwf	4
  4054  046E' 3000'              	movlw	high (_dpowers| (0+32768))
  4055  046F' 1803               	skipnc
  4056  0470' 3E01               	addlw	1
  4057  0471' 00FF               	movwf	btemp+1
  4058  0472' 120A' 118A' 2000' 120A' 118A' 	fcall	stringtab
  4059  0477' 00CB'              	movwf	??_sprintf+1
  4060  0478' 120A' 118A' 2000' 120A' 118A' 	fcall	stringtab
  4061  047D' 00CC'              	movwf	??_sprintf+2
  4062  047E' 120A' 118A' 2000' 120A' 118A' 	fcall	stringtab
  4063  0483' 00CD'              	movwf	??_sprintf+3
  4064  0484' 120A' 118A' 2000' 120A' 118A' 	fcall	stringtab
  4065  0489' 00CE'              	movwf	??_sprintf+4
  4066  048A' 084E'              	movf	??_sprintf+4,w
  4067  048B' 1683               	bsf	3,5	;RP0=1, select bank1
  4068  048C' 1303               	bcf	3,6	;RP1=0, select bank1
  4069  048D' 0200'              	subwf	(sprintf@val+3)^(0+128),w
  4070  048E' 1D03               	skipz
  4071  048F' 2800'              	goto	u7365
  4072  0490' 1283               	bcf	3,5	;RP0=0, select bank0
  4073  0491' 1303               	bcf	3,6	;RP1=0, select bank0
  4074  0492' 084D'              	movf	??_sprintf+3,w
  4075  0493' 1683               	bsf	3,5	;RP0=1, select bank1
  4076  0494' 1303               	bcf	3,6	;RP1=0, select bank1
  4077  0495' 0200'              	subwf	(sprintf@val+2)^(0+128),w
  4078  0496' 1D03               	skipz
  4079  0497' 2800'              	goto	u7365
  4080  0498' 1283               	bcf	3,5	;RP0=0, select bank0
  4081  0499' 1303               	bcf	3,6	;RP1=0, select bank0
  4082  049A' 084C'              	movf	??_sprintf+2,w
  4083  049B' 1683               	bsf	3,5	;RP0=1, select bank1
  4084  049C' 1303               	bcf	3,6	;RP1=0, select bank1
  4085  049D' 0200'              	subwf	(sprintf@val+1)^(0+128),w
  4086  049E' 1D03               	skipz
  4087  049F' 2800'              	goto	u7365
  4088  04A0' 1283               	bcf	3,5	;RP0=0, select bank0
  4089  04A1' 1303               	bcf	3,6	;RP1=0, select bank0
  4090  04A2' 084B'              	movf	??_sprintf+1,w
  4091  04A3' 1683               	bsf	3,5	;RP0=1, select bank1
  4092  04A4' 1303               	bcf	3,6	;RP1=0, select bank1
  4093  04A5' 0200'              	subwf	sprintf@val^(0+128),w
  4094  04A6'                    u7365:
  4095  04A6' 1803               	skipnc
  4096  04A7' 2800'              	goto	u7361
  4097  04A8' 2800'              	goto	u7360
  4098  04A9'                    u7361:
  4099  04A9' 2800'              	goto	l4529
  4100  04AA'                    u7360:
  4101  04AA' 2800'              	goto	l4531
  4102  04AB'                    l4529:
  4103  04AB' 3001               	movlw	1
  4104  04AC' 1283               	bcf	3,5	;RP0=0, select bank0
  4105  04AD' 1303               	bcf	3,6	;RP1=0, select bank0
  4106  04AE' 00CA'              	movwf	??_sprintf
  4107  04AF' 084A'              	movf	??_sprintf,w
  4108  04B0' 1683               	bsf	3,5	;RP0=1, select bank1
  4109  04B1' 1303               	bcf	3,6	;RP1=0, select bank1
  4110  04B2' 0780'              	addwf	sprintf@c^(0+128),f
  4111  04B3' 300A               	movlw	10
  4112  04B4' 0600'              	xorwf	sprintf@c^(0+128),w
  4113  04B5' 1D03               	btfss	3,2
  4114  04B6' 2800'              	goto	u7371
  4115  04B7' 2800'              	goto	u7370
  4116  04B8'                    u7371:
  4117  04B8' 2800'              	goto	l4525
  4118  04B9'                    u7370:
  4119  04B9'                    l4531:
  4120                           
  4121                           ;C:\Program Files\Microchip\xc8\v2.31\pic\sources\c90\common\doprnt.c: 1201:     {;C:\Pr
      +                          ogram Files\Microchip\xc8\v2.31\pic\sources\c90\common\doprnt.c: 1214:     if(flag & 0x0
      +                          3)
  4122  04B9' 3003               	movlw	3
  4123  04BA' 0500'              	andwf	sprintf@flag^(0+128),w
  4124  04BB' 1283               	bcf	3,5	;RP0=0, select bank0
  4125  04BC' 1303               	bcf	3,6	;RP1=0, select bank0
  4126  04BD' 00CA'              	movwf	??_sprintf
  4127  04BE' 3000               	movlw	0
  4128  04BF' 1683               	bsf	3,5	;RP0=1, select bank1
  4129  04C0' 1303               	bcf	3,6	;RP1=0, select bank1
  4130  04C1' 0500'              	andwf	(sprintf@flag+1)^(0+128),w
  4131  04C2' 1283               	bcf	3,5	;RP0=0, select bank0
  4132  04C3' 1303               	bcf	3,6	;RP1=0, select bank0
  4133  04C4' 00CB'              	movwf	??_sprintf+1
  4134  04C5' 084A'              	movf	??_sprintf,w
  4135  04C6' 044B'              	iorwf	??_sprintf+1,w
  4136  04C7' 1903               	btfsc	3,2
  4137  04C8' 2800'              	goto	u7381
  4138  04C9' 2800'              	goto	u7380
  4139  04CA'                    u7381:
  4140  04CA' 2800'              	goto	l4545
  4141  04CB'                    u7380:
  4142  04CB'                    l4533:
  4143                           
  4144                           ;C:\Program Files\Microchip\xc8\v2.31\pic\sources\c90\common\doprnt.c: 1216:      ((*sp+
      +                          + = ('-')));
  4145  04CB' 302D               	movlw	45
  4146  04CC' 00CA'              	movwf	??_sprintf
  4147  04CD' 1683               	bsf	3,5	;RP0=1, select bank1
  4148  04CE' 1303               	bcf	3,6	;RP1=0, select bank1
  4149  04CF' 0800'              	movf	sprintf@sp^(0+128),w
  4150  04D0' 0084               	movwf	4
  4151  04D1' 1283               	bcf	3,5	;RP0=0, select bank0
  4152  04D2' 1303               	bcf	3,6	;RP1=0, select bank0
  4153  04D3' 084A'              	movf	??_sprintf,w
  4154  04D4' 1783               	bsf	3,7	;select IRP bank2
  4155  04D5' 0080               	movwf	0
  4156  04D6'                    l4535:
  4157  04D6' 3001               	movlw	1
  4158  04D7' 00CA'              	movwf	??_sprintf
  4159  04D8' 084A'              	movf	??_sprintf,w
  4160  04D9' 1683               	bsf	3,5	;RP0=1, select bank1
  4161  04DA' 1303               	bcf	3,6	;RP1=0, select bank1
  4162  04DB' 0780'              	addwf	sprintf@sp^(0+128),f
  4163  04DC' 2800'              	goto	l4545
  4164  04DD'                    l4537:
  4165                           
  4166                           ;C:\Program Files\Microchip\xc8\v2.31\pic\sources\c90\common\doprnt.c: 1226:     {;C:\Pr
      +                          ogram Files\Microchip\xc8\v2.31\pic\sources\c90\common\doprnt.c: 1227:      tmpval.vd = 
      +                          val/dpowers[c];
  4167  04DD' 0800'              	movf	sprintf@c^(0+128),w
  4168  04DE' 1283               	bcf	3,5	;RP0=0, select bank0
  4169  04DF' 1303               	bcf	3,6	;RP1=0, select bank0
  4170  04E0' 00CA'              	movwf	??_sprintf
  4171  04E1' 3001               	movlw	1
  4172  04E2'                    u7395:
  4173  04E2' 1003               	clrc
  4174  04E3' 0DCA'              	rlf	??_sprintf,f
  4175  04E4' 3EFF               	addlw	-1
  4176  04E5' 1D03               	skipz
  4177  04E6' 2800'              	goto	u7395
  4178  04E7' 1003               	clrc
  4179  04E8' 0D4A'              	rlf	??_sprintf,w
  4180  04E9' 3E00'              	addlw	low (_dpowers| (0+32768))
  4181  04EA' 0084               	movwf	4
  4182  04EB' 3000'              	movlw	high (_dpowers| (0+32768))
  4183  04EC' 1803               	skipnc
  4184  04ED' 3E01               	addlw	1
  4185  04EE' 00FF               	movwf	btemp+1
  4186  04EF' 120A' 118A' 2000' 120A' 118A' 	fcall	stringtab
  4187  04F4' 0082'              	movwf	___lldiv@divisor
  4188  04F5' 120A' 118A' 2000' 120A' 118A' 	fcall	stringtab
  4189  04FA' 0083'              	movwf	___lldiv@divisor+1
  4190  04FB' 120A' 118A' 2000' 120A' 118A' 	fcall	stringtab
  4191  0500' 0084'              	movwf	___lldiv@divisor+2
  4192  0501' 120A' 118A' 2000' 120A' 118A' 	fcall	stringtab
  4193  0506' 0085'              	movwf	___lldiv@divisor+3
  4194  0507' 1683               	bsf	3,5	;RP0=1, select bank1
  4195  0508' 1303               	bcf	3,6	;RP1=0, select bank1
  4196  0509' 0800'              	movf	(sprintf@val+3)^(0+128),w
  4197  050A' 0089'              	movwf	___lldiv@dividend+3
  4198  050B' 0800'              	movf	(sprintf@val+2)^(0+128),w
  4199  050C' 0088'              	movwf	___lldiv@dividend+2
  4200  050D' 0800'              	movf	(sprintf@val+1)^(0+128),w
  4201  050E' 0087'              	movwf	___lldiv@dividend+1
  4202  050F' 0800'              	movf	sprintf@val^(0+128),w
  4203  0510' 0086'              	movwf	___lldiv@dividend
  4204  0511' 120A' 118A' 2000' 120A' 118A' 	fcall	___lldiv
  4205  0516' 0805'              	movf	?___lldiv+3,w
  4206  0517' 1683               	bsf	3,5	;RP0=1, select bank1
  4207  0518' 1303               	bcf	3,6	;RP1=0, select bank1
  4208  0519' 0080'              	movwf	(sprintf@tmpval+3)^(0+128)
  4209  051A' 0804'              	movf	?___lldiv+2,w
  4210  051B' 0080'              	movwf	(sprintf@tmpval+2)^(0+128)
  4211  051C' 0803'              	movf	?___lldiv+1,w
  4212  051D' 0080'              	movwf	(sprintf@tmpval+1)^(0+128)
  4213  051E' 0802'              	movf	?___lldiv,w
  4214  051F' 0080'              	movwf	sprintf@tmpval^(0+128)
  4215  0520'                    l4539:
  4216                           
  4217                           ;C:\Program Files\Microchip\xc8\v2.31\pic\sources\c90\common\doprnt.c: 1228:      tmpval
      +                          .vd %= 10;
  4218  0520' 3000               	movlw	0
  4219  0521' 0085'              	movwf	___llmod@divisor+3
  4220  0522' 3000               	movlw	0
  4221  0523' 0084'              	movwf	___llmod@divisor+2
  4222  0524' 3000               	movlw	0
  4223  0525' 0083'              	movwf	___llmod@divisor+1
  4224  0526' 300A               	movlw	10
  4225  0527' 0082'              	movwf	___llmod@divisor
  4226  0528' 0800'              	movf	(sprintf@tmpval+3)^(0+128),w
  4227  0529' 0089'              	movwf	___llmod@dividend+3
  4228  052A' 0800'              	movf	(sprintf@tmpval+2)^(0+128),w
  4229  052B' 0088'              	movwf	___llmod@dividend+2
  4230  052C' 0800'              	movf	(sprintf@tmpval+1)^(0+128),w
  4231  052D' 0087'              	movwf	___llmod@dividend+1
  4232  052E' 0800'              	movf	sprintf@tmpval^(0+128),w
  4233  052F' 0086'              	movwf	___llmod@dividend
  4234  0530' 120A' 118A' 2000' 120A' 118A' 	fcall	___llmod
  4235  0535' 0805'              	movf	?___llmod+3,w
  4236  0536' 1683               	bsf	3,5	;RP0=1, select bank1
  4237  0537' 1303               	bcf	3,6	;RP1=0, select bank1
  4238  0538' 0080'              	movwf	(sprintf@tmpval+3)^(0+128)
  4239  0539' 0804'              	movf	?___llmod+2,w
  4240  053A' 0080'              	movwf	(sprintf@tmpval+2)^(0+128)
  4241  053B' 0803'              	movf	?___llmod+1,w
  4242  053C' 0080'              	movwf	(sprintf@tmpval+1)^(0+128)
  4243  053D' 0802'              	movf	?___llmod,w
  4244  053E' 0080'              	movwf	sprintf@tmpval^(0+128)
  4245  053F'                    l4541:
  4246                           
  4247                           ;C:\Program Files\Microchip\xc8\v2.31\pic\sources\c90\common\doprnt.c: 1229:      ((*sp+
      +                          + = ('0' + tmpval.vd)));
  4248  053F' 0800'              	movf	sprintf@tmpval^(0+128),w
  4249  0540' 3E30               	addlw	48
  4250  0541' 1283               	bcf	3,5	;RP0=0, select bank0
  4251  0542' 1303               	bcf	3,6	;RP1=0, select bank0
  4252  0543' 00CA'              	movwf	??_sprintf
  4253  0544' 1683               	bsf	3,5	;RP0=1, select bank1
  4254  0545' 1303               	bcf	3,6	;RP1=0, select bank1
  4255  0546' 0800'              	movf	sprintf@sp^(0+128),w
  4256  0547' 0084               	movwf	4
  4257  0548' 1283               	bcf	3,5	;RP0=0, select bank0
  4258  0549' 1303               	bcf	3,6	;RP1=0, select bank0
  4259  054A' 084A'              	movf	??_sprintf,w
  4260  054B' 1783               	bsf	3,7	;select IRP bank2
  4261  054C' 0080               	movwf	0
  4262  054D' 2800'              	goto	l4535
  4263  054E'                    l4545:
  4264                           
  4265                           ;C:\Program Files\Microchip\xc8\v2.31\pic\sources\c90\common\doprnt.c: 1222:    while(c-
      +                          -) {
  4266  054E' 3001               	movlw	1
  4267  054F' 1683               	bsf	3,5	;RP0=1, select bank1
  4268  0550' 1303               	bcf	3,6	;RP1=0, select bank1
  4269  0551' 0280'              	subwf	sprintf@c^(0+128),f
  4270  0552' 0A00'              	incf	sprintf@c^(0+128),w
  4271  0553' 1D03               	btfss	3,2
  4272  0554' 2800'              	goto	u7401
  4273  0555' 2800'              	goto	u7400
  4274  0556'                    u7401:
  4275  0556' 2800'              	goto	l4537
  4276  0557'                    u7400:
  4277  0557' 2800'              	goto	l4553
  4278  0558'                    l4547:
  4279                           
  4280                           ;C:\Program Files\Microchip\xc8\v2.31\pic\sources\c90\common\doprnt.c: 1234:     ((*sp++
      +                           = ('0')));
  4281  0558' 3030               	movlw	48
  4282  0559' 1283               	bcf	3,5	;RP0=0, select bank0
  4283  055A' 1303               	bcf	3,6	;RP1=0, select bank0
  4284  055B' 00CA'              	movwf	??_sprintf
  4285  055C' 1683               	bsf	3,5	;RP0=1, select bank1
  4286  055D' 1303               	bcf	3,6	;RP1=0, select bank1
  4287  055E' 0800'              	movf	sprintf@sp^(0+128),w
  4288  055F' 0084               	movwf	4
  4289  0560' 1283               	bcf	3,5	;RP0=0, select bank0
  4290  0561' 1303               	bcf	3,6	;RP1=0, select bank0
  4291  0562' 084A'              	movf	??_sprintf,w
  4292  0563' 1783               	bsf	3,7	;select IRP bank2
  4293  0564' 0080               	movwf	0
  4294  0565'                    l4549:
  4295  0565' 3001               	movlw	1
  4296  0566' 00CA'              	movwf	??_sprintf
  4297  0567' 084A'              	movf	??_sprintf,w
  4298  0568' 1683               	bsf	3,5	;RP0=1, select bank1
  4299  0569' 1303               	bcf	3,6	;RP1=0, select bank1
  4300  056A' 0780'              	addwf	sprintf@sp^(0+128),f
  4301  056B'                    l4551:
  4302                           
  4303                           ;C:\Program Files\Microchip\xc8\v2.31\pic\sources\c90\common\doprnt.c: 1235:     eexp--;
  4304  056B' 30FF               	movlw	255
  4305  056C' 0780'              	addwf	sprintf@eexp^(0+128),f
  4306  056D' 1803               	skipnc
  4307  056E' 0A80'              	incf	(sprintf@eexp+1)^(0+128),f
  4308  056F' 30FF               	movlw	255
  4309  0570' 0780'              	addwf	(sprintf@eexp+1)^(0+128),f
  4310  0571'                    l4553:
  4311                           
  4312                           ;C:\Program Files\Microchip\xc8\v2.31\pic\sources\c90\common\doprnt.c: 1233:    while(ee
      +                          xp > 0) {
  4313  0571' 0800'              	movf	(sprintf@eexp+1)^(0+128),w
  4314  0572' 3A80               	xorlw	128
  4315  0573' 00FF               	movwf	btemp+1
  4316  0574' 3080               	movlw	128
  4317  0575' 027F               	subwf	btemp+1,w
  4318  0576' 1D03               	skipz
  4319  0577' 2800'              	goto	u7415
  4320  0578' 3001               	movlw	1
  4321  0579' 0200'              	subwf	sprintf@eexp^(0+128),w
  4322  057A'                    u7415:
  4323  057A' 1803               	skipnc
  4324  057B' 2800'              	goto	u7411
  4325  057C' 2800'              	goto	u7410
  4326  057D'                    u7411:
  4327  057D' 2800'              	goto	l4547
  4328  057E'                    u7410:
  4329  057E'                    l4555:
  4330                           
  4331                           ;C:\Program Files\Microchip\xc8\v2.31\pic\sources\c90\common\doprnt.c: 1237:    if(prec 
      +                          > (int)((sizeof dpowers/sizeof dpowers[0])-2))
  4332  057E' 1683               	bsf	3,5	;RP0=1, select bank1
  4333  057F' 1303               	bcf	3,6	;RP1=0, select bank1
  4334  0580' 0800'              	movf	(sprintf@prec+1)^(0+128),w
  4335  0581' 3A80               	xorlw	128
  4336  0582' 00FF               	movwf	btemp+1
  4337  0583' 3080               	movlw	128
  4338  0584' 027F               	subwf	btemp+1,w
  4339  0585' 1D03               	skipz
  4340  0586' 2800'              	goto	u7425
  4341  0587' 3009               	movlw	9
  4342  0588' 0200'              	subwf	sprintf@prec^(0+128),w
  4343  0589'                    u7425:
  4344  0589' 1C03               	skipc
  4345  058A' 2800'              	goto	u7421
  4346  058B' 2800'              	goto	u7420
  4347  058C'                    u7421:
  4348  058C' 2800'              	goto	l4559
  4349  058D'                    u7420:
  4350  058D'                    l4557:
  4351                           
  4352                           ;C:\Program Files\Microchip\xc8\v2.31\pic\sources\c90\common\doprnt.c: 1238:     c = (si
      +                          zeof dpowers/sizeof dpowers[0])-2;
  4353  058D' 3008               	movlw	8
  4354  058E' 1283               	bcf	3,5	;RP0=0, select bank0
  4355  058F' 1303               	bcf	3,6	;RP1=0, select bank0
  4356  0590' 00CA'              	movwf	??_sprintf
  4357  0591' 084A'              	movf	??_sprintf,w
  4358  0592' 1683               	bsf	3,5	;RP0=1, select bank1
  4359  0593' 1303               	bcf	3,6	;RP1=0, select bank1
  4360  0594' 0080'              	movwf	sprintf@c^(0+128)
  4361  0595' 2800'              	goto	l426
  4362  0596'                    l4559:
  4363                           
  4364                           ;C:\Program Files\Microchip\xc8\v2.31\pic\sources\c90\common\doprnt.c: 1240:     c = (ch
      +                          ar)prec;
  4365  0596' 1683               	bsf	3,5	;RP0=1, select bank1
  4366  0597' 1303               	bcf	3,6	;RP1=0, select bank1
  4367  0598' 0800'              	movf	sprintf@prec^(0+128),w
  4368  0599' 1283               	bcf	3,5	;RP0=0, select bank0
  4369  059A' 1303               	bcf	3,6	;RP1=0, select bank0
  4370  059B' 00CA'              	movwf	??_sprintf
  4371  059C' 084A'              	movf	??_sprintf,w
  4372  059D' 1683               	bsf	3,5	;RP0=1, select bank1
  4373  059E' 1303               	bcf	3,6	;RP1=0, select bank1
  4374  059F' 0080'              	movwf	sprintf@c^(0+128)
  4375  05A0'                    l426:
  4376                           
  4377                           ;C:\Program Files\Microchip\xc8\v2.31\pic\sources\c90\common\doprnt.c: 1241:    prec -= 
      +                          (int)c;
  4378  05A0' 0800'              	movf	sprintf@c^(0+128),w
  4379  05A1' 1283               	bcf	3,5	;RP0=0, select bank0
  4380  05A2' 1303               	bcf	3,6	;RP1=0, select bank0
  4381  05A3' 00CA'              	movwf	??_sprintf
  4382  05A4' 01CB'              	clrf	??_sprintf+1
  4383  05A5' 084A'              	movf	??_sprintf,w
  4384  05A6' 1683               	bsf	3,5	;RP0=1, select bank1
  4385  05A7' 1303               	bcf	3,6	;RP1=0, select bank1
  4386  05A8' 0280'              	subwf	sprintf@prec^(0+128),f
  4387  05A9' 1283               	bcf	3,5	;RP0=0, select bank0
  4388  05AA' 1303               	bcf	3,6	;RP1=0, select bank0
  4389  05AB' 084B'              	movf	??_sprintf+1,w
  4390  05AC' 1683               	bsf	3,5	;RP0=1, select bank1
  4391  05AD' 1303               	bcf	3,6	;RP1=0, select bank1
  4392  05AE' 1C03               	skipc
  4393  05AF' 0380'              	decf	(sprintf@prec+1)^(0+128),f
  4394  05B0' 0280'              	subwf	(sprintf@prec+1)^(0+128),f
  4395  05B1'                    l4561:
  4396                           
  4397                           ;C:\Program Files\Microchip\xc8\v2.31\pic\sources\c90\common\doprnt.c: 1245:    if(c)
  4398  05B1' 0800'              	movf	sprintf@c^(0+128),w
  4399  05B2' 1903               	btfsc	3,2
  4400  05B3' 2800'              	goto	u7431
  4401  05B4' 2800'              	goto	u7430
  4402  05B5'                    u7431:
  4403  05B5' 2800'              	goto	l4567
  4404  05B6'                    u7430:
  4405  05B6'                    l4563:
  4406                           
  4407                           ;C:\Program Files\Microchip\xc8\v2.31\pic\sources\c90\common\doprnt.c: 1247:     ((*sp++
      +                           = ('.')));
  4408  05B6' 302E               	movlw	46
  4409  05B7' 1283               	bcf	3,5	;RP0=0, select bank0
  4410  05B8' 1303               	bcf	3,6	;RP1=0, select bank0
  4411  05B9' 00CA'              	movwf	??_sprintf
  4412  05BA' 1683               	bsf	3,5	;RP0=1, select bank1
  4413  05BB' 1303               	bcf	3,6	;RP1=0, select bank1
  4414  05BC' 0800'              	movf	sprintf@sp^(0+128),w
  4415  05BD' 0084               	movwf	4
  4416  05BE' 1283               	bcf	3,5	;RP0=0, select bank0
  4417  05BF' 1303               	bcf	3,6	;RP1=0, select bank0
  4418  05C0' 084A'              	movf	??_sprintf,w
  4419  05C1' 1783               	bsf	3,7	;select IRP bank2
  4420  05C2' 0080               	movwf	0
  4421  05C3'                    l4565:
  4422  05C3' 3001               	movlw	1
  4423  05C4' 00CA'              	movwf	??_sprintf
  4424  05C5' 084A'              	movf	??_sprintf,w
  4425  05C6' 1683               	bsf	3,5	;RP0=1, select bank1
  4426  05C7' 1303               	bcf	3,6	;RP1=0, select bank1
  4427  05C8' 0780'              	addwf	sprintf@sp^(0+128),f
  4428  05C9'                    l4567:
  4429                           
  4430                           ;C:\Program Files\Microchip\xc8\v2.31\pic\sources\c90\common\doprnt.c: 1253:    val = (u
      +                          nsigned long)(fval * scale((signed char)c));
  4431  05C9' 0800'              	movf	sprintf@c^(0+128),w
  4432  05CA' 120A' 118A' 2000' 120A' 118A' 	fcall	_scale
  4433  05CF' 1283               	bcf	3,5	;RP0=0, select bank0
  4434  05D0' 1303               	bcf	3,6	;RP1=0, select bank0
  4435  05D1' 0825'              	movf	?_scale+3,w
  4436  05D2' 1683               	bsf	3,5	;RP0=1, select bank1
  4437  05D3' 1303               	bcf	3,6	;RP1=0, select bank1
  4438  05D4' 0080'              	movwf	(_sprintf$1397+3)^(0+128)
  4439  05D5' 1283               	bcf	3,5	;RP0=0, select bank0
  4440  05D6' 1303               	bcf	3,6	;RP1=0, select bank0
  4441  05D7' 0824'              	movf	?_scale+2,w
  4442  05D8' 1683               	bsf	3,5	;RP0=1, select bank1
  4443  05D9' 1303               	bcf	3,6	;RP1=0, select bank1
  4444  05DA' 0080'              	movwf	(_sprintf$1397+2)^(0+128)
  4445  05DB' 1283               	bcf	3,5	;RP0=0, select bank0
  4446  05DC' 1303               	bcf	3,6	;RP1=0, select bank0
  4447  05DD' 0823'              	movf	?_scale+1,w
  4448  05DE' 1683               	bsf	3,5	;RP0=1, select bank1
  4449  05DF' 1303               	bcf	3,6	;RP1=0, select bank1
  4450  05E0' 0080'              	movwf	(_sprintf$1397+1)^(0+128)
  4451  05E1' 1283               	bcf	3,5	;RP0=0, select bank0
  4452  05E2' 1303               	bcf	3,6	;RP1=0, select bank0
  4453  05E3' 0822'              	movf	?_scale,w
  4454  05E4' 1683               	bsf	3,5	;RP0=1, select bank1
  4455  05E5' 1303               	bcf	3,6	;RP1=0, select bank1
  4456  05E6' 0080'              	movwf	_sprintf$1397^(0+128)
  4457  05E7'                    l4569:
  4458                           
  4459                           ;C:\Program Files\Microchip\xc8\v2.31\pic\sources\c90\common\doprnt.c: 1253:    val = (u
      +                          nsigned long)(fval * scale((signed char)c));
  4460  05E7' 0800'              	movf	(_sprintf$1397+3)^(0+128),w
  4461  05E8' 1283               	bcf	3,5	;RP0=0, select bank0
  4462  05E9' 1303               	bcf	3,6	;RP1=0, select bank0
  4463  05EA' 008F'              	movwf	___flmul@a+3
  4464  05EB' 1683               	bsf	3,5	;RP0=1, select bank1
  4465  05EC' 1303               	bcf	3,6	;RP1=0, select bank1
  4466  05ED' 0800'              	movf	(_sprintf$1397+2)^(0+128),w
  4467  05EE' 1283               	bcf	3,5	;RP0=0, select bank0
  4468  05EF' 1303               	bcf	3,6	;RP1=0, select bank0
  4469  05F0' 008E'              	movwf	___flmul@a+2
  4470  05F1' 1683               	bsf	3,5	;RP0=1, select bank1
  4471  05F2' 1303               	bcf	3,6	;RP1=0, select bank1
  4472  05F3' 0800'              	movf	(_sprintf$1397+1)^(0+128),w
  4473  05F4' 1283               	bcf	3,5	;RP0=0, select bank0
  4474  05F5' 1303               	bcf	3,6	;RP1=0, select bank0
  4475  05F6' 008D'              	movwf	___flmul@a+1
  4476  05F7' 1683               	bsf	3,5	;RP0=1, select bank1
  4477  05F8' 1303               	bcf	3,6	;RP1=0, select bank1
  4478  05F9' 0800'              	movf	_sprintf$1397^(0+128),w
  4479  05FA' 1283               	bcf	3,5	;RP0=0, select bank0
  4480  05FB' 1303               	bcf	3,6	;RP1=0, select bank0
  4481  05FC' 008C'              	movwf	___flmul@a
  4482  05FD' 1683               	bsf	3,5	;RP0=1, select bank1
  4483  05FE' 1303               	bcf	3,6	;RP1=0, select bank1
  4484  05FF' 0800'              	movf	(sprintf@fval+3)^(0+128),w
  4485  0600' 1283               	bcf	3,5	;RP0=0, select bank0
  4486  0601' 1303               	bcf	3,6	;RP1=0, select bank0
  4487  0602' 008B'              	movwf	___flmul@b+3
  4488  0603' 1683               	bsf	3,5	;RP0=1, select bank1
  4489  0604' 1303               	bcf	3,6	;RP1=0, select bank1
  4490  0605' 0800'              	movf	(sprintf@fval+2)^(0+128),w
  4491  0606' 1283               	bcf	3,5	;RP0=0, select bank0
  4492  0607' 1303               	bcf	3,6	;RP1=0, select bank0
  4493  0608' 008A'              	movwf	___flmul@b+2
  4494  0609' 1683               	bsf	3,5	;RP0=1, select bank1
  4495  060A' 1303               	bcf	3,6	;RP1=0, select bank1
  4496  060B' 0800'              	movf	(sprintf@fval+1)^(0+128),w
  4497  060C' 1283               	bcf	3,5	;RP0=0, select bank0
  4498  060D' 1303               	bcf	3,6	;RP1=0, select bank0
  4499  060E' 0089'              	movwf	___flmul@b+1
  4500  060F' 1683               	bsf	3,5	;RP0=1, select bank1
  4501  0610' 1303               	bcf	3,6	;RP1=0, select bank1
  4502  0611' 0800'              	movf	sprintf@fval^(0+128),w
  4503  0612' 1283               	bcf	3,5	;RP0=0, select bank0
  4504  0613' 1303               	bcf	3,6	;RP1=0, select bank0
  4505  0614' 0088'              	movwf	___flmul@b
  4506  0615' 120A' 118A' 2000' 120A' 118A' 	fcall	___flmul
  4507  061A' 1283               	bcf	3,5	;RP0=0, select bank0
  4508  061B' 1303               	bcf	3,6	;RP1=0, select bank0
  4509  061C' 080B'              	movf	?___flmul+3,w
  4510  061D' 00B8'              	movwf	___fltol@f1+3
  4511  061E' 080A'              	movf	?___flmul+2,w
  4512  061F' 00B7'              	movwf	___fltol@f1+2
  4513  0620' 0809'              	movf	?___flmul+1,w
  4514  0621' 00B6'              	movwf	___fltol@f1+1
  4515  0622' 0808'              	movf	?___flmul,w
  4516  0623' 00B5'              	movwf	___fltol@f1
  4517  0624' 120A' 118A' 2000' 120A' 118A' 	fcall	___fltol
  4518  0629' 1283               	bcf	3,5	;RP0=0, select bank0
  4519  062A' 1303               	bcf	3,6	;RP1=0, select bank0
  4520  062B' 0838'              	movf	?___fltol+3,w
  4521  062C' 1683               	bsf	3,5	;RP0=1, select bank1
  4522  062D' 1303               	bcf	3,6	;RP1=0, select bank1
  4523  062E' 0080'              	movwf	(sprintf@val+3)^(0+128)
  4524  062F' 1283               	bcf	3,5	;RP0=0, select bank0
  4525  0630' 1303               	bcf	3,6	;RP1=0, select bank0
  4526  0631' 0837'              	movf	?___fltol+2,w
  4527  0632' 1683               	bsf	3,5	;RP0=1, select bank1
  4528  0633' 1303               	bcf	3,6	;RP1=0, select bank1
  4529  0634' 0080'              	movwf	(sprintf@val+2)^(0+128)
  4530  0635' 1283               	bcf	3,5	;RP0=0, select bank0
  4531  0636' 1303               	bcf	3,6	;RP1=0, select bank0
  4532  0637' 0836'              	movf	?___fltol+1,w
  4533  0638' 1683               	bsf	3,5	;RP0=1, select bank1
  4534  0639' 1303               	bcf	3,6	;RP1=0, select bank1
  4535  063A' 0080'              	movwf	(sprintf@val+1)^(0+128)
  4536  063B' 1283               	bcf	3,5	;RP0=0, select bank0
  4537  063C' 1303               	bcf	3,6	;RP1=0, select bank0
  4538  063D' 0835'              	movf	?___fltol,w
  4539  063E' 1683               	bsf	3,5	;RP0=1, select bank1
  4540  063F' 1303               	bcf	3,6	;RP1=0, select bank1
  4541  0640' 0080'              	movwf	sprintf@val^(0+128)
  4542                           
  4543                           ;C:\Program Files\Microchip\xc8\v2.31\pic\sources\c90\common\doprnt.c: 1254:    while(c-
      +                          -) {
  4544  0641' 2800'              	goto	l4581
  4545  0642'                    l4571:
  4546                           
  4547                           ;C:\Program Files\Microchip\xc8\v2.31\pic\sources\c90\common\doprnt.c: 1255:     tmpval.
      +                          vd = val/dpowers[c];
  4548  0642' 0800'              	movf	sprintf@c^(0+128),w
  4549  0643' 1283               	bcf	3,5	;RP0=0, select bank0
  4550  0644' 1303               	bcf	3,6	;RP1=0, select bank0
  4551  0645' 00CA'              	movwf	??_sprintf
  4552  0646' 3001               	movlw	1
  4553  0647'                    u7445:
  4554  0647' 1003               	clrc
  4555  0648' 0DCA'              	rlf	??_sprintf,f
  4556  0649' 3EFF               	addlw	-1
  4557  064A' 1D03               	skipz
  4558  064B' 2800'              	goto	u7445
  4559  064C' 1003               	clrc
  4560  064D' 0D4A'              	rlf	??_sprintf,w
  4561  064E' 3E00'              	addlw	low (_dpowers| (0+32768))
  4562  064F' 0084               	movwf	4
  4563  0650' 3000'              	movlw	high (_dpowers| (0+32768))
  4564  0651' 1803               	skipnc
  4565  0652' 3E01               	addlw	1
  4566  0653' 00FF               	movwf	btemp+1
  4567  0654' 120A' 118A' 2000' 120A' 118A' 	fcall	stringtab
  4568  0659' 0082'              	movwf	___lldiv@divisor
  4569  065A' 120A' 118A' 2000' 120A' 118A' 	fcall	stringtab
  4570  065F' 0083'              	movwf	___lldiv@divisor+1
  4571  0660' 120A' 118A' 2000' 120A' 118A' 	fcall	stringtab
  4572  0665' 0084'              	movwf	___lldiv@divisor+2
  4573  0666' 120A' 118A' 2000' 120A' 118A' 	fcall	stringtab
  4574  066B' 0085'              	movwf	___lldiv@divisor+3
  4575  066C' 1683               	bsf	3,5	;RP0=1, select bank1
  4576  066D' 1303               	bcf	3,6	;RP1=0, select bank1
  4577  066E' 0800'              	movf	(sprintf@val+3)^(0+128),w
  4578  066F' 0089'              	movwf	___lldiv@dividend+3
  4579  0670' 0800'              	movf	(sprintf@val+2)^(0+128),w
  4580  0671' 0088'              	movwf	___lldiv@dividend+2
  4581  0672' 0800'              	movf	(sprintf@val+1)^(0+128),w
  4582  0673' 0087'              	movwf	___lldiv@dividend+1
  4583  0674' 0800'              	movf	sprintf@val^(0+128),w
  4584  0675' 0086'              	movwf	___lldiv@dividend
  4585  0676' 120A' 118A' 2000' 120A' 118A' 	fcall	___lldiv
  4586  067B' 0805'              	movf	?___lldiv+3,w
  4587  067C' 1683               	bsf	3,5	;RP0=1, select bank1
  4588  067D' 1303               	bcf	3,6	;RP1=0, select bank1
  4589  067E' 0080'              	movwf	(sprintf@tmpval+3)^(0+128)
  4590  067F' 0804'              	movf	?___lldiv+2,w
  4591  0680' 0080'              	movwf	(sprintf@tmpval+2)^(0+128)
  4592  0681' 0803'              	movf	?___lldiv+1,w
  4593  0682' 0080'              	movwf	(sprintf@tmpval+1)^(0+128)
  4594  0683' 0802'              	movf	?___lldiv,w
  4595  0684' 0080'              	movwf	sprintf@tmpval^(0+128)
  4596  0685'                    l4573:
  4597                           
  4598                           ;C:\Program Files\Microchip\xc8\v2.31\pic\sources\c90\common\doprnt.c: 1256:     tmpval.
      +                          vd %= 10;
  4599  0685' 3000               	movlw	0
  4600  0686' 0085'              	movwf	___llmod@divisor+3
  4601  0687' 3000               	movlw	0
  4602  0688' 0084'              	movwf	___llmod@divisor+2
  4603  0689' 3000               	movlw	0
  4604  068A' 0083'              	movwf	___llmod@divisor+1
  4605  068B' 300A               	movlw	10
  4606  068C' 0082'              	movwf	___llmod@divisor
  4607  068D' 0800'              	movf	(sprintf@tmpval+3)^(0+128),w
  4608  068E' 0089'              	movwf	___llmod@dividend+3
  4609  068F' 0800'              	movf	(sprintf@tmpval+2)^(0+128),w
  4610  0690' 0088'              	movwf	___llmod@dividend+2
  4611  0691' 0800'              	movf	(sprintf@tmpval+1)^(0+128),w
  4612  0692' 0087'              	movwf	___llmod@dividend+1
  4613  0693' 0800'              	movf	sprintf@tmpval^(0+128),w
  4614  0694' 0086'              	movwf	___llmod@dividend
  4615  0695' 120A' 118A' 2000' 120A' 118A' 	fcall	___llmod
  4616  069A' 0805'              	movf	?___llmod+3,w
  4617  069B' 1683               	bsf	3,5	;RP0=1, select bank1
  4618  069C' 1303               	bcf	3,6	;RP1=0, select bank1
  4619  069D' 0080'              	movwf	(sprintf@tmpval+3)^(0+128)
  4620  069E' 0804'              	movf	?___llmod+2,w
  4621  069F' 0080'              	movwf	(sprintf@tmpval+2)^(0+128)
  4622  06A0' 0803'              	movf	?___llmod+1,w
  4623  06A1' 0080'              	movwf	(sprintf@tmpval+1)^(0+128)
  4624  06A2' 0802'              	movf	?___llmod,w
  4625  06A3' 0080'              	movwf	sprintf@tmpval^(0+128)
  4626  06A4'                    l4575:
  4627                           
  4628                           ;C:\Program Files\Microchip\xc8\v2.31\pic\sources\c90\common\doprnt.c: 1257:     ((*sp++
      +                           = ('0' + tmpval.vd)));
  4629  06A4' 0800'              	movf	sprintf@tmpval^(0+128),w
  4630  06A5' 3E30               	addlw	48
  4631  06A6' 1283               	bcf	3,5	;RP0=0, select bank0
  4632  06A7' 1303               	bcf	3,6	;RP1=0, select bank0
  4633  06A8' 00CA'              	movwf	??_sprintf
  4634  06A9' 1683               	bsf	3,5	;RP0=1, select bank1
  4635  06AA' 1303               	bcf	3,6	;RP1=0, select bank1
  4636  06AB' 0800'              	movf	sprintf@sp^(0+128),w
  4637  06AC' 0084               	movwf	4
  4638  06AD' 1283               	bcf	3,5	;RP0=0, select bank0
  4639  06AE' 1303               	bcf	3,6	;RP1=0, select bank0
  4640  06AF' 084A'              	movf	??_sprintf,w
  4641  06B0' 1783               	bsf	3,7	;select IRP bank2
  4642  06B1' 0080               	movwf	0
  4643  06B2'                    l4577:
  4644  06B2' 3001               	movlw	1
  4645  06B3' 00CA'              	movwf	??_sprintf
  4646  06B4' 084A'              	movf	??_sprintf,w
  4647  06B5' 1683               	bsf	3,5	;RP0=1, select bank1
  4648  06B6' 1303               	bcf	3,6	;RP1=0, select bank1
  4649  06B7' 0780'              	addwf	sprintf@sp^(0+128),f
  4650  06B8'                    l4579:
  4651                           
  4652                           ;C:\Program Files\Microchip\xc8\v2.31\pic\sources\c90\common\doprnt.c: 1258:     val %= 
      +                          dpowers[c];
  4653  06B8' 0800'              	movf	sprintf@c^(0+128),w
  4654  06B9' 1283               	bcf	3,5	;RP0=0, select bank0
  4655  06BA' 1303               	bcf	3,6	;RP1=0, select bank0
  4656  06BB' 00CA'              	movwf	??_sprintf
  4657  06BC' 3001               	movlw	1
  4658  06BD'                    u7455:
  4659  06BD' 1003               	clrc
  4660  06BE' 0DCA'              	rlf	??_sprintf,f
  4661  06BF' 3EFF               	addlw	-1
  4662  06C0' 1D03               	skipz
  4663  06C1' 2800'              	goto	u7455
  4664  06C2' 1003               	clrc
  4665  06C3' 0D4A'              	rlf	??_sprintf,w
  4666  06C4' 3E00'              	addlw	low (_dpowers| (0+32768))
  4667  06C5' 0084               	movwf	4
  4668  06C6' 3000'              	movlw	high (_dpowers| (0+32768))
  4669  06C7' 1803               	skipnc
  4670  06C8' 3E01               	addlw	1
  4671  06C9' 00FF               	movwf	btemp+1
  4672  06CA' 120A' 118A' 2000' 120A' 118A' 	fcall	stringtab
  4673  06CF' 0082'              	movwf	___llmod@divisor
  4674  06D0' 120A' 118A' 2000' 120A' 118A' 	fcall	stringtab
  4675  06D5' 0083'              	movwf	___llmod@divisor+1
  4676  06D6' 120A' 118A' 2000' 120A' 118A' 	fcall	stringtab
  4677  06DB' 0084'              	movwf	___llmod@divisor+2
  4678  06DC' 120A' 118A' 2000' 120A' 118A' 	fcall	stringtab
  4679  06E1' 0085'              	movwf	___llmod@divisor+3
  4680  06E2' 1683               	bsf	3,5	;RP0=1, select bank1
  4681  06E3' 1303               	bcf	3,6	;RP1=0, select bank1
  4682  06E4' 0800'              	movf	(sprintf@val+3)^(0+128),w
  4683  06E5' 0089'              	movwf	___llmod@dividend+3
  4684  06E6' 0800'              	movf	(sprintf@val+2)^(0+128),w
  4685  06E7' 0088'              	movwf	___llmod@dividend+2
  4686  06E8' 0800'              	movf	(sprintf@val+1)^(0+128),w
  4687  06E9' 0087'              	movwf	___llmod@dividend+1
  4688  06EA' 0800'              	movf	sprintf@val^(0+128),w
  4689  06EB' 0086'              	movwf	___llmod@dividend
  4690  06EC' 120A' 118A' 2000' 120A' 118A' 	fcall	___llmod
  4691  06F1' 0805'              	movf	?___llmod+3,w
  4692  06F2' 1683               	bsf	3,5	;RP0=1, select bank1
  4693  06F3' 1303               	bcf	3,6	;RP1=0, select bank1
  4694  06F4' 0080'              	movwf	(sprintf@val+3)^(0+128)
  4695  06F5' 0804'              	movf	?___llmod+2,w
  4696  06F6' 0080'              	movwf	(sprintf@val+2)^(0+128)
  4697  06F7' 0803'              	movf	?___llmod+1,w
  4698  06F8' 0080'              	movwf	(sprintf@val+1)^(0+128)
  4699  06F9' 0802'              	movf	?___llmod,w
  4700  06FA' 0080'              	movwf	sprintf@val^(0+128)
  4701  06FB'                    l4581:
  4702                           
  4703                           ;C:\Program Files\Microchip\xc8\v2.31\pic\sources\c90\common\doprnt.c: 1254:    while(c-
      +                          -) {
  4704  06FB' 3001               	movlw	1
  4705  06FC' 0280'              	subwf	sprintf@c^(0+128),f
  4706  06FD' 0A00'              	incf	sprintf@c^(0+128),w
  4707  06FE' 1D03               	btfss	3,2
  4708  06FF' 2800'              	goto	u7461
  4709  0700' 2800'              	goto	u7460
  4710  0701'                    u7461:
  4711  0701' 2800'              	goto	l4571
  4712  0702'                    u7460:
  4713  0702' 2800'              	goto	l4589
  4714  0703'                    l4583:
  4715                           
  4716                           ;C:\Program Files\Microchip\xc8\v2.31\pic\sources\c90\common\doprnt.c: 1262:     ((*sp++
      +                           = ('0')));
  4717  0703' 3030               	movlw	48
  4718  0704' 1283               	bcf	3,5	;RP0=0, select bank0
  4719  0705' 1303               	bcf	3,6	;RP1=0, select bank0
  4720  0706' 00CA'              	movwf	??_sprintf
  4721  0707' 1683               	bsf	3,5	;RP0=1, select bank1
  4722  0708' 1303               	bcf	3,6	;RP1=0, select bank1
  4723  0709' 0800'              	movf	sprintf@sp^(0+128),w
  4724  070A' 0084               	movwf	4
  4725  070B' 1283               	bcf	3,5	;RP0=0, select bank0
  4726  070C' 1303               	bcf	3,6	;RP1=0, select bank0
  4727  070D' 084A'              	movf	??_sprintf,w
  4728  070E' 1783               	bsf	3,7	;select IRP bank2
  4729  070F' 0080               	movwf	0
  4730  0710'                    l4585:
  4731  0710' 3001               	movlw	1
  4732  0711' 00CA'              	movwf	??_sprintf
  4733  0712' 084A'              	movf	??_sprintf,w
  4734  0713' 1683               	bsf	3,5	;RP0=1, select bank1
  4735  0714' 1303               	bcf	3,6	;RP1=0, select bank1
  4736  0715' 0780'              	addwf	sprintf@sp^(0+128),f
  4737  0716'                    l4587:
  4738                           
  4739                           ;C:\Program Files\Microchip\xc8\v2.31\pic\sources\c90\common\doprnt.c: 1263:     prec--;
  4740  0716' 30FF               	movlw	255
  4741  0717' 0780'              	addwf	sprintf@prec^(0+128),f
  4742  0718' 1803               	skipnc
  4743  0719' 0A80'              	incf	(sprintf@prec+1)^(0+128),f
  4744  071A' 30FF               	movlw	255
  4745  071B' 0780'              	addwf	(sprintf@prec+1)^(0+128),f
  4746  071C'                    l4589:
  4747                           
  4748                           ;C:\Program Files\Microchip\xc8\v2.31\pic\sources\c90\common\doprnt.c: 1261:    while(pr
      +                          ec) {
  4749  071C' 0800'              	movf	sprintf@prec^(0+128),w
  4750  071D' 0400'              	iorwf	(sprintf@prec+1)^(0+128),w
  4751  071E' 1D03               	btfss	3,2
  4752  071F' 2800'              	goto	u7471
  4753  0720' 2800'              	goto	u7470
  4754  0721'                    u7471:
  4755  0721' 2800'              	goto	l4583
  4756  0722'                    u7470:
  4757  0722' 2800'              	goto	l4609
  4758  0723'                    l4591:
  4759                           
  4760                           ;C:\Program Files\Microchip\xc8\v2.31\pic\sources\c90\common\doprnt.c: 1316:   if(prec =
      +                          = 0 && val == 0)
  4761  0723' 1683               	bsf	3,5	;RP0=1, select bank1
  4762  0724' 1303               	bcf	3,6	;RP1=0, select bank1
  4763  0725' 0800'              	movf	sprintf@prec^(0+128),w
  4764  0726' 0400'              	iorwf	(sprintf@prec+1)^(0+128),w
  4765  0727' 1D03               	btfss	3,2
  4766  0728' 2800'              	goto	u7481
  4767  0729' 2800'              	goto	u7480
  4768  072A'                    u7481:
  4769  072A' 2800'              	goto	l434
  4770  072B'                    u7480:
  4771  072B'                    l4593:
  4772  072B' 0800'              	movf	(sprintf@val+3)^(0+128),w
  4773  072C' 0400'              	iorwf	(sprintf@val+2)^(0+128),w
  4774  072D' 0400'              	iorwf	(sprintf@val+1)^(0+128),w
  4775  072E' 0400'              	iorwf	sprintf@val^(0+128),w
  4776  072F' 1D03               	skipz
  4777  0730' 2800'              	goto	u7491
  4778  0731' 2800'              	goto	u7490
  4779  0732'                    u7491:
  4780  0732' 2800'              	goto	l434
  4781  0733'                    u7490:
  4782  0733'                    l4595:
  4783                           
  4784                           ;C:\Program Files\Microchip\xc8\v2.31\pic\sources\c90\common\doprnt.c: 1317:    prec++;
  4785  0733' 3001               	movlw	1
  4786  0734' 0780'              	addwf	sprintf@prec^(0+128),f
  4787  0735' 1803               	skipnc
  4788  0736' 0A80'              	incf	(sprintf@prec+1)^(0+128),f
  4789  0737' 3000               	movlw	0
  4790  0738' 0780'              	addwf	(sprintf@prec+1)^(0+128),f
  4791  0739'                    l434:
  4792                           
  4793                           ;C:\Program Files\Microchip\xc8\v2.31\pic\sources\c90\common\doprnt.c: 1365:   if(c < pr
      +                          ec)
  4794  0739' 0800'              	movf	(sprintf@prec+1)^(0+128),w
  4795  073A' 3A80               	xorlw	128
  4796  073B' 3C80               	sublw	128
  4797  073C' 1D03               	skipz
  4798  073D' 2800'              	goto	u7505
  4799  073E' 0800'              	movf	sprintf@prec^(0+128),w
  4800  073F' 0200'              	subwf	sprintf@c^(0+128),w
  4801  0740'                    u7505:
  4802  0740' 1803               	skipnc
  4803  0741' 2800'              	goto	u7501
  4804  0742' 2800'              	goto	u7500
  4805  0743'                    u7501:
  4806  0743' 2800'              	goto	l4599
  4807  0744'                    u7500:
  4808  0744'                    l4597:
  4809  0744' 2800'              	goto	l4603
  4810  0745'                    l4599:
  4811  0745' 1683               	bsf	3,5	;RP0=1, select bank1
  4812  0746' 1303               	bcf	3,6	;RP1=0, select bank1
  4813  0747' 0800'              	movf	(sprintf@prec+1)^(0+128),w
  4814  0748' 3A80               	xorlw	128
  4815  0749' 1283               	bcf	3,5	;RP0=0, select bank0
  4816  074A' 1303               	bcf	3,6	;RP1=0, select bank0
  4817  074B' 00CA'              	movwf	??_sprintf
  4818  074C' 3080               	movlw	128
  4819  074D' 024A'              	subwf	??_sprintf,w
  4820  074E' 1D03               	skipz
  4821  074F' 2800'              	goto	u7515
  4822  0750' 1683               	bsf	3,5	;RP0=1, select bank1
  4823  0751' 1303               	bcf	3,6	;RP1=0, select bank1
  4824  0752' 0800'              	movf	sprintf@c^(0+128),w
  4825  0753' 0200'              	subwf	sprintf@prec^(0+128),w
  4826  0754'                    u7515:
  4827  0754' 1803               	skipnc
  4828  0755' 2800'              	goto	u7511
  4829  0756' 2800'              	goto	u7510
  4830  0757'                    u7511:
  4831  0757' 2800'              	goto	l4603
  4832  0758'                    u7510:
  4833  0758'                    l4601:
  4834  0758'                    l4603:
  4835                           
  4836                           ;C:\Program Files\Microchip\xc8\v2.31\pic\sources\c90\common\doprnt.c: 1448:   {;C:\Prog
      +                          ram Files\Microchip\xc8\v2.31\pic\sources\c90\common\doprnt.c: 1464:    if(flag & 0x03)
  4837  0758' 3003               	movlw	3
  4838  0759' 1683               	bsf	3,5	;RP0=1, select bank1
  4839  075A' 1303               	bcf	3,6	;RP1=0, select bank1
  4840  075B' 0500'              	andwf	sprintf@flag^(0+128),w
  4841  075C' 1283               	bcf	3,5	;RP0=0, select bank0
  4842  075D' 1303               	bcf	3,6	;RP1=0, select bank0
  4843  075E' 00CA'              	movwf	??_sprintf
  4844  075F' 3000               	movlw	0
  4845  0760' 1683               	bsf	3,5	;RP0=1, select bank1
  4846  0761' 1303               	bcf	3,6	;RP1=0, select bank1
  4847  0762' 0500'              	andwf	(sprintf@flag+1)^(0+128),w
  4848  0763' 1283               	bcf	3,5	;RP0=0, select bank0
  4849  0764' 1303               	bcf	3,6	;RP1=0, select bank0
  4850  0765' 00CB'              	movwf	??_sprintf+1
  4851  0766' 084A'              	movf	??_sprintf,w
  4852  0767' 044B'              	iorwf	??_sprintf+1,w
  4853  0768' 1903               	btfsc	3,2
  4854  0769' 2800'              	goto	u7521
  4855  076A' 2800'              	goto	u7520
  4856  076B'                    u7521:
  4857  076B' 2800'              	goto	l4609
  4858  076C'                    u7520:
  4859  076C'                    l4605:
  4860                           
  4861                           ;C:\Program Files\Microchip\xc8\v2.31\pic\sources\c90\common\doprnt.c: 1465:     ((*sp++
      +                           = ('-')));
  4862  076C' 302D               	movlw	45
  4863  076D' 00CA'              	movwf	??_sprintf
  4864  076E' 1683               	bsf	3,5	;RP0=1, select bank1
  4865  076F' 1303               	bcf	3,6	;RP1=0, select bank1
  4866  0770' 0800'              	movf	sprintf@sp^(0+128),w
  4867  0771' 0084               	movwf	4
  4868  0772' 1283               	bcf	3,5	;RP0=0, select bank0
  4869  0773' 1303               	bcf	3,6	;RP1=0, select bank0
  4870  0774' 084A'              	movf	??_sprintf,w
  4871  0775' 1783               	bsf	3,7	;select IRP bank2
  4872  0776' 0080               	movwf	0
  4873  0777' 2800'              	goto	l4393
  4874  0778'                    l4609:
  4875                           
  4876                           ;C:\Program Files\Microchip\xc8\v2.31\pic\sources\c90\common\doprnt.c: 553:  while((c = 
      +                          *f++)) {
  4877  0778' 1683               	bsf	3,5	;RP0=1, select bank1
  4878  0779' 1303               	bcf	3,6	;RP1=0, select bank1
  4879  077A' 0800'              	movf	(sprintf@f+1)^(0+128),w
  4880  077B' 1283               	bcf	3,5	;RP0=0, select bank0
  4881  077C' 1303               	bcf	3,6	;RP1=0, select bank0
  4882  077D' 00CB'              	movwf	??_sprintf+1
  4883  077E' 1683               	bsf	3,5	;RP0=1, select bank1
  4884  077F' 1303               	bcf	3,6	;RP1=0, select bank1
  4885  0780' 0800'              	movf	sprintf@f^(0+128),w
  4886  0781' 1283               	bcf	3,5	;RP0=0, select bank0
  4887  0782' 1303               	bcf	3,6	;RP1=0, select bank0
  4888  0783' 00CA'              	movwf	??_sprintf
  4889  0784' 1683               	bsf	3,5	;RP0=1, select bank1
  4890  0785' 1303               	bcf	3,6	;RP1=0, select bank1
  4891  0786' 0A80'              	incf	sprintf@f^(0+128),f
  4892  0787' 1903               	skipnz
  4893  0788' 0A80'              	incf	(sprintf@f+1)^(0+128),f
  4894  0789' 1283               	bcf	3,5	;RP0=0, select bank0
  4895  078A' 1303               	bcf	3,6	;RP1=0, select bank0
  4896  078B' 084B'              	movf	??_sprintf+1,w
  4897  078C' 00FF               	movwf	btemp+1
  4898  078D' 084A'              	movf	??_sprintf,w
  4899  078E' 0084               	movwf	4
  4900  078F' 120A' 118A' 2000' 120A' 118A' 	fcall	stringtab
  4901  0794' 00CC'              	movwf	??_sprintf+2
  4902  0795' 084C'              	movf	??_sprintf+2,w
  4903  0796' 1683               	bsf	3,5	;RP0=1, select bank1
  4904  0797' 1303               	bcf	3,6	;RP1=0, select bank1
  4905  0798' 0080'              	movwf	sprintf@c^(0+128)
  4906  0799' 0800'              	movf	sprintf@c^(0+128),w
  4907  079A' 1D03               	btfss	3,2
  4908  079B' 2800'              	goto	u7531
  4909  079C' 2800'              	goto	u7530
  4910  079D'                    u7531:
  4911  079D' 2800'              	goto	l4389
  4912  079E'                    u7530:
  4913  079E'                    l4611:
  4914                           
  4915                           ;C:\Program Files\Microchip\xc8\v2.31\pic\sources\c90\common\doprnt.c: 1564:  *sp = 0;
  4916  079E' 1683               	bsf	3,5	;RP0=1, select bank1
  4917  079F' 1303               	bcf	3,6	;RP1=0, select bank1
  4918  07A0' 0800'              	movf	sprintf@sp^(0+128),w
  4919  07A1' 0084               	movwf	4
  4920  07A2' 1783               	bsf	3,7	;select IRP bank2
  4921  07A3' 0180               	clrf	0
  4922  07A4'                    l440:
  4923  07A4' 0008               	return
  4924  07A5'                    __end_of_sprintf:
  4925                           
  4926                           	psect	text3
  4927  0000'                    __ptext3:	
  4928 ;; *************** function _scale *****************
  4929 ;; Defined at:
  4930 ;;		line 433 in file "C:\Program Files\Microchip\xc8\v2.31\pic\sources\c90\common\doprnt.c"
  4931 ;; Parameters:    Size  Location     Type
  4932 ;;  scl             1    wreg     char 
  4933 ;; Auto vars:     Size  Location     Type
  4934 ;;  scl             1   52[BANK0 ] char 
  4935 ;; Return value:  Size  Location     Type
  4936 ;;                  4   34[BANK0 ] char 
  4937 ;; Registers used:
  4938 ;;		wreg, fsr0l, fsr0h, status,2, status,0, btemp+1, pclath, cstack
  4939 ;; Tracked objects:
  4940 ;;		On entry : 0/0
  4941 ;;		On exit  : 0/0
  4942 ;;		Unchanged: 0/0
  4943 ;; Data sizes:     COMMON   BANK0   BANK1   BANK3   BANK2
  4944 ;;      Params:         0       4       0       0       0
  4945 ;;      Locals:         0       5       0       0       0
  4946 ;;      Temps:          0      10       0       0       0
  4947 ;;      Totals:         0      19       0       0       0
  4948 ;;Total ram usage:       19 bytes
  4949 ;; Hardware stack levels used:    1
  4950 ;; Hardware stack levels required when called:    4
  4951 ;; This function calls:
  4952 ;;		___awdiv
  4953 ;;		___awmod
  4954 ;;		___flmul
  4955 ;; This function is called by:
  4956 ;;		_sprintf
  4957 ;; This function uses a non-reentrant model
  4958 ;;
  4959                           
  4960                           
  4961                           ;psect for function _scale
  4962  0000'                    _scale:
  4963                           
  4964                           ;incstack = 0
  4965                           ; Regs used in _scale: [wreg-fsr0h+status,2+status,0+btemp+1+pclath+cstack]
  4966                           ;scale@scl stored from wreg
  4967  0000' 1283               	bcf	3,5	;RP0=0, select bank0
  4968  0001' 1303               	bcf	3,6	;RP1=0, select bank0
  4969  0002' 00B4'              	movwf	scale@scl
  4970  0003'                    l4265:
  4971                           
  4972                           ;C:\Program Files\Microchip\xc8\v2.31\pic\sources\c90\common\doprnt.c: 433: scale(signed
      +                           char scl);C:\Program Files\Microchip\xc8\v2.31\pic\sources\c90\common\doprnt.c: 434: {;
      +                          C:\Program Files\Microchip\xc8\v2.31\pic\sources\c90\common\doprnt.c: 436:  if(scl < 0) 
      +                          {
  4973  0003' 1FB4'              	btfss	scale@scl,7
  4974  0004' 2800'              	goto	u6791
  4975  0005' 2800'              	goto	u6790
  4976  0006'                    u6791:
  4977  0006' 2800'              	goto	l4287
  4978  0007'                    u6790:
  4979  0007'                    l4267:
  4980                           
  4981                           ;C:\Program Files\Microchip\xc8\v2.31\pic\sources\c90\common\doprnt.c: 437:   scl = -scl
      +                          ;
  4982  0007' 09B4'              	comf	scale@scl,f
  4983  0008' 0AB4'              	incf	scale@scl,f
  4984  0009'                    l4269:
  4985                           
  4986                           ;C:\Program Files\Microchip\xc8\v2.31\pic\sources\c90\common\doprnt.c: 438:   if(scl>=11
      +                          0)
  4987  0009' 0834'              	movf	scale@scl,w
  4988  000A' 3A80               	xorlw	128
  4989  000B' 3E12               	addlw	-238
  4990  000C' 1C03               	skipc
  4991  000D' 2800'              	goto	u6801
  4992  000E' 2800'              	goto	u6800
  4993  000F'                    u6801:
  4994  000F' 2800'              	goto	l4277
  4995  0010'                    u6800:
  4996  0010'                    l4271:
  4997                           
  4998                           ;C:\Program Files\Microchip\xc8\v2.31\pic\sources\c90\common\doprnt.c: 439:    return _n
      +                          powers_[(unsigned char)(scl/100+18)] * _npowers_[(unsigned char)((scl%100)/10+9)] * _npo
      +                          wers_[(unsigned char)(scl%10)];
  4999  0010' 300A               	movlw	10
  5000  0011' 0080'              	movwf	___awdiv@divisor
  5001  0012' 3000               	movlw	0
  5002  0013' 0081'              	movwf	___awdiv@divisor+1
  5003  0014' 0834'              	movf	scale@scl,w
  5004  0015' 0084'              	movwf	___awmod@dividend
  5005  0016' 0185'              	clrf	___awmod@dividend+1
  5006  0017' 1B84'              	btfsc	___awmod@dividend,7
  5007  0018' 0385'              	decf	___awmod@dividend+1,f
  5008  0019' 3064               	movlw	100
  5009  001A' 0082'              	movwf	___awmod@divisor
  5010  001B' 3000               	movlw	0
  5011  001C' 0083'              	movwf	___awmod@divisor+1
  5012  001D' 120A' 118A' 2000' 120A' 118A' 	fcall	___awmod
  5013  0022' 0803'              	movf	?___awmod+1,w
  5014  0023' 1283               	bcf	3,5	;RP0=0, select bank0
  5015  0024' 1303               	bcf	3,6	;RP1=0, select bank0
  5016  0025' 0083'              	movwf	___awdiv@dividend+1
  5017  0026' 0802'              	movf	?___awmod,w
  5018  0027' 0082'              	movwf	___awdiv@dividend
  5019  0028' 120A' 118A' 2000' 120A' 118A' 	fcall	___awdiv
  5020  002D' 1283               	bcf	3,5	;RP0=0, select bank0
  5021  002E' 1303               	bcf	3,6	;RP1=0, select bank0
  5022  002F' 0800'              	movf	?___awdiv,w
  5023  0030' 00A6'              	movwf	??_scale
  5024  0031' 3001               	movlw	1
  5025  0032'                    u6815:
  5026  0032' 1003               	clrc
  5027  0033' 0DA6'              	rlf	??_scale,f
  5028  0034' 3EFF               	addlw	-1
  5029  0035' 1D03               	skipz
  5030  0036' 2800'              	goto	u6815
  5031  0037' 1003               	clrc
  5032  0038' 0D26'              	rlf	??_scale,w
  5033  0039' 3E24               	addlw	36
  5034  003A' 3E00'              	addlw	low (__npowers_| (0+32768))
  5035  003B' 0084               	movwf	4
  5036  003C' 3000'              	movlw	high (__npowers_| (0+32768))
  5037  003D' 1803               	skipnc
  5038  003E' 3E01               	addlw	1
  5039  003F' 00FF               	movwf	btemp+1
  5040  0040' 120A' 118A' 2000' 120A' 118A' 	fcall	stringtab
  5041  0045' 00A7'              	movwf	??_scale+1
  5042  0046' 120A' 118A' 2000' 120A' 118A' 	fcall	stringtab
  5043  004B' 00A8'              	movwf	??_scale+2
  5044  004C' 120A' 118A' 2000' 120A' 118A' 	fcall	stringtab
  5045  0051' 00A9'              	movwf	??_scale+3
  5046  0052' 120A' 118A' 2000' 120A' 118A' 	fcall	stringtab
  5047  0057' 00AA'              	movwf	??_scale+4
  5048  0058' 082A'              	movf	??_scale+4,w
  5049  0059' 008B'              	movwf	___flmul@b+3
  5050  005A' 0829'              	movf	??_scale+3,w
  5051  005B' 008A'              	movwf	___flmul@b+2
  5052  005C' 0828'              	movf	??_scale+2,w
  5053  005D' 0089'              	movwf	___flmul@b+1
  5054  005E' 0827'              	movf	??_scale+1,w
  5055  005F' 0088'              	movwf	___flmul@b
  5056  0060' 3064               	movlw	100
  5057  0061' 0080'              	movwf	___awdiv@divisor
  5058  0062' 3000               	movlw	0
  5059  0063' 0081'              	movwf	___awdiv@divisor+1
  5060  0064' 0834'              	movf	scale@scl,w
  5061  0065' 0082'              	movwf	___awdiv@dividend
  5062  0066' 0183'              	clrf	___awdiv@dividend+1
  5063  0067' 1B82'              	btfsc	___awdiv@dividend,7
  5064  0068' 0383'              	decf	___awdiv@dividend+1,f
  5065  0069' 120A' 118A' 2000' 120A' 118A' 	fcall	___awdiv
  5066  006E' 1283               	bcf	3,5	;RP0=0, select bank0
  5067  006F' 1303               	bcf	3,6	;RP1=0, select bank0
  5068  0070' 0800'              	movf	?___awdiv,w
  5069  0071' 00AB'              	movwf	??_scale+5
  5070  0072' 3001               	movlw	1
  5071  0073'                    u6825:
  5072  0073' 1003               	clrc
  5073  0074' 0DAB'              	rlf	??_scale+5,f
  5074  0075' 3EFF               	addlw	-1
  5075  0076' 1D03               	skipz
  5076  0077' 2800'              	goto	u6825
  5077  0078' 1003               	clrc
  5078  0079' 0D2B'              	rlf	??_scale+5,w
  5079  007A' 3E48               	addlw	72
  5080  007B' 3E00'              	addlw	low (__npowers_| (0+32768))
  5081  007C' 0084               	movwf	4
  5082  007D' 3000'              	movlw	high (__npowers_| (0+32768))
  5083  007E' 1803               	skipnc
  5084  007F' 3E01               	addlw	1
  5085  0080' 00FF               	movwf	btemp+1
  5086  0081' 120A' 118A' 2000' 120A' 118A' 	fcall	stringtab
  5087  0086' 00AC'              	movwf	??_scale+6
  5088  0087' 120A' 118A' 2000' 120A' 118A' 	fcall	stringtab
  5089  008C' 00AD'              	movwf	??_scale+7
  5090  008D' 120A' 118A' 2000' 120A' 118A' 	fcall	stringtab
  5091  0092' 00AE'              	movwf	??_scale+8
  5092  0093' 120A' 118A' 2000' 120A' 118A' 	fcall	stringtab
  5093  0098' 00AF'              	movwf	??_scale+9
  5094  0099' 082F'              	movf	??_scale+9,w
  5095  009A' 008F'              	movwf	___flmul@a+3
  5096  009B' 082E'              	movf	??_scale+8,w
  5097  009C' 008E'              	movwf	___flmul@a+2
  5098  009D' 082D'              	movf	??_scale+7,w
  5099  009E' 008D'              	movwf	___flmul@a+1
  5100  009F' 082C'              	movf	??_scale+6,w
  5101  00A0' 008C'              	movwf	___flmul@a
  5102  00A1' 120A' 118A' 2000' 120A' 118A' 	fcall	___flmul
  5103  00A6' 1283               	bcf	3,5	;RP0=0, select bank0
  5104  00A7' 1303               	bcf	3,6	;RP1=0, select bank0
  5105  00A8' 080B'              	movf	?___flmul+3,w
  5106  00A9' 00B3'              	movwf	_scale$1396+3
  5107  00AA' 080A'              	movf	?___flmul+2,w
  5108  00AB' 00B2'              	movwf	_scale$1396+2
  5109  00AC' 0809'              	movf	?___flmul+1,w
  5110  00AD' 00B1'              	movwf	_scale$1396+1
  5111  00AE' 0808'              	movf	?___flmul,w
  5112  00AF' 00B0'              	movwf	_scale$1396
  5113                           
  5114                           ;C:\Program Files\Microchip\xc8\v2.31\pic\sources\c90\common\doprnt.c: 439:    return _n
      +                          powers_[(unsigned char)(scl/100+18)] * _npowers_[(unsigned char)((scl%100)/10+9)] * _npo
      +                          wers_[(unsigned char)(scl%10)];
  5115  00B0' 300A               	movlw	10
  5116  00B1' 0082'              	movwf	___awmod@divisor
  5117  00B2' 3000               	movlw	0
  5118  00B3' 0083'              	movwf	___awmod@divisor+1
  5119  00B4' 0834'              	movf	scale@scl,w
  5120  00B5' 0084'              	movwf	___awmod@dividend
  5121  00B6' 0185'              	clrf	___awmod@dividend+1
  5122  00B7' 1B84'              	btfsc	___awmod@dividend,7
  5123  00B8' 0385'              	decf	___awmod@dividend+1,f
  5124  00B9' 120A' 118A' 2000' 120A' 118A' 	fcall	___awmod
  5125  00BE' 0802'              	movf	?___awmod,w
  5126  00BF' 1283               	bcf	3,5	;RP0=0, select bank0
  5127  00C0' 1303               	bcf	3,6	;RP1=0, select bank0
  5128  00C1' 00A6'              	movwf	??_scale
  5129  00C2' 3001               	movlw	1
  5130  00C3'                    u6835:
  5131  00C3' 1003               	clrc
  5132  00C4' 0DA6'              	rlf	??_scale,f
  5133  00C5' 3EFF               	addlw	-1
  5134  00C6' 1D03               	skipz
  5135  00C7' 2800'              	goto	u6835
  5136  00C8' 1003               	clrc
  5137  00C9' 0D26'              	rlf	??_scale,w
  5138  00CA' 3E00'              	addlw	low (__npowers_| (0+32768))
  5139  00CB' 0084               	movwf	4
  5140  00CC' 3000'              	movlw	high (__npowers_| (0+32768))
  5141  00CD' 1803               	skipnc
  5142  00CE' 3E01               	addlw	1
  5143  00CF' 00FF               	movwf	btemp+1
  5144  00D0' 120A' 118A' 2000' 120A' 118A' 	fcall	stringtab
  5145  00D5' 00A7'              	movwf	??_scale+1
  5146  00D6' 120A' 118A' 2000' 120A' 118A' 	fcall	stringtab
  5147  00DB' 00A8'              	movwf	??_scale+2
  5148  00DC' 120A' 118A' 2000' 120A' 118A' 	fcall	stringtab
  5149  00E1' 00A9'              	movwf	??_scale+3
  5150  00E2' 120A' 118A' 2000' 120A' 118A' 	fcall	stringtab
  5151  00E7' 00AA'              	movwf	??_scale+4
  5152  00E8' 082A'              	movf	??_scale+4,w
  5153  00E9' 008B'              	movwf	___flmul@b+3
  5154  00EA' 0829'              	movf	??_scale+3,w
  5155  00EB' 008A'              	movwf	___flmul@b+2
  5156  00EC' 0828'              	movf	??_scale+2,w
  5157  00ED' 0089'              	movwf	___flmul@b+1
  5158  00EE' 0827'              	movf	??_scale+1,w
  5159  00EF' 0088'              	movwf	___flmul@b
  5160  00F0' 0833'              	movf	_scale$1396+3,w
  5161  00F1' 008F'              	movwf	___flmul@a+3
  5162  00F2' 0832'              	movf	_scale$1396+2,w
  5163  00F3' 008E'              	movwf	___flmul@a+2
  5164  00F4' 0831'              	movf	_scale$1396+1,w
  5165  00F5' 008D'              	movwf	___flmul@a+1
  5166  00F6' 0830'              	movf	_scale$1396,w
  5167  00F7' 008C'              	movwf	___flmul@a
  5168  00F8' 120A' 118A' 2000' 120A' 118A' 	fcall	___flmul
  5169  00FD' 1283               	bcf	3,5	;RP0=0, select bank0
  5170  00FE' 1303               	bcf	3,6	;RP1=0, select bank0
  5171  00FF' 080B'              	movf	?___flmul+3,w
  5172  0100' 00A5'              	movwf	?_scale+3
  5173  0101' 080A'              	movf	?___flmul+2,w
  5174  0102' 00A4'              	movwf	?_scale+2
  5175  0103' 0809'              	movf	?___flmul+1,w
  5176  0104' 00A3'              	movwf	?_scale+1
  5177  0105' 0808'              	movf	?___flmul,w
  5178  0106' 00A2'              	movwf	?_scale
  5179  0107' 2800'              	goto	l368
  5180  0108'                    l4277:
  5181  0108' 0834'              	movf	scale@scl,w
  5182  0109' 3A80               	xorlw	128
  5183  010A' 3E75               	addlw	-139
  5184  010B' 1C03               	skipc
  5185  010C' 2800'              	goto	u6841
  5186  010D' 2800'              	goto	u6840
  5187  010E'                    u6841:
  5188  010E' 2800'              	goto	l4283
  5189  010F'                    u6840:
  5190  010F'                    l4279:
  5191                           
  5192                           ;C:\Program Files\Microchip\xc8\v2.31\pic\sources\c90\common\doprnt.c: 441:    return _n
      +                          powers_[(unsigned char)(scl/10+9)] * _npowers_[(unsigned char)(scl%10)];
  5193  010F' 300A               	movlw	10
  5194  0110' 0082'              	movwf	___awmod@divisor
  5195  0111' 3000               	movlw	0
  5196  0112' 0083'              	movwf	___awmod@divisor+1
  5197  0113' 0834'              	movf	scale@scl,w
  5198  0114' 0084'              	movwf	___awmod@dividend
  5199  0115' 0185'              	clrf	___awmod@dividend+1
  5200  0116' 1B84'              	btfsc	___awmod@dividend,7
  5201  0117' 0385'              	decf	___awmod@dividend+1,f
  5202  0118' 120A' 118A' 2000' 120A' 118A' 	fcall	___awmod
  5203  011D' 0802'              	movf	?___awmod,w
  5204  011E' 1283               	bcf	3,5	;RP0=0, select bank0
  5205  011F' 1303               	bcf	3,6	;RP1=0, select bank0
  5206  0120' 00A6'              	movwf	??_scale
  5207  0121' 3001               	movlw	1
  5208  0122'                    u6855:
  5209  0122' 1003               	clrc
  5210  0123' 0DA6'              	rlf	??_scale,f
  5211  0124' 3EFF               	addlw	-1
  5212  0125' 1D03               	skipz
  5213  0126' 2800'              	goto	u6855
  5214  0127' 1003               	clrc
  5215  0128' 0D26'              	rlf	??_scale,w
  5216  0129' 3E00'              	addlw	low (__npowers_| (0+32768))
  5217  012A' 0084               	movwf	4
  5218  012B' 3000'              	movlw	high (__npowers_| (0+32768))
  5219  012C' 1803               	skipnc
  5220  012D' 3E01               	addlw	1
  5221  012E' 00FF               	movwf	btemp+1
  5222  012F' 120A' 118A' 2000' 120A' 118A' 	fcall	stringtab
  5223  0134' 00A7'              	movwf	??_scale+1
  5224  0135' 120A' 118A' 2000' 120A' 118A' 	fcall	stringtab
  5225  013A' 00A8'              	movwf	??_scale+2
  5226  013B' 120A' 118A' 2000' 120A' 118A' 	fcall	stringtab
  5227  0140' 00A9'              	movwf	??_scale+3
  5228  0141' 120A' 118A' 2000' 120A' 118A' 	fcall	stringtab
  5229  0146' 00AA'              	movwf	??_scale+4
  5230  0147' 082A'              	movf	??_scale+4,w
  5231  0148' 008B'              	movwf	___flmul@b+3
  5232  0149' 0829'              	movf	??_scale+3,w
  5233  014A' 008A'              	movwf	___flmul@b+2
  5234  014B' 0828'              	movf	??_scale+2,w
  5235  014C' 0089'              	movwf	___flmul@b+1
  5236  014D' 0827'              	movf	??_scale+1,w
  5237  014E' 0088'              	movwf	___flmul@b
  5238  014F' 300A               	movlw	10
  5239  0150' 0080'              	movwf	___awdiv@divisor
  5240  0151' 3000               	movlw	0
  5241  0152' 0081'              	movwf	___awdiv@divisor+1
  5242  0153' 0834'              	movf	scale@scl,w
  5243  0154' 0082'              	movwf	___awdiv@dividend
  5244  0155' 0183'              	clrf	___awdiv@dividend+1
  5245  0156' 1B82'              	btfsc	___awdiv@dividend,7
  5246  0157' 0383'              	decf	___awdiv@dividend+1,f
  5247  0158' 120A' 118A' 2000' 120A' 118A' 	fcall	___awdiv
  5248  015D' 1283               	bcf	3,5	;RP0=0, select bank0
  5249  015E' 1303               	bcf	3,6	;RP1=0, select bank0
  5250  015F' 0800'              	movf	?___awdiv,w
  5251  0160' 00AB'              	movwf	??_scale+5
  5252  0161' 3001               	movlw	1
  5253  0162'                    u6865:
  5254  0162' 1003               	clrc
  5255  0163' 0DAB'              	rlf	??_scale+5,f
  5256  0164' 3EFF               	addlw	-1
  5257  0165' 1D03               	skipz
  5258  0166' 2800'              	goto	u6865
  5259  0167' 1003               	clrc
  5260  0168' 0D2B'              	rlf	??_scale+5,w
  5261  0169' 3E24               	addlw	36
  5262  016A' 3E00'              	addlw	low (__npowers_| (0+32768))
  5263  016B' 0084               	movwf	4
  5264  016C' 3000'              	movlw	high (__npowers_| (0+32768))
  5265  016D' 1803               	skipnc
  5266  016E' 3E01               	addlw	1
  5267  016F' 00FF               	movwf	btemp+1
  5268  0170' 120A' 118A' 2000' 120A' 118A' 	fcall	stringtab
  5269  0175' 00AC'              	movwf	??_scale+6
  5270  0176' 120A' 118A' 2000' 120A' 118A' 	fcall	stringtab
  5271  017B' 00AD'              	movwf	??_scale+7
  5272  017C' 120A' 118A' 2000' 120A' 118A' 	fcall	stringtab
  5273  0181' 00AE'              	movwf	??_scale+8
  5274  0182' 120A' 118A' 2000' 120A' 118A' 	fcall	stringtab
  5275  0187' 00AF'              	movwf	??_scale+9
  5276  0188' 082F'              	movf	??_scale+9,w
  5277  0189' 008F'              	movwf	___flmul@a+3
  5278  018A' 082E'              	movf	??_scale+8,w
  5279  018B' 008E'              	movwf	___flmul@a+2
  5280  018C' 082D'              	movf	??_scale+7,w
  5281  018D' 008D'              	movwf	___flmul@a+1
  5282  018E' 082C'              	movf	??_scale+6,w
  5283  018F' 008C'              	movwf	___flmul@a
  5284  0190' 120A' 118A' 2000' 120A' 118A' 	fcall	___flmul
  5285  0195' 1283               	bcf	3,5	;RP0=0, select bank0
  5286  0196' 1303               	bcf	3,6	;RP1=0, select bank0
  5287  0197' 080B'              	movf	?___flmul+3,w
  5288  0198' 00A5'              	movwf	?_scale+3
  5289  0199' 080A'              	movf	?___flmul+2,w
  5290  019A' 00A4'              	movwf	?_scale+2
  5291  019B' 0809'              	movf	?___flmul+1,w
  5292  019C' 00A3'              	movwf	?_scale+1
  5293  019D' 0808'              	movf	?___flmul,w
  5294  019E' 00A2'              	movwf	?_scale
  5295  019F' 2800'              	goto	l368
  5296  01A0'                    l4283:
  5297                           
  5298                           ;C:\Program Files\Microchip\xc8\v2.31\pic\sources\c90\common\doprnt.c: 442:   return _np
      +                          owers_[(unsigned char)scl];
  5299  01A0' 0834'              	movf	scale@scl,w
  5300  01A1' 00A6'              	movwf	??_scale
  5301  01A2' 3001               	movlw	1
  5302  01A3'                    u6875:
  5303  01A3' 1003               	clrc
  5304  01A4' 0DA6'              	rlf	??_scale,f
  5305  01A5' 3EFF               	addlw	-1
  5306  01A6' 1D03               	skipz
  5307  01A7' 2800'              	goto	u6875
  5308  01A8' 1003               	clrc
  5309  01A9' 0D26'              	rlf	??_scale,w
  5310  01AA' 3E00'              	addlw	low (__npowers_| (0+32768))
  5311  01AB' 0084               	movwf	4
  5312  01AC' 3000'              	movlw	high (__npowers_| (0+32768))
  5313  01AD' 1803               	skipnc
  5314  01AE' 3E01               	addlw	1
  5315  01AF' 00FF               	movwf	btemp+1
  5316  01B0' 120A' 118A' 2000' 120A' 118A' 	fcall	stringtab
  5317  01B5' 00A7'              	movwf	??_scale+1
  5318  01B6' 120A' 118A' 2000' 120A' 118A' 	fcall	stringtab
  5319  01BB' 00A8'              	movwf	??_scale+2
  5320  01BC' 120A' 118A' 2000' 120A' 118A' 	fcall	stringtab
  5321  01C1' 00A9'              	movwf	??_scale+3
  5322  01C2' 120A' 118A' 2000' 120A' 118A' 	fcall	stringtab
  5323  01C7' 00AA'              	movwf	??_scale+4
  5324  01C8' 082A'              	movf	??_scale+4,w
  5325  01C9' 00A5'              	movwf	?_scale+3
  5326  01CA' 0829'              	movf	??_scale+3,w
  5327  01CB' 00A4'              	movwf	?_scale+2
  5328  01CC' 0828'              	movf	??_scale+2,w
  5329  01CD' 00A3'              	movwf	?_scale+1
  5330  01CE' 0827'              	movf	??_scale+1,w
  5331  01CF' 00A2'              	movwf	?_scale
  5332  01D0' 2800'              	goto	l368
  5333  01D1'                    l4287:
  5334                           
  5335                           ;C:\Program Files\Microchip\xc8\v2.31\pic\sources\c90\common\doprnt.c: 444:  if(scl>=110
      +                          )
  5336  01D1' 0834'              	movf	scale@scl,w
  5337  01D2' 3A80               	xorlw	128
  5338  01D3' 3E12               	addlw	-238
  5339  01D4' 1C03               	skipc
  5340  01D5' 2800'              	goto	u6881
  5341  01D6' 2800'              	goto	u6880
  5342  01D7'                    u6881:
  5343  01D7' 2800'              	goto	l4295
  5344  01D8'                    u6880:
  5345  01D8'                    l4289:
  5346                           
  5347                           ;C:\Program Files\Microchip\xc8\v2.31\pic\sources\c90\common\doprnt.c: 445:   return _po
      +                          wers_[(unsigned char)(scl/100+18)] * _powers_[(unsigned char)((scl%100)/10+9)] * _powers
      +                          _[(unsigned char)(scl%10)];
  5348  01D8' 300A               	movlw	10
  5349  01D9' 0080'              	movwf	___awdiv@divisor
  5350  01DA' 3000               	movlw	0
  5351  01DB' 0081'              	movwf	___awdiv@divisor+1
  5352  01DC' 0834'              	movf	scale@scl,w
  5353  01DD' 0084'              	movwf	___awmod@dividend
  5354  01DE' 0185'              	clrf	___awmod@dividend+1
  5355  01DF' 1B84'              	btfsc	___awmod@dividend,7
  5356  01E0' 0385'              	decf	___awmod@dividend+1,f
  5357  01E1' 3064               	movlw	100
  5358  01E2' 0082'              	movwf	___awmod@divisor
  5359  01E3' 3000               	movlw	0
  5360  01E4' 0083'              	movwf	___awmod@divisor+1
  5361  01E5' 120A' 118A' 2000' 120A' 118A' 	fcall	___awmod
  5362  01EA' 0803'              	movf	?___awmod+1,w
  5363  01EB' 1283               	bcf	3,5	;RP0=0, select bank0
  5364  01EC' 1303               	bcf	3,6	;RP1=0, select bank0
  5365  01ED' 0083'              	movwf	___awdiv@dividend+1
  5366  01EE' 0802'              	movf	?___awmod,w
  5367  01EF' 0082'              	movwf	___awdiv@dividend
  5368  01F0' 120A' 118A' 2000' 120A' 118A' 	fcall	___awdiv
  5369  01F5' 1283               	bcf	3,5	;RP0=0, select bank0
  5370  01F6' 1303               	bcf	3,6	;RP1=0, select bank0
  5371  01F7' 0800'              	movf	?___awdiv,w
  5372  01F8' 00A6'              	movwf	??_scale
  5373  01F9' 3001               	movlw	1
  5374  01FA'                    u6895:
  5375  01FA' 1003               	clrc
  5376  01FB' 0DA6'              	rlf	??_scale,f
  5377  01FC' 3EFF               	addlw	-1
  5378  01FD' 1D03               	skipz
  5379  01FE' 2800'              	goto	u6895
  5380  01FF' 1003               	clrc
  5381  0200' 0D26'              	rlf	??_scale,w
  5382  0201' 3E24               	addlw	36
  5383  0202' 3E00'              	addlw	low (__powers_| (0+32768))
  5384  0203' 0084               	movwf	4
  5385  0204' 3000'              	movlw	high (__powers_| (0+32768))
  5386  0205' 1803               	skipnc
  5387  0206' 3E01               	addlw	1
  5388  0207' 00FF               	movwf	btemp+1
  5389  0208' 120A' 118A' 2000' 120A' 118A' 	fcall	stringtab
  5390  020D' 00A7'              	movwf	??_scale+1
  5391  020E' 120A' 118A' 2000' 120A' 118A' 	fcall	stringtab
  5392  0213' 00A8'              	movwf	??_scale+2
  5393  0214' 120A' 118A' 2000' 120A' 118A' 	fcall	stringtab
  5394  0219' 00A9'              	movwf	??_scale+3
  5395  021A' 120A' 118A' 2000' 120A' 118A' 	fcall	stringtab
  5396  021F' 00AA'              	movwf	??_scale+4
  5397  0220' 082A'              	movf	??_scale+4,w
  5398  0221' 008B'              	movwf	___flmul@b+3
  5399  0222' 0829'              	movf	??_scale+3,w
  5400  0223' 008A'              	movwf	___flmul@b+2
  5401  0224' 0828'              	movf	??_scale+2,w
  5402  0225' 0089'              	movwf	___flmul@b+1
  5403  0226' 0827'              	movf	??_scale+1,w
  5404  0227' 0088'              	movwf	___flmul@b
  5405  0228' 3064               	movlw	100
  5406  0229' 0080'              	movwf	___awdiv@divisor
  5407  022A' 3000               	movlw	0
  5408  022B' 0081'              	movwf	___awdiv@divisor+1
  5409  022C' 0834'              	movf	scale@scl,w
  5410  022D' 0082'              	movwf	___awdiv@dividend
  5411  022E' 0183'              	clrf	___awdiv@dividend+1
  5412  022F' 1B82'              	btfsc	___awdiv@dividend,7
  5413  0230' 0383'              	decf	___awdiv@dividend+1,f
  5414  0231' 120A' 118A' 2000' 120A' 118A' 	fcall	___awdiv
  5415  0236' 1283               	bcf	3,5	;RP0=0, select bank0
  5416  0237' 1303               	bcf	3,6	;RP1=0, select bank0
  5417  0238' 0800'              	movf	?___awdiv,w
  5418  0239' 00AB'              	movwf	??_scale+5
  5419  023A' 3001               	movlw	1
  5420  023B'                    u6905:
  5421  023B' 1003               	clrc
  5422  023C' 0DAB'              	rlf	??_scale+5,f
  5423  023D' 3EFF               	addlw	-1
  5424  023E' 1D03               	skipz
  5425  023F' 2800'              	goto	u6905
  5426  0240' 1003               	clrc
  5427  0241' 0D2B'              	rlf	??_scale+5,w
  5428  0242' 3E48               	addlw	72
  5429  0243' 3E00'              	addlw	low (__powers_| (0+32768))
  5430  0244' 0084               	movwf	4
  5431  0245' 3000'              	movlw	high (__powers_| (0+32768))
  5432  0246' 1803               	skipnc
  5433  0247' 3E01               	addlw	1
  5434  0248' 00FF               	movwf	btemp+1
  5435  0249' 120A' 118A' 2000' 120A' 118A' 	fcall	stringtab
  5436  024E' 00AC'              	movwf	??_scale+6
  5437  024F' 120A' 118A' 2000' 120A' 118A' 	fcall	stringtab
  5438  0254' 00AD'              	movwf	??_scale+7
  5439  0255' 120A' 118A' 2000' 120A' 118A' 	fcall	stringtab
  5440  025A' 00AE'              	movwf	??_scale+8
  5441  025B' 120A' 118A' 2000' 120A' 118A' 	fcall	stringtab
  5442  0260' 00AF'              	movwf	??_scale+9
  5443  0261' 082F'              	movf	??_scale+9,w
  5444  0262' 008F'              	movwf	___flmul@a+3
  5445  0263' 082E'              	movf	??_scale+8,w
  5446  0264' 008E'              	movwf	___flmul@a+2
  5447  0265' 082D'              	movf	??_scale+7,w
  5448  0266' 008D'              	movwf	___flmul@a+1
  5449  0267' 082C'              	movf	??_scale+6,w
  5450  0268' 008C'              	movwf	___flmul@a
  5451  0269' 120A' 118A' 2000' 120A' 118A' 	fcall	___flmul
  5452  026E' 1283               	bcf	3,5	;RP0=0, select bank0
  5453  026F' 1303               	bcf	3,6	;RP1=0, select bank0
  5454  0270' 080B'              	movf	?___flmul+3,w
  5455  0271' 00B3'              	movwf	_scale$1396+3
  5456  0272' 080A'              	movf	?___flmul+2,w
  5457  0273' 00B2'              	movwf	_scale$1396+2
  5458  0274' 0809'              	movf	?___flmul+1,w
  5459  0275' 00B1'              	movwf	_scale$1396+1
  5460  0276' 0808'              	movf	?___flmul,w
  5461  0277' 00B0'              	movwf	_scale$1396
  5462                           
  5463                           ;C:\Program Files\Microchip\xc8\v2.31\pic\sources\c90\common\doprnt.c: 445:   return _po
      +                          wers_[(unsigned char)(scl/100+18)] * _powers_[(unsigned char)((scl%100)/10+9)] * _powers
      +                          _[(unsigned char)(scl%10)];
  5464  0278' 300A               	movlw	10
  5465  0279' 0082'              	movwf	___awmod@divisor
  5466  027A' 3000               	movlw	0
  5467  027B' 0083'              	movwf	___awmod@divisor+1
  5468  027C' 0834'              	movf	scale@scl,w
  5469  027D' 0084'              	movwf	___awmod@dividend
  5470  027E' 0185'              	clrf	___awmod@dividend+1
  5471  027F' 1B84'              	btfsc	___awmod@dividend,7
  5472  0280' 0385'              	decf	___awmod@dividend+1,f
  5473  0281' 120A' 118A' 2000' 120A' 118A' 	fcall	___awmod
  5474  0286' 0802'              	movf	?___awmod,w
  5475  0287' 1283               	bcf	3,5	;RP0=0, select bank0
  5476  0288' 1303               	bcf	3,6	;RP1=0, select bank0
  5477  0289' 00A6'              	movwf	??_scale
  5478  028A' 3001               	movlw	1
  5479  028B'                    u6915:
  5480  028B' 1003               	clrc
  5481  028C' 0DA6'              	rlf	??_scale,f
  5482  028D' 3EFF               	addlw	-1
  5483  028E' 1D03               	skipz
  5484  028F' 2800'              	goto	u6915
  5485  0290' 1003               	clrc
  5486  0291' 0D26'              	rlf	??_scale,w
  5487  0292' 3E00'              	addlw	low (__powers_| (0+32768))
  5488  0293' 0084               	movwf	4
  5489  0294' 3000'              	movlw	high (__powers_| (0+32768))
  5490  0295' 1803               	skipnc
  5491  0296' 3E01               	addlw	1
  5492  0297' 00FF               	movwf	btemp+1
  5493  0298' 120A' 118A' 2000' 120A' 118A' 	fcall	stringtab
  5494  029D' 00A7'              	movwf	??_scale+1
  5495  029E' 120A' 118A' 2000' 120A' 118A' 	fcall	stringtab
  5496  02A3' 00A8'              	movwf	??_scale+2
  5497  02A4' 120A' 118A' 2000' 120A' 118A' 	fcall	stringtab
  5498  02A9' 00A9'              	movwf	??_scale+3
  5499  02AA' 120A' 118A' 2000' 120A' 118A' 	fcall	stringtab
  5500  02AF' 00AA'              	movwf	??_scale+4
  5501  02B0' 082A'              	movf	??_scale+4,w
  5502  02B1' 008B'              	movwf	___flmul@b+3
  5503  02B2' 0829'              	movf	??_scale+3,w
  5504  02B3' 008A'              	movwf	___flmul@b+2
  5505  02B4' 0828'              	movf	??_scale+2,w
  5506  02B5' 0089'              	movwf	___flmul@b+1
  5507  02B6' 0827'              	movf	??_scale+1,w
  5508  02B7' 0088'              	movwf	___flmul@b
  5509  02B8' 0833'              	movf	_scale$1396+3,w
  5510  02B9' 008F'              	movwf	___flmul@a+3
  5511  02BA' 0832'              	movf	_scale$1396+2,w
  5512  02BB' 008E'              	movwf	___flmul@a+2
  5513  02BC' 0831'              	movf	_scale$1396+1,w
  5514  02BD' 008D'              	movwf	___flmul@a+1
  5515  02BE' 0830'              	movf	_scale$1396,w
  5516  02BF' 008C'              	movwf	___flmul@a
  5517  02C0' 120A' 118A' 2000' 120A' 118A' 	fcall	___flmul
  5518  02C5' 1283               	bcf	3,5	;RP0=0, select bank0
  5519  02C6' 1303               	bcf	3,6	;RP1=0, select bank0
  5520  02C7' 080B'              	movf	?___flmul+3,w
  5521  02C8' 00A5'              	movwf	?_scale+3
  5522  02C9' 080A'              	movf	?___flmul+2,w
  5523  02CA' 00A4'              	movwf	?_scale+2
  5524  02CB' 0809'              	movf	?___flmul+1,w
  5525  02CC' 00A3'              	movwf	?_scale+1
  5526  02CD' 0808'              	movf	?___flmul,w
  5527  02CE' 00A2'              	movwf	?_scale
  5528  02CF' 2800'              	goto	l368
  5529  02D0'                    l4295:
  5530  02D0' 0834'              	movf	scale@scl,w
  5531  02D1' 3A80               	xorlw	128
  5532  02D2' 3E75               	addlw	-139
  5533  02D3' 1C03               	skipc
  5534  02D4' 2800'              	goto	u6921
  5535  02D5' 2800'              	goto	u6920
  5536  02D6'                    u6921:
  5537  02D6' 2800'              	goto	l4301
  5538  02D7'                    u6920:
  5539  02D7'                    l4297:
  5540                           
  5541                           ;C:\Program Files\Microchip\xc8\v2.31\pic\sources\c90\common\doprnt.c: 447:   return _po
      +                          wers_[(unsigned char)(scl/10+9)] * _powers_[(unsigned char)(scl%10)];
  5542  02D7' 300A               	movlw	10
  5543  02D8' 0082'              	movwf	___awmod@divisor
  5544  02D9' 3000               	movlw	0
  5545  02DA' 0083'              	movwf	___awmod@divisor+1
  5546  02DB' 0834'              	movf	scale@scl,w
  5547  02DC' 0084'              	movwf	___awmod@dividend
  5548  02DD' 0185'              	clrf	___awmod@dividend+1
  5549  02DE' 1B84'              	btfsc	___awmod@dividend,7
  5550  02DF' 0385'              	decf	___awmod@dividend+1,f
  5551  02E0' 120A' 118A' 2000' 120A' 118A' 	fcall	___awmod
  5552  02E5' 0802'              	movf	?___awmod,w
  5553  02E6' 1283               	bcf	3,5	;RP0=0, select bank0
  5554  02E7' 1303               	bcf	3,6	;RP1=0, select bank0
  5555  02E8' 00A6'              	movwf	??_scale
  5556  02E9' 3001               	movlw	1
  5557  02EA'                    u6935:
  5558  02EA' 1003               	clrc
  5559  02EB' 0DA6'              	rlf	??_scale,f
  5560  02EC' 3EFF               	addlw	-1
  5561  02ED' 1D03               	skipz
  5562  02EE' 2800'              	goto	u6935
  5563  02EF' 1003               	clrc
  5564  02F0' 0D26'              	rlf	??_scale,w
  5565  02F1' 3E00'              	addlw	low (__powers_| (0+32768))
  5566  02F2' 0084               	movwf	4
  5567  02F3' 3000'              	movlw	high (__powers_| (0+32768))
  5568  02F4' 1803               	skipnc
  5569  02F5' 3E01               	addlw	1
  5570  02F6' 00FF               	movwf	btemp+1
  5571  02F7' 120A' 118A' 2000' 120A' 118A' 	fcall	stringtab
  5572  02FC' 00A7'              	movwf	??_scale+1
  5573  02FD' 120A' 118A' 2000' 120A' 118A' 	fcall	stringtab
  5574  0302' 00A8'              	movwf	??_scale+2
  5575  0303' 120A' 118A' 2000' 120A' 118A' 	fcall	stringtab
  5576  0308' 00A9'              	movwf	??_scale+3
  5577  0309' 120A' 118A' 2000' 120A' 118A' 	fcall	stringtab
  5578  030E' 00AA'              	movwf	??_scale+4
  5579  030F' 082A'              	movf	??_scale+4,w
  5580  0310' 008B'              	movwf	___flmul@b+3
  5581  0311' 0829'              	movf	??_scale+3,w
  5582  0312' 008A'              	movwf	___flmul@b+2
  5583  0313' 0828'              	movf	??_scale+2,w
  5584  0314' 0089'              	movwf	___flmul@b+1
  5585  0315' 0827'              	movf	??_scale+1,w
  5586  0316' 0088'              	movwf	___flmul@b
  5587  0317' 300A               	movlw	10
  5588  0318' 0080'              	movwf	___awdiv@divisor
  5589  0319' 3000               	movlw	0
  5590  031A' 0081'              	movwf	___awdiv@divisor+1
  5591  031B' 0834'              	movf	scale@scl,w
  5592  031C' 0082'              	movwf	___awdiv@dividend
  5593  031D' 0183'              	clrf	___awdiv@dividend+1
  5594  031E' 1B82'              	btfsc	___awdiv@dividend,7
  5595  031F' 0383'              	decf	___awdiv@dividend+1,f
  5596  0320' 120A' 118A' 2000' 120A' 118A' 	fcall	___awdiv
  5597  0325' 1283               	bcf	3,5	;RP0=0, select bank0
  5598  0326' 1303               	bcf	3,6	;RP1=0, select bank0
  5599  0327' 0800'              	movf	?___awdiv,w
  5600  0328' 00AB'              	movwf	??_scale+5
  5601  0329' 3001               	movlw	1
  5602  032A'                    u6945:
  5603  032A' 1003               	clrc
  5604  032B' 0DAB'              	rlf	??_scale+5,f
  5605  032C' 3EFF               	addlw	-1
  5606  032D' 1D03               	skipz
  5607  032E' 2800'              	goto	u6945
  5608  032F' 1003               	clrc
  5609  0330' 0D2B'              	rlf	??_scale+5,w
  5610  0331' 3E24               	addlw	36
  5611  0332' 3E00'              	addlw	low (__powers_| (0+32768))
  5612  0333' 0084               	movwf	4
  5613  0334' 3000'              	movlw	high (__powers_| (0+32768))
  5614  0335' 1803               	skipnc
  5615  0336' 3E01               	addlw	1
  5616  0337' 00FF               	movwf	btemp+1
  5617  0338' 120A' 118A' 2000' 120A' 118A' 	fcall	stringtab
  5618  033D' 00AC'              	movwf	??_scale+6
  5619  033E' 120A' 118A' 2000' 120A' 118A' 	fcall	stringtab
  5620  0343' 00AD'              	movwf	??_scale+7
  5621  0344' 120A' 118A' 2000' 120A' 118A' 	fcall	stringtab
  5622  0349' 00AE'              	movwf	??_scale+8
  5623  034A' 120A' 118A' 2000' 120A' 118A' 	fcall	stringtab
  5624  034F' 00AF'              	movwf	??_scale+9
  5625  0350' 082F'              	movf	??_scale+9,w
  5626  0351' 008F'              	movwf	___flmul@a+3
  5627  0352' 082E'              	movf	??_scale+8,w
  5628  0353' 008E'              	movwf	___flmul@a+2
  5629  0354' 082D'              	movf	??_scale+7,w
  5630  0355' 008D'              	movwf	___flmul@a+1
  5631  0356' 082C'              	movf	??_scale+6,w
  5632  0357' 008C'              	movwf	___flmul@a
  5633  0358' 120A' 118A' 2000' 120A' 118A' 	fcall	___flmul
  5634  035D' 1283               	bcf	3,5	;RP0=0, select bank0
  5635  035E' 1303               	bcf	3,6	;RP1=0, select bank0
  5636  035F' 080B'              	movf	?___flmul+3,w
  5637  0360' 00A5'              	movwf	?_scale+3
  5638  0361' 080A'              	movf	?___flmul+2,w
  5639  0362' 00A4'              	movwf	?_scale+2
  5640  0363' 0809'              	movf	?___flmul+1,w
  5641  0364' 00A3'              	movwf	?_scale+1
  5642  0365' 0808'              	movf	?___flmul,w
  5643  0366' 00A2'              	movwf	?_scale
  5644  0367' 2800'              	goto	l368
  5645  0368'                    l4301:
  5646                           
  5647                           ;C:\Program Files\Microchip\xc8\v2.31\pic\sources\c90\common\doprnt.c: 448:  return _pow
      +                          ers_[(unsigned char)scl];
  5648  0368' 0834'              	movf	scale@scl,w
  5649  0369' 00A6'              	movwf	??_scale
  5650  036A' 3001               	movlw	1
  5651  036B'                    u6955:
  5652  036B' 1003               	clrc
  5653  036C' 0DA6'              	rlf	??_scale,f
  5654  036D' 3EFF               	addlw	-1
  5655  036E' 1D03               	skipz
  5656  036F' 2800'              	goto	u6955
  5657  0370' 1003               	clrc
  5658  0371' 0D26'              	rlf	??_scale,w
  5659  0372' 3E00'              	addlw	low (__powers_| (0+32768))
  5660  0373' 0084               	movwf	4
  5661  0374' 3000'              	movlw	high (__powers_| (0+32768))
  5662  0375' 1803               	skipnc
  5663  0376' 3E01               	addlw	1
  5664  0377' 00FF               	movwf	btemp+1
  5665  0378' 120A' 118A' 2000' 120A' 118A' 	fcall	stringtab
  5666  037D' 00A7'              	movwf	??_scale+1
  5667  037E' 120A' 118A' 2000' 120A' 118A' 	fcall	stringtab
  5668  0383' 00A8'              	movwf	??_scale+2
  5669  0384' 120A' 118A' 2000' 120A' 118A' 	fcall	stringtab
  5670  0389' 00A9'              	movwf	??_scale+3
  5671  038A' 120A' 118A' 2000' 120A' 118A' 	fcall	stringtab
  5672  038F' 00AA'              	movwf	??_scale+4
  5673  0390' 082A'              	movf	??_scale+4,w
  5674  0391' 00A5'              	movwf	?_scale+3
  5675  0392' 0829'              	movf	??_scale+3,w
  5676  0393' 00A4'              	movwf	?_scale+2
  5677  0394' 0828'              	movf	??_scale+2,w
  5678  0395' 00A3'              	movwf	?_scale+1
  5679  0396' 0827'              	movf	??_scale+1,w
  5680  0397' 00A2'              	movwf	?_scale
  5681  0398'                    l368:
  5682  0398' 0008               	return
  5683  0399'                    __end_of_scale:
  5684                           
  5685                           	psect	text4
  5686  0000'                    __ptext4:	
  5687 ;; *************** function ___awmod *****************
  5688 ;; Defined at:
  5689 ;;		line 5 in file "C:\Program Files\Microchip\xc8\v2.31\pic\sources\c90\common\awmod.c"
  5690 ;; Parameters:    Size  Location     Type
  5691 ;;  divisor         2    2[COMMON] int 
  5692 ;;  dividend        2    4[COMMON] int 
  5693 ;; Auto vars:     Size  Location     Type
  5694 ;;  sign            1    8[COMMON] unsigned char 
  5695 ;;  counter         1    7[COMMON] unsigned char 
  5696 ;; Return value:  Size  Location     Type
  5697 ;;                  2    2[COMMON] int 
  5698 ;; Registers used:
  5699 ;;		wreg, status,2, status,0
  5700 ;; Tracked objects:
  5701 ;;		On entry : 0/0
  5702 ;;		On exit  : 0/0
  5703 ;;		Unchanged: 0/0
  5704 ;; Data sizes:     COMMON   BANK0   BANK1   BANK3   BANK2
  5705 ;;      Params:         4       0       0       0       0
  5706 ;;      Locals:         2       0       0       0       0
  5707 ;;      Temps:          1       0       0       0       0
  5708 ;;      Totals:         7       0       0       0       0
  5709 ;;Total ram usage:        7 bytes
  5710 ;; Hardware stack levels used:    1
  5711 ;; Hardware stack levels required when called:    2
  5712 ;; This function calls:
  5713 ;;		Nothing
  5714 ;; This function is called by:
  5715 ;;		_scale
  5716 ;; This function uses a non-reentrant model
  5717 ;;
  5718                           
  5719                           
  5720                           ;psect for function ___awmod
  5721  0000'                    ___awmod:
  5722  0000'                    l2633:	
  5723                           ;incstack = 0
  5724                           ; Regs used in ___awmod: [wreg+status,2+status,0]
  5725                           
  5726  0000' 0188'              	clrf	___awmod@sign
  5727  0001'                    l2635:
  5728  0001' 1F85'              	btfss	___awmod@dividend+1,7
  5729  0002' 2800'              	goto	u3311
  5730  0003' 2800'              	goto	u3310
  5731  0004'                    u3311:
  5732  0004' 2800'              	goto	l2641
  5733  0005'                    u3310:
  5734  0005'                    l2637:
  5735  0005' 0984'              	comf	___awmod@dividend,f
  5736  0006' 0985'              	comf	___awmod@dividend+1,f
  5737  0007' 0A84'              	incf	___awmod@dividend,f
  5738  0008' 1903               	skipnz
  5739  0009' 0A85'              	incf	___awmod@dividend+1,f
  5740  000A'                    l2639:
  5741  000A' 0188'              	clrf	___awmod@sign
  5742  000B' 0A88'              	incf	___awmod@sign,f
  5743  000C'                    l2641:
  5744  000C' 1F83'              	btfss	___awmod@divisor+1,7
  5745  000D' 2800'              	goto	u3321
  5746  000E' 2800'              	goto	u3320
  5747  000F'                    u3321:
  5748  000F' 2800'              	goto	l2645
  5749  0010'                    u3320:
  5750  0010'                    l2643:
  5751  0010' 0982'              	comf	___awmod@divisor,f
  5752  0011' 0983'              	comf	___awmod@divisor+1,f
  5753  0012' 0A82'              	incf	___awmod@divisor,f
  5754  0013' 1903               	skipnz
  5755  0014' 0A83'              	incf	___awmod@divisor+1,f
  5756  0015'                    l2645:
  5757  0015' 0802'              	movf	___awmod@divisor,w
  5758  0016' 0403'              	iorwf	___awmod@divisor+1,w
  5759  0017' 1903               	btfsc	3,2
  5760  0018' 2800'              	goto	u3331
  5761  0019' 2800'              	goto	u3330
  5762  001A'                    u3331:
  5763  001A' 2800'              	goto	l2663
  5764  001B'                    u3330:
  5765  001B'                    l2647:
  5766  001B' 0187'              	clrf	___awmod@counter
  5767  001C' 0A87'              	incf	___awmod@counter,f
  5768  001D' 2800'              	goto	l2653
  5769  001E'                    l2649:
  5770  001E' 3001               	movlw	1
  5771  001F'                    u3345:
  5772  001F' 1003               	clrc
  5773  0020' 0D82'              	rlf	___awmod@divisor,f
  5774  0021' 0D83'              	rlf	___awmod@divisor+1,f
  5775  0022' 3EFF               	addlw	-1
  5776  0023' 1D03               	skipz
  5777  0024' 2800'              	goto	u3345
  5778  0025'                    l2651:
  5779  0025' 3001               	movlw	1
  5780  0026' 0086'              	movwf	??___awmod
  5781  0027' 0806'              	movf	??___awmod,w
  5782  0028' 0787'              	addwf	___awmod@counter,f
  5783  0029'                    l2653:
  5784  0029' 1F83'              	btfss	___awmod@divisor+1,7
  5785  002A' 2800'              	goto	u3351
  5786  002B' 2800'              	goto	u3350
  5787  002C'                    u3351:
  5788  002C' 2800'              	goto	l2649
  5789  002D'                    u3350:
  5790  002D'                    l2655:
  5791  002D' 0803'              	movf	___awmod@divisor+1,w
  5792  002E' 0205'              	subwf	___awmod@dividend+1,w
  5793  002F' 1D03               	skipz
  5794  0030' 2800'              	goto	u3365
  5795  0031' 0802'              	movf	___awmod@divisor,w
  5796  0032' 0204'              	subwf	___awmod@dividend,w
  5797  0033'                    u3365:
  5798  0033' 1C03               	skipc
  5799  0034' 2800'              	goto	u3361
  5800  0035' 2800'              	goto	u3360
  5801  0036'                    u3361:
  5802  0036' 2800'              	goto	l2659
  5803  0037'                    u3360:
  5804  0037'                    l2657:
  5805  0037' 0802'              	movf	___awmod@divisor,w
  5806  0038' 0284'              	subwf	___awmod@dividend,f
  5807  0039' 0803'              	movf	___awmod@divisor+1,w
  5808  003A' 1C03               	skipc
  5809  003B' 0385'              	decf	___awmod@dividend+1,f
  5810  003C' 0285'              	subwf	___awmod@dividend+1,f
  5811  003D'                    l2659:
  5812  003D' 3001               	movlw	1
  5813  003E'                    u3375:
  5814  003E' 1003               	clrc
  5815  003F' 0C83'              	rrf	___awmod@divisor+1,f
  5816  0040' 0C82'              	rrf	___awmod@divisor,f
  5817  0041' 3EFF               	addlw	-1
  5818  0042' 1D03               	skipz
  5819  0043' 2800'              	goto	u3375
  5820  0044'                    l2661:
  5821  0044' 3001               	movlw	1
  5822  0045' 0287'              	subwf	___awmod@counter,f
  5823  0046' 1D03               	btfss	3,2
  5824  0047' 2800'              	goto	u3381
  5825  0048' 2800'              	goto	u3380
  5826  0049'                    u3381:
  5827  0049' 2800'              	goto	l2655
  5828  004A'                    u3380:
  5829  004A'                    l2663:
  5830  004A' 0808'              	movf	___awmod@sign,w
  5831  004B' 1903               	btfsc	3,2
  5832  004C' 2800'              	goto	u3391
  5833  004D' 2800'              	goto	u3390
  5834  004E'                    u3391:
  5835  004E' 2800'              	goto	l2667
  5836  004F'                    u3390:
  5837  004F'                    l2665:
  5838  004F' 0984'              	comf	___awmod@dividend,f
  5839  0050' 0985'              	comf	___awmod@dividend+1,f
  5840  0051' 0A84'              	incf	___awmod@dividend,f
  5841  0052' 1903               	skipnz
  5842  0053' 0A85'              	incf	___awmod@dividend+1,f
  5843  0054'                    l2667:
  5844  0054' 0805'              	movf	___awmod@dividend+1,w
  5845  0055' 0083'              	movwf	?___awmod+1
  5846  0056' 0804'              	movf	___awmod@dividend,w
  5847  0057' 0082'              	movwf	?___awmod
  5848  0058'                    l610:
  5849  0058' 0008               	return
  5850  0059'                    __end_of___awmod:
  5851                           
  5852                           	psect	text5
  5853  0000'                    __ptext5:	
  5854 ;; *************** function ___awdiv *****************
  5855 ;; Defined at:
  5856 ;;		line 5 in file "C:\Program Files\Microchip\xc8\v2.31\pic\sources\c90\common\awdiv.c"
  5857 ;; Parameters:    Size  Location     Type
  5858 ;;  divisor         2    0[BANK0 ] int 
  5859 ;;  dividend        2    2[BANK0 ] int 
  5860 ;; Auto vars:     Size  Location     Type
  5861 ;;  quotient        2    6[BANK0 ] int 
  5862 ;;  sign            1    5[BANK0 ] unsigned char 
  5863 ;;  counter         1    4[BANK0 ] unsigned char 
  5864 ;; Return value:  Size  Location     Type
  5865 ;;                  2    0[BANK0 ] int 
  5866 ;; Registers used:
  5867 ;;		wreg, status,2, status,0
  5868 ;; Tracked objects:
  5869 ;;		On entry : 0/0
  5870 ;;		On exit  : 0/0
  5871 ;;		Unchanged: 0/0
  5872 ;; Data sizes:     COMMON   BANK0   BANK1   BANK3   BANK2
  5873 ;;      Params:         0       4       0       0       0
  5874 ;;      Locals:         0       4       0       0       0
  5875 ;;      Temps:          1       0       0       0       0
  5876 ;;      Totals:         1       8       0       0       0
  5877 ;;Total ram usage:        9 bytes
  5878 ;; Hardware stack levels used:    1
  5879 ;; Hardware stack levels required when called:    2
  5880 ;; This function calls:
  5881 ;;		Nothing
  5882 ;; This function is called by:
  5883 ;;		_scale
  5884 ;;		_sprintf
  5885 ;; This function uses a non-reentrant model
  5886 ;;
  5887                           
  5888                           
  5889                           ;psect for function ___awdiv
  5890  0000'                    ___awdiv:
  5891  0000'                    l2589:	
  5892                           ;incstack = 0
  5893                           ; Regs used in ___awdiv: [wreg+status,2+status,0]
  5894                           
  5895  0000' 1283               	bcf	3,5	;RP0=0, select bank0
  5896  0001' 1303               	bcf	3,6	;RP1=0, select bank0
  5897  0002' 0185'              	clrf	___awdiv@sign
  5898  0003'                    l2591:
  5899  0003' 1F81'              	btfss	___awdiv@divisor+1,7
  5900  0004' 2800'              	goto	u3211
  5901  0005' 2800'              	goto	u3210
  5902  0006'                    u3211:
  5903  0006' 2800'              	goto	l2597
  5904  0007'                    u3210:
  5905  0007'                    l2593:
  5906  0007' 0980'              	comf	___awdiv@divisor,f
  5907  0008' 0981'              	comf	___awdiv@divisor+1,f
  5908  0009' 0A80'              	incf	___awdiv@divisor,f
  5909  000A' 1903               	skipnz
  5910  000B' 0A81'              	incf	___awdiv@divisor+1,f
  5911  000C'                    l2595:
  5912  000C' 0185'              	clrf	___awdiv@sign
  5913  000D' 0A85'              	incf	___awdiv@sign,f
  5914  000E'                    l2597:
  5915  000E' 1F83'              	btfss	___awdiv@dividend+1,7
  5916  000F' 2800'              	goto	u3221
  5917  0010' 2800'              	goto	u3220
  5918  0011'                    u3221:
  5919  0011' 2800'              	goto	l2603
  5920  0012'                    u3220:
  5921  0012'                    l2599:
  5922  0012' 0982'              	comf	___awdiv@dividend,f
  5923  0013' 0983'              	comf	___awdiv@dividend+1,f
  5924  0014' 0A82'              	incf	___awdiv@dividend,f
  5925  0015' 1903               	skipnz
  5926  0016' 0A83'              	incf	___awdiv@dividend+1,f
  5927  0017'                    l2601:
  5928  0017' 3001               	movlw	1
  5929  0018' 0089'              	movwf	??___awdiv
  5930  0019' 0809'              	movf	??___awdiv,w
  5931  001A' 0685'              	xorwf	___awdiv@sign,f
  5932  001B'                    l2603:
  5933  001B' 0186'              	clrf	___awdiv@quotient
  5934  001C' 0187'              	clrf	___awdiv@quotient+1
  5935  001D'                    l2605:
  5936  001D' 0800'              	movf	___awdiv@divisor,w
  5937  001E' 0401'              	iorwf	___awdiv@divisor+1,w
  5938  001F' 1903               	btfsc	3,2
  5939  0020' 2800'              	goto	u3231
  5940  0021' 2800'              	goto	u3230
  5941  0022'                    u3231:
  5942  0022' 2800'              	goto	l2625
  5943  0023'                    u3230:
  5944  0023'                    l2607:
  5945  0023' 0184'              	clrf	___awdiv@counter
  5946  0024' 0A84'              	incf	___awdiv@counter,f
  5947  0025' 2800'              	goto	l2613
  5948  0026'                    l2609:
  5949  0026' 3001               	movlw	1
  5950  0027'                    u3245:
  5951  0027' 1003               	clrc
  5952  0028' 0D80'              	rlf	___awdiv@divisor,f
  5953  0029' 0D81'              	rlf	___awdiv@divisor+1,f
  5954  002A' 3EFF               	addlw	-1
  5955  002B' 1D03               	skipz
  5956  002C' 2800'              	goto	u3245
  5957  002D'                    l2611:
  5958  002D' 3001               	movlw	1
  5959  002E' 0089'              	movwf	??___awdiv
  5960  002F' 0809'              	movf	??___awdiv,w
  5961  0030' 0784'              	addwf	___awdiv@counter,f
  5962  0031'                    l2613:
  5963  0031' 1F81'              	btfss	___awdiv@divisor+1,7
  5964  0032' 2800'              	goto	u3251
  5965  0033' 2800'              	goto	u3250
  5966  0034'                    u3251:
  5967  0034' 2800'              	goto	l2609
  5968  0035'                    u3250:
  5969  0035'                    l2615:
  5970  0035' 3001               	movlw	1
  5971  0036'                    u3265:
  5972  0036' 1003               	clrc
  5973  0037' 0D86'              	rlf	___awdiv@quotient,f
  5974  0038' 0D87'              	rlf	___awdiv@quotient+1,f
  5975  0039' 3EFF               	addlw	-1
  5976  003A' 1D03               	skipz
  5977  003B' 2800'              	goto	u3265
  5978  003C' 0801'              	movf	___awdiv@divisor+1,w
  5979  003D' 0203'              	subwf	___awdiv@dividend+1,w
  5980  003E' 1D03               	skipz
  5981  003F' 2800'              	goto	u3275
  5982  0040' 0800'              	movf	___awdiv@divisor,w
  5983  0041' 0202'              	subwf	___awdiv@dividend,w
  5984  0042'                    u3275:
  5985  0042' 1C03               	skipc
  5986  0043' 2800'              	goto	u3271
  5987  0044' 2800'              	goto	u3270
  5988  0045'                    u3271:
  5989  0045' 2800'              	goto	l2621
  5990  0046'                    u3270:
  5991  0046'                    l2617:
  5992  0046' 0800'              	movf	___awdiv@divisor,w
  5993  0047' 0282'              	subwf	___awdiv@dividend,f
  5994  0048' 0801'              	movf	___awdiv@divisor+1,w
  5995  0049' 1C03               	skipc
  5996  004A' 0383'              	decf	___awdiv@dividend+1,f
  5997  004B' 0283'              	subwf	___awdiv@dividend+1,f
  5998  004C'                    l2619:
  5999  004C' 1406'              	bsf	___awdiv@quotient,0
  6000  004D'                    l2621:
  6001  004D' 3001               	movlw	1
  6002  004E'                    u3285:
  6003  004E' 1003               	clrc
  6004  004F' 0C81'              	rrf	___awdiv@divisor+1,f
  6005  0050' 0C80'              	rrf	___awdiv@divisor,f
  6006  0051' 3EFF               	addlw	-1
  6007  0052' 1D03               	skipz
  6008  0053' 2800'              	goto	u3285
  6009  0054'                    l2623:
  6010  0054' 3001               	movlw	1
  6011  0055' 0284'              	subwf	___awdiv@counter,f
  6012  0056' 1D03               	btfss	3,2
  6013  0057' 2800'              	goto	u3291
  6014  0058' 2800'              	goto	u3290
  6015  0059'                    u3291:
  6016  0059' 2800'              	goto	l2615
  6017  005A'                    u3290:
  6018  005A'                    l2625:
  6019  005A' 0805'              	movf	___awdiv@sign,w
  6020  005B' 1903               	btfsc	3,2
  6021  005C' 2800'              	goto	u3301
  6022  005D' 2800'              	goto	u3300
  6023  005E'                    u3301:
  6024  005E' 2800'              	goto	l2629
  6025  005F'                    u3300:
  6026  005F'                    l2627:
  6027  005F' 0986'              	comf	___awdiv@quotient,f
  6028  0060' 0987'              	comf	___awdiv@quotient+1,f
  6029  0061' 0A86'              	incf	___awdiv@quotient,f
  6030  0062' 1903               	skipnz
  6031  0063' 0A87'              	incf	___awdiv@quotient+1,f
  6032  0064'                    l2629:
  6033  0064' 0807'              	movf	___awdiv@quotient+1,w
  6034  0065' 0081'              	movwf	?___awdiv+1
  6035  0066' 0806'              	movf	___awdiv@quotient,w
  6036  0067' 0080'              	movwf	?___awdiv
  6037  0068'                    l597:
  6038  0068' 0008               	return
  6039  0069'                    __end_of___awdiv:
  6040                           
  6041                           	psect	text6
  6042  0000'                    __ptext6:	
  6043 ;; *************** function _isdigit *****************
  6044 ;; Defined at:
  6045 ;;		line 8 in file "C:\Program Files\Microchip\xc8\v2.31\pic\sources\c90\common\isdigit.c"
  6046 ;; Parameters:    Size  Location     Type
  6047 ;;  c               1    wreg     unsigned char 
  6048 ;; Auto vars:     Size  Location     Type
  6049 ;;  c               1    3[COMMON] unsigned char 
  6050 ;; Return value:  Size  Location     Type
  6051 ;;		None               void
  6052 ;; Registers used:
  6053 ;;		wreg, status,2, status,0
  6054 ;; Tracked objects:
  6055 ;;		On entry : 0/0
  6056 ;;		On exit  : 0/0
  6057 ;;		Unchanged: 0/0
  6058 ;; Data sizes:     COMMON   BANK0   BANK1   BANK3   BANK2
  6059 ;;      Params:         0       0       0       0       0
  6060 ;;      Locals:         2       0       0       0       0
  6061 ;;      Temps:          0       0       0       0       0
  6062 ;;      Totals:         2       0       0       0       0
  6063 ;;Total ram usage:        2 bytes
  6064 ;; Hardware stack levels used:    1
  6065 ;; Hardware stack levels required when called:    2
  6066 ;; This function calls:
  6067 ;;		Nothing
  6068 ;; This function is called by:
  6069 ;;		_sprintf
  6070 ;; This function uses a non-reentrant model
  6071 ;;
  6072                           
  6073                           
  6074                           ;psect for function _isdigit
  6075  0000'                    _isdigit:
  6076                           
  6077                           ;incstack = 0
  6078                           ; Regs used in _isdigit: [wreg+status,2+status,0]
  6079                           ;isdigit@c stored from wreg
  6080  0000' 0083'              	movwf	isdigit@c
  6081  0001'                    l3197:
  6082  0001' 0182'              	clrf	_isdigit$1211
  6083  0002'                    l3199:
  6084  0002' 303A               	movlw	58
  6085  0003' 0203'              	subwf	isdigit@c,w
  6086  0004' 1803               	skipnc
  6087  0005' 2800'              	goto	u4701
  6088  0006' 2800'              	goto	u4700
  6089  0007'                    u4701:
  6090  0007' 2800'              	goto	l3205
  6091  0008'                    u4700:
  6092  0008'                    l3201:
  6093  0008' 3030               	movlw	48
  6094  0009' 0203'              	subwf	isdigit@c,w
  6095  000A' 1C03               	skipc
  6096  000B' 2800'              	goto	u4711
  6097  000C' 2800'              	goto	u4710
  6098  000D'                    u4711:
  6099  000D' 2800'              	goto	l3205
  6100  000E'                    u4710:
  6101  000E'                    l3203:
  6102  000E' 0182'              	clrf	_isdigit$1211
  6103  000F' 0A82'              	incf	_isdigit$1211,f
  6104  0010'                    l3205:
  6105  0010' 0C02'              	rrf	_isdigit$1211,w
  6106  0011'                    l931:
  6107  0011' 0008               	return
  6108  0012'                    __end_of_isdigit:
  6109                           
  6110                           	psect	text7
  6111  0000'                    __ptext7:	
  6112 ;; *************** function _fround *****************
  6113 ;; Defined at:
  6114 ;;		line 417 in file "C:\Program Files\Microchip\xc8\v2.31\pic\sources\c90\common\doprnt.c"
  6115 ;; Parameters:    Size  Location     Type
  6116 ;;  prec            1    wreg     unsigned char 
  6117 ;; Auto vars:     Size  Location     Type
  6118 ;;  prec            1   53[BANK0 ] unsigned char 
  6119 ;; Return value:  Size  Location     Type
  6120 ;;                  4   34[BANK0 ] unsigned char 
  6121 ;; Registers used:
  6122 ;;		wreg, fsr0l, fsr0h, status,2, status,0, btemp+1, pclath, cstack
  6123 ;; Tracked objects:
  6124 ;;		On entry : 0/0
  6125 ;;		On exit  : 0/0
  6126 ;;		Unchanged: 0/0
  6127 ;; Data sizes:     COMMON   BANK0   BANK1   BANK3   BANK2
  6128 ;;      Params:         0       4       0       0       0
  6129 ;;      Locals:         0       9       0       0       0
  6130 ;;      Temps:          0       7       0       0       0
  6131 ;;      Totals:         0      20       0       0       0
  6132 ;;Total ram usage:       20 bytes
  6133 ;; Hardware stack levels used:    1
  6134 ;; Hardware stack levels required when called:    4
  6135 ;; This function calls:
  6136 ;;		___flmul
  6137 ;;		___lwdiv
  6138 ;;		___lwmod
  6139 ;; This function is called by:
  6140 ;;		_sprintf
  6141 ;; This function uses a non-reentrant model
  6142 ;;
  6143                           
  6144                           
  6145                           ;psect for function _fround
  6146  0000'                    _fround:
  6147                           
  6148                           ;incstack = 0
  6149                           ; Regs used in _fround: [wreg-fsr0h+status,2+status,0+btemp+1+pclath+cstack]
  6150                           ;fround@prec stored from wreg
  6151  0000' 1283               	bcf	3,5	;RP0=0, select bank0
  6152  0001' 1303               	bcf	3,6	;RP1=0, select bank0
  6153  0002' 00B5'              	movwf	fround@prec
  6154  0003'                    l4247:
  6155                           
  6156                           ;C:\Program Files\Microchip\xc8\v2.31\pic\sources\c90\common\doprnt.c: 417: fround(unsig
      +                          ned char prec);C:\Program Files\Microchip\xc8\v2.31\pic\sources\c90\common\doprnt.c: 418
      +                          : {;C:\Program Files\Microchip\xc8\v2.31\pic\sources\c90\common\doprnt.c: 421:  if(prec>
      +                          =110)
  6157  0003' 306E               	movlw	110
  6158  0004' 0235'              	subwf	fround@prec,w
  6159  0005' 1C03               	skipc
  6160  0006' 2800'              	goto	u6711
  6161  0007' 2800'              	goto	u6710
  6162  0008'                    u6711:
  6163  0008' 2800'              	goto	l4255
  6164  0009'                    u6710:
  6165  0009'                    l4249:
  6166                           
  6167                           ;C:\Program Files\Microchip\xc8\v2.31\pic\sources\c90\common\doprnt.c: 422:   return 0.5
      +                           * _npowers_[prec/100U+18U] * _npowers_[(prec%100U)/10U+9U] * _npowers_[prec%10U];
  6168  0009' 303F               	movlw	63
  6169  000A' 008B'              	movwf	___flmul@b+3
  6170  000B' 3000               	movlw	0
  6171  000C' 008A'              	movwf	___flmul@b+2
  6172  000D' 3000               	movlw	0
  6173  000E' 0089'              	movwf	___flmul@b+1
  6174  000F' 3000               	movlw	0
  6175  0010' 0088'              	movwf	___flmul@b
  6176  0011' 3064               	movlw	100
  6177  0012' 0080'              	movwf	___lwdiv@divisor
  6178  0013' 3000               	movlw	0
  6179  0014' 0081'              	movwf	___lwdiv@divisor+1
  6180  0015' 0835'              	movf	fround@prec,w
  6181  0016' 00A6'              	movwf	??_fround
  6182  0017' 01A7'              	clrf	??_fround+1
  6183  0018' 0826'              	movf	??_fround,w
  6184  0019' 0082'              	movwf	___lwdiv@dividend
  6185  001A' 0827'              	movf	??_fround+1,w
  6186  001B' 0083'              	movwf	___lwdiv@dividend+1
  6187  001C' 120A' 118A' 2000' 120A' 118A' 	fcall	___lwdiv
  6188  0021' 1283               	bcf	3,5	;RP0=0, select bank0
  6189  0022' 1303               	bcf	3,6	;RP1=0, select bank0
  6190  0023' 0800'              	movf	?___lwdiv,w
  6191  0024' 00A8'              	movwf	??_fround+2
  6192  0025' 3001               	movlw	1
  6193  0026'                    u6725:
  6194  0026' 1003               	clrc
  6195  0027' 0DA8'              	rlf	??_fround+2,f
  6196  0028' 3EFF               	addlw	-1
  6197  0029' 1D03               	skipz
  6198  002A' 2800'              	goto	u6725
  6199  002B' 1003               	clrc
  6200  002C' 0D28'              	rlf	??_fround+2,w
  6201  002D' 3E00'              	addlw	low ((__npowers_| (0+32768)+72))
  6202  002E' 0084               	movwf	4
  6203  002F' 3000'              	movlw	high ((__npowers_| (0+32768)+72))
  6204  0030' 1803               	skipnc
  6205  0031' 3E01               	addlw	1
  6206  0032' 00FF               	movwf	btemp+1
  6207  0033' 120A' 118A' 2000' 120A' 118A' 	fcall	stringtab
  6208  0038' 00A9'              	movwf	??_fround+3
  6209  0039' 120A' 118A' 2000' 120A' 118A' 	fcall	stringtab
  6210  003E' 00AA'              	movwf	??_fround+4
  6211  003F' 120A' 118A' 2000' 120A' 118A' 	fcall	stringtab
  6212  0044' 00AB'              	movwf	??_fround+5
  6213  0045' 120A' 118A' 2000' 120A' 118A' 	fcall	stringtab
  6214  004A' 00AC'              	movwf	??_fround+6
  6215  004B' 082C'              	movf	??_fround+6,w
  6216  004C' 008F'              	movwf	___flmul@a+3
  6217  004D' 082B'              	movf	??_fround+5,w
  6218  004E' 008E'              	movwf	___flmul@a+2
  6219  004F' 082A'              	movf	??_fround+4,w
  6220  0050' 008D'              	movwf	___flmul@a+1
  6221  0051' 0829'              	movf	??_fround+3,w
  6222  0052' 008C'              	movwf	___flmul@a
  6223  0053' 120A' 118A' 2000' 120A' 118A' 	fcall	___flmul
  6224  0058' 1283               	bcf	3,5	;RP0=0, select bank0
  6225  0059' 1303               	bcf	3,6	;RP1=0, select bank0
  6226  005A' 080B'              	movf	?___flmul+3,w
  6227  005B' 00B4'              	movwf	_fround$1394+3
  6228  005C' 080A'              	movf	?___flmul+2,w
  6229  005D' 00B3'              	movwf	_fround$1394+2
  6230  005E' 0809'              	movf	?___flmul+1,w
  6231  005F' 00B2'              	movwf	_fround$1394+1
  6232  0060' 0808'              	movf	?___flmul,w
  6233  0061' 00B1'              	movwf	_fround$1394
  6234                           
  6235                           ;C:\Program Files\Microchip\xc8\v2.31\pic\sources\c90\common\doprnt.c: 422:   return 0.5
      +                           * _npowers_[prec/100U+18U] * _npowers_[(prec%100U)/10U+9U] * _npowers_[prec%10U];
  6236  0062' 300A               	movlw	10
  6237  0063' 0080'              	movwf	___lwdiv@divisor
  6238  0064' 3000               	movlw	0
  6239  0065' 0081'              	movwf	___lwdiv@divisor+1
  6240  0066' 0835'              	movf	fround@prec,w
  6241  0067' 00A6'              	movwf	??_fround
  6242  0068' 01A7'              	clrf	??_fround+1
  6243  0069' 0826'              	movf	??_fround,w
  6244  006A' 0084'              	movwf	___lwmod@dividend
  6245  006B' 0827'              	movf	??_fround+1,w
  6246  006C' 0085'              	movwf	___lwmod@dividend+1
  6247  006D' 3064               	movlw	100
  6248  006E' 0082'              	movwf	___lwmod@divisor
  6249  006F' 3000               	movlw	0
  6250  0070' 0083'              	movwf	___lwmod@divisor+1
  6251  0071' 120A' 118A' 2000' 120A' 118A' 	fcall	___lwmod
  6252  0076' 0803'              	movf	?___lwmod+1,w
  6253  0077' 1283               	bcf	3,5	;RP0=0, select bank0
  6254  0078' 1303               	bcf	3,6	;RP1=0, select bank0
  6255  0079' 0083'              	movwf	___lwdiv@dividend+1
  6256  007A' 0802'              	movf	?___lwmod,w
  6257  007B' 0082'              	movwf	___lwdiv@dividend
  6258  007C' 120A' 118A' 2000' 120A' 118A' 	fcall	___lwdiv
  6259  0081' 1283               	bcf	3,5	;RP0=0, select bank0
  6260  0082' 1303               	bcf	3,6	;RP1=0, select bank0
  6261  0083' 0800'              	movf	?___lwdiv,w
  6262  0084' 00A8'              	movwf	??_fround+2
  6263  0085' 3001               	movlw	1
  6264  0086'                    u6735:
  6265  0086' 1003               	clrc
  6266  0087' 0DA8'              	rlf	??_fround+2,f
  6267  0088' 3EFF               	addlw	-1
  6268  0089' 1D03               	skipz
  6269  008A' 2800'              	goto	u6735
  6270  008B' 1003               	clrc
  6271  008C' 0D28'              	rlf	??_fround+2,w
  6272  008D' 3E00'              	addlw	low ((__npowers_| (0+32768)+36))
  6273  008E' 0084               	movwf	4
  6274  008F' 3000'              	movlw	high ((__npowers_| (0+32768)+36))
  6275  0090' 1803               	skipnc
  6276  0091' 3E01               	addlw	1
  6277  0092' 00FF               	movwf	btemp+1
  6278  0093' 120A' 118A' 2000' 120A' 118A' 	fcall	stringtab
  6279  0098' 00A9'              	movwf	??_fround+3
  6280  0099' 120A' 118A' 2000' 120A' 118A' 	fcall	stringtab
  6281  009E' 00AA'              	movwf	??_fround+4
  6282  009F' 120A' 118A' 2000' 120A' 118A' 	fcall	stringtab
  6283  00A4' 00AB'              	movwf	??_fround+5
  6284  00A5' 120A' 118A' 2000' 120A' 118A' 	fcall	stringtab
  6285  00AA' 00AC'              	movwf	??_fround+6
  6286  00AB' 082C'              	movf	??_fround+6,w
  6287  00AC' 008B'              	movwf	___flmul@b+3
  6288  00AD' 082B'              	movf	??_fround+5,w
  6289  00AE' 008A'              	movwf	___flmul@b+2
  6290  00AF' 082A'              	movf	??_fround+4,w
  6291  00B0' 0089'              	movwf	___flmul@b+1
  6292  00B1' 0829'              	movf	??_fround+3,w
  6293  00B2' 0088'              	movwf	___flmul@b
  6294  00B3' 0834'              	movf	_fround$1394+3,w
  6295  00B4' 008F'              	movwf	___flmul@a+3
  6296  00B5' 0833'              	movf	_fround$1394+2,w
  6297  00B6' 008E'              	movwf	___flmul@a+2
  6298  00B7' 0832'              	movf	_fround$1394+1,w
  6299  00B8' 008D'              	movwf	___flmul@a+1
  6300  00B9' 0831'              	movf	_fround$1394,w
  6301  00BA' 008C'              	movwf	___flmul@a
  6302  00BB' 120A' 118A' 2000' 120A' 118A' 	fcall	___flmul
  6303  00C0' 1283               	bcf	3,5	;RP0=0, select bank0
  6304  00C1' 1303               	bcf	3,6	;RP1=0, select bank0
  6305  00C2' 080B'              	movf	?___flmul+3,w
  6306  00C3' 00B0'              	movwf	_fround$1395+3
  6307  00C4' 080A'              	movf	?___flmul+2,w
  6308  00C5' 00AF'              	movwf	_fround$1395+2
  6309  00C6' 0809'              	movf	?___flmul+1,w
  6310  00C7' 00AE'              	movwf	_fround$1395+1
  6311  00C8' 0808'              	movf	?___flmul,w
  6312  00C9' 00AD'              	movwf	_fround$1395
  6313                           
  6314                           ;C:\Program Files\Microchip\xc8\v2.31\pic\sources\c90\common\doprnt.c: 422:   return 0.5
      +                           * _npowers_[prec/100U+18U] * _npowers_[(prec%100U)/10U+9U] * _npowers_[prec%10U];
  6315  00CA' 300A               	movlw	10
  6316  00CB' 0082'              	movwf	___lwmod@divisor
  6317  00CC' 3000               	movlw	0
  6318  00CD' 0083'              	movwf	___lwmod@divisor+1
  6319  00CE' 0835'              	movf	fround@prec,w
  6320  00CF' 00A6'              	movwf	??_fround
  6321  00D0' 01A7'              	clrf	??_fround+1
  6322  00D1' 0826'              	movf	??_fround,w
  6323  00D2' 0084'              	movwf	___lwmod@dividend
  6324  00D3' 0827'              	movf	??_fround+1,w
  6325  00D4' 0085'              	movwf	___lwmod@dividend+1
  6326  00D5' 120A' 118A' 2000' 120A' 118A' 	fcall	___lwmod
  6327  00DA' 0802'              	movf	?___lwmod,w
  6328  00DB' 1283               	bcf	3,5	;RP0=0, select bank0
  6329  00DC' 1303               	bcf	3,6	;RP1=0, select bank0
  6330  00DD' 00A8'              	movwf	??_fround+2
  6331  00DE' 3001               	movlw	1
  6332  00DF'                    u6745:
  6333  00DF' 1003               	clrc
  6334  00E0' 0DA8'              	rlf	??_fround+2,f
  6335  00E1' 3EFF               	addlw	-1
  6336  00E2' 1D03               	skipz
  6337  00E3' 2800'              	goto	u6745
  6338  00E4' 1003               	clrc
  6339  00E5' 0D28'              	rlf	??_fround+2,w
  6340  00E6' 3E00'              	addlw	low (__npowers_| (0+32768))
  6341  00E7' 0084               	movwf	4
  6342  00E8' 3000'              	movlw	high (__npowers_| (0+32768))
  6343  00E9' 1803               	skipnc
  6344  00EA' 3E01               	addlw	1
  6345  00EB' 00FF               	movwf	btemp+1
  6346  00EC' 120A' 118A' 2000' 120A' 118A' 	fcall	stringtab
  6347  00F1' 00A9'              	movwf	??_fround+3
  6348  00F2' 120A' 118A' 2000' 120A' 118A' 	fcall	stringtab
  6349  00F7' 00AA'              	movwf	??_fround+4
  6350  00F8' 120A' 118A' 2000' 120A' 118A' 	fcall	stringtab
  6351  00FD' 00AB'              	movwf	??_fround+5
  6352  00FE' 120A' 118A' 2000' 120A' 118A' 	fcall	stringtab
  6353  0103' 00AC'              	movwf	??_fround+6
  6354  0104' 082C'              	movf	??_fround+6,w
  6355  0105' 008B'              	movwf	___flmul@b+3
  6356  0106' 082B'              	movf	??_fround+5,w
  6357  0107' 008A'              	movwf	___flmul@b+2
  6358  0108' 082A'              	movf	??_fround+4,w
  6359  0109' 0089'              	movwf	___flmul@b+1
  6360  010A' 0829'              	movf	??_fround+3,w
  6361  010B' 0088'              	movwf	___flmul@b
  6362  010C' 0830'              	movf	_fround$1395+3,w
  6363  010D' 008F'              	movwf	___flmul@a+3
  6364  010E' 082F'              	movf	_fround$1395+2,w
  6365  010F' 008E'              	movwf	___flmul@a+2
  6366  0110' 082E'              	movf	_fround$1395+1,w
  6367  0111' 008D'              	movwf	___flmul@a+1
  6368  0112' 082D'              	movf	_fround$1395,w
  6369  0113' 008C'              	movwf	___flmul@a
  6370  0114' 120A' 118A' 2000' 120A' 118A' 	fcall	___flmul
  6371  0119' 1283               	bcf	3,5	;RP0=0, select bank0
  6372  011A' 1303               	bcf	3,6	;RP1=0, select bank0
  6373  011B' 080B'              	movf	?___flmul+3,w
  6374  011C' 00A5'              	movwf	?_fround+3
  6375  011D' 080A'              	movf	?___flmul+2,w
  6376  011E' 00A4'              	movwf	?_fround+2
  6377  011F' 0809'              	movf	?___flmul+1,w
  6378  0120' 00A3'              	movwf	?_fround+1
  6379  0121' 0808'              	movf	?___flmul,w
  6380  0122' 00A2'              	movwf	?_fround
  6381  0123' 2800'              	goto	l361
  6382  0124'                    l4255:
  6383  0124' 300B               	movlw	11
  6384  0125' 0235'              	subwf	fround@prec,w
  6385  0126' 1C03               	skipc
  6386  0127' 2800'              	goto	u6751
  6387  0128' 2800'              	goto	u6750
  6388  0129'                    u6751:
  6389  0129' 2800'              	goto	l4261
  6390  012A'                    u6750:
  6391  012A'                    l4257:
  6392                           
  6393                           ;C:\Program Files\Microchip\xc8\v2.31\pic\sources\c90\common\doprnt.c: 424:   return 0.5
      +                           * _npowers_[prec/10U+9U] * _npowers_[prec%10U];
  6394  012A' 303F               	movlw	63
  6395  012B' 008B'              	movwf	___flmul@b+3
  6396  012C' 3000               	movlw	0
  6397  012D' 008A'              	movwf	___flmul@b+2
  6398  012E' 3000               	movlw	0
  6399  012F' 0089'              	movwf	___flmul@b+1
  6400  0130' 3000               	movlw	0
  6401  0131' 0088'              	movwf	___flmul@b
  6402  0132' 300A               	movlw	10
  6403  0133' 0080'              	movwf	___lwdiv@divisor
  6404  0134' 3000               	movlw	0
  6405  0135' 0081'              	movwf	___lwdiv@divisor+1
  6406  0136' 0835'              	movf	fround@prec,w
  6407  0137' 00A6'              	movwf	??_fround
  6408  0138' 01A7'              	clrf	??_fround+1
  6409  0139' 0826'              	movf	??_fround,w
  6410  013A' 0082'              	movwf	___lwdiv@dividend
  6411  013B' 0827'              	movf	??_fround+1,w
  6412  013C' 0083'              	movwf	___lwdiv@dividend+1
  6413  013D' 120A' 118A' 2000' 120A' 118A' 	fcall	___lwdiv
  6414  0142' 1283               	bcf	3,5	;RP0=0, select bank0
  6415  0143' 1303               	bcf	3,6	;RP1=0, select bank0
  6416  0144' 0800'              	movf	?___lwdiv,w
  6417  0145' 00A8'              	movwf	??_fround+2
  6418  0146' 3001               	movlw	1
  6419  0147'                    u6765:
  6420  0147' 1003               	clrc
  6421  0148' 0DA8'              	rlf	??_fround+2,f
  6422  0149' 3EFF               	addlw	-1
  6423  014A' 1D03               	skipz
  6424  014B' 2800'              	goto	u6765
  6425  014C' 1003               	clrc
  6426  014D' 0D28'              	rlf	??_fround+2,w
  6427  014E' 3E00'              	addlw	low ((__npowers_| (0+32768)+36))
  6428  014F' 0084               	movwf	4
  6429  0150' 3000'              	movlw	high ((__npowers_| (0+32768)+36))
  6430  0151' 1803               	skipnc
  6431  0152' 3E01               	addlw	1
  6432  0153' 00FF               	movwf	btemp+1
  6433  0154' 120A' 118A' 2000' 120A' 118A' 	fcall	stringtab
  6434  0159' 00A9'              	movwf	??_fround+3
  6435  015A' 120A' 118A' 2000' 120A' 118A' 	fcall	stringtab
  6436  015F' 00AA'              	movwf	??_fround+4
  6437  0160' 120A' 118A' 2000' 120A' 118A' 	fcall	stringtab
  6438  0165' 00AB'              	movwf	??_fround+5
  6439  0166' 120A' 118A' 2000' 120A' 118A' 	fcall	stringtab
  6440  016B' 00AC'              	movwf	??_fround+6
  6441  016C' 082C'              	movf	??_fround+6,w
  6442  016D' 008F'              	movwf	___flmul@a+3
  6443  016E' 082B'              	movf	??_fround+5,w
  6444  016F' 008E'              	movwf	___flmul@a+2
  6445  0170' 082A'              	movf	??_fround+4,w
  6446  0171' 008D'              	movwf	___flmul@a+1
  6447  0172' 0829'              	movf	??_fround+3,w
  6448  0173' 008C'              	movwf	___flmul@a
  6449  0174' 120A' 118A' 2000' 120A' 118A' 	fcall	___flmul
  6450  0179' 1283               	bcf	3,5	;RP0=0, select bank0
  6451  017A' 1303               	bcf	3,6	;RP1=0, select bank0
  6452  017B' 080B'              	movf	?___flmul+3,w
  6453  017C' 00B4'              	movwf	_fround$1394+3
  6454  017D' 080A'              	movf	?___flmul+2,w
  6455  017E' 00B3'              	movwf	_fround$1394+2
  6456  017F' 0809'              	movf	?___flmul+1,w
  6457  0180' 00B2'              	movwf	_fround$1394+1
  6458  0181' 0808'              	movf	?___flmul,w
  6459  0182' 00B1'              	movwf	_fround$1394
  6460                           
  6461                           ;C:\Program Files\Microchip\xc8\v2.31\pic\sources\c90\common\doprnt.c: 424:   return 0.5
      +                           * _npowers_[prec/10U+9U] * _npowers_[prec%10U];
  6462  0183' 300A               	movlw	10
  6463  0184' 0082'              	movwf	___lwmod@divisor
  6464  0185' 3000               	movlw	0
  6465  0186' 0083'              	movwf	___lwmod@divisor+1
  6466  0187' 0835'              	movf	fround@prec,w
  6467  0188' 00A6'              	movwf	??_fround
  6468  0189' 01A7'              	clrf	??_fround+1
  6469  018A' 0826'              	movf	??_fround,w
  6470  018B' 0084'              	movwf	___lwmod@dividend
  6471  018C' 0827'              	movf	??_fround+1,w
  6472  018D' 0085'              	movwf	___lwmod@dividend+1
  6473  018E' 120A' 118A' 2000' 120A' 118A' 	fcall	___lwmod
  6474  0193' 0802'              	movf	?___lwmod,w
  6475  0194' 1283               	bcf	3,5	;RP0=0, select bank0
  6476  0195' 1303               	bcf	3,6	;RP1=0, select bank0
  6477  0196' 00A8'              	movwf	??_fround+2
  6478  0197' 3001               	movlw	1
  6479  0198'                    u6775:
  6480  0198' 1003               	clrc
  6481  0199' 0DA8'              	rlf	??_fround+2,f
  6482  019A' 3EFF               	addlw	-1
  6483  019B' 1D03               	skipz
  6484  019C' 2800'              	goto	u6775
  6485  019D' 1003               	clrc
  6486  019E' 0D28'              	rlf	??_fround+2,w
  6487  019F' 3E00'              	addlw	low (__npowers_| (0+32768))
  6488  01A0' 0084               	movwf	4
  6489  01A1' 3000'              	movlw	high (__npowers_| (0+32768))
  6490  01A2' 1803               	skipnc
  6491  01A3' 3E01               	addlw	1
  6492  01A4' 00FF               	movwf	btemp+1
  6493  01A5' 120A' 118A' 2000' 120A' 118A' 	fcall	stringtab
  6494  01AA' 00A9'              	movwf	??_fround+3
  6495  01AB' 120A' 118A' 2000' 120A' 118A' 	fcall	stringtab
  6496  01B0' 00AA'              	movwf	??_fround+4
  6497  01B1' 120A' 118A' 2000' 120A' 118A' 	fcall	stringtab
  6498  01B6' 00AB'              	movwf	??_fround+5
  6499  01B7' 120A' 118A' 2000' 120A' 118A' 	fcall	stringtab
  6500  01BC' 00AC'              	movwf	??_fround+6
  6501  01BD' 082C'              	movf	??_fround+6,w
  6502  01BE' 008B'              	movwf	___flmul@b+3
  6503  01BF' 082B'              	movf	??_fround+5,w
  6504  01C0' 008A'              	movwf	___flmul@b+2
  6505  01C1' 082A'              	movf	??_fround+4,w
  6506  01C2' 0089'              	movwf	___flmul@b+1
  6507  01C3' 0829'              	movf	??_fround+3,w
  6508  01C4' 0088'              	movwf	___flmul@b
  6509  01C5' 0834'              	movf	_fround$1394+3,w
  6510  01C6' 008F'              	movwf	___flmul@a+3
  6511  01C7' 0833'              	movf	_fround$1394+2,w
  6512  01C8' 008E'              	movwf	___flmul@a+2
  6513  01C9' 0832'              	movf	_fround$1394+1,w
  6514  01CA' 008D'              	movwf	___flmul@a+1
  6515  01CB' 0831'              	movf	_fround$1394,w
  6516  01CC' 008C'              	movwf	___flmul@a
  6517  01CD' 120A' 118A' 2000' 120A' 118A' 	fcall	___flmul
  6518  01D2' 1283               	bcf	3,5	;RP0=0, select bank0
  6519  01D3' 1303               	bcf	3,6	;RP1=0, select bank0
  6520  01D4' 080B'              	movf	?___flmul+3,w
  6521  01D5' 00A5'              	movwf	?_fround+3
  6522  01D6' 080A'              	movf	?___flmul+2,w
  6523  01D7' 00A4'              	movwf	?_fround+2
  6524  01D8' 0809'              	movf	?___flmul+1,w
  6525  01D9' 00A3'              	movwf	?_fround+1
  6526  01DA' 0808'              	movf	?___flmul,w
  6527  01DB' 00A2'              	movwf	?_fround
  6528  01DC' 2800'              	goto	l361
  6529  01DD'                    l4261:
  6530                           
  6531                           ;C:\Program Files\Microchip\xc8\v2.31\pic\sources\c90\common\doprnt.c: 425:  return 0.5 
      +                          * _npowers_[prec];
  6532  01DD' 303F               	movlw	63
  6533  01DE' 008B'              	movwf	___flmul@b+3
  6534  01DF' 3000               	movlw	0
  6535  01E0' 008A'              	movwf	___flmul@b+2
  6536  01E1' 3000               	movlw	0
  6537  01E2' 0089'              	movwf	___flmul@b+1
  6538  01E3' 3000               	movlw	0
  6539  01E4' 0088'              	movwf	___flmul@b
  6540  01E5' 0835'              	movf	fround@prec,w
  6541  01E6' 00A6'              	movwf	??_fround
  6542  01E7' 3001               	movlw	1
  6543  01E8'                    u6785:
  6544  01E8' 1003               	clrc
  6545  01E9' 0DA6'              	rlf	??_fround,f
  6546  01EA' 3EFF               	addlw	-1
  6547  01EB' 1D03               	skipz
  6548  01EC' 2800'              	goto	u6785
  6549  01ED' 1003               	clrc
  6550  01EE' 0D26'              	rlf	??_fround,w
  6551  01EF' 3E00'              	addlw	low (__npowers_| (0+32768))
  6552  01F0' 0084               	movwf	4
  6553  01F1' 3000'              	movlw	high (__npowers_| (0+32768))
  6554  01F2' 1803               	skipnc
  6555  01F3' 3E01               	addlw	1
  6556  01F4' 00FF               	movwf	btemp+1
  6557  01F5' 120A' 118A' 2000' 120A' 118A' 	fcall	stringtab
  6558  01FA' 00A7'              	movwf	??_fround+1
  6559  01FB' 120A' 118A' 2000' 120A' 118A' 	fcall	stringtab
  6560  0200' 00A8'              	movwf	??_fround+2
  6561  0201' 120A' 118A' 2000' 120A' 118A' 	fcall	stringtab
  6562  0206' 00A9'              	movwf	??_fround+3
  6563  0207' 120A' 118A' 2000' 120A' 118A' 	fcall	stringtab
  6564  020C' 00AA'              	movwf	??_fround+4
  6565  020D' 082A'              	movf	??_fround+4,w
  6566  020E' 008F'              	movwf	___flmul@a+3
  6567  020F' 0829'              	movf	??_fround+3,w
  6568  0210' 008E'              	movwf	___flmul@a+2
  6569  0211' 0828'              	movf	??_fround+2,w
  6570  0212' 008D'              	movwf	___flmul@a+1
  6571  0213' 0827'              	movf	??_fround+1,w
  6572  0214' 008C'              	movwf	___flmul@a
  6573  0215' 120A' 118A' 2000' 120A' 118A' 	fcall	___flmul
  6574  021A' 1283               	bcf	3,5	;RP0=0, select bank0
  6575  021B' 1303               	bcf	3,6	;RP1=0, select bank0
  6576  021C' 080B'              	movf	?___flmul+3,w
  6577  021D' 00A5'              	movwf	?_fround+3
  6578  021E' 080A'              	movf	?___flmul+2,w
  6579  021F' 00A4'              	movwf	?_fround+2
  6580  0220' 0809'              	movf	?___flmul+1,w
  6581  0221' 00A3'              	movwf	?_fround+1
  6582  0222' 0808'              	movf	?___flmul,w
  6583  0223' 00A2'              	movwf	?_fround
  6584  0224'                    l361:
  6585  0224' 0008               	return
  6586  0225'                    __end_of_fround:
  6587                           
  6588                           	psect	text8
  6589  0000'                    __ptext8:	
  6590 ;; *************** function ___lwmod *****************
  6591 ;; Defined at:
  6592 ;;		line 5 in file "C:\Program Files\Microchip\xc8\v2.31\pic\sources\c90\common\lwmod.c"
  6593 ;; Parameters:    Size  Location     Type
  6594 ;;  divisor         2    2[COMMON] unsigned int 
  6595 ;;  dividend        2    4[COMMON] unsigned int 
  6596 ;; Auto vars:     Size  Location     Type
  6597 ;;  counter         1    7[COMMON] unsigned char 
  6598 ;; Return value:  Size  Location     Type
  6599 ;;                  2    2[COMMON] unsigned int 
  6600 ;; Registers used:
  6601 ;;		wreg, status,2, status,0
  6602 ;; Tracked objects:
  6603 ;;		On entry : 0/0
  6604 ;;		On exit  : 0/0
  6605 ;;		Unchanged: 0/0
  6606 ;; Data sizes:     COMMON   BANK0   BANK1   BANK3   BANK2
  6607 ;;      Params:         4       0       0       0       0
  6608 ;;      Locals:         1       0       0       0       0
  6609 ;;      Temps:          1       0       0       0       0
  6610 ;;      Totals:         6       0       0       0       0
  6611 ;;Total ram usage:        6 bytes
  6612 ;; Hardware stack levels used:    1
  6613 ;; Hardware stack levels required when called:    2
  6614 ;; This function calls:
  6615 ;;		Nothing
  6616 ;; This function is called by:
  6617 ;;		_fround
  6618 ;; This function uses a non-reentrant model
  6619 ;;
  6620                           
  6621                           
  6622                           ;psect for function ___lwmod
  6623  0000'                    ___lwmod:
  6624  0000'                    l2697:	
  6625                           ;incstack = 0
  6626                           ; Regs used in ___lwmod: [wreg+status,2+status,0]
  6627                           
  6628  0000' 0802'              	movf	___lwmod@divisor,w
  6629  0001' 0403'              	iorwf	___lwmod@divisor+1,w
  6630  0002' 1903               	btfsc	3,2
  6631  0003' 2800'              	goto	u3471
  6632  0004' 2800'              	goto	u3470
  6633  0005'                    u3471:
  6634  0005' 2800'              	goto	l2715
  6635  0006'                    u3470:
  6636  0006'                    l2699:
  6637  0006' 0187'              	clrf	___lwmod@counter
  6638  0007' 0A87'              	incf	___lwmod@counter,f
  6639  0008' 2800'              	goto	l2705
  6640  0009'                    l2701:
  6641  0009' 3001               	movlw	1
  6642  000A'                    u3485:
  6643  000A' 1003               	clrc
  6644  000B' 0D82'              	rlf	___lwmod@divisor,f
  6645  000C' 0D83'              	rlf	___lwmod@divisor+1,f
  6646  000D' 3EFF               	addlw	-1
  6647  000E' 1D03               	skipz
  6648  000F' 2800'              	goto	u3485
  6649  0010'                    l2703:
  6650  0010' 3001               	movlw	1
  6651  0011' 0086'              	movwf	??___lwmod
  6652  0012' 0806'              	movf	??___lwmod,w
  6653  0013' 0787'              	addwf	___lwmod@counter,f
  6654  0014'                    l2705:
  6655  0014' 1F83'              	btfss	___lwmod@divisor+1,7
  6656  0015' 2800'              	goto	u3491
  6657  0016' 2800'              	goto	u3490
  6658  0017'                    u3491:
  6659  0017' 2800'              	goto	l2701
  6660  0018'                    u3490:
  6661  0018'                    l2707:
  6662  0018' 0803'              	movf	___lwmod@divisor+1,w
  6663  0019' 0205'              	subwf	___lwmod@dividend+1,w
  6664  001A' 1D03               	skipz
  6665  001B' 2800'              	goto	u3505
  6666  001C' 0802'              	movf	___lwmod@divisor,w
  6667  001D' 0204'              	subwf	___lwmod@dividend,w
  6668  001E'                    u3505:
  6669  001E' 1C03               	skipc
  6670  001F' 2800'              	goto	u3501
  6671  0020' 2800'              	goto	u3500
  6672  0021'                    u3501:
  6673  0021' 2800'              	goto	l2711
  6674  0022'                    u3500:
  6675  0022'                    l2709:
  6676  0022' 0802'              	movf	___lwmod@divisor,w
  6677  0023' 0284'              	subwf	___lwmod@dividend,f
  6678  0024' 0803'              	movf	___lwmod@divisor+1,w
  6679  0025' 1C03               	skipc
  6680  0026' 0385'              	decf	___lwmod@dividend+1,f
  6681  0027' 0285'              	subwf	___lwmod@dividend+1,f
  6682  0028'                    l2711:
  6683  0028' 3001               	movlw	1
  6684  0029'                    u3515:
  6685  0029' 1003               	clrc
  6686  002A' 0C83'              	rrf	___lwmod@divisor+1,f
  6687  002B' 0C82'              	rrf	___lwmod@divisor,f
  6688  002C' 3EFF               	addlw	-1
  6689  002D' 1D03               	skipz
  6690  002E' 2800'              	goto	u3515
  6691  002F'                    l2713:
  6692  002F' 3001               	movlw	1
  6693  0030' 0287'              	subwf	___lwmod@counter,f
  6694  0031' 1D03               	btfss	3,2
  6695  0032' 2800'              	goto	u3521
  6696  0033' 2800'              	goto	u3520
  6697  0034'                    u3521:
  6698  0034' 2800'              	goto	l2707
  6699  0035'                    u3520:
  6700  0035'                    l2715:
  6701  0035' 0805'              	movf	___lwmod@dividend+1,w
  6702  0036' 0083'              	movwf	?___lwmod+1
  6703  0037' 0804'              	movf	___lwmod@dividend,w
  6704  0038' 0082'              	movwf	?___lwmod
  6705  0039'                    l760:
  6706  0039' 0008               	return
  6707  003A'                    __end_of___lwmod:
  6708                           
  6709                           	psect	text9
  6710  0000'                    __ptext9:	
  6711 ;; *************** function ___lwdiv *****************
  6712 ;; Defined at:
  6713 ;;		line 5 in file "C:\Program Files\Microchip\xc8\v2.31\pic\sources\c90\common\lwdiv.c"
  6714 ;; Parameters:    Size  Location     Type
  6715 ;;  divisor         2    0[BANK0 ] unsigned int 
  6716 ;;  dividend        2    2[BANK0 ] unsigned int 
  6717 ;; Auto vars:     Size  Location     Type
  6718 ;;  quotient        2    5[BANK0 ] unsigned int 
  6719 ;;  counter         1    4[BANK0 ] unsigned char 
  6720 ;; Return value:  Size  Location     Type
  6721 ;;                  2    0[BANK0 ] unsigned int 
  6722 ;; Registers used:
  6723 ;;		wreg, status,2, status,0
  6724 ;; Tracked objects:
  6725 ;;		On entry : 0/0
  6726 ;;		On exit  : 0/0
  6727 ;;		Unchanged: 0/0
  6728 ;; Data sizes:     COMMON   BANK0   BANK1   BANK3   BANK2
  6729 ;;      Params:         0       4       0       0       0
  6730 ;;      Locals:         0       3       0       0       0
  6731 ;;      Temps:          1       0       0       0       0
  6732 ;;      Totals:         1       7       0       0       0
  6733 ;;Total ram usage:        8 bytes
  6734 ;; Hardware stack levels used:    1
  6735 ;; Hardware stack levels required when called:    2
  6736 ;; This function calls:
  6737 ;;		Nothing
  6738 ;; This function is called by:
  6739 ;;		_fround
  6740 ;; This function uses a non-reentrant model
  6741 ;;
  6742                           
  6743                           
  6744                           ;psect for function ___lwdiv
  6745  0000'                    ___lwdiv:
  6746  0000'                    l4069:	
  6747                           ;incstack = 0
  6748                           ; Regs used in ___lwdiv: [wreg+status,2+status,0]
  6749                           
  6750  0000' 1283               	bcf	3,5	;RP0=0, select bank0
  6751  0001' 1303               	bcf	3,6	;RP1=0, select bank0
  6752  0002' 0185'              	clrf	___lwdiv@quotient
  6753  0003' 0186'              	clrf	___lwdiv@quotient+1
  6754  0004'                    l4071:
  6755  0004' 0800'              	movf	___lwdiv@divisor,w
  6756  0005' 0401'              	iorwf	___lwdiv@divisor+1,w
  6757  0006' 1903               	btfsc	3,2
  6758  0007' 2800'              	goto	u6261
  6759  0008' 2800'              	goto	u6260
  6760  0009'                    u6261:
  6761  0009' 2800'              	goto	l4091
  6762  000A'                    u6260:
  6763  000A'                    l4073:
  6764  000A' 0184'              	clrf	___lwdiv@counter
  6765  000B' 0A84'              	incf	___lwdiv@counter,f
  6766  000C' 2800'              	goto	l4079
  6767  000D'                    l4075:
  6768  000D' 3001               	movlw	1
  6769  000E'                    u6275:
  6770  000E' 1003               	clrc
  6771  000F' 0D80'              	rlf	___lwdiv@divisor,f
  6772  0010' 0D81'              	rlf	___lwdiv@divisor+1,f
  6773  0011' 3EFF               	addlw	-1
  6774  0012' 1D03               	skipz
  6775  0013' 2800'              	goto	u6275
  6776  0014'                    l4077:
  6777  0014' 3001               	movlw	1
  6778  0015' 0088'              	movwf	??___lwdiv
  6779  0016' 0808'              	movf	??___lwdiv,w
  6780  0017' 0784'              	addwf	___lwdiv@counter,f
  6781  0018'                    l4079:
  6782  0018' 1F81'              	btfss	___lwdiv@divisor+1,7
  6783  0019' 2800'              	goto	u6281
  6784  001A' 2800'              	goto	u6280
  6785  001B'                    u6281:
  6786  001B' 2800'              	goto	l4075
  6787  001C'                    u6280:
  6788  001C'                    l4081:
  6789  001C' 3001               	movlw	1
  6790  001D'                    u6295:
  6791  001D' 1003               	clrc
  6792  001E' 0D85'              	rlf	___lwdiv@quotient,f
  6793  001F' 0D86'              	rlf	___lwdiv@quotient+1,f
  6794  0020' 3EFF               	addlw	-1
  6795  0021' 1D03               	skipz
  6796  0022' 2800'              	goto	u6295
  6797  0023' 0801'              	movf	___lwdiv@divisor+1,w
  6798  0024' 0203'              	subwf	___lwdiv@dividend+1,w
  6799  0025' 1D03               	skipz
  6800  0026' 2800'              	goto	u6305
  6801  0027' 0800'              	movf	___lwdiv@divisor,w
  6802  0028' 0202'              	subwf	___lwdiv@dividend,w
  6803  0029'                    u6305:
  6804  0029' 1C03               	skipc
  6805  002A' 2800'              	goto	u6301
  6806  002B' 2800'              	goto	u6300
  6807  002C'                    u6301:
  6808  002C' 2800'              	goto	l4087
  6809  002D'                    u6300:
  6810  002D'                    l4083:
  6811  002D' 0800'              	movf	___lwdiv@divisor,w
  6812  002E' 0282'              	subwf	___lwdiv@dividend,f
  6813  002F' 0801'              	movf	___lwdiv@divisor+1,w
  6814  0030' 1C03               	skipc
  6815  0031' 0383'              	decf	___lwdiv@dividend+1,f
  6816  0032' 0283'              	subwf	___lwdiv@dividend+1,f
  6817  0033'                    l4085:
  6818  0033' 1405'              	bsf	___lwdiv@quotient,0
  6819  0034'                    l4087:
  6820  0034' 3001               	movlw	1
  6821  0035'                    u6315:
  6822  0035' 1003               	clrc
  6823  0036' 0C81'              	rrf	___lwdiv@divisor+1,f
  6824  0037' 0C80'              	rrf	___lwdiv@divisor,f
  6825  0038' 3EFF               	addlw	-1
  6826  0039' 1D03               	skipz
  6827  003A' 2800'              	goto	u6315
  6828  003B'                    l4089:
  6829  003B' 3001               	movlw	1
  6830  003C' 0284'              	subwf	___lwdiv@counter,f
  6831  003D' 1D03               	btfss	3,2
  6832  003E' 2800'              	goto	u6321
  6833  003F' 2800'              	goto	u6320
  6834  0040'                    u6321:
  6835  0040' 2800'              	goto	l4081
  6836  0041'                    u6320:
  6837  0041'                    l4091:
  6838  0041' 0806'              	movf	___lwdiv@quotient+1,w
  6839  0042' 0081'              	movwf	?___lwdiv+1
  6840  0043' 0805'              	movf	___lwdiv@quotient,w
  6841  0044' 0080'              	movwf	?___lwdiv
  6842  0045'                    l750:
  6843  0045' 0008               	return
  6844  0046'                    __end_of___lwdiv:
  6845                           
  6846                           	psect	text10
  6847  0000'                    __ptext10:	
  6848 ;; *************** function ___flmul *****************
  6849 ;; Defined at:
  6850 ;;		line 8 in file "C:\Program Files\Microchip\xc8\v2.31\pic\sources\c90\common\sprcmul.c"
  6851 ;; Parameters:    Size  Location     Type
  6852 ;;  b               4    8[BANK0 ] unsigned int 
  6853 ;;  a               4   12[BANK0 ] unsigned int 
  6854 ;; Auto vars:     Size  Location     Type
  6855 ;;  prod            4   28[BANK0 ] struct .
  6856 ;;  grs             4   23[BANK0 ] unsigned long 
  6857 ;;  temp            2   32[BANK0 ] struct .
  6858 ;;  bexp            1   27[BANK0 ] unsigned char 
  6859 ;;  aexp            1   22[BANK0 ] unsigned char 
  6860 ;;  sign            1   21[BANK0 ] unsigned char 
  6861 ;; Return value:  Size  Location     Type
  6862 ;;                  4    8[BANK0 ] unsigned char 
  6863 ;; Registers used:
  6864 ;;		wreg, status,2, status,0, btemp+1, pclath, cstack
  6865 ;; Tracked objects:
  6866 ;;		On entry : 0/0
  6867 ;;		On exit  : 0/0
  6868 ;;		Unchanged: 0/0
  6869 ;; Data sizes:     COMMON   BANK0   BANK1   BANK3   BANK2
  6870 ;;      Params:         0       8       0       0       0
  6871 ;;      Locals:         0      13       0       0       0
  6872 ;;      Temps:          0       5       0       0       0
  6873 ;;      Totals:         0      26       0       0       0
  6874 ;;Total ram usage:       26 bytes
  6875 ;; Hardware stack levels used:    1
  6876 ;; Hardware stack levels required when called:    3
  6877 ;; This function calls:
  6878 ;;		__Umul8_16
  6879 ;; This function is called by:
  6880 ;;		_fround
  6881 ;;		_scale
  6882 ;;		_sprintf
  6883 ;; This function uses a non-reentrant model
  6884 ;;
  6885                           
  6886                           
  6887                           ;psect for function ___flmul
  6888  0000'                    ___flmul:
  6889  0000'                    l4095:	
  6890                           ;incstack = 0
  6891                           ; Regs used in ___flmul: [wreg+status,2+status,0+btemp+1+pclath+cstack]
  6892                           
  6893  0000' 1283               	bcf	3,5	;RP0=0, select bank0
  6894  0001' 1303               	bcf	3,6	;RP1=0, select bank0
  6895  0002' 080B'              	movf	___flmul@b+3,w
  6896  0003' 3980               	andlw	128
  6897  0004' 0090'              	movwf	??___flmul
  6898  0005' 0810'              	movf	??___flmul,w
  6899  0006' 0095'              	movwf	___flmul@sign
  6900  0007'                    l4097:
  6901  0007' 080B'              	movf	___flmul@b+3,w
  6902  0008' 0090'              	movwf	??___flmul
  6903  0009' 0710'              	addwf	??___flmul,w
  6904  000A' 0091'              	movwf	??___flmul+1
  6905  000B' 0811'              	movf	??___flmul+1,w
  6906  000C' 009B'              	movwf	___flmul@bexp
  6907  000D'                    l4099:
  6908  000D' 1F8A'              	btfss	___flmul@b+2,7
  6909  000E' 2800'              	goto	u6331
  6910  000F' 2800'              	goto	u6330
  6911  0010'                    u6331:
  6912  0010' 2800'              	goto	l4103
  6913  0011'                    u6330:
  6914  0011'                    l4101:
  6915  0011' 141B'              	bsf	___flmul@bexp,0
  6916  0012'                    l4103:
  6917  0012' 081B'              	movf	___flmul@bexp,w
  6918  0013' 1903               	btfsc	3,2
  6919  0014' 2800'              	goto	u6341
  6920  0015' 2800'              	goto	u6340
  6921  0016'                    u6341:
  6922  0016' 2800'              	goto	l4111
  6923  0017'                    u6340:
  6924  0017'                    l4105:
  6925  0017' 0A1B'              	incf	___flmul@bexp,w
  6926  0018' 1D03               	btfss	3,2
  6927  0019' 2800'              	goto	u6351
  6928  001A' 2800'              	goto	u6350
  6929  001B'                    u6351:
  6930  001B' 2800'              	goto	l4109
  6931  001C'                    u6350:
  6932  001C'                    l4107:
  6933  001C' 3000               	movlw	0
  6934  001D' 008B'              	movwf	___flmul@b+3
  6935  001E' 3000               	movlw	0
  6936  001F' 008A'              	movwf	___flmul@b+2
  6937  0020' 3000               	movlw	0
  6938  0021' 0089'              	movwf	___flmul@b+1
  6939  0022' 3000               	movlw	0
  6940  0023' 0088'              	movwf	___flmul@b
  6941  0024'                    l4109:
  6942  0024' 178A'              	bsf	___flmul@b+2,7
  6943  0025' 2800'              	goto	l4113
  6944  0026'                    l4111:
  6945  0026' 3000               	movlw	0
  6946  0027' 008B'              	movwf	___flmul@b+3
  6947  0028' 3000               	movlw	0
  6948  0029' 008A'              	movwf	___flmul@b+2
  6949  002A' 3000               	movlw	0
  6950  002B' 0089'              	movwf	___flmul@b+1
  6951  002C' 3000               	movlw	0
  6952  002D' 0088'              	movwf	___flmul@b
  6953  002E'                    l4113:
  6954  002E' 080F'              	movf	___flmul@a+3,w
  6955  002F' 3980               	andlw	128
  6956  0030' 0090'              	movwf	??___flmul
  6957  0031' 0810'              	movf	??___flmul,w
  6958  0032' 0695'              	xorwf	___flmul@sign,f
  6959  0033'                    l4115:
  6960  0033' 080F'              	movf	___flmul@a+3,w
  6961  0034' 0090'              	movwf	??___flmul
  6962  0035' 0710'              	addwf	??___flmul,w
  6963  0036' 0091'              	movwf	??___flmul+1
  6964  0037' 0811'              	movf	??___flmul+1,w
  6965  0038' 0096'              	movwf	___flmul@aexp
  6966  0039'                    l4117:
  6967  0039' 1F8E'              	btfss	___flmul@a+2,7
  6968  003A' 2800'              	goto	u6361
  6969  003B' 2800'              	goto	u6360
  6970  003C'                    u6361:
  6971  003C' 2800'              	goto	l4121
  6972  003D'                    u6360:
  6973  003D'                    l4119:
  6974  003D' 1416'              	bsf	___flmul@aexp,0
  6975  003E'                    l4121:
  6976  003E' 0816'              	movf	___flmul@aexp,w
  6977  003F' 1903               	btfsc	3,2
  6978  0040' 2800'              	goto	u6371
  6979  0041' 2800'              	goto	u6370
  6980  0042'                    u6371:
  6981  0042' 2800'              	goto	l4129
  6982  0043'                    u6370:
  6983  0043'                    l4123:
  6984  0043' 0A16'              	incf	___flmul@aexp,w
  6985  0044' 1D03               	btfss	3,2
  6986  0045' 2800'              	goto	u6381
  6987  0046' 2800'              	goto	u6380
  6988  0047'                    u6381:
  6989  0047' 2800'              	goto	l4127
  6990  0048'                    u6380:
  6991  0048'                    l4125:
  6992  0048' 3000               	movlw	0
  6993  0049' 008F'              	movwf	___flmul@a+3
  6994  004A' 3000               	movlw	0
  6995  004B' 008E'              	movwf	___flmul@a+2
  6996  004C' 3000               	movlw	0
  6997  004D' 008D'              	movwf	___flmul@a+1
  6998  004E' 3000               	movlw	0
  6999  004F' 008C'              	movwf	___flmul@a
  7000  0050'                    l4127:
  7001  0050' 178E'              	bsf	___flmul@a+2,7
  7002  0051' 2800'              	goto	l4131
  7003  0052'                    l4129:
  7004  0052' 3000               	movlw	0
  7005  0053' 008F'              	movwf	___flmul@a+3
  7006  0054' 3000               	movlw	0
  7007  0055' 008E'              	movwf	___flmul@a+2
  7008  0056' 3000               	movlw	0
  7009  0057' 008D'              	movwf	___flmul@a+1
  7010  0058' 3000               	movlw	0
  7011  0059' 008C'              	movwf	___flmul@a
  7012  005A'                    l4131:
  7013  005A' 0816'              	movf	___flmul@aexp,w
  7014  005B' 1903               	btfsc	3,2
  7015  005C' 2800'              	goto	u6391
  7016  005D' 2800'              	goto	u6390
  7017  005E'                    u6391:
  7018  005E' 2800'              	goto	l4135
  7019  005F'                    u6390:
  7020  005F'                    l4133:
  7021  005F' 081B'              	movf	___flmul@bexp,w
  7022  0060' 1D03               	btfss	3,2
  7023  0061' 2800'              	goto	u6401
  7024  0062' 2800'              	goto	u6400
  7025  0063'                    u6401:
  7026  0063' 2800'              	goto	l4139
  7027  0064'                    u6400:
  7028  0064'                    l4135:
  7029  0064' 3000               	movlw	0
  7030  0065' 008B'              	movwf	?___flmul+3
  7031  0066' 3000               	movlw	0
  7032  0067' 008A'              	movwf	?___flmul+2
  7033  0068' 3000               	movlw	0
  7034  0069' 0089'              	movwf	?___flmul+1
  7035  006A' 3000               	movlw	0
  7036  006B' 0088'              	movwf	?___flmul
  7037  006C' 2800'              	goto	l867
  7038  006D'                    l4139:
  7039  006D' 0808'              	movf	___flmul@b,w
  7040  006E' 0090'              	movwf	??___flmul
  7041  006F' 0810'              	movf	??___flmul,w
  7042  0070' 0082'              	movwf	__Umul8_16@multiplicand
  7043  0071' 080E'              	movf	___flmul@a+2,w
  7044  0072' 120A' 118A' 2000' 120A' 118A' 	fcall	__Umul8_16
  7045  0077' 0803'              	movf	?__Umul8_16+1,w
  7046  0078' 1283               	bcf	3,5	;RP0=0, select bank0
  7047  0079' 1303               	bcf	3,6	;RP1=0, select bank0
  7048  007A' 00A1'              	movwf	___flmul@temp+1
  7049  007B' 0802'              	movf	?__Umul8_16,w
  7050  007C' 00A0'              	movwf	___flmul@temp
  7051  007D'                    l4141:
  7052  007D' 0820'              	movf	___flmul@temp,w
  7053  007E' 0090'              	movwf	??___flmul
  7054  007F' 0191'              	clrf	??___flmul+1
  7055  0080' 0192'              	clrf	??___flmul+2
  7056  0081' 0193'              	clrf	??___flmul+3
  7057  0082' 0813'              	movf	??___flmul+3,w
  7058  0083' 009A'              	movwf	___flmul@grs+3
  7059  0084' 0812'              	movf	??___flmul+2,w
  7060  0085' 0099'              	movwf	___flmul@grs+2
  7061  0086' 0811'              	movf	??___flmul+1,w
  7062  0087' 0098'              	movwf	___flmul@grs+1
  7063  0088' 0810'              	movf	??___flmul,w
  7064  0089' 0097'              	movwf	___flmul@grs
  7065  008A'                    l4143:
  7066  008A' 0821'              	movf	___flmul@temp+1,w
  7067  008B' 0090'              	movwf	??___flmul
  7068  008C' 0191'              	clrf	??___flmul+1
  7069  008D' 0192'              	clrf	??___flmul+2
  7070  008E' 0193'              	clrf	??___flmul+3
  7071  008F' 0813'              	movf	??___flmul+3,w
  7072  0090' 009F'              	movwf	___flmul@prod+3
  7073  0091' 0812'              	movf	??___flmul+2,w
  7074  0092' 009E'              	movwf	___flmul@prod+2
  7075  0093' 0811'              	movf	??___flmul+1,w
  7076  0094' 009D'              	movwf	___flmul@prod+1
  7077  0095' 0810'              	movf	??___flmul,w
  7078  0096' 009C'              	movwf	___flmul@prod
  7079  0097' 0809'              	movf	___flmul@b+1,w
  7080  0098' 0090'              	movwf	??___flmul
  7081  0099' 0810'              	movf	??___flmul,w
  7082  009A' 0082'              	movwf	__Umul8_16@multiplicand
  7083  009B' 080D'              	movf	___flmul@a+1,w
  7084  009C' 120A' 118A' 2000' 120A' 118A' 	fcall	__Umul8_16
  7085  00A1' 0803'              	movf	?__Umul8_16+1,w
  7086  00A2' 1283               	bcf	3,5	;RP0=0, select bank0
  7087  00A3' 1303               	bcf	3,6	;RP1=0, select bank0
  7088  00A4' 00A1'              	movwf	___flmul@temp+1
  7089  00A5' 0802'              	movf	?__Umul8_16,w
  7090  00A6' 00A0'              	movwf	___flmul@temp
  7091  00A7'                    l4145:
  7092  00A7' 0820'              	movf	___flmul@temp,w
  7093  00A8' 0090'              	movwf	??___flmul
  7094  00A9' 0191'              	clrf	??___flmul+1
  7095  00AA' 0192'              	clrf	??___flmul+2
  7096  00AB' 0193'              	clrf	??___flmul+3
  7097  00AC' 0810'              	movf	??___flmul,w
  7098  00AD' 0797'              	addwf	___flmul@grs,f
  7099  00AE' 0811'              	movf	??___flmul+1,w
  7100  00AF' 1103               	clrz
  7101  00B0' 1803               	skipnc
  7102  00B1' 3E01               	addlw	1
  7103  00B2' 1903               	skipnz
  7104  00B3' 2800'              	goto	u6411
  7105  00B4' 0798'              	addwf	___flmul@grs+1,f
  7106  00B5'                    u6411:
  7107  00B5' 0812'              	movf	??___flmul+2,w
  7108  00B6' 1103               	clrz
  7109  00B7' 1803               	skipnc
  7110  00B8' 3E01               	addlw	1
  7111  00B9' 1903               	skipnz
  7112  00BA' 2800'              	goto	u6412
  7113  00BB' 0799'              	addwf	___flmul@grs+2,f
  7114  00BC'                    u6412:
  7115  00BC' 0813'              	movf	??___flmul+3,w
  7116  00BD' 1103               	clrz
  7117  00BE' 1803               	skipnc
  7118  00BF' 3E01               	addlw	1
  7119  00C0' 1903               	skipnz
  7120  00C1' 2800'              	goto	u6413
  7121  00C2' 079A'              	addwf	___flmul@grs+3,f
  7122  00C3'                    u6413:
  7123  00C3'                    l4147:
  7124  00C3' 0821'              	movf	___flmul@temp+1,w
  7125  00C4' 0090'              	movwf	??___flmul
  7126  00C5' 0191'              	clrf	??___flmul+1
  7127  00C6' 0192'              	clrf	??___flmul+2
  7128  00C7' 0193'              	clrf	??___flmul+3
  7129  00C8' 0810'              	movf	??___flmul,w
  7130  00C9' 079C'              	addwf	___flmul@prod,f
  7131  00CA' 0811'              	movf	??___flmul+1,w
  7132  00CB' 1103               	clrz
  7133  00CC' 1803               	skipnc
  7134  00CD' 3E01               	addlw	1
  7135  00CE' 1903               	skipnz
  7136  00CF' 2800'              	goto	u6421
  7137  00D0' 079D'              	addwf	___flmul@prod+1,f
  7138  00D1'                    u6421:
  7139  00D1' 0812'              	movf	??___flmul+2,w
  7140  00D2' 1103               	clrz
  7141  00D3' 1803               	skipnc
  7142  00D4' 3E01               	addlw	1
  7143  00D5' 1903               	skipnz
  7144  00D6' 2800'              	goto	u6422
  7145  00D7' 079E'              	addwf	___flmul@prod+2,f
  7146  00D8'                    u6422:
  7147  00D8' 0813'              	movf	??___flmul+3,w
  7148  00D9' 1103               	clrz
  7149  00DA' 1803               	skipnc
  7150  00DB' 3E01               	addlw	1
  7151  00DC' 1903               	skipnz
  7152  00DD' 2800'              	goto	u6423
  7153  00DE' 079F'              	addwf	___flmul@prod+3,f
  7154  00DF'                    u6423:
  7155  00DF' 080A'              	movf	___flmul@b+2,w
  7156  00E0' 0090'              	movwf	??___flmul
  7157  00E1' 0810'              	movf	??___flmul,w
  7158  00E2' 0082'              	movwf	__Umul8_16@multiplicand
  7159  00E3' 080C'              	movf	___flmul@a,w
  7160  00E4' 120A' 118A' 2000' 120A' 118A' 	fcall	__Umul8_16
  7161  00E9' 0803'              	movf	?__Umul8_16+1,w
  7162  00EA' 1283               	bcf	3,5	;RP0=0, select bank0
  7163  00EB' 1303               	bcf	3,6	;RP1=0, select bank0
  7164  00EC' 00A1'              	movwf	___flmul@temp+1
  7165  00ED' 0802'              	movf	?__Umul8_16,w
  7166  00EE' 00A0'              	movwf	___flmul@temp
  7167  00EF'                    l4149:
  7168  00EF' 0820'              	movf	___flmul@temp,w
  7169  00F0' 0090'              	movwf	??___flmul
  7170  00F1' 0191'              	clrf	??___flmul+1
  7171  00F2' 0192'              	clrf	??___flmul+2
  7172  00F3' 0193'              	clrf	??___flmul+3
  7173  00F4' 0810'              	movf	??___flmul,w
  7174  00F5' 0797'              	addwf	___flmul@grs,f
  7175  00F6' 0811'              	movf	??___flmul+1,w
  7176  00F7' 1103               	clrz
  7177  00F8' 1803               	skipnc
  7178  00F9' 3E01               	addlw	1
  7179  00FA' 1903               	skipnz
  7180  00FB' 2800'              	goto	u6431
  7181  00FC' 0798'              	addwf	___flmul@grs+1,f
  7182  00FD'                    u6431:
  7183  00FD' 0812'              	movf	??___flmul+2,w
  7184  00FE' 1103               	clrz
  7185  00FF' 1803               	skipnc
  7186  0100' 3E01               	addlw	1
  7187  0101' 1903               	skipnz
  7188  0102' 2800'              	goto	u6432
  7189  0103' 0799'              	addwf	___flmul@grs+2,f
  7190  0104'                    u6432:
  7191  0104' 0813'              	movf	??___flmul+3,w
  7192  0105' 1103               	clrz
  7193  0106' 1803               	skipnc
  7194  0107' 3E01               	addlw	1
  7195  0108' 1903               	skipnz
  7196  0109' 2800'              	goto	u6433
  7197  010A' 079A'              	addwf	___flmul@grs+3,f
  7198  010B'                    u6433:
  7199  010B'                    l4151:
  7200  010B' 0821'              	movf	___flmul@temp+1,w
  7201  010C' 0090'              	movwf	??___flmul
  7202  010D' 0191'              	clrf	??___flmul+1
  7203  010E' 0192'              	clrf	??___flmul+2
  7204  010F' 0193'              	clrf	??___flmul+3
  7205  0110' 0810'              	movf	??___flmul,w
  7206  0111' 079C'              	addwf	___flmul@prod,f
  7207  0112' 0811'              	movf	??___flmul+1,w
  7208  0113' 1103               	clrz
  7209  0114' 1803               	skipnc
  7210  0115' 3E01               	addlw	1
  7211  0116' 1903               	skipnz
  7212  0117' 2800'              	goto	u6441
  7213  0118' 079D'              	addwf	___flmul@prod+1,f
  7214  0119'                    u6441:
  7215  0119' 0812'              	movf	??___flmul+2,w
  7216  011A' 1103               	clrz
  7217  011B' 1803               	skipnc
  7218  011C' 3E01               	addlw	1
  7219  011D' 1903               	skipnz
  7220  011E' 2800'              	goto	u6442
  7221  011F' 079E'              	addwf	___flmul@prod+2,f
  7222  0120'                    u6442:
  7223  0120' 0813'              	movf	??___flmul+3,w
  7224  0121' 1103               	clrz
  7225  0122' 1803               	skipnc
  7226  0123' 3E01               	addlw	1
  7227  0124' 1903               	skipnz
  7228  0125' 2800'              	goto	u6443
  7229  0126' 079F'              	addwf	___flmul@prod+3,f
  7230  0127'                    u6443:
  7231  0127'                    l4153:
  7232  0127' 3008               	movlw	8
  7233  0128' 0090'              	movwf	??___flmul
  7234  0129'                    u6455:
  7235  0129' 1003               	clrc
  7236  012A' 0D97'              	rlf	___flmul@grs,f
  7237  012B' 0D98'              	rlf	___flmul@grs+1,f
  7238  012C' 0D99'              	rlf	___flmul@grs+2,f
  7239  012D' 0D9A'              	rlf	___flmul@grs+3,f
  7240  012E' 0B90'              	decfsz	??___flmul,f
  7241  012F' 2800'              	goto	u6455
  7242  0130'                    l4155:
  7243  0130' 0809'              	movf	___flmul@b+1,w
  7244  0131' 0090'              	movwf	??___flmul
  7245  0132' 0810'              	movf	??___flmul,w
  7246  0133' 0082'              	movwf	__Umul8_16@multiplicand
  7247  0134' 080C'              	movf	___flmul@a,w
  7248  0135' 120A' 118A' 2000' 120A' 118A' 	fcall	__Umul8_16
  7249  013A' 0803'              	movf	?__Umul8_16+1,w
  7250  013B' 1283               	bcf	3,5	;RP0=0, select bank0
  7251  013C' 1303               	bcf	3,6	;RP1=0, select bank0
  7252  013D' 00A1'              	movwf	___flmul@temp+1
  7253  013E' 0802'              	movf	?__Umul8_16,w
  7254  013F' 00A0'              	movwf	___flmul@temp
  7255  0140'                    l4157:
  7256  0140' 0820'              	movf	___flmul@temp,w
  7257  0141' 0090'              	movwf	??___flmul
  7258  0142' 0821'              	movf	___flmul@temp+1,w
  7259  0143' 0091'              	movwf	??___flmul+1
  7260  0144' 0192'              	clrf	??___flmul+2
  7261  0145' 0193'              	clrf	??___flmul+3
  7262  0146' 0810'              	movf	??___flmul,w
  7263  0147' 0797'              	addwf	___flmul@grs,f
  7264  0148' 0811'              	movf	??___flmul+1,w
  7265  0149' 1103               	clrz
  7266  014A' 1803               	skipnc
  7267  014B' 3E01               	addlw	1
  7268  014C' 1903               	skipnz
  7269  014D' 2800'              	goto	u6461
  7270  014E' 0798'              	addwf	___flmul@grs+1,f
  7271  014F'                    u6461:
  7272  014F' 0812'              	movf	??___flmul+2,w
  7273  0150' 1103               	clrz
  7274  0151' 1803               	skipnc
  7275  0152' 3E01               	addlw	1
  7276  0153' 1903               	skipnz
  7277  0154' 2800'              	goto	u6462
  7278  0155' 0799'              	addwf	___flmul@grs+2,f
  7279  0156'                    u6462:
  7280  0156' 0813'              	movf	??___flmul+3,w
  7281  0157' 1103               	clrz
  7282  0158' 1803               	skipnc
  7283  0159' 3E01               	addlw	1
  7284  015A' 1903               	skipnz
  7285  015B' 2800'              	goto	u6463
  7286  015C' 079A'              	addwf	___flmul@grs+3,f
  7287  015D'                    u6463:
  7288  015D'                    l4159:
  7289  015D' 0808'              	movf	___flmul@b,w
  7290  015E' 0090'              	movwf	??___flmul
  7291  015F' 0810'              	movf	??___flmul,w
  7292  0160' 0082'              	movwf	__Umul8_16@multiplicand
  7293  0161' 080D'              	movf	___flmul@a+1,w
  7294  0162' 120A' 118A' 2000' 120A' 118A' 	fcall	__Umul8_16
  7295  0167' 0803'              	movf	?__Umul8_16+1,w
  7296  0168' 1283               	bcf	3,5	;RP0=0, select bank0
  7297  0169' 1303               	bcf	3,6	;RP1=0, select bank0
  7298  016A' 00A1'              	movwf	___flmul@temp+1
  7299  016B' 0802'              	movf	?__Umul8_16,w
  7300  016C' 00A0'              	movwf	___flmul@temp
  7301  016D'                    l4161:
  7302  016D' 0820'              	movf	___flmul@temp,w
  7303  016E' 0090'              	movwf	??___flmul
  7304  016F' 0821'              	movf	___flmul@temp+1,w
  7305  0170' 0091'              	movwf	??___flmul+1
  7306  0171' 0192'              	clrf	??___flmul+2
  7307  0172' 0193'              	clrf	??___flmul+3
  7308  0173' 0810'              	movf	??___flmul,w
  7309  0174' 0797'              	addwf	___flmul@grs,f
  7310  0175' 0811'              	movf	??___flmul+1,w
  7311  0176' 1103               	clrz
  7312  0177' 1803               	skipnc
  7313  0178' 3E01               	addlw	1
  7314  0179' 1903               	skipnz
  7315  017A' 2800'              	goto	u6471
  7316  017B' 0798'              	addwf	___flmul@grs+1,f
  7317  017C'                    u6471:
  7318  017C' 0812'              	movf	??___flmul+2,w
  7319  017D' 1103               	clrz
  7320  017E' 1803               	skipnc
  7321  017F' 3E01               	addlw	1
  7322  0180' 1903               	skipnz
  7323  0181' 2800'              	goto	u6472
  7324  0182' 0799'              	addwf	___flmul@grs+2,f
  7325  0183'                    u6472:
  7326  0183' 0813'              	movf	??___flmul+3,w
  7327  0184' 1103               	clrz
  7328  0185' 1803               	skipnc
  7329  0186' 3E01               	addlw	1
  7330  0187' 1903               	skipnz
  7331  0188' 2800'              	goto	u6473
  7332  0189' 079A'              	addwf	___flmul@grs+3,f
  7333  018A'                    u6473:
  7334  018A'                    l4163:
  7335  018A' 3008               	movlw	8
  7336  018B' 0090'              	movwf	??___flmul
  7337  018C'                    u6485:
  7338  018C' 1003               	clrc
  7339  018D' 0D97'              	rlf	___flmul@grs,f
  7340  018E' 0D98'              	rlf	___flmul@grs+1,f
  7341  018F' 0D99'              	rlf	___flmul@grs+2,f
  7342  0190' 0D9A'              	rlf	___flmul@grs+3,f
  7343  0191' 0B90'              	decfsz	??___flmul,f
  7344  0192' 2800'              	goto	u6485
  7345  0193' 0808'              	movf	___flmul@b,w
  7346  0194' 0090'              	movwf	??___flmul
  7347  0195' 0810'              	movf	??___flmul,w
  7348  0196' 0082'              	movwf	__Umul8_16@multiplicand
  7349  0197' 080C'              	movf	___flmul@a,w
  7350  0198' 120A' 118A' 2000' 120A' 118A' 	fcall	__Umul8_16
  7351  019D' 0803'              	movf	?__Umul8_16+1,w
  7352  019E' 1283               	bcf	3,5	;RP0=0, select bank0
  7353  019F' 1303               	bcf	3,6	;RP1=0, select bank0
  7354  01A0' 00A1'              	movwf	___flmul@temp+1
  7355  01A1' 0802'              	movf	?__Umul8_16,w
  7356  01A2' 00A0'              	movwf	___flmul@temp
  7357  01A3'                    l4165:
  7358  01A3' 0820'              	movf	___flmul@temp,w
  7359  01A4' 0090'              	movwf	??___flmul
  7360  01A5' 0821'              	movf	___flmul@temp+1,w
  7361  01A6' 0091'              	movwf	??___flmul+1
  7362  01A7' 0192'              	clrf	??___flmul+2
  7363  01A8' 0193'              	clrf	??___flmul+3
  7364  01A9' 0810'              	movf	??___flmul,w
  7365  01AA' 0797'              	addwf	___flmul@grs,f
  7366  01AB' 0811'              	movf	??___flmul+1,w
  7367  01AC' 1103               	clrz
  7368  01AD' 1803               	skipnc
  7369  01AE' 3E01               	addlw	1
  7370  01AF' 1903               	skipnz
  7371  01B0' 2800'              	goto	u6491
  7372  01B1' 0798'              	addwf	___flmul@grs+1,f
  7373  01B2'                    u6491:
  7374  01B2' 0812'              	movf	??___flmul+2,w
  7375  01B3' 1103               	clrz
  7376  01B4' 1803               	skipnc
  7377  01B5' 3E01               	addlw	1
  7378  01B6' 1903               	skipnz
  7379  01B7' 2800'              	goto	u6492
  7380  01B8' 0799'              	addwf	___flmul@grs+2,f
  7381  01B9'                    u6492:
  7382  01B9' 0813'              	movf	??___flmul+3,w
  7383  01BA' 1103               	clrz
  7384  01BB' 1803               	skipnc
  7385  01BC' 3E01               	addlw	1
  7386  01BD' 1903               	skipnz
  7387  01BE' 2800'              	goto	u6493
  7388  01BF' 079A'              	addwf	___flmul@grs+3,f
  7389  01C0'                    u6493:
  7390  01C0'                    l4167:
  7391  01C0' 0809'              	movf	___flmul@b+1,w
  7392  01C1' 0090'              	movwf	??___flmul
  7393  01C2' 0810'              	movf	??___flmul,w
  7394  01C3' 0082'              	movwf	__Umul8_16@multiplicand
  7395  01C4' 080E'              	movf	___flmul@a+2,w
  7396  01C5' 120A' 118A' 2000' 120A' 118A' 	fcall	__Umul8_16
  7397  01CA' 0803'              	movf	?__Umul8_16+1,w
  7398  01CB' 1283               	bcf	3,5	;RP0=0, select bank0
  7399  01CC' 1303               	bcf	3,6	;RP1=0, select bank0
  7400  01CD' 00A1'              	movwf	___flmul@temp+1
  7401  01CE' 0802'              	movf	?__Umul8_16,w
  7402  01CF' 00A0'              	movwf	___flmul@temp
  7403  01D0' 0820'              	movf	___flmul@temp,w
  7404  01D1' 0090'              	movwf	??___flmul
  7405  01D2' 0821'              	movf	___flmul@temp+1,w
  7406  01D3' 0091'              	movwf	??___flmul+1
  7407  01D4' 0192'              	clrf	??___flmul+2
  7408  01D5' 0193'              	clrf	??___flmul+3
  7409  01D6' 0810'              	movf	??___flmul,w
  7410  01D7' 079C'              	addwf	___flmul@prod,f
  7411  01D8' 0811'              	movf	??___flmul+1,w
  7412  01D9' 1103               	clrz
  7413  01DA' 1803               	skipnc
  7414  01DB' 3E01               	addlw	1
  7415  01DC' 1903               	skipnz
  7416  01DD' 2800'              	goto	u6501
  7417  01DE' 079D'              	addwf	___flmul@prod+1,f
  7418  01DF'                    u6501:
  7419  01DF' 0812'              	movf	??___flmul+2,w
  7420  01E0' 1103               	clrz
  7421  01E1' 1803               	skipnc
  7422  01E2' 3E01               	addlw	1
  7423  01E3' 1903               	skipnz
  7424  01E4' 2800'              	goto	u6502
  7425  01E5' 079E'              	addwf	___flmul@prod+2,f
  7426  01E6'                    u6502:
  7427  01E6' 0813'              	movf	??___flmul+3,w
  7428  01E7' 1103               	clrz
  7429  01E8' 1803               	skipnc
  7430  01E9' 3E01               	addlw	1
  7431  01EA' 1903               	skipnz
  7432  01EB' 2800'              	goto	u6503
  7433  01EC' 079F'              	addwf	___flmul@prod+3,f
  7434  01ED'                    u6503:
  7435  01ED'                    l4169:
  7436  01ED' 080A'              	movf	___flmul@b+2,w
  7437  01EE' 0090'              	movwf	??___flmul
  7438  01EF' 0810'              	movf	??___flmul,w
  7439  01F0' 0082'              	movwf	__Umul8_16@multiplicand
  7440  01F1' 080D'              	movf	___flmul@a+1,w
  7441  01F2' 120A' 118A' 2000' 120A' 118A' 	fcall	__Umul8_16
  7442  01F7' 0803'              	movf	?__Umul8_16+1,w
  7443  01F8' 1283               	bcf	3,5	;RP0=0, select bank0
  7444  01F9' 1303               	bcf	3,6	;RP1=0, select bank0
  7445  01FA' 00A1'              	movwf	___flmul@temp+1
  7446  01FB' 0802'              	movf	?__Umul8_16,w
  7447  01FC' 00A0'              	movwf	___flmul@temp
  7448  01FD'                    l4171:
  7449  01FD' 0820'              	movf	___flmul@temp,w
  7450  01FE' 0090'              	movwf	??___flmul
  7451  01FF' 0821'              	movf	___flmul@temp+1,w
  7452  0200' 0091'              	movwf	??___flmul+1
  7453  0201' 0192'              	clrf	??___flmul+2
  7454  0202' 0193'              	clrf	??___flmul+3
  7455  0203' 0810'              	movf	??___flmul,w
  7456  0204' 079C'              	addwf	___flmul@prod,f
  7457  0205' 0811'              	movf	??___flmul+1,w
  7458  0206' 1103               	clrz
  7459  0207' 1803               	skipnc
  7460  0208' 3E01               	addlw	1
  7461  0209' 1903               	skipnz
  7462  020A' 2800'              	goto	u6511
  7463  020B' 079D'              	addwf	___flmul@prod+1,f
  7464  020C'                    u6511:
  7465  020C' 0812'              	movf	??___flmul+2,w
  7466  020D' 1103               	clrz
  7467  020E' 1803               	skipnc
  7468  020F' 3E01               	addlw	1
  7469  0210' 1903               	skipnz
  7470  0211' 2800'              	goto	u6512
  7471  0212' 079E'              	addwf	___flmul@prod+2,f
  7472  0213'                    u6512:
  7473  0213' 0813'              	movf	??___flmul+3,w
  7474  0214' 1103               	clrz
  7475  0215' 1803               	skipnc
  7476  0216' 3E01               	addlw	1
  7477  0217' 1903               	skipnz
  7478  0218' 2800'              	goto	u6513
  7479  0219' 079F'              	addwf	___flmul@prod+3,f
  7480  021A'                    u6513:
  7481  021A' 080A'              	movf	___flmul@b+2,w
  7482  021B' 0090'              	movwf	??___flmul
  7483  021C' 0810'              	movf	??___flmul,w
  7484  021D' 0082'              	movwf	__Umul8_16@multiplicand
  7485  021E' 080E'              	movf	___flmul@a+2,w
  7486  021F' 120A' 118A' 2000' 120A' 118A' 	fcall	__Umul8_16
  7487  0224' 0803'              	movf	?__Umul8_16+1,w
  7488  0225' 1283               	bcf	3,5	;RP0=0, select bank0
  7489  0226' 1303               	bcf	3,6	;RP1=0, select bank0
  7490  0227' 00A1'              	movwf	___flmul@temp+1
  7491  0228' 0802'              	movf	?__Umul8_16,w
  7492  0229' 00A0'              	movwf	___flmul@temp
  7493  022A'                    l4173:
  7494  022A' 0820'              	movf	___flmul@temp,w
  7495  022B' 0090'              	movwf	??___flmul
  7496  022C' 0821'              	movf	___flmul@temp+1,w
  7497  022D' 0091'              	movwf	??___flmul+1
  7498  022E' 0192'              	clrf	??___flmul+2
  7499  022F' 0193'              	clrf	??___flmul+3
  7500  0230' 3008               	movlw	8
  7501  0231'                    u6525:
  7502  0231' 1003               	clrc
  7503  0232' 0D90'              	rlf	??___flmul,f
  7504  0233' 0D91'              	rlf	??___flmul+1,f
  7505  0234' 0D92'              	rlf	??___flmul+2,f
  7506  0235' 0D93'              	rlf	??___flmul+3,f
  7507  0236'                    u6520:
  7508  0236' 3EFF               	addlw	-1
  7509  0237' 1D03               	skipz
  7510  0238' 2800'              	goto	u6525
  7511  0239' 0810'              	movf	??___flmul,w
  7512  023A' 079C'              	addwf	___flmul@prod,f
  7513  023B' 0811'              	movf	??___flmul+1,w
  7514  023C' 1103               	clrz
  7515  023D' 1803               	skipnc
  7516  023E' 3E01               	addlw	1
  7517  023F' 1903               	skipnz
  7518  0240' 2800'              	goto	u6531
  7519  0241' 079D'              	addwf	___flmul@prod+1,f
  7520  0242'                    u6531:
  7521  0242' 0812'              	movf	??___flmul+2,w
  7522  0243' 1103               	clrz
  7523  0244' 1803               	skipnc
  7524  0245' 3E01               	addlw	1
  7525  0246' 1903               	skipnz
  7526  0247' 2800'              	goto	u6532
  7527  0248' 079E'              	addwf	___flmul@prod+2,f
  7528  0249'                    u6532:
  7529  0249' 0813'              	movf	??___flmul+3,w
  7530  024A' 1103               	clrz
  7531  024B' 1803               	skipnc
  7532  024C' 3E01               	addlw	1
  7533  024D' 1903               	skipnz
  7534  024E' 2800'              	goto	u6533
  7535  024F' 079F'              	addwf	___flmul@prod+3,f
  7536  0250'                    u6533:
  7537  0250'                    l4175:
  7538  0250' 0817'              	movf	___flmul@grs,w
  7539  0251' 0090'              	movwf	??___flmul
  7540  0252' 0818'              	movf	___flmul@grs+1,w
  7541  0253' 0091'              	movwf	??___flmul+1
  7542  0254' 0819'              	movf	___flmul@grs+2,w
  7543  0255' 0092'              	movwf	??___flmul+2
  7544  0256' 081A'              	movf	___flmul@grs+3,w
  7545  0257' 0093'              	movwf	??___flmul+3
  7546  0258' 3018               	movlw	24
  7547  0259'                    u6545:
  7548  0259' 1003               	clrc
  7549  025A' 0C93'              	rrf	??___flmul+3,f
  7550  025B' 0C92'              	rrf	??___flmul+2,f
  7551  025C' 0C91'              	rrf	??___flmul+1,f
  7552  025D' 0C90'              	rrf	??___flmul,f
  7553  025E'                    u6540:
  7554  025E' 3EFF               	addlw	-1
  7555  025F' 1D03               	skipz
  7556  0260' 2800'              	goto	u6545
  7557  0261' 0810'              	movf	??___flmul,w
  7558  0262' 079C'              	addwf	___flmul@prod,f
  7559  0263' 0811'              	movf	??___flmul+1,w
  7560  0264' 1103               	clrz
  7561  0265' 1803               	skipnc
  7562  0266' 3E01               	addlw	1
  7563  0267' 1903               	skipnz
  7564  0268' 2800'              	goto	u6551
  7565  0269' 079D'              	addwf	___flmul@prod+1,f
  7566  026A'                    u6551:
  7567  026A' 0812'              	movf	??___flmul+2,w
  7568  026B' 1103               	clrz
  7569  026C' 1803               	skipnc
  7570  026D' 3E01               	addlw	1
  7571  026E' 1903               	skipnz
  7572  026F' 2800'              	goto	u6552
  7573  0270' 079E'              	addwf	___flmul@prod+2,f
  7574  0271'                    u6552:
  7575  0271' 0813'              	movf	??___flmul+3,w
  7576  0272' 1103               	clrz
  7577  0273' 1803               	skipnc
  7578  0274' 3E01               	addlw	1
  7579  0275' 1903               	skipnz
  7580  0276' 2800'              	goto	u6553
  7581  0277' 079F'              	addwf	___flmul@prod+3,f
  7582  0278'                    u6553:
  7583  0278'                    l4177:
  7584  0278' 3008               	movlw	8
  7585  0279' 0090'              	movwf	??___flmul
  7586  027A'                    u6565:
  7587  027A' 1003               	clrc
  7588  027B' 0D97'              	rlf	___flmul@grs,f
  7589  027C' 0D98'              	rlf	___flmul@grs+1,f
  7590  027D' 0D99'              	rlf	___flmul@grs+2,f
  7591  027E' 0D9A'              	rlf	___flmul@grs+3,f
  7592  027F' 0B90'              	decfsz	??___flmul,f
  7593  0280' 2800'              	goto	u6565
  7594  0281'                    l4179:
  7595  0281' 081B'              	movf	___flmul@bexp,w
  7596  0282' 0716'              	addwf	___flmul@aexp,w
  7597  0283' 0090'              	movwf	??___flmul
  7598  0284' 0191'              	clrf	??___flmul+1
  7599  0285' 0D91'              	rlf	??___flmul+1,f
  7600  0286' 0810'              	movf	??___flmul,w
  7601  0287' 3E82               	addlw	130
  7602  0288' 00A0'              	movwf	___flmul@temp
  7603  0289' 0811'              	movf	??___flmul+1,w
  7604  028A' 1803               	skipnc
  7605  028B' 3E01               	addlw	1
  7606  028C' 3EFF               	addlw	255
  7607  028D' 00A1'              	movwf	___flmul@temp+1
  7608  028E' 2800'              	goto	l4191
  7609  028F'                    l4181:
  7610  028F' 3001               	movlw	1
  7611  0290' 0090'              	movwf	??___flmul
  7612  0291'                    u6575:
  7613  0291' 1003               	clrc
  7614  0292' 0D9C'              	rlf	___flmul@prod,f
  7615  0293' 0D9D'              	rlf	___flmul@prod+1,f
  7616  0294' 0D9E'              	rlf	___flmul@prod+2,f
  7617  0295' 0D9F'              	rlf	___flmul@prod+3,f
  7618  0296' 0B90'              	decfsz	??___flmul,f
  7619  0297' 2800'              	goto	u6575
  7620  0298'                    l4183:
  7621  0298' 1F9A'              	btfss	___flmul@grs+3,7
  7622  0299' 2800'              	goto	u6581
  7623  029A' 2800'              	goto	u6580
  7624  029B'                    u6581:
  7625  029B' 2800'              	goto	l4187
  7626  029C'                    u6580:
  7627  029C'                    l4185:
  7628  029C' 141C'              	bsf	___flmul@prod,0
  7629  029D'                    l4187:
  7630  029D' 3001               	movlw	1
  7631  029E' 0090'              	movwf	??___flmul
  7632  029F'                    u6595:
  7633  029F' 1003               	clrc
  7634  02A0' 0D97'              	rlf	___flmul@grs,f
  7635  02A1' 0D98'              	rlf	___flmul@grs+1,f
  7636  02A2' 0D99'              	rlf	___flmul@grs+2,f
  7637  02A3' 0D9A'              	rlf	___flmul@grs+3,f
  7638  02A4' 0B90'              	decfsz	??___flmul,f
  7639  02A5' 2800'              	goto	u6595
  7640  02A6'                    l4189:
  7641  02A6' 30FF               	movlw	255
  7642  02A7' 07A0'              	addwf	___flmul@temp,f
  7643  02A8' 1803               	skipnc
  7644  02A9' 0AA1'              	incf	___flmul@temp+1,f
  7645  02AA' 30FF               	movlw	255
  7646  02AB' 07A1'              	addwf	___flmul@temp+1,f
  7647  02AC'                    l4191:
  7648  02AC' 1F9E'              	btfss	___flmul@prod+2,7
  7649  02AD' 2800'              	goto	u6601
  7650  02AE' 2800'              	goto	u6600
  7651  02AF'                    u6601:
  7652  02AF' 2800'              	goto	l4181
  7653  02B0'                    u6600:
  7654  02B0'                    l4193:
  7655  02B0' 0196'              	clrf	___flmul@aexp
  7656  02B1'                    l4195:
  7657  02B1' 1F9A'              	btfss	___flmul@grs+3,7
  7658  02B2' 2800'              	goto	u6611
  7659  02B3' 2800'              	goto	u6610
  7660  02B4'                    u6611:
  7661  02B4' 2800'              	goto	l4203
  7662  02B5'                    u6610:
  7663  02B5'                    l4197:
  7664  02B5' 30FF               	movlw	255
  7665  02B6' 0517'              	andwf	___flmul@grs,w
  7666  02B7' 0090'              	movwf	??___flmul
  7667  02B8' 30FF               	movlw	255
  7668  02B9' 0518'              	andwf	___flmul@grs+1,w
  7669  02BA' 0091'              	movwf	??___flmul+1
  7670  02BB' 30FF               	movlw	255
  7671  02BC' 0519'              	andwf	___flmul@grs+2,w
  7672  02BD' 0092'              	movwf	??___flmul+2
  7673  02BE' 307F               	movlw	127
  7674  02BF' 051A'              	andwf	___flmul@grs+3,w
  7675  02C0' 0093'              	movwf	??___flmul+3
  7676  02C1' 0813'              	movf	??___flmul+3,w
  7677  02C2' 0412'              	iorwf	??___flmul+2,w
  7678  02C3' 0411'              	iorwf	??___flmul+1,w
  7679  02C4' 0410'              	iorwf	??___flmul,w
  7680  02C5' 1903               	skipnz
  7681  02C6' 2800'              	goto	u6621
  7682  02C7' 2800'              	goto	u6620
  7683  02C8'                    u6621:
  7684  02C8' 2800'              	goto	l873
  7685  02C9'                    u6620:
  7686  02C9'                    l4199:
  7687  02C9' 0196'              	clrf	___flmul@aexp
  7688  02CA' 0A96'              	incf	___flmul@aexp,f
  7689  02CB' 2800'              	goto	l4203
  7690  02CC'                    l873:
  7691  02CC' 1C1C'              	btfss	___flmul@prod,0
  7692  02CD' 2800'              	goto	u6631
  7693  02CE' 2800'              	goto	u6630
  7694  02CF'                    u6631:
  7695  02CF' 2800'              	goto	l4203
  7696  02D0'                    u6630:
  7697  02D0' 2800'              	goto	l4199
  7698  02D1'                    l4203:
  7699  02D1' 0816'              	movf	___flmul@aexp,w
  7700  02D2' 1903               	btfsc	3,2
  7701  02D3' 2800'              	goto	u6641
  7702  02D4' 2800'              	goto	u6640
  7703  02D5'                    u6641:
  7704  02D5' 2800'              	goto	l4213
  7705  02D6'                    u6640:
  7706  02D6'                    l4205:
  7707  02D6' 3001               	movlw	1
  7708  02D7' 079C'              	addwf	___flmul@prod,f
  7709  02D8' 3000               	movlw	0
  7710  02D9' 1803               	skipnc
  7711  02DA' 3001               	movlw	1
  7712  02DB' 079D'              	addwf	___flmul@prod+1,f
  7713  02DC' 3000               	movlw	0
  7714  02DD' 1803               	skipnc
  7715  02DE' 3001               	movlw	1
  7716  02DF' 079E'              	addwf	___flmul@prod+2,f
  7717  02E0' 3000               	movlw	0
  7718  02E1' 1803               	skipnc
  7719  02E2' 3001               	movlw	1
  7720  02E3' 079F'              	addwf	___flmul@prod+3,f
  7721  02E4'                    l4207:
  7722  02E4' 1C1F'              	btfss	___flmul@prod+3,0
  7723  02E5' 2800'              	goto	u6651
  7724  02E6' 2800'              	goto	u6650
  7725  02E7'                    u6651:
  7726  02E7' 2800'              	goto	l4213
  7727  02E8'                    u6650:
  7728  02E8'                    l4209:
  7729  02E8' 081C'              	movf	___flmul@prod,w
  7730  02E9' 0090'              	movwf	??___flmul
  7731  02EA' 081D'              	movf	___flmul@prod+1,w
  7732  02EB' 0091'              	movwf	??___flmul+1
  7733  02EC' 081E'              	movf	___flmul@prod+2,w
  7734  02ED' 0092'              	movwf	??___flmul+2
  7735  02EE' 081F'              	movf	___flmul@prod+3,w
  7736  02EF' 0093'              	movwf	??___flmul+3
  7737  02F0' 3001               	movlw	1
  7738  02F1' 0094'              	movwf	??___flmul+4
  7739  02F2'                    u6665:
  7740  02F2' 0D13'              	rlf	??___flmul+3,w
  7741  02F3' 0C93'              	rrf	??___flmul+3,f
  7742  02F4' 0C92'              	rrf	??___flmul+2,f
  7743  02F5' 0C91'              	rrf	??___flmul+1,f
  7744  02F6' 0C90'              	rrf	??___flmul,f
  7745  02F7'                    u6660:
  7746  02F7' 0B94'              	decfsz	??___flmul+4,f
  7747  02F8' 2800'              	goto	u6665
  7748  02F9' 0813'              	movf	??___flmul+3,w
  7749  02FA' 009F'              	movwf	___flmul@prod+3
  7750  02FB' 0812'              	movf	??___flmul+2,w
  7751  02FC' 009E'              	movwf	___flmul@prod+2
  7752  02FD' 0811'              	movf	??___flmul+1,w
  7753  02FE' 009D'              	movwf	___flmul@prod+1
  7754  02FF' 0810'              	movf	??___flmul,w
  7755  0300' 009C'              	movwf	___flmul@prod
  7756  0301'                    l4211:
  7757  0301' 3001               	movlw	1
  7758  0302' 07A0'              	addwf	___flmul@temp,f
  7759  0303' 1803               	skipnc
  7760  0304' 0AA1'              	incf	___flmul@temp+1,f
  7761  0305' 3000               	movlw	0
  7762  0306' 07A1'              	addwf	___flmul@temp+1,f
  7763  0307'                    l4213:
  7764  0307' 0821'              	movf	___flmul@temp+1,w
  7765  0308' 3A80               	xorlw	128
  7766  0309' 00FF               	movwf	btemp+1
  7767  030A' 3080               	movlw	128
  7768  030B' 027F               	subwf	btemp+1,w
  7769  030C' 1D03               	skipz
  7770  030D' 2800'              	goto	u6675
  7771  030E' 30FF               	movlw	255
  7772  030F' 0220'              	subwf	___flmul@temp,w
  7773  0310'                    u6675:
  7774  0310' 1C03               	skipc
  7775  0311' 2800'              	goto	u6671
  7776  0312' 2800'              	goto	u6670
  7777  0313'                    u6671:
  7778  0313' 2800'              	goto	l4217
  7779  0314'                    u6670:
  7780  0314'                    l4215:
  7781  0314' 307F               	movlw	127
  7782  0315' 1283               	bcf	3,5	;RP0=0, select bank0
  7783  0316' 1303               	bcf	3,6	;RP1=0, select bank0
  7784  0317' 009F'              	movwf	___flmul@prod+3
  7785  0318' 3080               	movlw	128
  7786  0319' 009E'              	movwf	___flmul@prod+2
  7787  031A' 3000               	movlw	0
  7788  031B' 009D'              	movwf	___flmul@prod+1
  7789  031C' 3000               	movlw	0
  7790  031D' 009C'              	movwf	___flmul@prod
  7791  031E' 2800'              	goto	l879
  7792  031F'                    l4217:
  7793  031F' 1283               	bcf	3,5	;RP0=0, select bank0
  7794  0320' 1303               	bcf	3,6	;RP1=0, select bank0
  7795  0321' 0821'              	movf	___flmul@temp+1,w
  7796  0322' 3A80               	xorlw	128
  7797  0323' 00FF               	movwf	btemp+1
  7798  0324' 3080               	movlw	128
  7799  0325' 027F               	subwf	btemp+1,w
  7800  0326' 1D03               	skipz
  7801  0327' 2800'              	goto	u6685
  7802  0328' 3001               	movlw	1
  7803  0329' 0220'              	subwf	___flmul@temp,w
  7804  032A'                    u6685:
  7805  032A' 1803               	skipnc
  7806  032B' 2800'              	goto	u6681
  7807  032C' 2800'              	goto	u6680
  7808  032D'                    u6681:
  7809  032D' 2800'              	goto	l4223
  7810  032E'                    u6680:
  7811  032E'                    l4219:
  7812  032E' 3000               	movlw	0
  7813  032F' 1283               	bcf	3,5	;RP0=0, select bank0
  7814  0330' 1303               	bcf	3,6	;RP1=0, select bank0
  7815  0331' 009F'              	movwf	___flmul@prod+3
  7816  0332' 3000               	movlw	0
  7817  0333' 009E'              	movwf	___flmul@prod+2
  7818  0334' 3000               	movlw	0
  7819  0335' 009D'              	movwf	___flmul@prod+1
  7820  0336' 3000               	movlw	0
  7821  0337' 009C'              	movwf	___flmul@prod
  7822  0338'                    l4221:
  7823  0338' 0195'              	clrf	___flmul@sign
  7824  0339' 2800'              	goto	l879
  7825  033A'                    l4223:
  7826  033A' 1283               	bcf	3,5	;RP0=0, select bank0
  7827  033B' 1303               	bcf	3,6	;RP1=0, select bank0
  7828  033C' 0820'              	movf	___flmul@temp,w
  7829  033D' 0090'              	movwf	??___flmul
  7830  033E' 0810'              	movf	??___flmul,w
  7831  033F' 009B'              	movwf	___flmul@bexp
  7832  0340' 30FF               	movlw	255
  7833  0341' 059C'              	andwf	___flmul@prod,f
  7834  0342' 30FF               	movlw	255
  7835  0343' 059D'              	andwf	___flmul@prod+1,f
  7836  0344' 307F               	movlw	127
  7837  0345' 059E'              	andwf	___flmul@prod+2,f
  7838  0346' 3000               	movlw	0
  7839  0347' 059F'              	andwf	___flmul@prod+3,f
  7840  0348'                    l4225:
  7841  0348' 1C1B'              	btfss	___flmul@bexp,0
  7842  0349' 2800'              	goto	u6691
  7843  034A' 2800'              	goto	u6690
  7844  034B'                    u6691:
  7845  034B' 2800'              	goto	l4229
  7846  034C'                    u6690:
  7847  034C'                    l4227:
  7848  034C' 179E'              	bsf	___flmul@prod+2,7
  7849  034D'                    l4229:
  7850  034D' 081B'              	movf	___flmul@bexp,w
  7851  034E' 0090'              	movwf	??___flmul
  7852  034F' 1003               	clrc
  7853  0350' 0C10'              	rrf	??___flmul,w
  7854  0351' 0091'              	movwf	??___flmul+1
  7855  0352' 0811'              	movf	??___flmul+1,w
  7856  0353' 009F'              	movwf	___flmul@prod+3
  7857  0354'                    l879:
  7858  0354' 0815'              	movf	___flmul@sign,w
  7859  0355' 0090'              	movwf	??___flmul
  7860  0356' 0810'              	movf	??___flmul,w
  7861  0357' 049F'              	iorwf	___flmul@prod+3,f
  7862  0358'                    l4231:
  7863  0358' 081F'              	movf	___flmul@prod+3,w
  7864  0359' 008B'              	movwf	?___flmul+3
  7865  035A' 081E'              	movf	___flmul@prod+2,w
  7866  035B' 008A'              	movwf	?___flmul+2
  7867  035C' 081D'              	movf	___flmul@prod+1,w
  7868  035D' 0089'              	movwf	?___flmul+1
  7869  035E' 081C'              	movf	___flmul@prod,w
  7870  035F' 0088'              	movwf	?___flmul
  7871  0360'                    l867:
  7872  0360' 0008               	return
  7873  0361'                    __end_of___flmul:
  7874                           
  7875                           	psect	text11
  7876  0000'                    __ptext11:	
  7877 ;; *************** function __Umul8_16 *****************
  7878 ;; Defined at:
  7879 ;;		line 4 in file "C:\Program Files\Microchip\xc8\v2.31\pic\sources\c90\common\Umul8_16.c"
  7880 ;; Parameters:    Size  Location     Type
  7881 ;;  multiplier      1    wreg     unsigned char 
  7882 ;;  multiplicand    1    2[COMMON] unsigned char 
  7883 ;; Auto vars:     Size  Location     Type
  7884 ;;  multiplier      1    4[BANK0 ] unsigned char 
  7885 ;;  word_mpld       2    2[BANK0 ] unsigned int 
  7886 ;;  product         2    0[BANK0 ] unsigned int 
  7887 ;; Return value:  Size  Location     Type
  7888 ;;                  2    2[COMMON] unsigned int 
  7889 ;; Registers used:
  7890 ;;		wreg, status,2, status,0
  7891 ;; Tracked objects:
  7892 ;;		On entry : 0/0
  7893 ;;		On exit  : 0/0
  7894 ;;		Unchanged: 0/0
  7895 ;; Data sizes:     COMMON   BANK0   BANK1   BANK3   BANK2
  7896 ;;      Params:         2       0       0       0       0
  7897 ;;      Locals:         0       5       0       0       0
  7898 ;;      Temps:          2       0       0       0       0
  7899 ;;      Totals:         4       5       0       0       0
  7900 ;;Total ram usage:        9 bytes
  7901 ;; Hardware stack levels used:    1
  7902 ;; Hardware stack levels required when called:    2
  7903 ;; This function calls:
  7904 ;;		Nothing
  7905 ;; This function is called by:
  7906 ;;		___flmul
  7907 ;; This function uses a non-reentrant model
  7908 ;;
  7909                           
  7910                           
  7911                           ;psect for function __Umul8_16
  7912  0000'                    __Umul8_16:
  7913                           
  7914                           ;incstack = 0
  7915                           ; Regs used in __Umul8_16: [wreg+status,2+status,0]
  7916                           ;__Umul8_16@multiplier stored from wreg
  7917  0000' 1283               	bcf	3,5	;RP0=0, select bank0
  7918  0001' 1303               	bcf	3,6	;RP1=0, select bank0
  7919  0002' 0084'              	movwf	__Umul8_16@multiplier
  7920  0003'                    l4031:
  7921  0003' 0180'              	clrf	__Umul8_16@product
  7922  0004' 0181'              	clrf	__Umul8_16@product+1
  7923  0005'                    l4033:
  7924  0005' 0802'              	movf	__Umul8_16@multiplicand,w
  7925  0006' 0084'              	movwf	??__Umul8_16
  7926  0007' 0185'              	clrf	??__Umul8_16+1
  7927  0008' 0804'              	movf	??__Umul8_16,w
  7928  0009' 0082'              	movwf	__Umul8_16@word_mpld
  7929  000A' 0805'              	movf	??__Umul8_16+1,w
  7930  000B' 0083'              	movwf	__Umul8_16@word_mpld+1
  7931  000C'                    l4035:
  7932  000C' 1C04'              	btfss	__Umul8_16@multiplier,0
  7933  000D' 2800'              	goto	u6161
  7934  000E' 2800'              	goto	u6160
  7935  000F'                    u6161:
  7936  000F' 2800'              	goto	l886
  7937  0010'                    u6160:
  7938  0010'                    l4037:
  7939  0010' 0802'              	movf	__Umul8_16@word_mpld,w
  7940  0011' 0780'              	addwf	__Umul8_16@product,f
  7941  0012' 1803               	skipnc
  7942  0013' 0A81'              	incf	__Umul8_16@product+1,f
  7943  0014' 0803'              	movf	__Umul8_16@word_mpld+1,w
  7944  0015' 0781'              	addwf	__Umul8_16@product+1,f
  7945  0016'                    l886:
  7946  0016' 3001               	movlw	1
  7947  0017'                    u6175:
  7948  0017' 1003               	clrc
  7949  0018' 0D82'              	rlf	__Umul8_16@word_mpld,f
  7950  0019' 0D83'              	rlf	__Umul8_16@word_mpld+1,f
  7951  001A' 3EFF               	addlw	-1
  7952  001B' 1D03               	skipz
  7953  001C' 2800'              	goto	u6175
  7954  001D' 1003               	clrc
  7955  001E' 0C84'              	rrf	__Umul8_16@multiplier,f
  7956  001F'                    l4039:
  7957  001F' 0804'              	movf	__Umul8_16@multiplier,w
  7958  0020' 1D03               	btfss	3,2
  7959  0021' 2800'              	goto	u6181
  7960  0022' 2800'              	goto	u6180
  7961  0023'                    u6181:
  7962  0023' 2800'              	goto	l4035
  7963  0024'                    u6180:
  7964  0024'                    l4041:
  7965  0024' 0801'              	movf	__Umul8_16@product+1,w
  7966  0025' 0083'              	movwf	?__Umul8_16+1
  7967  0026' 0800'              	movf	__Umul8_16@product,w
  7968  0027' 0082'              	movwf	?__Umul8_16
  7969  0028'                    l888:
  7970  0028' 0008               	return
  7971  0029'                    __end_of__Umul8_16:
  7972                           
  7973                           	psect	text12
  7974  0000'                    __ptext12:	
  7975 ;; *************** function __tdiv_to_l_ *****************
  7976 ;; Defined at:
  7977 ;;		line 60 in file "C:\Program Files\Microchip\xc8\v2.31\pic\sources\c90\common\ftdivl.c"
  7978 ;; Parameters:    Size  Location     Type
  7979 ;;  f1              4    2[COMMON] float 
  7980 ;;  f2              4    6[COMMON] float 
  7981 ;; Auto vars:     Size  Location     Type
  7982 ;;  quot            4    4[BANK0 ] unsigned long 
  7983 ;;  exp1            1    9[BANK0 ] unsigned char 
  7984 ;;  cntr            1    8[BANK0 ] unsigned char 
  7985 ;; Return value:  Size  Location     Type
  7986 ;;                  4    2[COMMON] unsigned long 
  7987 ;; Registers used:
  7988 ;;		wreg, status,2, status,0
  7989 ;; Tracked objects:
  7990 ;;		On entry : 0/0
  7991 ;;		On exit  : 0/0
  7992 ;;		Unchanged: 0/0
  7993 ;; Data sizes:     COMMON   BANK0   BANK1   BANK3   BANK2
  7994 ;;      Params:         8       0       0       0       0
  7995 ;;      Locals:         0       6       0       0       0
  7996 ;;      Temps:          0       4       0       0       0
  7997 ;;      Totals:         8      10       0       0       0
  7998 ;;Total ram usage:       18 bytes
  7999 ;; Hardware stack levels used:    1
  8000 ;; Hardware stack levels required when called:    2
  8001 ;; This function calls:
  8002 ;;		Nothing
  8003 ;; This function is called by:
  8004 ;;		_sprintf
  8005 ;; This function uses a non-reentrant model
  8006 ;;
  8007                           
  8008                           
  8009                           ;psect for function __tdiv_to_l_
  8010  0000'                    __tdiv_to_l_:
  8011  0000'                    l3209:	
  8012                           ;incstack = 0
  8013                           ; Regs used in __tdiv_to_l_: [wreg+status,2+status,0]
  8014                           
  8015  0000' 0802'              	movf	__tdiv_to_l_@f1,w
  8016  0001' 1283               	bcf	3,5	;RP0=0, select bank0
  8017  0002' 1303               	bcf	3,6	;RP1=0, select bank0
  8018  0003' 0080'              	movwf	??__tdiv_to_l_
  8019  0004' 0803'              	movf	__tdiv_to_l_@f1+1,w
  8020  0005' 0081'              	movwf	??__tdiv_to_l_+1
  8021  0006' 0804'              	movf	__tdiv_to_l_@f1+2,w
  8022  0007' 0082'              	movwf	??__tdiv_to_l_+2
  8023  0008' 1003               	clrc
  8024  0009' 0D01'              	rlf	??__tdiv_to_l_+1,w
  8025  000A' 0D02'              	rlf	??__tdiv_to_l_+2,w
  8026  000B' 0083'              	movwf	??__tdiv_to_l_+3
  8027  000C' 0803'              	movf	??__tdiv_to_l_+3,w
  8028  000D' 0089'              	movwf	__tdiv_to_l_@exp1
  8029  000E' 0809'              	movf	__tdiv_to_l_@exp1,w
  8030  000F' 1D03               	btfss	3,2
  8031  0010' 2800'              	goto	u4721
  8032  0011' 2800'              	goto	u4720
  8033  0012'                    u4721:
  8034  0012' 2800'              	goto	l3215
  8035  0013'                    u4720:
  8036  0013'                    l3211:
  8037  0013' 3000               	movlw	0
  8038  0014' 0085'              	movwf	?__tdiv_to_l_+3
  8039  0015' 3000               	movlw	0
  8040  0016' 0084'              	movwf	?__tdiv_to_l_+2
  8041  0017' 3000               	movlw	0
  8042  0018' 0083'              	movwf	?__tdiv_to_l_+1
  8043  0019' 3000               	movlw	0
  8044  001A' 0082'              	movwf	?__tdiv_to_l_
  8045  001B' 2800'              	goto	l661
  8046  001C'                    l3215:
  8047  001C' 0806'              	movf	__tdiv_to_l_@f2,w
  8048  001D' 0080'              	movwf	??__tdiv_to_l_
  8049  001E' 0807'              	movf	__tdiv_to_l_@f2+1,w
  8050  001F' 0081'              	movwf	??__tdiv_to_l_+1
  8051  0020' 0808'              	movf	__tdiv_to_l_@f2+2,w
  8052  0021' 0082'              	movwf	??__tdiv_to_l_+2
  8053  0022' 1003               	clrc
  8054  0023' 0D01'              	rlf	??__tdiv_to_l_+1,w
  8055  0024' 0D02'              	rlf	??__tdiv_to_l_+2,w
  8056  0025' 0083'              	movwf	??__tdiv_to_l_+3
  8057  0026' 0803'              	movf	??__tdiv_to_l_+3,w
  8058  0027' 0088'              	movwf	__tdiv_to_l_@cntr
  8059  0028' 0808'              	movf	__tdiv_to_l_@cntr,w
  8060  0029' 1D03               	btfss	3,2
  8061  002A' 2800'              	goto	u4731
  8062  002B' 2800'              	goto	u4730
  8063  002C'                    u4731:
  8064  002C' 2800'              	goto	l662
  8065  002D'                    u4730:
  8066  002D' 2800'              	goto	l3211
  8067  002E'                    l662:
  8068  002E' 1783'              	bsf	__tdiv_to_l_@f1+1,7
  8069  002F'                    l3221:
  8070  002F' 30FF               	movlw	255
  8071  0030' 0582'              	andwf	__tdiv_to_l_@f1,f
  8072  0031' 30FF               	movlw	255
  8073  0032' 0583'              	andwf	__tdiv_to_l_@f1+1,f
  8074  0033' 3000               	movlw	0
  8075  0034' 0584'              	andwf	__tdiv_to_l_@f1+2,f
  8076  0035'                    l3223:
  8077  0035' 1787'              	bsf	__tdiv_to_l_@f2+1,7
  8078  0036' 30FF               	movlw	255
  8079  0037' 0586'              	andwf	__tdiv_to_l_@f2,f
  8080  0038' 30FF               	movlw	255
  8081  0039' 0587'              	andwf	__tdiv_to_l_@f2+1,f
  8082  003A' 3000               	movlw	0
  8083  003B' 0588'              	andwf	__tdiv_to_l_@f2+2,f
  8084  003C' 3000               	movlw	0
  8085  003D' 0087'              	movwf	__tdiv_to_l_@quot+3
  8086  003E' 3000               	movlw	0
  8087  003F' 0086'              	movwf	__tdiv_to_l_@quot+2
  8088  0040' 3000               	movlw	0
  8089  0041' 0085'              	movwf	__tdiv_to_l_@quot+1
  8090  0042' 3000               	movlw	0
  8091  0043' 0084'              	movwf	__tdiv_to_l_@quot
  8092  0044'                    l3225:
  8093  0044' 307F               	movlw	127
  8094  0045' 0289'              	subwf	__tdiv_to_l_@exp1,f
  8095  0046'                    l3227:
  8096  0046' 3098               	movlw	152
  8097  0047' 0708'              	addwf	__tdiv_to_l_@cntr,w
  8098  0048' 0080'              	movwf	??__tdiv_to_l_
  8099  0049' 0800'              	movf	??__tdiv_to_l_,w
  8100  004A' 0289'              	subwf	__tdiv_to_l_@exp1,f
  8101  004B' 3018               	movlw	24
  8102  004C' 0080'              	movwf	??__tdiv_to_l_
  8103  004D' 0800'              	movf	??__tdiv_to_l_,w
  8104  004E' 0088'              	movwf	__tdiv_to_l_@cntr
  8105  004F'                    l3229:
  8106  004F' 3001               	movlw	1
  8107  0050' 0080'              	movwf	??__tdiv_to_l_
  8108  0051'                    u4745:
  8109  0051' 1003               	clrc
  8110  0052' 0D84'              	rlf	__tdiv_to_l_@quot,f
  8111  0053' 0D85'              	rlf	__tdiv_to_l_@quot+1,f
  8112  0054' 0D86'              	rlf	__tdiv_to_l_@quot+2,f
  8113  0055' 0D87'              	rlf	__tdiv_to_l_@quot+3,f
  8114  0056' 0B80'              	decfsz	??__tdiv_to_l_,f
  8115  0057' 2800'              	goto	u4745
  8116  0058'                    l3231:
  8117  0058' 0808'              	movf	__tdiv_to_l_@f2+2,w
  8118  0059' 0204'              	subwf	__tdiv_to_l_@f1+2,w
  8119  005A' 1D03               	skipz
  8120  005B' 2800'              	goto	u4755
  8121  005C' 0807'              	movf	__tdiv_to_l_@f2+1,w
  8122  005D' 0203'              	subwf	__tdiv_to_l_@f1+1,w
  8123  005E' 1D03               	skipz
  8124  005F' 2800'              	goto	u4755
  8125  0060' 0806'              	movf	__tdiv_to_l_@f2,w
  8126  0061' 0202'              	subwf	__tdiv_to_l_@f1,w
  8127  0062'                    u4755:
  8128  0062' 1C03               	skipc
  8129  0063' 2800'              	goto	u4751
  8130  0064' 2800'              	goto	u4750
  8131  0065'                    u4751:
  8132  0065' 2800'              	goto	l3237
  8133  0066'                    u4750:
  8134  0066'                    l3233:
  8135  0066' 0806'              	movf	__tdiv_to_l_@f2,w
  8136  0067' 0282'              	subwf	__tdiv_to_l_@f1,f
  8137  0068' 0807'              	movf	__tdiv_to_l_@f2+1,w
  8138  0069' 1C03               	skipc
  8139  006A' 0F07'              	incfsz	__tdiv_to_l_@f2+1,w
  8140  006B' 0283'              	subwf	__tdiv_to_l_@f1+1,f
  8141  006C' 0808'              	movf	__tdiv_to_l_@f2+2,w
  8142  006D' 1C03               	skipc
  8143  006E' 0A08'              	incf	__tdiv_to_l_@f2+2,w
  8144  006F' 0284'              	subwf	__tdiv_to_l_@f1+2,f
  8145  0070'                    l3235:
  8146  0070' 1404'              	bsf	__tdiv_to_l_@quot,0
  8147  0071'                    l3237:
  8148  0071' 3001               	movlw	1
  8149  0072'                    u4765:
  8150  0072' 1003               	clrc
  8151  0073' 0D82'              	rlf	__tdiv_to_l_@f1,f
  8152  0074' 0D83'              	rlf	__tdiv_to_l_@f1+1,f
  8153  0075' 0D84'              	rlf	__tdiv_to_l_@f1+2,f
  8154  0076' 3EFF               	addlw	-1
  8155  0077' 1D03               	skipz
  8156  0078' 2800'              	goto	u4765
  8157  0079'                    l3239:
  8158  0079' 3001               	movlw	1
  8159  007A' 0288'              	subwf	__tdiv_to_l_@cntr,f
  8160  007B' 1D03               	btfss	3,2
  8161  007C' 2800'              	goto	u4771
  8162  007D' 2800'              	goto	u4770
  8163  007E'                    u4771:
  8164  007E' 2800'              	goto	l3229
  8165  007F'                    u4770:
  8166  007F'                    l665:
  8167  007F' 1F89'              	btfss	__tdiv_to_l_@exp1,7
  8168  0080' 2800'              	goto	u4781
  8169  0081' 2800'              	goto	u4780
  8170  0082'                    u4781:
  8171  0082' 2800'              	goto	l3249
  8172  0083'                    u4780:
  8173  0083'                    l3241:
  8174  0083' 0809'              	movf	__tdiv_to_l_@exp1,w
  8175  0084' 3A80               	xorlw	128
  8176  0085' 3E97               	addlw	151
  8177  0086' 1803               	skipnc
  8178  0087' 2800'              	goto	u4791
  8179  0088' 2800'              	goto	u4790
  8180  0089'                    u4791:
  8181  0089' 2800'              	goto	l3247
  8182  008A'                    u4790:
  8183  008A' 2800'              	goto	l3211
  8184  008B'                    l3247:
  8185  008B' 3001               	movlw	1
  8186  008C'                    u4805:
  8187  008C' 1003               	clrc
  8188  008D' 0C87'              	rrf	__tdiv_to_l_@quot+3,f
  8189  008E' 0C86'              	rrf	__tdiv_to_l_@quot+2,f
  8190  008F' 0C85'              	rrf	__tdiv_to_l_@quot+1,f
  8191  0090' 0C84'              	rrf	__tdiv_to_l_@quot,f
  8192  0091' 3EFF               	addlw	-1
  8193  0092' 1D03               	skipz
  8194  0093' 2800'              	goto	u4805
  8195  0094' 3001               	movlw	1
  8196  0095' 0080'              	movwf	??__tdiv_to_l_
  8197  0096' 0800'              	movf	??__tdiv_to_l_,w
  8198  0097' 0789'              	addwf	__tdiv_to_l_@exp1,f
  8199  0098' 1D03               	btfss	3,2
  8200  0099' 2800'              	goto	u4811
  8201  009A' 2800'              	goto	u4810
  8202  009B'                    u4811:
  8203  009B' 2800'              	goto	l3247
  8204  009C'                    u4810:
  8205  009C' 2800'              	goto	l3257
  8206  009D'                    l3249:
  8207  009D' 3018               	movlw	24
  8208  009E' 0209'              	subwf	__tdiv_to_l_@exp1,w
  8209  009F' 1C03               	skipc
  8210  00A0' 2800'              	goto	u4821
  8211  00A1' 2800'              	goto	u4820
  8212  00A2'                    u4821:
  8213  00A2' 2800'              	goto	l672
  8214  00A3'                    u4820:
  8215  00A3' 2800'              	goto	l3211
  8216  00A4'                    l3255:
  8217  00A4' 3001               	movlw	1
  8218  00A5' 0080'              	movwf	??__tdiv_to_l_
  8219  00A6'                    u4835:
  8220  00A6' 1003               	clrc
  8221  00A7' 0D84'              	rlf	__tdiv_to_l_@quot,f
  8222  00A8' 0D85'              	rlf	__tdiv_to_l_@quot+1,f
  8223  00A9' 0D86'              	rlf	__tdiv_to_l_@quot+2,f
  8224  00AA' 0D87'              	rlf	__tdiv_to_l_@quot+3,f
  8225  00AB' 0B80'              	decfsz	??__tdiv_to_l_,f
  8226  00AC' 2800'              	goto	u4835
  8227  00AD' 3001               	movlw	1
  8228  00AE' 0289'              	subwf	__tdiv_to_l_@exp1,f
  8229  00AF'                    l672:
  8230  00AF' 0809'              	movf	__tdiv_to_l_@exp1,w
  8231  00B0' 1D03               	btfss	3,2
  8232  00B1' 2800'              	goto	u4841
  8233  00B2' 2800'              	goto	u4840
  8234  00B3'                    u4841:
  8235  00B3' 2800'              	goto	l3255
  8236  00B4'                    u4840:
  8237  00B4'                    l3257:
  8238  00B4' 0807'              	movf	__tdiv_to_l_@quot+3,w
  8239  00B5' 0085'              	movwf	?__tdiv_to_l_+3
  8240  00B6' 0806'              	movf	__tdiv_to_l_@quot+2,w
  8241  00B7' 0084'              	movwf	?__tdiv_to_l_+2
  8242  00B8' 0805'              	movf	__tdiv_to_l_@quot+1,w
  8243  00B9' 0083'              	movwf	?__tdiv_to_l_+1
  8244  00BA' 0804'              	movf	__tdiv_to_l_@quot,w
  8245  00BB' 0082'              	movwf	?__tdiv_to_l_
  8246  00BC'                    l661:
  8247  00BC' 0008               	return
  8248  00BD'                    __end_of__tdiv_to_l_:
  8249                           
  8250                           	psect	text13
  8251  0000'                    __ptext13:	
  8252 ;; *************** function __div_to_l_ *****************
  8253 ;; Defined at:
  8254 ;;		line 60 in file "C:\Program Files\Microchip\xc8\v2.31\pic\sources\c90\common\fldivl.c"
  8255 ;; Parameters:    Size  Location     Type
  8256 ;;  f1              4    2[COMMON] unsigned long 
  8257 ;;  f2              4    6[COMMON] unsigned long 
  8258 ;; Auto vars:     Size  Location     Type
  8259 ;;  quot            4    1[BANK0 ] unsigned long 
  8260 ;;  exp1            1    6[BANK0 ] unsigned char 
  8261 ;;  cntr            1    5[BANK0 ] unsigned char 
  8262 ;; Return value:  Size  Location     Type
  8263 ;;                  4    2[COMMON] unsigned long 
  8264 ;; Registers used:
  8265 ;;		wreg, status,2, status,0
  8266 ;; Tracked objects:
  8267 ;;		On entry : 0/0
  8268 ;;		On exit  : 0/0
  8269 ;;		Unchanged: 0/0
  8270 ;; Data sizes:     COMMON   BANK0   BANK1   BANK3   BANK2
  8271 ;;      Params:         8       0       0       0       0
  8272 ;;      Locals:         0       6       0       0       0
  8273 ;;      Temps:          0       1       0       0       0
  8274 ;;      Totals:         8       7       0       0       0
  8275 ;;Total ram usage:       15 bytes
  8276 ;; Hardware stack levels used:    1
  8277 ;; Hardware stack levels required when called:    2
  8278 ;; This function calls:
  8279 ;;		Nothing
  8280 ;; This function is called by:
  8281 ;;		_sprintf
  8282 ;; This function uses a non-reentrant model
  8283 ;;
  8284                           
  8285                           
  8286                           ;psect for function __div_to_l_
  8287  0000'                    __div_to_l_:
  8288  0000'                    l4305:	
  8289                           ;incstack = 0
  8290                           ; Regs used in __div_to_l_: [wreg+status,2+status,0]
  8291                           
  8292  0000' 1003               	clrc
  8293  0001' 0D04'              	rlf	__div_to_l_@f1+2,w
  8294  0002' 0D05'              	rlf	__div_to_l_@f1+3,w
  8295  0003' 1283               	bcf	3,5	;RP0=0, select bank0
  8296  0004' 1303               	bcf	3,6	;RP1=0, select bank0
  8297  0005' 0080'              	movwf	??__div_to_l_
  8298  0006' 0800'              	movf	??__div_to_l_,w
  8299  0007' 0086'              	movwf	__div_to_l_@exp1
  8300  0008' 0806'              	movf	__div_to_l_@exp1,w
  8301  0009' 1D03               	btfss	3,2
  8302  000A' 2800'              	goto	u6961
  8303  000B' 2800'              	goto	u6960
  8304  000C'                    u6961:
  8305  000C' 2800'              	goto	l4311
  8306  000D'                    u6960:
  8307  000D'                    l4307:
  8308  000D' 3000               	movlw	0
  8309  000E' 0085'              	movwf	?__div_to_l_+3
  8310  000F' 3000               	movlw	0
  8311  0010' 0084'              	movwf	?__div_to_l_+2
  8312  0011' 3000               	movlw	0
  8313  0012' 0083'              	movwf	?__div_to_l_+1
  8314  0013' 3000               	movlw	0
  8315  0014' 0082'              	movwf	?__div_to_l_
  8316  0015' 2800'              	goto	l614
  8317  0016'                    l4311:
  8318  0016' 1003               	clrc
  8319  0017' 0D08'              	rlf	__div_to_l_@f2+2,w
  8320  0018' 0D09'              	rlf	__div_to_l_@f2+3,w
  8321  0019' 0080'              	movwf	??__div_to_l_
  8322  001A' 0800'              	movf	??__div_to_l_,w
  8323  001B' 0085'              	movwf	__div_to_l_@cntr
  8324  001C' 0805'              	movf	__div_to_l_@cntr,w
  8325  001D' 1D03               	btfss	3,2
  8326  001E' 2800'              	goto	u6971
  8327  001F' 2800'              	goto	u6970
  8328  0020'                    u6971:
  8329  0020' 2800'              	goto	l615
  8330  0021'                    u6970:
  8331  0021' 2800'              	goto	l4307
  8332  0022'                    l615:
  8333  0022' 1784'              	bsf	__div_to_l_@f1+2,7
  8334  0023'                    l4317:
  8335  0023' 30FF               	movlw	255
  8336  0024' 0582'              	andwf	__div_to_l_@f1,f
  8337  0025' 30FF               	movlw	255
  8338  0026' 0583'              	andwf	__div_to_l_@f1+1,f
  8339  0027' 30FF               	movlw	255
  8340  0028' 0584'              	andwf	__div_to_l_@f1+2,f
  8341  0029' 3000               	movlw	0
  8342  002A' 0585'              	andwf	__div_to_l_@f1+3,f
  8343  002B'                    l4319:
  8344  002B' 1788'              	bsf	__div_to_l_@f2+2,7
  8345  002C' 30FF               	movlw	255
  8346  002D' 0586'              	andwf	__div_to_l_@f2,f
  8347  002E' 30FF               	movlw	255
  8348  002F' 0587'              	andwf	__div_to_l_@f2+1,f
  8349  0030' 30FF               	movlw	255
  8350  0031' 0588'              	andwf	__div_to_l_@f2+2,f
  8351  0032' 3000               	movlw	0
  8352  0033' 0589'              	andwf	__div_to_l_@f2+3,f
  8353  0034' 3000               	movlw	0
  8354  0035' 0084'              	movwf	__div_to_l_@quot+3
  8355  0036' 3000               	movlw	0
  8356  0037' 0083'              	movwf	__div_to_l_@quot+2
  8357  0038' 3000               	movlw	0
  8358  0039' 0082'              	movwf	__div_to_l_@quot+1
  8359  003A' 3000               	movlw	0
  8360  003B' 0081'              	movwf	__div_to_l_@quot
  8361  003C'                    l4321:
  8362  003C' 307F               	movlw	127
  8363  003D' 0286'              	subwf	__div_to_l_@exp1,f
  8364  003E'                    l4323:
  8365  003E' 30A0               	movlw	160
  8366  003F' 0705'              	addwf	__div_to_l_@cntr,w
  8367  0040' 0080'              	movwf	??__div_to_l_
  8368  0041' 0800'              	movf	??__div_to_l_,w
  8369  0042' 0286'              	subwf	__div_to_l_@exp1,f
  8370  0043' 3020               	movlw	32
  8371  0044' 0080'              	movwf	??__div_to_l_
  8372  0045' 0800'              	movf	??__div_to_l_,w
  8373  0046' 0085'              	movwf	__div_to_l_@cntr
  8374  0047'                    l4325:
  8375  0047' 3001               	movlw	1
  8376  0048' 0080'              	movwf	??__div_to_l_
  8377  0049'                    u6985:
  8378  0049' 1003               	clrc
  8379  004A' 0D81'              	rlf	__div_to_l_@quot,f
  8380  004B' 0D82'              	rlf	__div_to_l_@quot+1,f
  8381  004C' 0D83'              	rlf	__div_to_l_@quot+2,f
  8382  004D' 0D84'              	rlf	__div_to_l_@quot+3,f
  8383  004E' 0B80'              	decfsz	??__div_to_l_,f
  8384  004F' 2800'              	goto	u6985
  8385  0050'                    l4327:
  8386  0050' 0809'              	movf	__div_to_l_@f2+3,w
  8387  0051' 0205'              	subwf	__div_to_l_@f1+3,w
  8388  0052' 1D03               	skipz
  8389  0053' 2800'              	goto	u6995
  8390  0054' 0808'              	movf	__div_to_l_@f2+2,w
  8391  0055' 0204'              	subwf	__div_to_l_@f1+2,w
  8392  0056' 1D03               	skipz
  8393  0057' 2800'              	goto	u6995
  8394  0058' 0807'              	movf	__div_to_l_@f2+1,w
  8395  0059' 0203'              	subwf	__div_to_l_@f1+1,w
  8396  005A' 1D03               	skipz
  8397  005B' 2800'              	goto	u6995
  8398  005C' 0806'              	movf	__div_to_l_@f2,w
  8399  005D' 0202'              	subwf	__div_to_l_@f1,w
  8400  005E'                    u6995:
  8401  005E' 1C03               	skipc
  8402  005F' 2800'              	goto	u6991
  8403  0060' 2800'              	goto	u6990
  8404  0061'                    u6991:
  8405  0061' 2800'              	goto	l4333
  8406  0062'                    u6990:
  8407  0062'                    l4329:
  8408  0062' 0806'              	movf	__div_to_l_@f2,w
  8409  0063' 0282'              	subwf	__div_to_l_@f1,f
  8410  0064' 0807'              	movf	__div_to_l_@f2+1,w
  8411  0065' 1C03               	skipc
  8412  0066' 0F07'              	incfsz	__div_to_l_@f2+1,w
  8413  0067' 0283'              	subwf	__div_to_l_@f1+1,f
  8414  0068' 0808'              	movf	__div_to_l_@f2+2,w
  8415  0069' 1C03               	skipc
  8416  006A' 0F08'              	incfsz	__div_to_l_@f2+2,w
  8417  006B' 0284'              	subwf	__div_to_l_@f1+2,f
  8418  006C' 0809'              	movf	__div_to_l_@f2+3,w
  8419  006D' 1C03               	skipc
  8420  006E' 0F09'              	incfsz	__div_to_l_@f2+3,w
  8421  006F' 0285'              	subwf	__div_to_l_@f1+3,f
  8422  0070'                    l4331:
  8423  0070' 1401'              	bsf	__div_to_l_@quot,0
  8424  0071'                    l4333:
  8425  0071' 3001               	movlw	1
  8426  0072' 0080'              	movwf	??__div_to_l_
  8427  0073'                    u7005:
  8428  0073' 1003               	clrc
  8429  0074' 0D82'              	rlf	__div_to_l_@f1,f
  8430  0075' 0D83'              	rlf	__div_to_l_@f1+1,f
  8431  0076' 0D84'              	rlf	__div_to_l_@f1+2,f
  8432  0077' 0D85'              	rlf	__div_to_l_@f1+3,f
  8433  0078' 0B80'              	decfsz	??__div_to_l_,f
  8434  0079' 2800'              	goto	u7005
  8435  007A'                    l4335:
  8436  007A' 3001               	movlw	1
  8437  007B' 0285'              	subwf	__div_to_l_@cntr,f
  8438  007C' 1D03               	btfss	3,2
  8439  007D' 2800'              	goto	u7011
  8440  007E' 2800'              	goto	u7010
  8441  007F'                    u7011:
  8442  007F' 2800'              	goto	l4325
  8443  0080'                    u7010:
  8444  0080'                    l618:
  8445  0080' 1F86'              	btfss	__div_to_l_@exp1,7
  8446  0081' 2800'              	goto	u7021
  8447  0082' 2800'              	goto	u7020
  8448  0083'                    u7021:
  8449  0083' 2800'              	goto	l4345
  8450  0084'                    u7020:
  8451  0084'                    l4337:
  8452  0084' 0806'              	movf	__div_to_l_@exp1,w
  8453  0085' 3A80               	xorlw	128
  8454  0086' 3E9F               	addlw	159
  8455  0087' 1803               	skipnc
  8456  0088' 2800'              	goto	u7031
  8457  0089' 2800'              	goto	u7030
  8458  008A'                    u7031:
  8459  008A' 2800'              	goto	l4343
  8460  008B'                    u7030:
  8461  008B' 2800'              	goto	l4307
  8462  008C'                    l4343:
  8463  008C' 3001               	movlw	1
  8464  008D'                    u7045:
  8465  008D' 1003               	clrc
  8466  008E' 0C84'              	rrf	__div_to_l_@quot+3,f
  8467  008F' 0C83'              	rrf	__div_to_l_@quot+2,f
  8468  0090' 0C82'              	rrf	__div_to_l_@quot+1,f
  8469  0091' 0C81'              	rrf	__div_to_l_@quot,f
  8470  0092' 3EFF               	addlw	-1
  8471  0093' 1D03               	skipz
  8472  0094' 2800'              	goto	u7045
  8473  0095' 3001               	movlw	1
  8474  0096' 0080'              	movwf	??__div_to_l_
  8475  0097' 0800'              	movf	??__div_to_l_,w
  8476  0098' 0786'              	addwf	__div_to_l_@exp1,f
  8477  0099' 1D03               	btfss	3,2
  8478  009A' 2800'              	goto	u7051
  8479  009B' 2800'              	goto	u7050
  8480  009C'                    u7051:
  8481  009C' 2800'              	goto	l4343
  8482  009D'                    u7050:
  8483  009D' 2800'              	goto	l4353
  8484  009E'                    l4345:
  8485  009E' 3020               	movlw	32
  8486  009F' 0206'              	subwf	__div_to_l_@exp1,w
  8487  00A0' 1C03               	skipc
  8488  00A1' 2800'              	goto	u7061
  8489  00A2' 2800'              	goto	u7060
  8490  00A3'                    u7061:
  8491  00A3' 2800'              	goto	l625
  8492  00A4'                    u7060:
  8493  00A4' 2800'              	goto	l4307
  8494  00A5'                    l4351:
  8495  00A5' 3001               	movlw	1
  8496  00A6' 0080'              	movwf	??__div_to_l_
  8497  00A7'                    u7075:
  8498  00A7' 1003               	clrc
  8499  00A8' 0D81'              	rlf	__div_to_l_@quot,f
  8500  00A9' 0D82'              	rlf	__div_to_l_@quot+1,f
  8501  00AA' 0D83'              	rlf	__div_to_l_@quot+2,f
  8502  00AB' 0D84'              	rlf	__div_to_l_@quot+3,f
  8503  00AC' 0B80'              	decfsz	??__div_to_l_,f
  8504  00AD' 2800'              	goto	u7075
  8505  00AE' 3001               	movlw	1
  8506  00AF' 0286'              	subwf	__div_to_l_@exp1,f
  8507  00B0'                    l625:
  8508  00B0' 0806'              	movf	__div_to_l_@exp1,w
  8509  00B1' 1D03               	btfss	3,2
  8510  00B2' 2800'              	goto	u7081
  8511  00B3' 2800'              	goto	u7080
  8512  00B4'                    u7081:
  8513  00B4' 2800'              	goto	l4351
  8514  00B5'                    u7080:
  8515  00B5'                    l4353:
  8516  00B5' 0804'              	movf	__div_to_l_@quot+3,w
  8517  00B6' 0085'              	movwf	?__div_to_l_+3
  8518  00B7' 0803'              	movf	__div_to_l_@quot+2,w
  8519  00B8' 0084'              	movwf	?__div_to_l_+2
  8520  00B9' 0802'              	movf	__div_to_l_@quot+1,w
  8521  00BA' 0083'              	movwf	?__div_to_l_+1
  8522  00BB' 0801'              	movf	__div_to_l_@quot,w
  8523  00BC' 0082'              	movwf	?__div_to_l_
  8524  00BD'                    l614:
  8525  00BD' 0008               	return
  8526  00BE'                    __end_of__div_to_l_:
  8527                           
  8528                           	psect	text14
  8529  0000'                    __ptext14:	
  8530 ;; *************** function ___xxtofl *****************
  8531 ;; Defined at:
  8532 ;;		line 10 in file "C:\Program Files\Microchip\xc8\v2.31\pic\sources\c90\common\xxtofl.c"
  8533 ;; Parameters:    Size  Location     Type
  8534 ;;  sign            1    wreg     unsigned char 
  8535 ;;  val             4    2[COMMON] long 
  8536 ;; Auto vars:     Size  Location     Type
  8537 ;;  sign            1    0[BANK0 ] unsigned char 
  8538 ;;  arg             4    2[BANK0 ] unsigned long 
  8539 ;;  exp             1    1[BANK0 ] unsigned char 
  8540 ;; Return value:  Size  Location     Type
  8541 ;;                  4    2[COMMON] unsigned char 
  8542 ;; Registers used:
  8543 ;;		wreg, status,2, status,0
  8544 ;; Tracked objects:
  8545 ;;		On entry : 0/0
  8546 ;;		On exit  : 0/0
  8547 ;;		Unchanged: 0/0
  8548 ;; Data sizes:     COMMON   BANK0   BANK1   BANK3   BANK2
  8549 ;;      Params:         4       0       0       0       0
  8550 ;;      Locals:         0       6       0       0       0
  8551 ;;      Temps:          4       0       0       0       0
  8552 ;;      Totals:         8       6       0       0       0
  8553 ;;Total ram usage:       14 bytes
  8554 ;; Hardware stack levels used:    1
  8555 ;; Hardware stack levels required when called:    2
  8556 ;; This function calls:
  8557 ;;		Nothing
  8558 ;; This function is called by:
  8559 ;;		_main
  8560 ;;		_sprintf
  8561 ;; This function uses a non-reentrant model
  8562 ;;
  8563                           
  8564                           
  8565                           ;psect for function ___xxtofl
  8566  0000'                    ___xxtofl:
  8567                           
  8568                           ;incstack = 0
  8569                           ; Regs used in ___xxtofl: [wreg+status,2+status,0]
  8570                           ;___xxtofl@sign stored from wreg
  8571  0000' 1283               	bcf	3,5	;RP0=0, select bank0
  8572  0001' 1303               	bcf	3,6	;RP1=0, select bank0
  8573  0002' 0080'              	movwf	___xxtofl@sign
  8574  0003'                    l3429:
  8575  0003' 0800'              	movf	___xxtofl@sign,w
  8576  0004' 1903               	btfsc	3,2
  8577  0005' 2800'              	goto	u5291
  8578  0006' 2800'              	goto	u5290
  8579  0007'                    u5291:
  8580  0007' 2800'              	goto	l3435
  8581  0008'                    u5290:
  8582  0008'                    l3431:
  8583  0008' 1F85'              	btfss	___xxtofl@val+3,7
  8584  0009' 2800'              	goto	u5301
  8585  000A' 2800'              	goto	u5300
  8586  000B'                    u5301:
  8587  000B' 2800'              	goto	l3435
  8588  000C'                    u5300:
  8589  000C'                    l3433:
  8590  000C' 0902'              	comf	___xxtofl@val,w
  8591  000D' 0082'              	movwf	___xxtofl@arg
  8592  000E' 0903'              	comf	___xxtofl@val+1,w
  8593  000F' 0083'              	movwf	___xxtofl@arg+1
  8594  0010' 0904'              	comf	___xxtofl@val+2,w
  8595  0011' 0084'              	movwf	___xxtofl@arg+2
  8596  0012' 0905'              	comf	___xxtofl@val+3,w
  8597  0013' 0085'              	movwf	___xxtofl@arg+3
  8598  0014' 0A82'              	incf	___xxtofl@arg,f
  8599  0015' 1903               	skipnz
  8600  0016' 0A83'              	incf	___xxtofl@arg+1,f
  8601  0017' 1903               	skipnz
  8602  0018' 0A84'              	incf	___xxtofl@arg+2,f
  8603  0019' 1903               	skipnz
  8604  001A' 0A85'              	incf	___xxtofl@arg+3,f
  8605  001B' 2800'              	goto	l911
  8606  001C'                    l3435:
  8607  001C' 0805'              	movf	___xxtofl@val+3,w
  8608  001D' 0085'              	movwf	___xxtofl@arg+3
  8609  001E' 0804'              	movf	___xxtofl@val+2,w
  8610  001F' 0084'              	movwf	___xxtofl@arg+2
  8611  0020' 0803'              	movf	___xxtofl@val+1,w
  8612  0021' 0083'              	movwf	___xxtofl@arg+1
  8613  0022' 0802'              	movf	___xxtofl@val,w
  8614  0023' 0082'              	movwf	___xxtofl@arg
  8615  0024'                    l911:
  8616  0024' 0805'              	movf	___xxtofl@val+3,w
  8617  0025' 0404'              	iorwf	___xxtofl@val+2,w
  8618  0026' 0403'              	iorwf	___xxtofl@val+1,w
  8619  0027' 0402'              	iorwf	___xxtofl@val,w
  8620  0028' 1D03               	skipz
  8621  0029' 2800'              	goto	u5311
  8622  002A' 2800'              	goto	u5310
  8623  002B'                    u5311:
  8624  002B' 2800'              	goto	l3441
  8625  002C'                    u5310:
  8626  002C'                    l3437:
  8627  002C' 3000               	movlw	0
  8628  002D' 0085'              	movwf	?___xxtofl+3
  8629  002E' 3000               	movlw	0
  8630  002F' 0084'              	movwf	?___xxtofl+2
  8631  0030' 3000               	movlw	0
  8632  0031' 0083'              	movwf	?___xxtofl+1
  8633  0032' 3000               	movlw	0
  8634  0033' 0082'              	movwf	?___xxtofl
  8635  0034' 2800'              	goto	l913
  8636  0035'                    l3441:
  8637  0035' 3096               	movlw	150
  8638  0036' 0086'              	movwf	??___xxtofl
  8639  0037' 0806'              	movf	??___xxtofl,w
  8640  0038' 0081'              	movwf	___xxtofl@exp
  8641  0039' 2800'              	goto	l3445
  8642  003A'                    l3443:
  8643  003A' 3001               	movlw	1
  8644  003B' 0086'              	movwf	??___xxtofl
  8645  003C' 0806'              	movf	??___xxtofl,w
  8646  003D' 0781'              	addwf	___xxtofl@exp,f
  8647  003E' 3001               	movlw	1
  8648  003F'                    u5325:
  8649  003F' 1003               	clrc
  8650  0040' 0C85'              	rrf	___xxtofl@arg+3,f
  8651  0041' 0C84'              	rrf	___xxtofl@arg+2,f
  8652  0042' 0C83'              	rrf	___xxtofl@arg+1,f
  8653  0043' 0C82'              	rrf	___xxtofl@arg,f
  8654  0044' 3EFF               	addlw	-1
  8655  0045' 1D03               	skipz
  8656  0046' 2800'              	goto	u5325
  8657  0047'                    l3445:
  8658  0047' 30FE               	movlw	254
  8659  0048' 0505'              	andwf	___xxtofl@arg+3,w
  8660  0049' 1D03               	btfss	3,2
  8661  004A' 2800'              	goto	u5331
  8662  004B' 2800'              	goto	u5330
  8663  004C'                    u5331:
  8664  004C' 2800'              	goto	l3443
  8665  004D'                    u5330:
  8666  004D' 2800'              	goto	l917
  8667  004E'                    l3447:
  8668  004E' 3001               	movlw	1
  8669  004F' 0086'              	movwf	??___xxtofl
  8670  0050' 0806'              	movf	??___xxtofl,w
  8671  0051' 0781'              	addwf	___xxtofl@exp,f
  8672  0052'                    l3449:
  8673  0052' 3001               	movlw	1
  8674  0053' 0782'              	addwf	___xxtofl@arg,f
  8675  0054' 3000               	movlw	0
  8676  0055' 1803               	skipnc
  8677  0056' 3001               	movlw	1
  8678  0057' 0783'              	addwf	___xxtofl@arg+1,f
  8679  0058' 3000               	movlw	0
  8680  0059' 1803               	skipnc
  8681  005A' 3001               	movlw	1
  8682  005B' 0784'              	addwf	___xxtofl@arg+2,f
  8683  005C' 3000               	movlw	0
  8684  005D' 1803               	skipnc
  8685  005E' 3001               	movlw	1
  8686  005F' 0785'              	addwf	___xxtofl@arg+3,f
  8687  0060'                    l3451:
  8688  0060' 3001               	movlw	1
  8689  0061'                    u5345:
  8690  0061' 1003               	clrc
  8691  0062' 0C85'              	rrf	___xxtofl@arg+3,f
  8692  0063' 0C84'              	rrf	___xxtofl@arg+2,f
  8693  0064' 0C83'              	rrf	___xxtofl@arg+1,f
  8694  0065' 0C82'              	rrf	___xxtofl@arg,f
  8695  0066' 3EFF               	addlw	-1
  8696  0067' 1D03               	skipz
  8697  0068' 2800'              	goto	u5345
  8698  0069'                    l917:
  8699  0069' 30FF               	movlw	255
  8700  006A' 0505'              	andwf	___xxtofl@arg+3,w
  8701  006B' 1D03               	btfss	3,2
  8702  006C' 2800'              	goto	u5351
  8703  006D' 2800'              	goto	u5350
  8704  006E'                    u5351:
  8705  006E' 2800'              	goto	l3447
  8706  006F'                    u5350:
  8707  006F' 2800'              	goto	l3455
  8708  0070'                    l3453:
  8709  0070' 3001               	movlw	1
  8710  0071' 0281'              	subwf	___xxtofl@exp,f
  8711  0072' 3001               	movlw	1
  8712  0073' 0086'              	movwf	??___xxtofl
  8713  0074'                    u5365:
  8714  0074' 1003               	clrc
  8715  0075' 0D82'              	rlf	___xxtofl@arg,f
  8716  0076' 0D83'              	rlf	___xxtofl@arg+1,f
  8717  0077' 0D84'              	rlf	___xxtofl@arg+2,f
  8718  0078' 0D85'              	rlf	___xxtofl@arg+3,f
  8719  0079' 0B86'              	decfsz	??___xxtofl,f
  8720  007A' 2800'              	goto	u5365
  8721  007B'                    l3455:
  8722  007B' 1B84'              	btfsc	___xxtofl@arg+2,7
  8723  007C' 2800'              	goto	u5371
  8724  007D' 2800'              	goto	u5370
  8725  007E'                    u5371:
  8726  007E' 2800'              	goto	l924
  8727  007F'                    u5370:
  8728  007F'                    l3457:
  8729  007F' 3002               	movlw	2
  8730  0080' 0201'              	subwf	___xxtofl@exp,w
  8731  0081' 1803               	skipnc
  8732  0082' 2800'              	goto	u5381
  8733  0083' 2800'              	goto	u5380
  8734  0084'                    u5381:
  8735  0084' 2800'              	goto	l3453
  8736  0085'                    u5380:
  8737  0085'                    l924:
  8738  0085' 1801'              	btfsc	___xxtofl@exp,0
  8739  0086' 2800'              	goto	u5391
  8740  0087' 2800'              	goto	u5390
  8741  0088'                    u5391:
  8742  0088' 2800'              	goto	l925
  8743  0089'                    u5390:
  8744  0089'                    l3459:
  8745  0089' 30FF               	movlw	255
  8746  008A' 0582'              	andwf	___xxtofl@arg,f
  8747  008B' 30FF               	movlw	255
  8748  008C' 0583'              	andwf	___xxtofl@arg+1,f
  8749  008D' 307F               	movlw	127
  8750  008E' 0584'              	andwf	___xxtofl@arg+2,f
  8751  008F' 30FF               	movlw	255
  8752  0090' 0585'              	andwf	___xxtofl@arg+3,f
  8753  0091'                    l925:
  8754  0091' 1003               	clrc
  8755  0092' 0C81'              	rrf	___xxtofl@exp,f
  8756  0093'                    l3461:
  8757  0093' 0801'              	movf	___xxtofl@exp,w
  8758  0094' 0086'              	movwf	??___xxtofl
  8759  0095' 0187'              	clrf	??___xxtofl+1
  8760  0096' 0188'              	clrf	??___xxtofl+2
  8761  0097' 0189'              	clrf	??___xxtofl+3
  8762  0098' 3018               	movlw	24
  8763  0099'                    u5405:
  8764  0099' 1003               	clrc
  8765  009A' 0D86'              	rlf	??___xxtofl,f
  8766  009B' 0D87'              	rlf	??___xxtofl+1,f
  8767  009C' 0D88'              	rlf	??___xxtofl+2,f
  8768  009D' 0D89'              	rlf	??___xxtofl+3,f
  8769  009E'                    u5400:
  8770  009E' 3EFF               	addlw	-1
  8771  009F' 1D03               	skipz
  8772  00A0' 2800'              	goto	u5405
  8773  00A1' 0806'              	movf	??___xxtofl,w
  8774  00A2' 0482'              	iorwf	___xxtofl@arg,f
  8775  00A3' 0807'              	movf	??___xxtofl+1,w
  8776  00A4' 0483'              	iorwf	___xxtofl@arg+1,f
  8777  00A5' 0808'              	movf	??___xxtofl+2,w
  8778  00A6' 0484'              	iorwf	___xxtofl@arg+2,f
  8779  00A7' 0809'              	movf	??___xxtofl+3,w
  8780  00A8' 0485'              	iorwf	___xxtofl@arg+3,f
  8781  00A9'                    l3463:
  8782  00A9' 0800'              	movf	___xxtofl@sign,w
  8783  00AA' 1903               	btfsc	3,2
  8784  00AB' 2800'              	goto	u5411
  8785  00AC' 2800'              	goto	u5410
  8786  00AD'                    u5411:
  8787  00AD' 2800'              	goto	l3469
  8788  00AE'                    u5410:
  8789  00AE'                    l3465:
  8790  00AE' 1F85'              	btfss	___xxtofl@val+3,7
  8791  00AF' 2800'              	goto	u5421
  8792  00B0' 2800'              	goto	u5420
  8793  00B1'                    u5421:
  8794  00B1' 2800'              	goto	l3469
  8795  00B2'                    u5420:
  8796  00B2'                    l3467:
  8797  00B2' 1785'              	bsf	___xxtofl@arg+3,7
  8798  00B3'                    l3469:
  8799  00B3' 0805'              	movf	___xxtofl@arg+3,w
  8800  00B4' 0085'              	movwf	?___xxtofl+3
  8801  00B5' 0804'              	movf	___xxtofl@arg+2,w
  8802  00B6' 0084'              	movwf	?___xxtofl+2
  8803  00B7' 0803'              	movf	___xxtofl@arg+1,w
  8804  00B8' 0083'              	movwf	?___xxtofl+1
  8805  00B9' 0802'              	movf	___xxtofl@arg,w
  8806  00BA' 0082'              	movwf	?___xxtofl
  8807  00BB'                    l913:
  8808  00BB' 0008               	return
  8809  00BC'                    __end_of___xxtofl:
  8810                           
  8811                           	psect	text15
  8812  0000'                    __ptext15:	
  8813 ;; *************** function ___wmul *****************
  8814 ;; Defined at:
  8815 ;;		line 15 in file "C:\Program Files\Microchip\xc8\v2.31\pic\sources\c90\common\Umul16.c"
  8816 ;; Parameters:    Size  Location     Type
  8817 ;;  multiplier      2    2[COMMON] unsigned int 
  8818 ;;  multiplicand    2    4[COMMON] unsigned int 
  8819 ;; Auto vars:     Size  Location     Type
  8820 ;;  product         2    6[COMMON] unsigned int 
  8821 ;; Return value:  Size  Location     Type
  8822 ;;                  2    2[COMMON] unsigned int 
  8823 ;; Registers used:
  8824 ;;		wreg, status,2, status,0
  8825 ;; Tracked objects:
  8826 ;;		On entry : 0/0
  8827 ;;		On exit  : 0/0
  8828 ;;		Unchanged: 0/0
  8829 ;; Data sizes:     COMMON   BANK0   BANK1   BANK3   BANK2
  8830 ;;      Params:         4       0       0       0       0
  8831 ;;      Locals:         2       0       0       0       0
  8832 ;;      Temps:          0       0       0       0       0
  8833 ;;      Totals:         6       0       0       0       0
  8834 ;;Total ram usage:        6 bytes
  8835 ;; Hardware stack levels used:    1
  8836 ;; Hardware stack levels required when called:    2
  8837 ;; This function calls:
  8838 ;;		Nothing
  8839 ;; This function is called by:
  8840 ;;		_sprintf
  8841 ;; This function uses a non-reentrant model
  8842 ;;
  8843                           
  8844                           
  8845                           ;psect for function ___wmul
  8846  0000'                    ___wmul:
  8847  0000'                    l3313:	
  8848                           ;incstack = 0
  8849                           ; Regs used in ___wmul: [wreg+status,2+status,0]
  8850                           
  8851  0000' 0186'              	clrf	___wmul@product
  8852  0001' 0187'              	clrf	___wmul@product+1
  8853  0002'                    l3315:
  8854  0002' 1C02'              	btfss	___wmul@multiplier,0
  8855  0003' 2800'              	goto	u4981
  8856  0004' 2800'              	goto	u4980
  8857  0005'                    u4981:
  8858  0005' 2800'              	goto	l444
  8859  0006'                    u4980:
  8860  0006'                    l3317:
  8861  0006' 0804'              	movf	___wmul@multiplicand,w
  8862  0007' 0786'              	addwf	___wmul@product,f
  8863  0008' 1803               	skipnc
  8864  0009' 0A87'              	incf	___wmul@product+1,f
  8865  000A' 0805'              	movf	___wmul@multiplicand+1,w
  8866  000B' 0787'              	addwf	___wmul@product+1,f
  8867  000C'                    l444:
  8868  000C' 3001               	movlw	1
  8869  000D'                    u4995:
  8870  000D' 1003               	clrc
  8871  000E' 0D84'              	rlf	___wmul@multiplicand,f
  8872  000F' 0D85'              	rlf	___wmul@multiplicand+1,f
  8873  0010' 3EFF               	addlw	-1
  8874  0011' 1D03               	skipz
  8875  0012' 2800'              	goto	u4995
  8876  0013'                    l3319:
  8877  0013' 3001               	movlw	1
  8878  0014'                    u5005:
  8879  0014' 1003               	clrc
  8880  0015' 0C83'              	rrf	___wmul@multiplier+1,f
  8881  0016' 0C82'              	rrf	___wmul@multiplier,f
  8882  0017' 3EFF               	addlw	-1
  8883  0018' 1D03               	skipz
  8884  0019' 2800'              	goto	u5005
  8885  001A'                    l3321:
  8886  001A' 0802'              	movf	___wmul@multiplier,w
  8887  001B' 0403'              	iorwf	___wmul@multiplier+1,w
  8888  001C' 1D03               	btfss	3,2
  8889  001D' 2800'              	goto	u5011
  8890  001E' 2800'              	goto	u5010
  8891  001F'                    u5011:
  8892  001F' 2800'              	goto	l3315
  8893  0020'                    u5010:
  8894  0020'                    l3323:
  8895  0020' 0807'              	movf	___wmul@product+1,w
  8896  0021' 0083'              	movwf	?___wmul+1
  8897  0022' 0806'              	movf	___wmul@product,w
  8898  0023' 0082'              	movwf	?___wmul
  8899  0024'                    l446:
  8900  0024' 0008               	return
  8901  0025'                    __end_of___wmul:
  8902                           
  8903                           	psect	text16
  8904  0000'                    __ptext16:	
  8905 ;; *************** function ___llmod *****************
  8906 ;; Defined at:
  8907 ;;		line 5 in file "C:\Program Files\Microchip\xc8\v2.31\pic\sources\c90\common\llmod.c"
  8908 ;; Parameters:    Size  Location     Type
  8909 ;;  divisor         4    2[COMMON] unsigned long 
  8910 ;;  dividend        4    6[COMMON] unsigned long 
  8911 ;; Auto vars:     Size  Location     Type
  8912 ;;  counter         1    1[BANK0 ] unsigned char 
  8913 ;; Return value:  Size  Location     Type
  8914 ;;                  4    2[COMMON] unsigned long 
  8915 ;; Registers used:
  8916 ;;		wreg, status,2, status,0
  8917 ;; Tracked objects:
  8918 ;;		On entry : 0/0
  8919 ;;		On exit  : 0/0
  8920 ;;		Unchanged: 0/0
  8921 ;; Data sizes:     COMMON   BANK0   BANK1   BANK3   BANK2
  8922 ;;      Params:         8       0       0       0       0
  8923 ;;      Locals:         0       1       0       0       0
  8924 ;;      Temps:          0       1       0       0       0
  8925 ;;      Totals:         8       2       0       0       0
  8926 ;;Total ram usage:       10 bytes
  8927 ;; Hardware stack levels used:    1
  8928 ;; Hardware stack levels required when called:    2
  8929 ;; This function calls:
  8930 ;;		Nothing
  8931 ;; This function is called by:
  8932 ;;		_sprintf
  8933 ;; This function uses a non-reentrant model
  8934 ;;
  8935                           
  8936                           
  8937                           ;psect for function ___llmod
  8938  0000'                    ___llmod:
  8939  0000'                    l4357:	
  8940                           ;incstack = 0
  8941                           ; Regs used in ___llmod: [wreg+status,2+status,0]
  8942                           
  8943  0000' 0805'              	movf	___llmod@divisor+3,w
  8944  0001' 0404'              	iorwf	___llmod@divisor+2,w
  8945  0002' 0403'              	iorwf	___llmod@divisor+1,w
  8946  0003' 0402'              	iorwf	___llmod@divisor,w
  8947  0004' 1903               	skipnz
  8948  0005' 2800'              	goto	u7091
  8949  0006' 2800'              	goto	u7090
  8950  0007'                    u7091:
  8951  0007' 2800'              	goto	l4373
  8952  0008'                    u7090:
  8953  0008'                    l4359:
  8954  0008' 1283               	bcf	3,5	;RP0=0, select bank0
  8955  0009' 1303               	bcf	3,6	;RP1=0, select bank0
  8956  000A' 0181'              	clrf	___llmod@counter
  8957  000B' 0A81'              	incf	___llmod@counter,f
  8958  000C' 2800'              	goto	l4363
  8959  000D'                    l4361:
  8960  000D' 3001               	movlw	1
  8961  000E' 0080'              	movwf	??___llmod
  8962  000F'                    u7105:
  8963  000F' 1003               	clrc
  8964  0010' 0D82'              	rlf	___llmod@divisor,f
  8965  0011' 0D83'              	rlf	___llmod@divisor+1,f
  8966  0012' 0D84'              	rlf	___llmod@divisor+2,f
  8967  0013' 0D85'              	rlf	___llmod@divisor+3,f
  8968  0014' 0B80'              	decfsz	??___llmod,f
  8969  0015' 2800'              	goto	u7105
  8970  0016' 3001               	movlw	1
  8971  0017' 0080'              	movwf	??___llmod
  8972  0018' 0800'              	movf	??___llmod,w
  8973  0019' 0781'              	addwf	___llmod@counter,f
  8974  001A'                    l4363:
  8975  001A' 1F85'              	btfss	___llmod@divisor+3,7
  8976  001B' 2800'              	goto	u7111
  8977  001C' 2800'              	goto	u7110
  8978  001D'                    u7111:
  8979  001D' 2800'              	goto	l4361
  8980  001E'                    u7110:
  8981  001E'                    l4365:
  8982  001E' 0805'              	movf	___llmod@divisor+3,w
  8983  001F' 0209'              	subwf	___llmod@dividend+3,w
  8984  0020' 1D03               	skipz
  8985  0021' 2800'              	goto	u7125
  8986  0022' 0804'              	movf	___llmod@divisor+2,w
  8987  0023' 0208'              	subwf	___llmod@dividend+2,w
  8988  0024' 1D03               	skipz
  8989  0025' 2800'              	goto	u7125
  8990  0026' 0803'              	movf	___llmod@divisor+1,w
  8991  0027' 0207'              	subwf	___llmod@dividend+1,w
  8992  0028' 1D03               	skipz
  8993  0029' 2800'              	goto	u7125
  8994  002A' 0802'              	movf	___llmod@divisor,w
  8995  002B' 0206'              	subwf	___llmod@dividend,w
  8996  002C'                    u7125:
  8997  002C' 1C03               	skipc
  8998  002D' 2800'              	goto	u7121
  8999  002E' 2800'              	goto	u7120
  9000  002F'                    u7121:
  9001  002F' 2800'              	goto	l4369
  9002  0030'                    u7120:
  9003  0030'                    l4367:
  9004  0030' 0802'              	movf	___llmod@divisor,w
  9005  0031' 0286'              	subwf	___llmod@dividend,f
  9006  0032' 0803'              	movf	___llmod@divisor+1,w
  9007  0033' 1C03               	skipc
  9008  0034' 0F03'              	incfsz	___llmod@divisor+1,w
  9009  0035' 0287'              	subwf	___llmod@dividend+1,f
  9010  0036' 0804'              	movf	___llmod@divisor+2,w
  9011  0037' 1C03               	skipc
  9012  0038' 0F04'              	incfsz	___llmod@divisor+2,w
  9013  0039' 0288'              	subwf	___llmod@dividend+2,f
  9014  003A' 0805'              	movf	___llmod@divisor+3,w
  9015  003B' 1C03               	skipc
  9016  003C' 0F05'              	incfsz	___llmod@divisor+3,w
  9017  003D' 0289'              	subwf	___llmod@dividend+3,f
  9018  003E'                    l4369:
  9019  003E' 3001               	movlw	1
  9020  003F'                    u7135:
  9021  003F' 1003               	clrc
  9022  0040' 0C85'              	rrf	___llmod@divisor+3,f
  9023  0041' 0C84'              	rrf	___llmod@divisor+2,f
  9024  0042' 0C83'              	rrf	___llmod@divisor+1,f
  9025  0043' 0C82'              	rrf	___llmod@divisor,f
  9026  0044' 3EFF               	addlw	-1
  9027  0045' 1D03               	skipz
  9028  0046' 2800'              	goto	u7135
  9029  0047'                    l4371:
  9030  0047' 3001               	movlw	1
  9031  0048' 0281'              	subwf	___llmod@counter,f
  9032  0049' 1D03               	btfss	3,2
  9033  004A' 2800'              	goto	u7141
  9034  004B' 2800'              	goto	u7140
  9035  004C'                    u7141:
  9036  004C' 2800'              	goto	l4365
  9037  004D'                    u7140:
  9038  004D'                    l4373:
  9039  004D' 0809'              	movf	___llmod@dividend+3,w
  9040  004E' 0085'              	movwf	?___llmod+3
  9041  004F' 0808'              	movf	___llmod@dividend+2,w
  9042  0050' 0084'              	movwf	?___llmod+2
  9043  0051' 0807'              	movf	___llmod@dividend+1,w
  9044  0052' 0083'              	movwf	?___llmod+1
  9045  0053' 0806'              	movf	___llmod@dividend,w
  9046  0054' 0082'              	movwf	?___llmod
  9047  0055'                    l700:
  9048  0055' 0008               	return
  9049  0056'                    __end_of___llmod:
  9050                           
  9051                           	psect	text17
  9052  0000'                    __ptext17:	
  9053 ;; *************** function ___fltol *****************
  9054 ;; Defined at:
  9055 ;;		line 43 in file "C:\Program Files\Microchip\xc8\v2.31\pic\sources\c90\common\fltol.c"
  9056 ;; Parameters:    Size  Location     Type
  9057 ;;  f1              4   53[BANK0 ] unsigned long 
  9058 ;; Auto vars:     Size  Location     Type
  9059 ;;  exp1            1   63[BANK0 ] unsigned char 
  9060 ;;  sign1           1   62[BANK0 ] unsigned char 
  9061 ;; Return value:  Size  Location     Type
  9062 ;;                  4   53[BANK0 ] long 
  9063 ;; Registers used:
  9064 ;;		wreg, status,2, status,0
  9065 ;; Tracked objects:
  9066 ;;		On entry : 0/0
  9067 ;;		On exit  : 0/0
  9068 ;;		Unchanged: 0/0
  9069 ;; Data sizes:     COMMON   BANK0   BANK1   BANK3   BANK2
  9070 ;;      Params:         0       4       0       0       0
  9071 ;;      Locals:         0       2       0       0       0
  9072 ;;      Temps:          0       5       0       0       0
  9073 ;;      Totals:         0      11       0       0       0
  9074 ;;Total ram usage:       11 bytes
  9075 ;; Hardware stack levels used:    1
  9076 ;; Hardware stack levels required when called:    2
  9077 ;; This function calls:
  9078 ;;		Nothing
  9079 ;; This function is called by:
  9080 ;;		_sprintf
  9081 ;; This function uses a non-reentrant model
  9082 ;;
  9083                           
  9084                           
  9085                           ;psect for function ___fltol
  9086  0000'                    ___fltol:
  9087  0000'                    l3367:	
  9088                           ;incstack = 0
  9089                           ; Regs used in ___fltol: [wreg+status,2+status,0]
  9090                           
  9091  0000' 1003               	clrc
  9092  0001' 1283               	bcf	3,5	;RP0=0, select bank0
  9093  0002' 1303               	bcf	3,6	;RP1=0, select bank0
  9094  0003' 0D37'              	rlf	___fltol@f1+2,w
  9095  0004' 0D38'              	rlf	___fltol@f1+3,w
  9096  0005' 00B9'              	movwf	??___fltol
  9097  0006' 0839'              	movf	??___fltol,w
  9098  0007' 00BF'              	movwf	___fltol@exp1
  9099  0008' 083F'              	movf	___fltol@exp1,w
  9100  0009' 1D03               	btfss	3,2
  9101  000A' 2800'              	goto	u5131
  9102  000B' 2800'              	goto	u5130
  9103  000C'                    u5131:
  9104  000C' 2800'              	goto	l3373
  9105  000D'                    u5130:
  9106  000D'                    l3369:
  9107  000D' 3000               	movlw	0
  9108  000E' 00B8'              	movwf	?___fltol+3
  9109  000F' 3000               	movlw	0
  9110  0010' 00B7'              	movwf	?___fltol+2
  9111  0011' 3000               	movlw	0
  9112  0012' 00B6'              	movwf	?___fltol+1
  9113  0013' 3000               	movlw	0
  9114  0014' 00B5'              	movwf	?___fltol
  9115  0015' 2800'              	goto	l647
  9116  0016'                    l3373:
  9117  0016' 0835'              	movf	___fltol@f1,w
  9118  0017' 00B9'              	movwf	??___fltol
  9119  0018' 0836'              	movf	___fltol@f1+1,w
  9120  0019' 00BA'              	movwf	??___fltol+1
  9121  001A' 0837'              	movf	___fltol@f1+2,w
  9122  001B' 00BB'              	movwf	??___fltol+2
  9123  001C' 0838'              	movf	___fltol@f1+3,w
  9124  001D' 00BC'              	movwf	??___fltol+3
  9125  001E' 301F               	movlw	31
  9126  001F'                    u5145:
  9127  001F' 1003               	clrc
  9128  0020' 0CBC'              	rrf	??___fltol+3,f
  9129  0021' 0CBB'              	rrf	??___fltol+2,f
  9130  0022' 0CBA'              	rrf	??___fltol+1,f
  9131  0023' 0CB9'              	rrf	??___fltol,f
  9132  0024'                    u5140:
  9133  0024' 3EFF               	addlw	-1
  9134  0025' 1D03               	skipz
  9135  0026' 2800'              	goto	u5145
  9136  0027' 0839'              	movf	??___fltol,w
  9137  0028' 00BD'              	movwf	??___fltol+4
  9138  0029' 083D'              	movf	??___fltol+4,w
  9139  002A' 00BE'              	movwf	___fltol@sign1
  9140  002B'                    l3375:
  9141  002B' 17B7'              	bsf	___fltol@f1+2,7
  9142  002C'                    l3377:
  9143  002C' 30FF               	movlw	255
  9144  002D' 05B5'              	andwf	___fltol@f1,f
  9145  002E' 30FF               	movlw	255
  9146  002F' 05B6'              	andwf	___fltol@f1+1,f
  9147  0030' 30FF               	movlw	255
  9148  0031' 05B7'              	andwf	___fltol@f1+2,f
  9149  0032' 3000               	movlw	0
  9150  0033' 05B8'              	andwf	___fltol@f1+3,f
  9151  0034'                    l3379:
  9152  0034' 3096               	movlw	150
  9153  0035' 02BF'              	subwf	___fltol@exp1,f
  9154  0036'                    l3381:
  9155  0036' 1FBF'              	btfss	___fltol@exp1,7
  9156  0037' 2800'              	goto	u5151
  9157  0038' 2800'              	goto	u5150
  9158  0039'                    u5151:
  9159  0039' 2800'              	goto	l3391
  9160  003A'                    u5150:
  9161  003A'                    l3383:
  9162  003A' 083F'              	movf	___fltol@exp1,w
  9163  003B' 3A80               	xorlw	128
  9164  003C' 3E97               	addlw	151
  9165  003D' 1803               	skipnc
  9166  003E' 2800'              	goto	u5161
  9167  003F' 2800'              	goto	u5160
  9168  0040'                    u5161:
  9169  0040' 2800'              	goto	l3389
  9170  0041'                    u5160:
  9171  0041' 2800'              	goto	l3369
  9172  0042'                    l3389:
  9173  0042' 3001               	movlw	1
  9174  0043'                    u5175:
  9175  0043' 1003               	clrc
  9176  0044' 0CB8'              	rrf	___fltol@f1+3,f
  9177  0045' 0CB7'              	rrf	___fltol@f1+2,f
  9178  0046' 0CB6'              	rrf	___fltol@f1+1,f
  9179  0047' 0CB5'              	rrf	___fltol@f1,f
  9180  0048' 3EFF               	addlw	-1
  9181  0049' 1D03               	skipz
  9182  004A' 2800'              	goto	u5175
  9183  004B' 3001               	movlw	1
  9184  004C' 00B9'              	movwf	??___fltol
  9185  004D' 0839'              	movf	??___fltol,w
  9186  004E' 07BF'              	addwf	___fltol@exp1,f
  9187  004F' 1D03               	btfss	3,2
  9188  0050' 2800'              	goto	u5181
  9189  0051' 2800'              	goto	u5180
  9190  0052'                    u5181:
  9191  0052' 2800'              	goto	l3389
  9192  0053'                    u5180:
  9193  0053' 2800'              	goto	l3399
  9194  0054'                    l3391:
  9195  0054' 3020               	movlw	32
  9196  0055' 023F'              	subwf	___fltol@exp1,w
  9197  0056' 1C03               	skipc
  9198  0057' 2800'              	goto	u5191
  9199  0058' 2800'              	goto	u5190
  9200  0059'                    u5191:
  9201  0059' 2800'              	goto	l654
  9202  005A'                    u5190:
  9203  005A' 2800'              	goto	l3369
  9204  005B'                    l3397:
  9205  005B' 3001               	movlw	1
  9206  005C' 00B9'              	movwf	??___fltol
  9207  005D'                    u5205:
  9208  005D' 1003               	clrc
  9209  005E' 0DB5'              	rlf	___fltol@f1,f
  9210  005F' 0DB6'              	rlf	___fltol@f1+1,f
  9211  0060' 0DB7'              	rlf	___fltol@f1+2,f
  9212  0061' 0DB8'              	rlf	___fltol@f1+3,f
  9213  0062' 0BB9'              	decfsz	??___fltol,f
  9214  0063' 2800'              	goto	u5205
  9215  0064' 3001               	movlw	1
  9216  0065' 02BF'              	subwf	___fltol@exp1,f
  9217  0066'                    l654:
  9218  0066' 083F'              	movf	___fltol@exp1,w
  9219  0067' 1D03               	btfss	3,2
  9220  0068' 2800'              	goto	u5211
  9221  0069' 2800'              	goto	u5210
  9222  006A'                    u5211:
  9223  006A' 2800'              	goto	l3397
  9224  006B'                    u5210:
  9225  006B'                    l3399:
  9226  006B' 083E'              	movf	___fltol@sign1,w
  9227  006C' 1903               	btfsc	3,2
  9228  006D' 2800'              	goto	u5221
  9229  006E' 2800'              	goto	u5220
  9230  006F'                    u5221:
  9231  006F' 2800'              	goto	l657
  9232  0070'                    u5220:
  9233  0070'                    l3401:
  9234  0070' 09B5'              	comf	___fltol@f1,f
  9235  0071' 09B6'              	comf	___fltol@f1+1,f
  9236  0072' 09B7'              	comf	___fltol@f1+2,f
  9237  0073' 09B8'              	comf	___fltol@f1+3,f
  9238  0074' 0AB5'              	incf	___fltol@f1,f
  9239  0075' 1903               	skipnz
  9240  0076' 0AB6'              	incf	___fltol@f1+1,f
  9241  0077' 1903               	skipnz
  9242  0078' 0AB7'              	incf	___fltol@f1+2,f
  9243  0079' 1903               	skipnz
  9244  007A' 0AB8'              	incf	___fltol@f1+3,f
  9245  007B'                    l657:
  9246  007B'                    l647:
  9247  007B' 0008               	return
  9248  007C'                    __end_of___fltol:
  9249                           
  9250                           	psect	text18
  9251  0000'                    __ptext18:	
  9252 ;; *************** function ___flsub *****************
  9253 ;; Defined at:
  9254 ;;		line 242 in file "C:\Program Files\Microchip\xc8\v2.31\pic\sources\c90\common\sprcadd.c"
  9255 ;; Parameters:    Size  Location     Type
  9256 ;;  a               4    0[BANK1 ] long 
  9257 ;;  b               4    4[BANK1 ] long 
  9258 ;; Auto vars:     Size  Location     Type
  9259 ;;		None
  9260 ;; Return value:  Size  Location     Type
  9261 ;;                  4    0[BANK1 ] long 
  9262 ;; Registers used:
  9263 ;;		wreg, status,2, status,0, btemp+1, pclath, cstack
  9264 ;; Tracked objects:
  9265 ;;		On entry : 0/0
  9266 ;;		On exit  : 0/0
  9267 ;;		Unchanged: 0/0
  9268 ;; Data sizes:     COMMON   BANK0   BANK1   BANK3   BANK2
  9269 ;;      Params:         0       0       8       0       0
  9270 ;;      Locals:         0       0       0       0       0
  9271 ;;      Temps:          0       0       0       0       0
  9272 ;;      Totals:         0       0       8       0       0
  9273 ;;Total ram usage:        8 bytes
  9274 ;; Hardware stack levels used:    1
  9275 ;; Hardware stack levels required when called:    3
  9276 ;; This function calls:
  9277 ;;		___fladd
  9278 ;; This function is called by:
  9279 ;;		_sprintf
  9280 ;; This function uses a non-reentrant model
  9281 ;;
  9282                           
  9283                           
  9284                           ;psect for function ___flsub
  9285  0000'                    ___flsub:
  9286  0000'                    l3423:	
  9287                           ;incstack = 0
  9288                           ; Regs used in ___flsub: [wreg+status,2+status,0+btemp+1+pclath+cstack]
  9289                           
  9290  0000' 3080               	movlw	128
  9291  0001' 1683               	bsf	3,5	;RP0=1, select bank1
  9292  0002' 1303               	bcf	3,6	;RP1=0, select bank1
  9293  0003' 0680'              	xorwf	(___flsub@a+3)^(0+128),f
  9294  0004'                    l3425:
  9295  0004' 0800'              	movf	(___flsub@b+3)^(0+128),w
  9296  0005' 1283               	bcf	3,5	;RP0=0, select bank0
  9297  0006' 1303               	bcf	3,6	;RP1=0, select bank0
  9298  0007' 00B9'              	movwf	___fladd@b+3
  9299  0008' 1683               	bsf	3,5	;RP0=1, select bank1
  9300  0009' 1303               	bcf	3,6	;RP1=0, select bank1
  9301  000A' 0800'              	movf	(___flsub@b+2)^(0+128),w
  9302  000B' 1283               	bcf	3,5	;RP0=0, select bank0
  9303  000C' 1303               	bcf	3,6	;RP1=0, select bank0
  9304  000D' 00B8'              	movwf	___fladd@b+2
  9305  000E' 1683               	bsf	3,5	;RP0=1, select bank1
  9306  000F' 1303               	bcf	3,6	;RP1=0, select bank1
  9307  0010' 0800'              	movf	(___flsub@b+1)^(0+128),w
  9308  0011' 1283               	bcf	3,5	;RP0=0, select bank0
  9309  0012' 1303               	bcf	3,6	;RP1=0, select bank0
  9310  0013' 00B7'              	movwf	___fladd@b+1
  9311  0014' 1683               	bsf	3,5	;RP0=1, select bank1
  9312  0015' 1303               	bcf	3,6	;RP1=0, select bank1
  9313  0016' 0800'              	movf	___flsub@b^(0+128),w
  9314  0017' 1283               	bcf	3,5	;RP0=0, select bank0
  9315  0018' 1303               	bcf	3,6	;RP1=0, select bank0
  9316  0019' 00B6'              	movwf	___fladd@b
  9317  001A' 1683               	bsf	3,5	;RP0=1, select bank1
  9318  001B' 1303               	bcf	3,6	;RP1=0, select bank1
  9319  001C' 0800'              	movf	(___flsub@a+3)^(0+128),w
  9320  001D' 1283               	bcf	3,5	;RP0=0, select bank0
  9321  001E' 1303               	bcf	3,6	;RP1=0, select bank0
  9322  001F' 00BD'              	movwf	___fladd@a+3
  9323  0020' 1683               	bsf	3,5	;RP0=1, select bank1
  9324  0021' 1303               	bcf	3,6	;RP1=0, select bank1
  9325  0022' 0800'              	movf	(___flsub@a+2)^(0+128),w
  9326  0023' 1283               	bcf	3,5	;RP0=0, select bank0
  9327  0024' 1303               	bcf	3,6	;RP1=0, select bank0
  9328  0025' 00BC'              	movwf	___fladd@a+2
  9329  0026' 1683               	bsf	3,5	;RP0=1, select bank1
  9330  0027' 1303               	bcf	3,6	;RP1=0, select bank1
  9331  0028' 0800'              	movf	(___flsub@a+1)^(0+128),w
  9332  0029' 1283               	bcf	3,5	;RP0=0, select bank0
  9333  002A' 1303               	bcf	3,6	;RP1=0, select bank0
  9334  002B' 00BB'              	movwf	___fladd@a+1
  9335  002C' 1683               	bsf	3,5	;RP0=1, select bank1
  9336  002D' 1303               	bcf	3,6	;RP1=0, select bank1
  9337  002E' 0800'              	movf	___flsub@a^(0+128),w
  9338  002F' 1283               	bcf	3,5	;RP0=0, select bank0
  9339  0030' 1303               	bcf	3,6	;RP1=0, select bank0
  9340  0031' 00BA'              	movwf	___fladd@a
  9341  0032' 120A' 118A' 2000' 120A' 118A' 	fcall	___fladd
  9342  0037' 1283               	bcf	3,5	;RP0=0, select bank0
  9343  0038' 1303               	bcf	3,6	;RP1=0, select bank0
  9344  0039' 0839'              	movf	?___fladd+3,w
  9345  003A' 1683               	bsf	3,5	;RP0=1, select bank1
  9346  003B' 1303               	bcf	3,6	;RP1=0, select bank1
  9347  003C' 0080'              	movwf	(?___flsub+3)^(0+128)
  9348  003D' 1283               	bcf	3,5	;RP0=0, select bank0
  9349  003E' 1303               	bcf	3,6	;RP1=0, select bank0
  9350  003F' 0838'              	movf	?___fladd+2,w
  9351  0040' 1683               	bsf	3,5	;RP0=1, select bank1
  9352  0041' 1303               	bcf	3,6	;RP1=0, select bank1
  9353  0042' 0080'              	movwf	(?___flsub+2)^(0+128)
  9354  0043' 1283               	bcf	3,5	;RP0=0, select bank0
  9355  0044' 1303               	bcf	3,6	;RP1=0, select bank0
  9356  0045' 0837'              	movf	?___fladd+1,w
  9357  0046' 1683               	bsf	3,5	;RP0=1, select bank1
  9358  0047' 1303               	bcf	3,6	;RP1=0, select bank1
  9359  0048' 0080'              	movwf	(?___flsub+1)^(0+128)
  9360  0049' 1283               	bcf	3,5	;RP0=0, select bank0
  9361  004A' 1303               	bcf	3,6	;RP1=0, select bank0
  9362  004B' 0836'              	movf	?___fladd,w
  9363  004C' 1683               	bsf	3,5	;RP0=1, select bank1
  9364  004D' 1303               	bcf	3,6	;RP1=0, select bank1
  9365  004E' 0080'              	movwf	?___flsub^(0+128)
  9366  004F'                    l817:
  9367  004F' 0008               	return
  9368  0050'                    __end_of___flsub:
  9369                           
  9370                           	psect	text19
  9371  0000'                    __ptext19:	
  9372 ;; *************** function ___fladd *****************
  9373 ;; Defined at:
  9374 ;;		line 10 in file "C:\Program Files\Microchip\xc8\v2.31\pic\sources\c90\common\sprcadd.c"
  9375 ;; Parameters:    Size  Location     Type
  9376 ;;  b               4   54[BANK0 ] long 
  9377 ;;  a               4   58[BANK0 ] long 
  9378 ;; Auto vars:     Size  Location     Type
  9379 ;;  grs             1   73[BANK0 ] unsigned char 
  9380 ;;  bexp            1   72[BANK0 ] unsigned char 
  9381 ;;  aexp            1   71[BANK0 ] unsigned char 
  9382 ;;  signs           1   70[BANK0 ] unsigned char 
  9383 ;; Return value:  Size  Location     Type
  9384 ;;                  4   54[BANK0 ] unsigned char 
  9385 ;; Registers used:
  9386 ;;		wreg, status,2, status,0, btemp+1
  9387 ;; Tracked objects:
  9388 ;;		On entry : 0/0
  9389 ;;		On exit  : 0/0
  9390 ;;		Unchanged: 0/0
  9391 ;; Data sizes:     COMMON   BANK0   BANK1   BANK3   BANK2
  9392 ;;      Params:         0       8       0       0       0
  9393 ;;      Locals:         0       4       0       0       0
  9394 ;;      Temps:          0       8       0       0       0
  9395 ;;      Totals:         0      20       0       0       0
  9396 ;;Total ram usage:       20 bytes
  9397 ;; Hardware stack levels used:    1
  9398 ;; Hardware stack levels required when called:    2
  9399 ;; This function calls:
  9400 ;;		Nothing
  9401 ;; This function is called by:
  9402 ;;		_main
  9403 ;;		_sprintf
  9404 ;;		___flsub
  9405 ;; This function uses a non-reentrant model
  9406 ;;
  9407                           
  9408                           
  9409                           ;psect for function ___fladd
  9410  0000'                    ___fladd:
  9411  0000'                    l2719:	
  9412                           ;incstack = 0
  9413                           ; Regs used in ___fladd: [wreg+status,2+status,0+btemp+1]
  9414                           
  9415  0000' 1283               	bcf	3,5	;RP0=0, select bank0
  9416  0001' 1303               	bcf	3,6	;RP1=0, select bank0
  9417  0002' 0839'              	movf	___fladd@b+3,w
  9418  0003' 3980               	andlw	128
  9419  0004' 00BE'              	movwf	??___fladd
  9420  0005' 083E'              	movf	??___fladd,w
  9421  0006' 00C6'              	movwf	___fladd@signs
  9422  0007'                    l2721:
  9423  0007' 0839'              	movf	___fladd@b+3,w
  9424  0008' 00BE'              	movwf	??___fladd
  9425  0009' 073E'              	addwf	??___fladd,w
  9426  000A' 00BF'              	movwf	??___fladd+1
  9427  000B' 083F'              	movf	??___fladd+1,w
  9428  000C' 00C8'              	movwf	___fladd@bexp
  9429  000D'                    l2723:
  9430  000D' 1FB8'              	btfss	___fladd@b+2,7
  9431  000E' 2800'              	goto	u3531
  9432  000F' 2800'              	goto	u3530
  9433  0010'                    u3531:
  9434  0010' 2800'              	goto	l2727
  9435  0011'                    u3530:
  9436  0011'                    l2725:
  9437  0011' 1448'              	bsf	___fladd@bexp,0
  9438  0012'                    l2727:
  9439  0012' 0848'              	movf	___fladd@bexp,w
  9440  0013' 1903               	btfsc	3,2
  9441  0014' 2800'              	goto	u3541
  9442  0015' 2800'              	goto	u3540
  9443  0016'                    u3541:
  9444  0016' 2800'              	goto	l2737
  9445  0017'                    u3540:
  9446  0017'                    l2729:
  9447  0017' 0A48'              	incf	___fladd@bexp,w
  9448  0018' 1D03               	btfss	3,2
  9449  0019' 2800'              	goto	u3551
  9450  001A' 2800'              	goto	u3550
  9451  001B'                    u3551:
  9452  001B' 2800'              	goto	l2733
  9453  001C'                    u3550:
  9454  001C'                    l2731:
  9455  001C' 3000               	movlw	0
  9456  001D' 00B9'              	movwf	___fladd@b+3
  9457  001E' 3000               	movlw	0
  9458  001F' 00B8'              	movwf	___fladd@b+2
  9459  0020' 3000               	movlw	0
  9460  0021' 00B7'              	movwf	___fladd@b+1
  9461  0022' 3000               	movlw	0
  9462  0023' 00B6'              	movwf	___fladd@b
  9463  0024'                    l2733:
  9464  0024' 17B8'              	bsf	___fladd@b+2,7
  9465  0025'                    l2735:
  9466  0025' 01B9'              	clrf	___fladd@b+3
  9467  0026' 2800'              	goto	l2739
  9468  0027'                    l2737:
  9469  0027' 3000               	movlw	0
  9470  0028' 00B9'              	movwf	___fladd@b+3
  9471  0029' 3000               	movlw	0
  9472  002A' 00B8'              	movwf	___fladd@b+2
  9473  002B' 3000               	movlw	0
  9474  002C' 00B7'              	movwf	___fladd@b+1
  9475  002D' 3000               	movlw	0
  9476  002E' 00B6'              	movwf	___fladd@b
  9477  002F'                    l2739:
  9478  002F' 083D'              	movf	___fladd@a+3,w
  9479  0030' 3980               	andlw	128
  9480  0031' 00BE'              	movwf	??___fladd
  9481  0032' 083E'              	movf	??___fladd,w
  9482  0033' 00C7'              	movwf	___fladd@aexp
  9483  0034'                    l2741:
  9484  0034' 0847'              	movf	___fladd@aexp,w
  9485  0035' 0646'              	xorwf	___fladd@signs,w
  9486  0036' 1903               	skipnz
  9487  0037' 2800'              	goto	u3561
  9488  0038' 2800'              	goto	u3560
  9489  0039'                    u3561:
  9490  0039' 2800'              	goto	l2745
  9491  003A'                    u3560:
  9492  003A'                    l2743:
  9493  003A' 1746'              	bsf	___fladd@signs,6
  9494  003B'                    l2745:
  9495  003B' 083D'              	movf	___fladd@a+3,w
  9496  003C' 00BE'              	movwf	??___fladd
  9497  003D' 073E'              	addwf	??___fladd,w
  9498  003E' 00BF'              	movwf	??___fladd+1
  9499  003F' 083F'              	movf	??___fladd+1,w
  9500  0040' 00C7'              	movwf	___fladd@aexp
  9501  0041'                    l2747:
  9502  0041' 1FBC'              	btfss	___fladd@a+2,7
  9503  0042' 2800'              	goto	u3571
  9504  0043' 2800'              	goto	u3570
  9505  0044'                    u3571:
  9506  0044' 2800'              	goto	l2751
  9507  0045'                    u3570:
  9508  0045'                    l2749:
  9509  0045' 1447'              	bsf	___fladd@aexp,0
  9510  0046'                    l2751:
  9511  0046' 0847'              	movf	___fladd@aexp,w
  9512  0047' 1903               	btfsc	3,2
  9513  0048' 2800'              	goto	u3581
  9514  0049' 2800'              	goto	u3580
  9515  004A'                    u3581:
  9516  004A' 2800'              	goto	l2761
  9517  004B'                    u3580:
  9518  004B'                    l2753:
  9519  004B' 0A47'              	incf	___fladd@aexp,w
  9520  004C' 1D03               	btfss	3,2
  9521  004D' 2800'              	goto	u3591
  9522  004E' 2800'              	goto	u3590
  9523  004F'                    u3591:
  9524  004F' 2800'              	goto	l2757
  9525  0050'                    u3590:
  9526  0050'                    l2755:
  9527  0050' 3000               	movlw	0
  9528  0051' 00BD'              	movwf	___fladd@a+3
  9529  0052' 3000               	movlw	0
  9530  0053' 00BC'              	movwf	___fladd@a+2
  9531  0054' 3000               	movlw	0
  9532  0055' 00BB'              	movwf	___fladd@a+1
  9533  0056' 3000               	movlw	0
  9534  0057' 00BA'              	movwf	___fladd@a
  9535  0058'                    l2757:
  9536  0058' 17BC'              	bsf	___fladd@a+2,7
  9537  0059'                    l2759:
  9538  0059' 01BD'              	clrf	___fladd@a+3
  9539  005A' 2800'              	goto	l771
  9540  005B'                    l2761:
  9541  005B' 3000               	movlw	0
  9542  005C' 00BD'              	movwf	___fladd@a+3
  9543  005D' 3000               	movlw	0
  9544  005E' 00BC'              	movwf	___fladd@a+2
  9545  005F' 3000               	movlw	0
  9546  0060' 00BB'              	movwf	___fladd@a+1
  9547  0061' 3000               	movlw	0
  9548  0062' 00BA'              	movwf	___fladd@a
  9549  0063'                    l771:
  9550  0063' 0848'              	movf	___fladd@bexp,w
  9551  0064' 0247'              	subwf	___fladd@aexp,w
  9552  0065' 1803               	skipnc
  9553  0066' 2800'              	goto	u3601
  9554  0067' 2800'              	goto	u3600
  9555  0068'                    u3601:
  9556  0068' 2800'              	goto	l2797
  9557  0069'                    u3600:
  9558  0069'                    l2763:
  9559  0069' 1F46'              	btfss	___fladd@signs,6
  9560  006A' 2800'              	goto	u3611
  9561  006B' 2800'              	goto	u3610
  9562  006C'                    u3611:
  9563  006C' 2800'              	goto	l2767
  9564  006D'                    u3610:
  9565  006D'                    l2765:
  9566  006D' 3080               	movlw	128
  9567  006E' 00BE'              	movwf	??___fladd
  9568  006F' 083E'              	movf	??___fladd,w
  9569  0070' 06C6'              	xorwf	___fladd@signs,f
  9570  0071'                    l2767:
  9571  0071' 0848'              	movf	___fladd@bexp,w
  9572  0072' 00BE'              	movwf	??___fladd
  9573  0073' 083E'              	movf	??___fladd,w
  9574  0074' 00C9'              	movwf	___fladd@grs
  9575  0075'                    l2769:
  9576  0075' 0847'              	movf	___fladd@aexp,w
  9577  0076' 00BE'              	movwf	??___fladd
  9578  0077' 083E'              	movf	??___fladd,w
  9579  0078' 00C8'              	movwf	___fladd@bexp
  9580  0079'                    l2771:
  9581  0079' 0849'              	movf	___fladd@grs,w
  9582  007A' 00BE'              	movwf	??___fladd
  9583  007B' 083E'              	movf	??___fladd,w
  9584  007C' 00C7'              	movwf	___fladd@aexp
  9585  007D'                    l2773:
  9586  007D' 0836'              	movf	___fladd@b,w
  9587  007E' 00BE'              	movwf	??___fladd
  9588  007F' 083E'              	movf	??___fladd,w
  9589  0080' 00C9'              	movwf	___fladd@grs
  9590  0081'                    l2775:
  9591  0081' 083A'              	movf	___fladd@a,w
  9592  0082' 00BE'              	movwf	??___fladd
  9593  0083' 083E'              	movf	??___fladd,w
  9594  0084' 00B6'              	movwf	___fladd@b
  9595  0085'                    l2777:
  9596  0085' 0849'              	movf	___fladd@grs,w
  9597  0086' 00BE'              	movwf	??___fladd
  9598  0087' 083E'              	movf	??___fladd,w
  9599  0088' 00BA'              	movwf	___fladd@a
  9600  0089'                    l2779:
  9601  0089' 0837'              	movf	___fladd@b+1,w
  9602  008A' 00BE'              	movwf	??___fladd
  9603  008B' 083E'              	movf	??___fladd,w
  9604  008C' 00C9'              	movwf	___fladd@grs
  9605  008D'                    l2781:
  9606  008D' 083B'              	movf	___fladd@a+1,w
  9607  008E' 00BE'              	movwf	??___fladd
  9608  008F' 083E'              	movf	??___fladd,w
  9609  0090' 00B7'              	movwf	___fladd@b+1
  9610  0091'                    l2783:
  9611  0091' 0849'              	movf	___fladd@grs,w
  9612  0092' 00BE'              	movwf	??___fladd
  9613  0093' 083E'              	movf	??___fladd,w
  9614  0094' 00BB'              	movwf	___fladd@a+1
  9615  0095'                    l2785:
  9616  0095' 0838'              	movf	___fladd@b+2,w
  9617  0096' 00BE'              	movwf	??___fladd
  9618  0097' 083E'              	movf	??___fladd,w
  9619  0098' 00C9'              	movwf	___fladd@grs
  9620  0099'                    l2787:
  9621  0099' 083C'              	movf	___fladd@a+2,w
  9622  009A' 00BE'              	movwf	??___fladd
  9623  009B' 083E'              	movf	??___fladd,w
  9624  009C' 00B8'              	movwf	___fladd@b+2
  9625  009D'                    l2789:
  9626  009D' 0849'              	movf	___fladd@grs,w
  9627  009E' 00BE'              	movwf	??___fladd
  9628  009F' 083E'              	movf	??___fladd,w
  9629  00A0' 00BC'              	movwf	___fladd@a+2
  9630  00A1'                    l2791:
  9631  00A1' 0839'              	movf	___fladd@b+3,w
  9632  00A2' 00BE'              	movwf	??___fladd
  9633  00A3' 083E'              	movf	??___fladd,w
  9634  00A4' 00C9'              	movwf	___fladd@grs
  9635  00A5'                    l2793:
  9636  00A5' 083D'              	movf	___fladd@a+3,w
  9637  00A6' 00BE'              	movwf	??___fladd
  9638  00A7' 083E'              	movf	??___fladd,w
  9639  00A8' 00B9'              	movwf	___fladd@b+3
  9640  00A9'                    l2795:
  9641  00A9' 0849'              	movf	___fladd@grs,w
  9642  00AA' 00BE'              	movwf	??___fladd
  9643  00AB' 083E'              	movf	??___fladd,w
  9644  00AC' 00BD'              	movwf	___fladd@a+3
  9645  00AD'                    l2797:
  9646  00AD' 01C9'              	clrf	___fladd@grs
  9647  00AE'                    l2799:
  9648  00AE' 0847'              	movf	___fladd@aexp,w
  9649  00AF' 00BE'              	movwf	??___fladd
  9650  00B0' 01BF'              	clrf	??___fladd+1
  9651  00B1' 083F'              	movf	??___fladd+1,w
  9652  00B2' 00C1'              	movwf	??___fladd+3
  9653  00B3' 0848'              	movf	___fladd@bexp,w
  9654  00B4' 023E'              	subwf	??___fladd,w
  9655  00B5' 00C0'              	movwf	??___fladd+2
  9656  00B6' 1C03               	skipc
  9657  00B7' 03C1'              	decf	??___fladd+3,f
  9658  00B8' 0841'              	movf	??___fladd+3,w
  9659  00B9' 3A80               	xorlw	128
  9660  00BA' 00FF               	movwf	btemp+1
  9661  00BB' 3080               	movlw	128
  9662  00BC' 027F               	subwf	btemp+1,w
  9663  00BD' 1D03               	skipz
  9664  00BE' 2800'              	goto	u3625
  9665  00BF' 301A               	movlw	26
  9666  00C0' 0240'              	subwf	??___fladd+2,w
  9667  00C1'                    u3625:
  9668  00C1' 1C03               	skipc
  9669  00C2' 2800'              	goto	u3621
  9670  00C3' 2800'              	goto	u3620
  9671  00C4'                    u3621:
  9672  00C4' 2800'              	goto	l2815
  9673  00C5'                    u3620:
  9674  00C5'                    l2801:
  9675  00C5' 1283               	bcf	3,5	;RP0=0, select bank0
  9676  00C6' 1303               	bcf	3,6	;RP1=0, select bank0
  9677  00C7' 0839'              	movf	___fladd@b+3,w
  9678  00C8' 0438'              	iorwf	___fladd@b+2,w
  9679  00C9' 0437'              	iorwf	___fladd@b+1,w
  9680  00CA' 0436'              	iorwf	___fladd@b,w
  9681  00CB' 1D03               	skipz
  9682  00CC' 2800'              	goto	u3631
  9683  00CD' 2800'              	goto	u3630
  9684  00CE'                    u3631:
  9685  00CE' 3001               	movlw	1
  9686  00CF' 2800'              	goto	u3640
  9687  00D0'                    u3630:
  9688  00D0' 3000               	movlw	0
  9689  00D1'                    u3640:
  9690  00D1' 00BE'              	movwf	??___fladd
  9691  00D2' 083E'              	movf	??___fladd,w
  9692  00D3' 00C9'              	movwf	___fladd@grs
  9693  00D4' 3000               	movlw	0
  9694  00D5' 00B9'              	movwf	___fladd@b+3
  9695  00D6' 3000               	movlw	0
  9696  00D7' 00B8'              	movwf	___fladd@b+2
  9697  00D8' 3000               	movlw	0
  9698  00D9' 00B7'              	movwf	___fladd@b+1
  9699  00DA' 3000               	movlw	0
  9700  00DB' 00B6'              	movwf	___fladd@b
  9701  00DC' 0847'              	movf	___fladd@aexp,w
  9702  00DD' 00BE'              	movwf	??___fladd
  9703  00DE' 083E'              	movf	??___fladd,w
  9704  00DF' 00C8'              	movwf	___fladd@bexp
  9705  00E0' 2800'              	goto	l775
  9706  00E1'                    l777:
  9707  00E1' 1C49'              	btfss	___fladd@grs,0
  9708  00E2' 2800'              	goto	u3651
  9709  00E3' 2800'              	goto	u3650
  9710  00E4'                    u3651:
  9711  00E4' 2800'              	goto	l2805
  9712  00E5'                    u3650:
  9713  00E5'                    l2803:
  9714  00E5' 0849'              	movf	___fladd@grs,w
  9715  00E6' 00BE'              	movwf	??___fladd
  9716  00E7' 1003               	clrc
  9717  00E8' 0C3E'              	rrf	??___fladd,w
  9718  00E9' 3801               	iorlw	1
  9719  00EA' 00BF'              	movwf	??___fladd+1
  9720  00EB' 083F'              	movf	??___fladd+1,w
  9721  00EC' 00C9'              	movwf	___fladd@grs
  9722  00ED' 2800'              	goto	l2807
  9723  00EE'                    l2805:
  9724  00EE' 1003               	clrc
  9725  00EF' 0CC9'              	rrf	___fladd@grs,f
  9726  00F0'                    l2807:
  9727  00F0' 1C36'              	btfss	___fladd@b,0
  9728  00F1' 2800'              	goto	u3661
  9729  00F2' 2800'              	goto	u3660
  9730  00F3'                    u3661:
  9731  00F3' 2800'              	goto	l2811
  9732  00F4'                    u3660:
  9733  00F4'                    l2809:
  9734  00F4' 17C9'              	bsf	___fladd@grs,7
  9735  00F5'                    l2811:
  9736  00F5' 3001               	movlw	1
  9737  00F6' 00BE'              	movwf	??___fladd
  9738  00F7'                    u3675:
  9739  00F7' 0D39'              	rlf	___fladd@b+3,w
  9740  00F8' 0CB9'              	rrf	___fladd@b+3,f
  9741  00F9' 0CB8'              	rrf	___fladd@b+2,f
  9742  00FA' 0CB7'              	rrf	___fladd@b+1,f
  9743  00FB' 0CB6'              	rrf	___fladd@b,f
  9744  00FC' 0B80'              	decfsz	??___fladd& (0+127),f
  9745  00FD' 2800'              	goto	u3675
  9746  00FE'                    l2813:
  9747  00FE' 3001               	movlw	1
  9748  00FF' 00BE'              	movwf	??___fladd
  9749  0100' 083E'              	movf	??___fladd,w
  9750  0101' 07C8'              	addwf	___fladd@bexp,f
  9751  0102'                    l2815:
  9752  0102' 1283               	bcf	3,5	;RP0=0, select bank0
  9753  0103' 1303               	bcf	3,6	;RP1=0, select bank0
  9754  0104' 0847'              	movf	___fladd@aexp,w
  9755  0105' 0248'              	subwf	___fladd@bexp,w
  9756  0106' 1C03               	skipc
  9757  0107' 2800'              	goto	u3681
  9758  0108' 2800'              	goto	u3680
  9759  0109'                    u3681:
  9760  0109' 2800'              	goto	l777
  9761  010A'                    u3680:
  9762  010A'                    l775:
  9763  010A' 1B46'              	btfsc	___fladd@signs,6
  9764  010B' 2800'              	goto	u3691
  9765  010C' 2800'              	goto	u3690
  9766  010D'                    u3691:
  9767  010D' 2800'              	goto	l2841
  9768  010E'                    u3690:
  9769  010E'                    l2817:
  9770  010E' 0848'              	movf	___fladd@bexp,w
  9771  010F' 1D03               	btfss	3,2
  9772  0110' 2800'              	goto	u3701
  9773  0111' 2800'              	goto	u3700
  9774  0112'                    u3701:
  9775  0112' 2800'              	goto	l2823
  9776  0113'                    u3700:
  9777  0113'                    l2819:
  9778  0113' 3000               	movlw	0
  9779  0114' 00B9'              	movwf	?___fladd+3
  9780  0115' 3000               	movlw	0
  9781  0116' 00B8'              	movwf	?___fladd+2
  9782  0117' 3000               	movlw	0
  9783  0118' 00B7'              	movwf	?___fladd+1
  9784  0119' 3000               	movlw	0
  9785  011A' 00B6'              	movwf	?___fladd
  9786  011B' 2800'              	goto	l784
  9787  011C'                    l2823:
  9788  011C' 083A'              	movf	___fladd@a,w
  9789  011D' 07B6'              	addwf	___fladd@b,f
  9790  011E' 083B'              	movf	___fladd@a+1,w
  9791  011F' 1103               	clrz
  9792  0120' 1803               	skipnc
  9793  0121' 3E01               	addlw	1
  9794  0122' 1903               	skipnz
  9795  0123' 2800'              	goto	u3711
  9796  0124' 07B7'              	addwf	___fladd@b+1,f
  9797  0125'                    u3711:
  9798  0125' 083C'              	movf	___fladd@a+2,w
  9799  0126' 1103               	clrz
  9800  0127' 1803               	skipnc
  9801  0128' 3E01               	addlw	1
  9802  0129' 1903               	skipnz
  9803  012A' 2800'              	goto	u3712
  9804  012B' 07B8'              	addwf	___fladd@b+2,f
  9805  012C'                    u3712:
  9806  012C' 083D'              	movf	___fladd@a+3,w
  9807  012D' 1103               	clrz
  9808  012E' 1803               	skipnc
  9809  012F' 3E01               	addlw	1
  9810  0130' 1903               	skipnz
  9811  0131' 2800'              	goto	u3713
  9812  0132' 07B9'              	addwf	___fladd@b+3,f
  9813  0133'                    u3713:
  9814  0133'                    l2825:
  9815  0133' 1C39'              	btfss	___fladd@b+3,0
  9816  0134' 2800'              	goto	u3721
  9817  0135' 2800'              	goto	u3720
  9818  0136'                    u3721:
  9819  0136' 2800'              	goto	l2875
  9820  0137'                    u3720:
  9821  0137'                    l2827:
  9822  0137' 1C49'              	btfss	___fladd@grs,0
  9823  0138' 2800'              	goto	u3731
  9824  0139' 2800'              	goto	u3730
  9825  013A'                    u3731:
  9826  013A' 2800'              	goto	l2831
  9827  013B'                    u3730:
  9828  013B'                    l2829:
  9829  013B' 0849'              	movf	___fladd@grs,w
  9830  013C' 00BE'              	movwf	??___fladd
  9831  013D' 1003               	clrc
  9832  013E' 0C3E'              	rrf	??___fladd,w
  9833  013F' 3801               	iorlw	1
  9834  0140' 00BF'              	movwf	??___fladd+1
  9835  0141' 083F'              	movf	??___fladd+1,w
  9836  0142' 00C9'              	movwf	___fladd@grs
  9837  0143' 2800'              	goto	l2833
  9838  0144'                    l2831:
  9839  0144' 1003               	clrc
  9840  0145' 0CC9'              	rrf	___fladd@grs,f
  9841  0146'                    l2833:
  9842  0146' 1C36'              	btfss	___fladd@b,0
  9843  0147' 2800'              	goto	u3741
  9844  0148' 2800'              	goto	u3740
  9845  0149'                    u3741:
  9846  0149' 2800'              	goto	l2837
  9847  014A'                    u3740:
  9848  014A'                    l2835:
  9849  014A' 17C9'              	bsf	___fladd@grs,7
  9850  014B'                    l2837:
  9851  014B' 3001               	movlw	1
  9852  014C' 00BE'              	movwf	??___fladd
  9853  014D'                    u3755:
  9854  014D' 0D39'              	rlf	___fladd@b+3,w
  9855  014E' 0CB9'              	rrf	___fladd@b+3,f
  9856  014F' 0CB8'              	rrf	___fladd@b+2,f
  9857  0150' 0CB7'              	rrf	___fladd@b+1,f
  9858  0151' 0CB6'              	rrf	___fladd@b,f
  9859  0152' 0B80'              	decfsz	??___fladd& (0+127),f
  9860  0153' 2800'              	goto	u3755
  9861  0154'                    l2839:
  9862  0154' 3001               	movlw	1
  9863  0155' 00BE'              	movwf	??___fladd
  9864  0156' 083E'              	movf	??___fladd,w
  9865  0157' 07C8'              	addwf	___fladd@bexp,f
  9866  0158' 2800'              	goto	l2875
  9867  0159'                    l2841:
  9868  0159' 0839'              	movf	___fladd@b+3,w
  9869  015A' 3A80               	xorlw	128
  9870  015B' 00FF               	movwf	btemp+1
  9871  015C' 083D'              	movf	___fladd@a+3,w
  9872  015D' 3A80               	xorlw	128
  9873  015E' 027F               	subwf	btemp+1,w
  9874  015F' 1D03               	skipz
  9875  0160' 2800'              	goto	u3763
  9876  0161' 083C'              	movf	___fladd@a+2,w
  9877  0162' 0238'              	subwf	___fladd@b+2,w
  9878  0163' 1D03               	skipz
  9879  0164' 2800'              	goto	u3763
  9880  0165' 083B'              	movf	___fladd@a+1,w
  9881  0166' 0237'              	subwf	___fladd@b+1,w
  9882  0167' 1D03               	skipz
  9883  0168' 2800'              	goto	u3763
  9884  0169' 083A'              	movf	___fladd@a,w
  9885  016A' 0236'              	subwf	___fladd@b,w
  9886  016B'                    u3763:
  9887  016B' 1803               	skipnc
  9888  016C' 2800'              	goto	u3761
  9889  016D' 2800'              	goto	u3760
  9890  016E'                    u3761:
  9891  016E' 2800'              	goto	l2851
  9892  016F'                    u3760:
  9893  016F'                    l2843:
  9894  016F' 30FF               	movlw	255
  9895  0170' 00BE'              	movwf	??___fladd
  9896  0171' 30FF               	movlw	255
  9897  0172' 00BF'              	movwf	??___fladd+1
  9898  0173' 30FF               	movlw	255
  9899  0174' 00C0'              	movwf	??___fladd+2
  9900  0175' 30FF               	movlw	255
  9901  0176' 00C1'              	movwf	??___fladd+3
  9902  0177' 083A'              	movf	___fladd@a,w
  9903  0178' 00C2'              	movwf	??___fladd+4
  9904  0179' 083B'              	movf	___fladd@a+1,w
  9905  017A' 00C3'              	movwf	??___fladd+5
  9906  017B' 083C'              	movf	___fladd@a+2,w
  9907  017C' 00C4'              	movwf	??___fladd+6
  9908  017D' 083D'              	movf	___fladd@a+3,w
  9909  017E' 00C5'              	movwf	??___fladd+7
  9910  017F' 0836'              	movf	___fladd@b,w
  9911  0180' 02C2'              	subwf	??___fladd+4,f
  9912  0181' 0837'              	movf	___fladd@b+1,w
  9913  0182' 1C03               	skipc
  9914  0183' 0F37'              	incfsz	___fladd@b+1,w
  9915  0184' 2800'              	goto	u3771
  9916  0185' 2800'              	goto	u3772
  9917  0186'                    u3771:
  9918  0186' 02C3'              	subwf	??___fladd+5,f
  9919  0187'                    u3772:
  9920  0187' 0838'              	movf	___fladd@b+2,w
  9921  0188' 1C03               	skipc
  9922  0189' 0F38'              	incfsz	___fladd@b+2,w
  9923  018A' 2800'              	goto	u3773
  9924  018B' 2800'              	goto	u3774
  9925  018C'                    u3773:
  9926  018C' 02C4'              	subwf	??___fladd+6,f
  9927  018D'                    u3774:
  9928  018D' 0839'              	movf	___fladd@b+3,w
  9929  018E' 1C03               	skipc
  9930  018F' 0F39'              	incfsz	___fladd@b+3,w
  9931  0190' 2800'              	goto	u3775
  9932  0191' 2800'              	goto	u3776
  9933  0192'                    u3775:
  9934  0192' 02C5'              	subwf	??___fladd+7,f
  9935  0193'                    u3776:
  9936  0193' 0842'              	movf	??___fladd+4,w
  9937  0194' 07BE'              	addwf	??___fladd,f
  9938  0195' 0843'              	movf	??___fladd+5,w
  9939  0196' 1803               	skipnc
  9940  0197' 0F43'              	incfsz	??___fladd+5,w
  9941  0198' 2800'              	goto	u3780
  9942  0199' 2800'              	goto	u3781
  9943  019A'                    u3780:
  9944  019A' 07BF'              	addwf	??___fladd+1,f
  9945  019B'                    u3781:
  9946  019B' 0844'              	movf	??___fladd+6,w
  9947  019C' 1803               	skipnc
  9948  019D' 0F44'              	incfsz	??___fladd+6,w
  9949  019E' 2800'              	goto	u3782
  9950  019F' 2800'              	goto	u3783
  9951  01A0'                    u3782:
  9952  01A0' 07C0'              	addwf	??___fladd+2,f
  9953  01A1'                    u3783:
  9954  01A1' 0845'              	movf	??___fladd+7,w
  9955  01A2' 1803               	skipnc
  9956  01A3' 0A45'              	incf	??___fladd+7,w
  9957  01A4' 07C1'              	addwf	??___fladd+3,f
  9958  01A5' 0841'              	movf	??___fladd+3,w
  9959  01A6' 00B9'              	movwf	___fladd@b+3
  9960  01A7' 0840'              	movf	??___fladd+2,w
  9961  01A8' 00B8'              	movwf	___fladd@b+2
  9962  01A9' 083F'              	movf	??___fladd+1,w
  9963  01AA' 00B7'              	movwf	___fladd@b+1
  9964  01AB' 083E'              	movf	??___fladd,w
  9965  01AC' 00B6'              	movwf	___fladd@b
  9966  01AD'                    l2845:
  9967  01AD' 3080               	movlw	128
  9968  01AE' 00BE'              	movwf	??___fladd
  9969  01AF' 083E'              	movf	??___fladd,w
  9970  01B0' 06C6'              	xorwf	___fladd@signs,f
  9971  01B1' 09C9'              	comf	___fladd@grs,f
  9972  01B2' 0AC9'              	incf	___fladd@grs,f
  9973  01B3'                    l2847:
  9974  01B3' 0849'              	movf	___fladd@grs,w
  9975  01B4' 1D03               	btfss	3,2
  9976  01B5' 2800'              	goto	u3791
  9977  01B6' 2800'              	goto	u3790
  9978  01B7'                    u3791:
  9979  01B7' 2800'              	goto	l792
  9980  01B8'                    u3790:
  9981  01B8'                    l2849:
  9982  01B8' 3001               	movlw	1
  9983  01B9' 07B6'              	addwf	___fladd@b,f
  9984  01BA' 3000               	movlw	0
  9985  01BB' 1803               	skipnc
  9986  01BC' 3001               	movlw	1
  9987  01BD' 07B7'              	addwf	___fladd@b+1,f
  9988  01BE' 3000               	movlw	0
  9989  01BF' 1803               	skipnc
  9990  01C0' 3001               	movlw	1
  9991  01C1' 07B8'              	addwf	___fladd@b+2,f
  9992  01C2' 3000               	movlw	0
  9993  01C3' 1803               	skipnc
  9994  01C4' 3001               	movlw	1
  9995  01C5' 07B9'              	addwf	___fladd@b+3,f
  9996  01C6' 2800'              	goto	l792
  9997  01C7'                    l2851:
  9998  01C7' 083A'              	movf	___fladd@a,w
  9999  01C8' 02B6'              	subwf	___fladd@b,f
 10000  01C9' 083B'              	movf	___fladd@a+1,w
 10001  01CA' 1C03               	skipc
 10002  01CB' 0F3B'              	incfsz	___fladd@a+1,w
 10003  01CC' 02B7'              	subwf	___fladd@b+1,f
 10004  01CD' 083C'              	movf	___fladd@a+2,w
 10005  01CE' 1C03               	skipc
 10006  01CF' 0F3C'              	incfsz	___fladd@a+2,w
 10007  01D0' 02B8'              	subwf	___fladd@b+2,f
 10008  01D1' 083D'              	movf	___fladd@a+3,w
 10009  01D2' 1C03               	skipc
 10010  01D3' 0F3D'              	incfsz	___fladd@a+3,w
 10011  01D4' 02B9'              	subwf	___fladd@b+3,f
 10012  01D5'                    l792:
 10013  01D5' 0839'              	movf	___fladd@b+3,w
 10014  01D6' 0438'              	iorwf	___fladd@b+2,w
 10015  01D7' 0437'              	iorwf	___fladd@b+1,w
 10016  01D8' 0436'              	iorwf	___fladd@b,w
 10017  01D9' 1D03               	skipz
 10018  01DA' 2800'              	goto	u3801
 10019  01DB' 2800'              	goto	u3800
 10020  01DC'                    u3801:
 10021  01DC' 2800'              	goto	l2873
 10022  01DD'                    u3800:
 10023  01DD'                    l2853:
 10024  01DD' 0849'              	movf	___fladd@grs,w
 10025  01DE' 1D03               	btfss	3,2
 10026  01DF' 2800'              	goto	u3811
 10027  01E0' 2800'              	goto	u3810
 10028  01E1'                    u3811:
 10029  01E1' 2800'              	goto	l2873
 10030  01E2'                    u3810:
 10031  01E2'                    l2855:
 10032  01E2' 3000               	movlw	0
 10033  01E3' 00B9'              	movwf	?___fladd+3
 10034  01E4' 3000               	movlw	0
 10035  01E5' 00B8'              	movwf	?___fladd+2
 10036  01E6' 3000               	movlw	0
 10037  01E7' 00B7'              	movwf	?___fladd+1
 10038  01E8' 3000               	movlw	0
 10039  01E9' 00B6'              	movwf	?___fladd
 10040  01EA' 2800'              	goto	l784
 10041  01EB'                    l2859:
 10042  01EB' 3001               	movlw	1
 10043  01EC' 00BE'              	movwf	??___fladd
 10044  01ED'                    u3825:
 10045  01ED' 1003               	clrc
 10046  01EE' 0DB6'              	rlf	___fladd@b,f
 10047  01EF' 0DB7'              	rlf	___fladd@b+1,f
 10048  01F0' 0DB8'              	rlf	___fladd@b+2,f
 10049  01F1' 0DB9'              	rlf	___fladd@b+3,f
 10050  01F2' 0BBE'              	decfsz	??___fladd,f
 10051  01F3' 2800'              	goto	u3825
 10052  01F4'                    l2861:
 10053  01F4' 1FC9'              	btfss	___fladd@grs,7
 10054  01F5' 2800'              	goto	u3831
 10055  01F6' 2800'              	goto	u3830
 10056  01F7'                    u3831:
 10057  01F7' 2800'              	goto	l796
 10058  01F8'                    u3830:
 10059  01F8'                    l2863:
 10060  01F8' 1436'              	bsf	___fladd@b,0
 10061  01F9'                    l796:
 10062  01F9' 1C49'              	btfss	___fladd@grs,0
 10063  01FA' 2800'              	goto	u3841
 10064  01FB' 2800'              	goto	u3840
 10065  01FC'                    u3841:
 10066  01FC' 2800'              	goto	l2867
 10067  01FD'                    u3840:
 10068  01FD'                    l2865:
 10069  01FD' 1403               	setc
 10070  01FE' 0DC9'              	rlf	___fladd@grs,f
 10071  01FF' 2800'              	goto	l2869
 10072  0200'                    l2867:
 10073  0200' 1003               	clrc
 10074  0201' 0DC9'              	rlf	___fladd@grs,f
 10075  0202'                    l2869:
 10076  0202' 0848'              	movf	___fladd@bexp,w
 10077  0203' 1903               	btfsc	3,2
 10078  0204' 2800'              	goto	u3851
 10079  0205' 2800'              	goto	u3850
 10080  0206'                    u3851:
 10081  0206' 2800'              	goto	l2873
 10082  0207'                    u3850:
 10083  0207'                    l2871:
 10084  0207' 3001               	movlw	1
 10085  0208' 02C8'              	subwf	___fladd@bexp,f
 10086  0209'                    l2873:
 10087  0209' 1FB8'              	btfss	___fladd@b+2,7
 10088  020A' 2800'              	goto	u3861
 10089  020B' 2800'              	goto	u3860
 10090  020C'                    u3861:
 10091  020C' 2800'              	goto	l2859
 10092  020D'                    u3860:
 10093  020D'                    l2875:
 10094  020D' 01C7'              	clrf	___fladd@aexp
 10095  020E'                    l2877:
 10096  020E' 1FC9'              	btfss	___fladd@grs,7
 10097  020F' 2800'              	goto	u3871
 10098  0210' 2800'              	goto	u3870
 10099  0211'                    u3871:
 10100  0211' 2800'              	goto	l2885
 10101  0212'                    u3870:
 10102  0212'                    l2879:
 10103  0212' 0849'              	movf	___fladd@grs,w
 10104  0213' 397F               	andlw	127
 10105  0214' 1903               	btfsc	3,2
 10106  0215' 2800'              	goto	u3881
 10107  0216' 2800'              	goto	u3880
 10108  0217'                    u3881:
 10109  0217' 2800'              	goto	l802
 10110  0218'                    u3880:
 10111  0218'                    l2881:
 10112  0218' 01C7'              	clrf	___fladd@aexp
 10113  0219' 0AC7'              	incf	___fladd@aexp,f
 10114  021A' 2800'              	goto	l2885
 10115  021B'                    l802:
 10116  021B' 1C36'              	btfss	___fladd@b,0
 10117  021C' 2800'              	goto	u3891
 10118  021D' 2800'              	goto	u3890
 10119  021E'                    u3891:
 10120  021E' 2800'              	goto	l2885
 10121  021F'                    u3890:
 10122  021F' 2800'              	goto	l2881
 10123  0220'                    l2885:
 10124  0220' 0847'              	movf	___fladd@aexp,w
 10125  0221' 1903               	btfsc	3,2
 10126  0222' 2800'              	goto	u3901
 10127  0223' 2800'              	goto	u3900
 10128  0224'                    u3901:
 10129  0224' 2800'              	goto	l805
 10130  0225'                    u3900:
 10131  0225'                    l2887:
 10132  0225' 3001               	movlw	1
 10133  0226' 07B6'              	addwf	___fladd@b,f
 10134  0227' 3000               	movlw	0
 10135  0228' 1803               	skipnc
 10136  0229' 3001               	movlw	1
 10137  022A' 07B7'              	addwf	___fladd@b+1,f
 10138  022B' 3000               	movlw	0
 10139  022C' 1803               	skipnc
 10140  022D' 3001               	movlw	1
 10141  022E' 07B8'              	addwf	___fladd@b+2,f
 10142  022F' 3000               	movlw	0
 10143  0230' 1803               	skipnc
 10144  0231' 3001               	movlw	1
 10145  0232' 07B9'              	addwf	___fladd@b+3,f
 10146  0233'                    l2889:
 10147  0233' 1C39'              	btfss	___fladd@b+3,0
 10148  0234' 2800'              	goto	u3911
 10149  0235' 2800'              	goto	u3910
 10150  0236'                    u3911:
 10151  0236' 2800'              	goto	l805
 10152  0237'                    u3910:
 10153  0237'                    l2891:
 10154  0237' 0836'              	movf	___fladd@b,w
 10155  0238' 00BE'              	movwf	??___fladd
 10156  0239' 0837'              	movf	___fladd@b+1,w
 10157  023A' 00BF'              	movwf	??___fladd+1
 10158  023B' 0838'              	movf	___fladd@b+2,w
 10159  023C' 00C0'              	movwf	??___fladd+2
 10160  023D' 0839'              	movf	___fladd@b+3,w
 10161  023E' 00C1'              	movwf	??___fladd+3
 10162  023F' 3001               	movlw	1
 10163  0240' 00C2'              	movwf	??___fladd+4
 10164  0241'                    u3925:
 10165  0241' 0D41'              	rlf	??___fladd+3,w
 10166  0242' 0CC1'              	rrf	??___fladd+3,f
 10167  0243' 0CC0'              	rrf	??___fladd+2,f
 10168  0244' 0CBF'              	rrf	??___fladd+1,f
 10169  0245' 0CBE'              	rrf	??___fladd,f
 10170  0246'                    u3920:
 10171  0246' 0BC2'              	decfsz	??___fladd+4,f
 10172  0247' 2800'              	goto	u3925
 10173  0248' 0841'              	movf	??___fladd+3,w
 10174  0249' 00B9'              	movwf	___fladd@b+3
 10175  024A' 0840'              	movf	??___fladd+2,w
 10176  024B' 00B8'              	movwf	___fladd@b+2
 10177  024C' 083F'              	movf	??___fladd+1,w
 10178  024D' 00B7'              	movwf	___fladd@b+1
 10179  024E' 083E'              	movf	??___fladd,w
 10180  024F' 00B6'              	movwf	___fladd@b
 10181  0250' 0A48'              	incf	___fladd@bexp,w
 10182  0251' 1903               	btfsc	3,2
 10183  0252' 2800'              	goto	u3931
 10184  0253' 2800'              	goto	u3930
 10185  0254'                    u3931:
 10186  0254' 2800'              	goto	l805
 10187  0255'                    u3930:
 10188  0255'                    l2893:
 10189  0255' 3001               	movlw	1
 10190  0256' 00BE'              	movwf	??___fladd
 10191  0257' 083E'              	movf	??___fladd,w
 10192  0258' 07C8'              	addwf	___fladd@bexp,f
 10193  0259'                    l805:
 10194  0259' 0A48'              	incf	___fladd@bexp,w
 10195  025A' 1903               	btfsc	3,2
 10196  025B' 2800'              	goto	u3941
 10197  025C' 2800'              	goto	u3940
 10198  025D'                    u3941:
 10199  025D' 2800'              	goto	l2897
 10200  025E'                    u3940:
 10201  025E'                    l2895:
 10202  025E' 0848'              	movf	___fladd@bexp,w
 10203  025F' 1D03               	btfss	3,2
 10204  0260' 2800'              	goto	u3951
 10205  0261' 2800'              	goto	u3950
 10206  0262'                    u3951:
 10207  0262' 2800'              	goto	l2903
 10208  0263'                    u3950:
 10209  0263'                    l2897:
 10210  0263' 3000               	movlw	0
 10211  0264' 00B9'              	movwf	___fladd@b+3
 10212  0265' 3000               	movlw	0
 10213  0266' 00B8'              	movwf	___fladd@b+2
 10214  0267' 3000               	movlw	0
 10215  0268' 00B7'              	movwf	___fladd@b+1
 10216  0269' 3000               	movlw	0
 10217  026A' 00B6'              	movwf	___fladd@b
 10218  026B'                    l2899:
 10219  026B' 0848'              	movf	___fladd@bexp,w
 10220  026C' 1D03               	btfss	3,2
 10221  026D' 2800'              	goto	u3961
 10222  026E' 2800'              	goto	u3960
 10223  026F'                    u3961:
 10224  026F' 2800'              	goto	l2903
 10225  0270'                    u3960:
 10226  0270'                    l2901:
 10227  0270' 01C6'              	clrf	___fladd@signs
 10228  0271'                    l2903:
 10229  0271' 1C48'              	btfss	___fladd@bexp,0
 10230  0272' 2800'              	goto	u3971
 10231  0273' 2800'              	goto	u3970
 10232  0274'                    u3971:
 10233  0274' 2800'              	goto	l2907
 10234  0275'                    u3970:
 10235  0275'                    l2905:
 10236  0275' 17B8'              	bsf	___fladd@b+2,7
 10237  0276' 2800'              	goto	l813
 10238  0277'                    l2907:
 10239  0277' 307F               	movlw	127
 10240  0278' 00BE'              	movwf	??___fladd
 10241  0279' 083E'              	movf	??___fladd,w
 10242  027A' 05B8'              	andwf	___fladd@b+2,f
 10243  027B'                    l813:
 10244  027B' 0848'              	movf	___fladd@bexp,w
 10245  027C' 00BE'              	movwf	??___fladd
 10246  027D' 1003               	clrc
 10247  027E' 0C3E'              	rrf	??___fladd,w
 10248  027F' 00BF'              	movwf	??___fladd+1
 10249  0280' 083F'              	movf	??___fladd+1,w
 10250  0281' 00B9'              	movwf	___fladd@b+3
 10251  0282'                    l2909:
 10252  0282' 1FC6'              	btfss	___fladd@signs,7
 10253  0283' 2800'              	goto	u3981
 10254  0284' 2800'              	goto	u3980
 10255  0285'                    u3981:
 10256  0285' 2800'              	goto	l814
 10257  0286'                    u3980:
 10258  0286'                    l2911:
 10259  0286' 17B9'              	bsf	___fladd@b+3,7
 10260  0287'                    l814:
 10261  0287'                    l784:
 10262  0287' 0008               	return
 10263  0288'                    __end_of___fladd:
 10264                           
 10265                           	psect	text20
 10266  0000'                    __ptext20:	
 10267 ;; *************** function ___flneg *****************
 10268 ;; Defined at:
 10269 ;;		line 15 in file "C:\Program Files\Microchip\xc8\v2.31\pic\sources\c90\common\flneg.c"
 10270 ;; Parameters:    Size  Location     Type
 10271 ;;  f1              4    2[COMMON] unsigned char 
 10272 ;; Auto vars:     Size  Location     Type
 10273 ;;		None
 10274 ;; Return value:  Size  Location     Type
 10275 ;;                  4    2[COMMON] unsigned char 
 10276 ;; Registers used:
 10277 ;;		wreg
 10278 ;; Tracked objects:
 10279 ;;		On entry : 0/0
 10280 ;;		On exit  : 0/0
 10281 ;;		Unchanged: 0/0
 10282 ;; Data sizes:     COMMON   BANK0   BANK1   BANK3   BANK2
 10283 ;;      Params:         4       0       0       0       0
 10284 ;;      Locals:         0       0       0       0       0
 10285 ;;      Temps:          0       0       0       0       0
 10286 ;;      Totals:         4       0       0       0       0
 10287 ;;Total ram usage:        4 bytes
 10288 ;; Hardware stack levels used:    1
 10289 ;; Hardware stack levels required when called:    2
 10290 ;; This function calls:
 10291 ;;		Nothing
 10292 ;; This function is called by:
 10293 ;;		_sprintf
 10294 ;; This function uses a non-reentrant model
 10295 ;;
 10296                           
 10297                           
 10298                           ;psect for function ___flneg
 10299  0000'                    ___flneg:
 10300  0000'                    l3359:	
 10301                           ;incstack = 0
 10302                           ; Regs used in ___flneg: [wreg]
 10303                           
 10304  0000' 0805'              	movf	___flneg@f1+3,w
 10305  0001' 0404'              	iorwf	___flneg@f1+2,w
 10306  0002' 0403'              	iorwf	___flneg@f1+1,w
 10307  0003' 0402'              	iorwf	___flneg@f1,w
 10308  0004' 1903               	skipnz
 10309  0005' 2800'              	goto	u5121
 10310  0006' 2800'              	goto	u5120
 10311  0007'                    u5121:
 10312  0007' 2800'              	goto	l3363
 10313  0008'                    u5120:
 10314  0008'                    l3361:
 10315  0008' 3080               	movlw	128
 10316  0009' 0685'              	xorwf	___flneg@f1+3,f
 10317  000A'                    l3363:
 10318  000A'                    l643:
 10319  000A' 0008               	return
 10320  000B'                    __end_of___flneg:
 10321                           
 10322                           	psect	text21
 10323  0000'                    __ptext21:	
 10324 ;; *************** function ___flge *****************
 10325 ;; Defined at:
 10326 ;;		line 4 in file "C:\Program Files\Microchip\xc8\v2.31\pic\sources\c90\common\flge.c"
 10327 ;; Parameters:    Size  Location     Type
 10328 ;;  ff1             4    2[COMMON] unsigned char 
 10329 ;;  ff2             4    6[COMMON] unsigned char 
 10330 ;; Auto vars:     Size  Location     Type
 10331 ;;		None
 10332 ;; Return value:  Size  Location     Type
 10333 ;;		None               void
 10334 ;; Registers used:
 10335 ;;		wreg, status,2, status,0
 10336 ;; Tracked objects:
 10337 ;;		On entry : 0/0
 10338 ;;		On exit  : 0/0
 10339 ;;		Unchanged: 0/0
 10340 ;; Data sizes:     COMMON   BANK0   BANK1   BANK3   BANK2
 10341 ;;      Params:         8       0       0       0       0
 10342 ;;      Locals:         0       0       0       0       0
 10343 ;;      Temps:          0       4       0       0       0
 10344 ;;      Totals:         8       4       0       0       0
 10345 ;;Total ram usage:       12 bytes
 10346 ;; Hardware stack levels used:    1
 10347 ;; Hardware stack levels required when called:    2
 10348 ;; This function calls:
 10349 ;;		Nothing
 10350 ;; This function is called by:
 10351 ;;		_sprintf
 10352 ;; This function uses a non-reentrant model
 10353 ;;
 10354                           
 10355                           
 10356                           ;psect for function ___flge
 10357  0000'                    ___flge:
 10358  0000'                    l3339:	
 10359                           ;incstack = 0
 10360                           ; Regs used in ___flge: [wreg+status,2+status,0]
 10361                           
 10362  0000' 3000               	movlw	0
 10363  0001' 0502'              	andwf	___flge@ff1,w
 10364  0002' 1283               	bcf	3,5	;RP0=0, select bank0
 10365  0003' 1303               	bcf	3,6	;RP1=0, select bank0
 10366  0004' 0080'              	movwf	??___flge
 10367  0005' 3000               	movlw	0
 10368  0006' 0503'              	andwf	___flge@ff1+1,w
 10369  0007' 0081'              	movwf	??___flge+1
 10370  0008' 3080               	movlw	128
 10371  0009' 0504'              	andwf	___flge@ff1+2,w
 10372  000A' 0082'              	movwf	??___flge+2
 10373  000B' 307F               	movlw	127
 10374  000C' 0505'              	andwf	___flge@ff1+3,w
 10375  000D' 0083'              	movwf	??___flge+3
 10376  000E' 0803'              	movf	??___flge+3,w
 10377  000F' 0402'              	iorwf	??___flge+2,w
 10378  0010' 0401'              	iorwf	??___flge+1,w
 10379  0011' 0400'              	iorwf	??___flge,w
 10380  0012' 1D03               	skipz
 10381  0013' 2800'              	goto	u5051
 10382  0014' 2800'              	goto	u5050
 10383  0015'                    u5051:
 10384  0015' 2800'              	goto	l635
 10385  0016'                    u5050:
 10386  0016'                    l3341:
 10387  0016' 3000               	movlw	0
 10388  0017' 0085'              	movwf	___flge@ff1+3
 10389  0018' 3000               	movlw	0
 10390  0019' 0084'              	movwf	___flge@ff1+2
 10391  001A' 3000               	movlw	0
 10392  001B' 0083'              	movwf	___flge@ff1+1
 10393  001C' 3000               	movlw	0
 10394  001D' 0082'              	movwf	___flge@ff1
 10395  001E'                    l635:
 10396  001E' 3000               	movlw	0
 10397  001F' 0506'              	andwf	___flge@ff2,w
 10398  0020' 0080'              	movwf	??___flge
 10399  0021' 3000               	movlw	0
 10400  0022' 0507'              	andwf	___flge@ff2+1,w
 10401  0023' 0081'              	movwf	??___flge+1
 10402  0024' 3080               	movlw	128
 10403  0025' 0508'              	andwf	___flge@ff2+2,w
 10404  0026' 0082'              	movwf	??___flge+2
 10405  0027' 307F               	movlw	127
 10406  0028' 0509'              	andwf	___flge@ff2+3,w
 10407  0029' 0083'              	movwf	??___flge+3
 10408  002A' 0803'              	movf	??___flge+3,w
 10409  002B' 0402'              	iorwf	??___flge+2,w
 10410  002C' 0401'              	iorwf	??___flge+1,w
 10411  002D' 0400'              	iorwf	??___flge,w
 10412  002E' 1D03               	skipz
 10413  002F' 2800'              	goto	u5061
 10414  0030' 2800'              	goto	u5060
 10415  0031'                    u5061:
 10416  0031' 2800'              	goto	l3345
 10417  0032'                    u5060:
 10418  0032'                    l3343:
 10419  0032' 3000               	movlw	0
 10420  0033' 0089'              	movwf	___flge@ff2+3
 10421  0034' 3000               	movlw	0
 10422  0035' 0088'              	movwf	___flge@ff2+2
 10423  0036' 3000               	movlw	0
 10424  0037' 0087'              	movwf	___flge@ff2+1
 10425  0038' 3000               	movlw	0
 10426  0039' 0086'              	movwf	___flge@ff2
 10427  003A'                    l3345:
 10428  003A' 1F85'              	btfss	___flge@ff1+3,7
 10429  003B' 2800'              	goto	u5071
 10430  003C' 2800'              	goto	u5070
 10431  003D'                    u5071:
 10432  003D' 2800'              	goto	l3349
 10433  003E'                    u5070:
 10434  003E'                    l3347:
 10435  003E' 3000               	movlw	0
 10436  003F' 0080'              	movwf	??___flge
 10437  0040' 3000               	movlw	0
 10438  0041' 0081'              	movwf	??___flge+1
 10439  0042' 3000               	movlw	0
 10440  0043' 0082'              	movwf	??___flge+2
 10441  0044' 3080               	movlw	128
 10442  0045' 0083'              	movwf	??___flge+3
 10443  0046' 0802'              	movf	___flge@ff1,w
 10444  0047' 0280'              	subwf	??___flge,f
 10445  0048' 0803'              	movf	___flge@ff1+1,w
 10446  0049' 1C03               	skipc
 10447  004A' 0F03'              	incfsz	___flge@ff1+1,w
 10448  004B' 2800'              	goto	u5081
 10449  004C' 2800'              	goto	u5082
 10450  004D'                    u5081:
 10451  004D' 0281'              	subwf	??___flge+1,f
 10452  004E'                    u5082:
 10453  004E' 0804'              	movf	___flge@ff1+2,w
 10454  004F' 1C03               	skipc
 10455  0050' 0F04'              	incfsz	___flge@ff1+2,w
 10456  0051' 2800'              	goto	u5083
 10457  0052' 2800'              	goto	u5084
 10458  0053'                    u5083:
 10459  0053' 0282'              	subwf	??___flge+2,f
 10460  0054'                    u5084:
 10461  0054' 0805'              	movf	___flge@ff1+3,w
 10462  0055' 1C03               	skipc
 10463  0056' 0F05'              	incfsz	___flge@ff1+3,w
 10464  0057' 2800'              	goto	u5085
 10465  0058' 2800'              	goto	u5086
 10466  0059'                    u5085:
 10467  0059' 0283'              	subwf	??___flge+3,f
 10468  005A'                    u5086:
 10469  005A' 0803'              	movf	??___flge+3,w
 10470  005B' 0085'              	movwf	___flge@ff1+3
 10471  005C' 0802'              	movf	??___flge+2,w
 10472  005D' 0084'              	movwf	___flge@ff1+2
 10473  005E' 0801'              	movf	??___flge+1,w
 10474  005F' 0083'              	movwf	___flge@ff1+1
 10475  0060' 0800'              	movf	??___flge,w
 10476  0061' 0082'              	movwf	___flge@ff1
 10477  0062'                    l3349:
 10478  0062' 1F89'              	btfss	___flge@ff2+3,7
 10479  0063' 2800'              	goto	u5091
 10480  0064' 2800'              	goto	u5090
 10481  0065'                    u5091:
 10482  0065' 2800'              	goto	l638
 10483  0066'                    u5090:
 10484  0066'                    l3351:
 10485  0066' 3000               	movlw	0
 10486  0067' 0080'              	movwf	??___flge
 10487  0068' 3000               	movlw	0
 10488  0069' 0081'              	movwf	??___flge+1
 10489  006A' 3000               	movlw	0
 10490  006B' 0082'              	movwf	??___flge+2
 10491  006C' 3080               	movlw	128
 10492  006D' 0083'              	movwf	??___flge+3
 10493  006E' 0806'              	movf	___flge@ff2,w
 10494  006F' 0280'              	subwf	??___flge,f
 10495  0070' 0807'              	movf	___flge@ff2+1,w
 10496  0071' 1C03               	skipc
 10497  0072' 0F07'              	incfsz	___flge@ff2+1,w
 10498  0073' 2800'              	goto	u5101
 10499  0074' 2800'              	goto	u5102
 10500  0075'                    u5101:
 10501  0075' 0281'              	subwf	??___flge+1,f
 10502  0076'                    u5102:
 10503  0076' 0808'              	movf	___flge@ff2+2,w
 10504  0077' 1C03               	skipc
 10505  0078' 0F08'              	incfsz	___flge@ff2+2,w
 10506  0079' 2800'              	goto	u5103
 10507  007A' 2800'              	goto	u5104
 10508  007B'                    u5103:
 10509  007B' 0282'              	subwf	??___flge+2,f
 10510  007C'                    u5104:
 10511  007C' 0809'              	movf	___flge@ff2+3,w
 10512  007D' 1C03               	skipc
 10513  007E' 0F09'              	incfsz	___flge@ff2+3,w
 10514  007F' 2800'              	goto	u5105
 10515  0080' 2800'              	goto	u5106
 10516  0081'                    u5105:
 10517  0081' 0283'              	subwf	??___flge+3,f
 10518  0082'                    u5106:
 10519  0082' 0803'              	movf	??___flge+3,w
 10520  0083' 0089'              	movwf	___flge@ff2+3
 10521  0084' 0802'              	movf	??___flge+2,w
 10522  0085' 0088'              	movwf	___flge@ff2+2
 10523  0086' 0801'              	movf	??___flge+1,w
 10524  0087' 0087'              	movwf	___flge@ff2+1
 10525  0088' 0800'              	movf	??___flge,w
 10526  0089' 0086'              	movwf	___flge@ff2
 10527  008A'                    l638:
 10528  008A' 3080               	movlw	128
 10529  008B' 0685'              	xorwf	___flge@ff1+3,f
 10530  008C' 3080               	movlw	128
 10531  008D' 0689'              	xorwf	___flge@ff2+3,f
 10532  008E' 0809'              	movf	___flge@ff2+3,w
 10533  008F' 0205'              	subwf	___flge@ff1+3,w
 10534  0090' 1D03               	skipz
 10535  0091' 2800'              	goto	u5115
 10536  0092' 0808'              	movf	___flge@ff2+2,w
 10537  0093' 0204'              	subwf	___flge@ff1+2,w
 10538  0094' 1D03               	skipz
 10539  0095' 2800'              	goto	u5115
 10540  0096' 0807'              	movf	___flge@ff2+1,w
 10541  0097' 0203'              	subwf	___flge@ff1+1,w
 10542  0098' 1D03               	skipz
 10543  0099' 2800'              	goto	u5115
 10544  009A' 0806'              	movf	___flge@ff2,w
 10545  009B' 0202'              	subwf	___flge@ff1,w
 10546  009C'                    u5115:
 10547  009C' 1803               	skipnc
 10548  009D' 2800'              	goto	u5111
 10549  009E' 2800'              	goto	u5110
 10550  009F'                    u5111:
 10551  009F' 2800'              	goto	l3355
 10552  00A0'                    u5110:
 10553  00A0'                    l3353:
 10554  00A0' 1003               	clrc
 10555  00A1' 2800'              	goto	l639
 10556  00A2'                    l3355:
 10557  00A2' 1403               	setc
 10558  00A3'                    l639:
 10559  00A3' 0008               	return
 10560  00A4'                    __end_of___flge:
 10561                           
 10562                           	psect	text22
 10563  0000'                    __ptext22:	
 10564 ;; *************** function ___fleq *****************
 10565 ;; Defined at:
 10566 ;;		line 4 in file "C:\Program Files\Microchip\xc8\v2.31\pic\sources\c90\common\fleq.c"
 10567 ;; Parameters:    Size  Location     Type
 10568 ;;  ff1             4    2[COMMON] unsigned char 
 10569 ;;  ff2             4    6[COMMON] unsigned char 
 10570 ;; Auto vars:     Size  Location     Type
 10571 ;;		None
 10572 ;; Return value:  Size  Location     Type
 10573 ;;		None               void
 10574 ;; Registers used:
 10575 ;;		wreg, status,2, status,0
 10576 ;; Tracked objects:
 10577 ;;		On entry : 0/0
 10578 ;;		On exit  : 0/0
 10579 ;;		Unchanged: 0/0
 10580 ;; Data sizes:     COMMON   BANK0   BANK1   BANK3   BANK2
 10581 ;;      Params:         8       0       0       0       0
 10582 ;;      Locals:         0       0       0       0       0
 10583 ;;      Temps:          0       4       0       0       0
 10584 ;;      Totals:         8       4       0       0       0
 10585 ;;Total ram usage:       12 bytes
 10586 ;; Hardware stack levels used:    1
 10587 ;; Hardware stack levels required when called:    2
 10588 ;; This function calls:
 10589 ;;		Nothing
 10590 ;; This function is called by:
 10591 ;;		_sprintf
 10592 ;; This function uses a non-reentrant model
 10593 ;;
 10594                           
 10595                           
 10596                           ;psect for function ___fleq
 10597  0000'                    ___fleq:
 10598  0000'                    l3327:	
 10599                           ;incstack = 0
 10600                           ; Regs used in ___fleq: [wreg+status,2+status,0]
 10601                           
 10602  0000' 3000               	movlw	0
 10603  0001' 0502'              	andwf	___fleq@ff1,w
 10604  0002' 1283               	bcf	3,5	;RP0=0, select bank0
 10605  0003' 1303               	bcf	3,6	;RP1=0, select bank0
 10606  0004' 0080'              	movwf	??___fleq
 10607  0005' 3000               	movlw	0
 10608  0006' 0503'              	andwf	___fleq@ff1+1,w
 10609  0007' 0081'              	movwf	??___fleq+1
 10610  0008' 3080               	movlw	128
 10611  0009' 0504'              	andwf	___fleq@ff1+2,w
 10612  000A' 0082'              	movwf	??___fleq+2
 10613  000B' 307F               	movlw	127
 10614  000C' 0505'              	andwf	___fleq@ff1+3,w
 10615  000D' 0083'              	movwf	??___fleq+3
 10616  000E' 0803'              	movf	??___fleq+3,w
 10617  000F' 0402'              	iorwf	??___fleq+2,w
 10618  0010' 0401'              	iorwf	??___fleq+1,w
 10619  0011' 0400'              	iorwf	??___fleq,w
 10620  0012' 1D03               	skipz
 10621  0013' 2800'              	goto	u5021
 10622  0014' 2800'              	goto	u5020
 10623  0015'                    u5021:
 10624  0015' 2800'              	goto	l630
 10625  0016'                    u5020:
 10626  0016'                    l3329:
 10627  0016' 3000               	movlw	0
 10628  0017' 0085'              	movwf	___fleq@ff1+3
 10629  0018' 3000               	movlw	0
 10630  0019' 0084'              	movwf	___fleq@ff1+2
 10631  001A' 3000               	movlw	0
 10632  001B' 0083'              	movwf	___fleq@ff1+1
 10633  001C' 3000               	movlw	0
 10634  001D' 0082'              	movwf	___fleq@ff1
 10635  001E'                    l630:
 10636  001E' 3000               	movlw	0
 10637  001F' 0506'              	andwf	___fleq@ff2,w
 10638  0020' 0080'              	movwf	??___fleq
 10639  0021' 3000               	movlw	0
 10640  0022' 0507'              	andwf	___fleq@ff2+1,w
 10641  0023' 0081'              	movwf	??___fleq+1
 10642  0024' 3080               	movlw	128
 10643  0025' 0508'              	andwf	___fleq@ff2+2,w
 10644  0026' 0082'              	movwf	??___fleq+2
 10645  0027' 307F               	movlw	127
 10646  0028' 0509'              	andwf	___fleq@ff2+3,w
 10647  0029' 0083'              	movwf	??___fleq+3
 10648  002A' 0803'              	movf	??___fleq+3,w
 10649  002B' 0402'              	iorwf	??___fleq+2,w
 10650  002C' 0401'              	iorwf	??___fleq+1,w
 10651  002D' 0400'              	iorwf	??___fleq,w
 10652  002E' 1D03               	skipz
 10653  002F' 2800'              	goto	u5031
 10654  0030' 2800'              	goto	u5030
 10655  0031'                    u5031:
 10656  0031' 2800'              	goto	l631
 10657  0032'                    u5030:
 10658  0032'                    l3331:
 10659  0032' 3000               	movlw	0
 10660  0033' 0089'              	movwf	___fleq@ff2+3
 10661  0034' 3000               	movlw	0
 10662  0035' 0088'              	movwf	___fleq@ff2+2
 10663  0036' 3000               	movlw	0
 10664  0037' 0087'              	movwf	___fleq@ff2+1
 10665  0038' 3000               	movlw	0
 10666  0039' 0086'              	movwf	___fleq@ff2
 10667  003A'                    l631:
 10668  003A' 0809'              	movf	___fleq@ff2+3,w
 10669  003B' 0605'              	xorwf	___fleq@ff1+3,w
 10670  003C' 1D03               	skipz
 10671  003D' 2800'              	goto	u5045
 10672  003E' 0808'              	movf	___fleq@ff2+2,w
 10673  003F' 0604'              	xorwf	___fleq@ff1+2,w
 10674  0040' 1D03               	skipz
 10675  0041' 2800'              	goto	u5045
 10676  0042' 0807'              	movf	___fleq@ff2+1,w
 10677  0043' 0603'              	xorwf	___fleq@ff1+1,w
 10678  0044' 1D03               	skipz
 10679  0045' 2800'              	goto	u5045
 10680  0046' 0806'              	movf	___fleq@ff2,w
 10681  0047' 0602'              	xorwf	___fleq@ff1,w
 10682  0048'                    u5045:
 10683  0048' 1903               	skipnz
 10684  0049' 2800'              	goto	u5041
 10685  004A' 2800'              	goto	u5040
 10686  004B'                    u5041:
 10687  004B' 2800'              	goto	l3335
 10688  004C'                    u5040:
 10689  004C'                    l3333:
 10690  004C' 1003               	clrc
 10691  004D' 2800'              	goto	l632
 10692  004E'                    l3335:
 10693  004E' 1403               	setc
 10694  004F'                    l632:
 10695  004F' 0008               	return
 10696  0050'                    __end_of___fleq:
 10697                           
 10698                           	psect	text23
 10699  0000'                    __ptext23:	
 10700 ;; *************** function _setup *****************
 10701 ;; Defined at:
 10702 ;;		line 167 in file "MAIN_I2C.c"
 10703 ;; Parameters:    Size  Location     Type
 10704 ;;		None
 10705 ;; Auto vars:     Size  Location     Type
 10706 ;;		None
 10707 ;; Return value:  Size  Location     Type
 10708 ;;                  1    wreg      void 
 10709 ;; Registers used:
 10710 ;;		wreg, status,2, status,0, pclath, cstack
 10711 ;; Tracked objects:
 10712 ;;		On entry : 0/0
 10713 ;;		On exit  : 0/0
 10714 ;;		Unchanged: 0/0
 10715 ;; Data sizes:     COMMON   BANK0   BANK1   BANK3   BANK2
 10716 ;;      Params:         0       0       0       0       0
 10717 ;;      Locals:         0       0       0       0       0
 10718 ;;      Temps:          0       0       0       0       0
 10719 ;;      Totals:         0       0       0       0       0
 10720 ;;Total ram usage:        0 bytes
 10721 ;; Hardware stack levels used:    1
 10722 ;; Hardware stack levels required when called:    4
 10723 ;; This function calls:
 10724 ;;		_I2C_Master_Init
 10725 ;; This function is called by:
 10726 ;;		_main
 10727 ;; This function uses a non-reentrant model
 10728 ;;
 10729                           
 10730                           
 10731                           ;psect for function _setup
 10732  0000'                    _setup:
 10733  0000'                    l4377:	
 10734                           ;incstack = 0
 10735                           ; Regs used in _setup: [wreg+status,2+status,0+pclath+cstack]
 10736                           
 10737                           
 10738                           ;MAIN_I2C.c: 169:     OSCCONbits.SCS = 0;
 10739  0000' 1683               	bsf	3,5	;RP0=1, select bank3
 10740  0001' 1703               	bsf	3,6	;RP1=1, select bank3
 10741  0002' 0188               	clrf	8	;volatile
 10742                           
 10743                           ;MAIN_I2C.c: 170: }
 10744  0003' 1683               	bsf	3,5	;RP0=1, select bank1
 10745  0004' 1303               	bcf	3,6	;RP1=0, select bank1
 10746  0005' 0185               	clrf	5	;volatile
 10747                           
 10748                           ;MAIN_I2C.c: 171: 
 10749  0006' 1283               	bcf	3,5	;RP0=0, select bank0
 10750  0007' 1303               	bcf	3,6	;RP1=0, select bank0
 10751  0008' 0185               	clrf	5	;volatile
 10752                           
 10753                           ;MAIN_I2C.c: 172: void tmr0_config (void)
 10754  0009' 1683               	bsf	3,5	;RP0=1, select bank3
 10755  000A' 1703               	bsf	3,6	;RP1=1, select bank3
 10756  000B' 0189               	clrf	9	;volatile
 10757                           
 10758                           ;MAIN_I2C.c: 173: {
 10759  000C' 1683               	bsf	3,5	;RP0=1, select bank1
 10760  000D' 1303               	bcf	3,6	;RP1=0, select bank1
 10761  000E' 0186               	clrf	6	;volatile
 10762                           
 10763                           ;MAIN_I2C.c: 174:     OPTION_REGbits.nRBPU = 0;
 10764  000F' 1283               	bcf	3,5	;RP0=0, select bank0
 10765  0010' 1303               	bcf	3,6	;RP1=0, select bank0
 10766  0011' 0186               	clrf	6	;volatile
 10767                           
 10768                           ;MAIN_I2C.c: 175:     OPTION_REGbits.T0CS = 0;
 10769  0012' 1683               	bsf	3,5	;RP0=1, select bank1
 10770  0013' 1303               	bcf	3,6	;RP1=0, select bank1
 10771  0014' 0187               	clrf	7	;volatile
 10772                           
 10773                           ;MAIN_I2C.c: 176:     OPTION_REGbits.PSA = 0;
 10774  0015' 1283               	bcf	3,5	;RP0=0, select bank0
 10775  0016' 1303               	bcf	3,6	;RP1=0, select bank0
 10776  0017' 0187               	clrf	7	;volatile
 10777  0018'                    l4379:
 10778                           
 10779                           ;MAIN_I2C.c: 177:     OPTION_REGbits.PS2 = 0;
 10780  0018' 1683               	bsf	3,5	;RP0=1, select bank1
 10781  0019' 1303               	bcf	3,6	;RP1=0, select bank1
 10782  001A' 1307               	bcf	7,6	;volatile
 10783                           
 10784                           ;MAIN_I2C.c: 179:     OPTION_REGbits.PS0 = 0;
 10785  001B' 0188               	clrf	8	;volatile
 10786                           
 10787                           ;MAIN_I2C.c: 180:     TMR0 = 100;
 10788  001C' 1283               	bcf	3,5	;RP0=0, select bank0
 10789  001D' 1303               	bcf	3,6	;RP1=0, select bank0
 10790  001E' 0188               	clrf	8	;volatile
 10791                           
 10792                           ;MAIN_I2C.c: 181: }
 10793  001F' 1683               	bsf	3,5	;RP0=1, select bank1
 10794  0020' 1303               	bcf	3,6	;RP1=0, select bank1
 10795  0021' 0189               	clrf	9	;volatile
 10796                           
 10797                           ;MAIN_I2C.c: 182: 
 10798  0022' 1283               	bcf	3,5	;RP0=0, select bank0
 10799  0023' 1303               	bcf	3,6	;RP1=0, select bank0
 10800  0024' 0189               	clrf	9	;volatile
 10801  0025'                    l4381:
 10802                           
 10803                           ;MAIN_I2C.c: 183: void USART_config(void)
 10804  0025' 1683               	bsf	3,5	;RP0=1, select bank1
 10805  0026' 1303               	bcf	3,6	;RP1=0, select bank1
 10806  0027' 1009               	bcf	9,0	;volatile
 10807  0028'                    l4383:
 10808                           
 10809                           ;MAIN_I2C.c: 184: {
 10810  0028' 1189               	bcf	9,3	;volatile
 10811  0029'                    l4385:
 10812                           
 10813                           ;MAIN_I2C.c: 185:     USART_lib_config();
 10814  0029' 3000               	movlw	0
 10815  002A' 1283               	bcf	3,5	;RP0=0, select bank0
 10816  002B' 1303               	bcf	3,6	;RP1=0, select bank0
 10817  002C' 0089'              	movwf	I2C_Master_Init@c+3
 10818  002D' 3001               	movlw	1
 10819  002E' 0088'              	movwf	I2C_Master_Init@c+2
 10820  002F' 3086               	movlw	134
 10821  0030' 0087'              	movwf	I2C_Master_Init@c+1
 10822  0031' 30A0               	movlw	160
 10823  0032' 0086'              	movwf	I2C_Master_Init@c
 10824  0033' 120A' 118A' 2000' 120A' 118A' 	fcall	_I2C_Master_Init
 10825  0038'                    l115:
 10826  0038' 0008               	return
 10827  0039'                    __end_of_setup:
 10828                           
 10829                           	psect	text24
 10830  0000'                    __ptext24:	
 10831 ;; *************** function _I2C_Master_Init *****************
 10832 ;; Defined at:
 10833 ;;		line 16 in file "I2C_LIB.c"
 10834 ;; Parameters:    Size  Location     Type
 10835 ;;  c               4    6[BANK0 ] const unsigned long 
 10836 ;; Auto vars:     Size  Location     Type
 10837 ;;		None
 10838 ;; Return value:  Size  Location     Type
 10839 ;;                  1    wreg      void 
 10840 ;; Registers used:
 10841 ;;		wreg, status,2, status,0, pclath, cstack
 10842 ;; Tracked objects:
 10843 ;;		On entry : 0/0
 10844 ;;		On exit  : 0/0
 10845 ;;		Unchanged: 0/0
 10846 ;; Data sizes:     COMMON   BANK0   BANK1   BANK3   BANK2
 10847 ;;      Params:         0       4       0       0       0
 10848 ;;      Locals:         0       0       0       0       0
 10849 ;;      Temps:          0       4       0       0       0
 10850 ;;      Totals:         0       8       0       0       0
 10851 ;;Total ram usage:        8 bytes
 10852 ;; Hardware stack levels used:    1
 10853 ;; Hardware stack levels required when called:    3
 10854 ;; This function calls:
 10855 ;;		___lldiv
 10856 ;; This function is called by:
 10857 ;;		_setup
 10858 ;; This function uses a non-reentrant model
 10859 ;;
 10860                           
 10861                           
 10862                           ;psect for function _I2C_Master_Init
 10863  0000'                    _I2C_Master_Init:
 10864  0000'                    l4235:	
 10865                           ;incstack = 0
 10866                           ; Regs used in _I2C_Master_Init: [wreg+status,2+status,0+pclath+cstack]
 10867                           
 10868                           
 10869                           ;I2C_LIB.c: 16: void I2C_Master_Init(const unsigned long c);I2C_LIB.c: 17: {;I2C_LIB.c: 
      +                          18:     SSPCON2 = 0;
 10870  0000' 1683               	bsf	3,5	;RP0=1, select bank1
 10871  0001' 1303               	bcf	3,6	;RP1=0, select bank1
 10872  0002' 0191               	clrf	17	;volatile
 10873  0003'                    l4237:
 10874                           
 10875                           ;I2C_LIB.c: 19:     SSPADD = (8000000/(4*c))-1;
 10876  0003' 1283               	bcf	3,5	;RP0=0, select bank0
 10877  0004' 1303               	bcf	3,6	;RP1=0, select bank0
 10878  0005' 0806'              	movf	I2C_Master_Init@c,w
 10879  0006' 008A'              	movwf	??_I2C_Master_Init
 10880  0007' 0807'              	movf	I2C_Master_Init@c+1,w
 10881  0008' 008B'              	movwf	??_I2C_Master_Init+1
 10882  0009' 0808'              	movf	I2C_Master_Init@c+2,w
 10883  000A' 008C'              	movwf	??_I2C_Master_Init+2
 10884  000B' 0809'              	movf	I2C_Master_Init@c+3,w
 10885  000C' 008D'              	movwf	??_I2C_Master_Init+3
 10886  000D' 3002               	movlw	2
 10887  000E'                    u6705:
 10888  000E' 1003               	clrc
 10889  000F' 0D8A'              	rlf	??_I2C_Master_Init,f
 10890  0010' 0D8B'              	rlf	??_I2C_Master_Init+1,f
 10891  0011' 0D8C'              	rlf	??_I2C_Master_Init+2,f
 10892  0012' 0D8D'              	rlf	??_I2C_Master_Init+3,f
 10893  0013'                    u6700:
 10894  0013' 3EFF               	addlw	-1
 10895  0014' 1D03               	skipz
 10896  0015' 2800'              	goto	u6705
 10897  0016' 080D'              	movf	??_I2C_Master_Init+3,w
 10898  0017' 0085'              	movwf	___lldiv@divisor+3
 10899  0018' 080C'              	movf	??_I2C_Master_Init+2,w
 10900  0019' 0084'              	movwf	___lldiv@divisor+2
 10901  001A' 080B'              	movf	??_I2C_Master_Init+1,w
 10902  001B' 0083'              	movwf	___lldiv@divisor+1
 10903  001C' 080A'              	movf	??_I2C_Master_Init,w
 10904  001D' 0082'              	movwf	___lldiv@divisor
 10905  001E' 3000               	movlw	0
 10906  001F' 0089'              	movwf	___lldiv@dividend+3
 10907  0020' 307A               	movlw	122
 10908  0021' 0088'              	movwf	___lldiv@dividend+2
 10909  0022' 3012               	movlw	18
 10910  0023' 0087'              	movwf	___lldiv@dividend+1
 10911  0024' 3000               	movlw	0
 10912  0025' 0086'              	movwf	___lldiv@dividend
 10913  0026' 120A' 118A' 2000' 120A' 118A' 	fcall	___lldiv
 10914  002B' 0802'              	movf	?___lldiv,w
 10915  002C' 3EFF               	addlw	255
 10916  002D' 1683               	bsf	3,5	;RP0=1, select bank1
 10917  002E' 1303               	bcf	3,6	;RP1=0, select bank1
 10918  002F' 0093               	movwf	19	;volatile
 10919  0030'                    l4239:
 10920                           
 10921                           ;I2C_LIB.c: 20:     SSPSTAT = 0;
 10922  0030' 0194               	clrf	20	;volatile
 10923  0031'                    l4241:
 10924                           
 10925                           ;I2C_LIB.c: 21:     TRISCbits.TRISC3 = 1;
 10926  0031' 1587               	bsf	7,3	;volatile
 10927  0032'                    l4243:
 10928                           
 10929                           ;I2C_LIB.c: 22:     TRISCbits.TRISC4 = 1;
 10930  0032' 1607               	bsf	7,4	;volatile
 10931  0033'                    l4245:
 10932                           
 10933                           ;I2C_LIB.c: 23:     SSPCON = 0b00101000;
 10934  0033' 3028               	movlw	40
 10935  0034' 1283               	bcf	3,5	;RP0=0, select bank0
 10936  0035' 1303               	bcf	3,6	;RP1=0, select bank0
 10937  0036' 0094               	movwf	20	;volatile
 10938  0037'                    l192:
 10939  0037' 0008               	return
 10940  0038'                    __end_of_I2C_Master_Init:
 10941                           
 10942                           	psect	text25
 10943  0000'                    __ptext25:	
 10944 ;; *************** function ___lldiv *****************
 10945 ;; Defined at:
 10946 ;;		line 5 in file "C:\Program Files\Microchip\xc8\v2.31\pic\sources\c90\common\__lldiv.c"
 10947 ;; Parameters:    Size  Location     Type
 10948 ;;  divisor         4    2[COMMON] unsigned long 
 10949 ;;  dividend        4    6[COMMON] unsigned long 
 10950 ;; Auto vars:     Size  Location     Type
 10951 ;;  quotient        4    1[BANK0 ] unsigned long 
 10952 ;;  counter         1    5[BANK0 ] unsigned char 
 10953 ;; Return value:  Size  Location     Type
 10954 ;;                  4    2[COMMON] unsigned long 
 10955 ;; Registers used:
 10956 ;;		wreg, status,2, status,0
 10957 ;; Tracked objects:
 10958 ;;		On entry : 0/0
 10959 ;;		On exit  : 0/0
 10960 ;;		Unchanged: 0/0
 10961 ;; Data sizes:     COMMON   BANK0   BANK1   BANK3   BANK2
 10962 ;;      Params:         8       0       0       0       0
 10963 ;;      Locals:         0       5       0       0       0
 10964 ;;      Temps:          0       1       0       0       0
 10965 ;;      Totals:         8       6       0       0       0
 10966 ;;Total ram usage:       14 bytes
 10967 ;; Hardware stack levels used:    1
 10968 ;; Hardware stack levels required when called:    2
 10969 ;; This function calls:
 10970 ;;		Nothing
 10971 ;; This function is called by:
 10972 ;;		_I2C_Master_Init
 10973 ;;		_sprintf
 10974 ;; This function uses a non-reentrant model
 10975 ;;
 10976                           
 10977                           
 10978                           ;psect for function ___lldiv
 10979  0000'                    ___lldiv:
 10980  0000'                    l4045:	
 10981                           ;incstack = 0
 10982                           ; Regs used in ___lldiv: [wreg+status,2+status,0]
 10983                           
 10984  0000' 3000               	movlw	0
 10985  0001' 1283               	bcf	3,5	;RP0=0, select bank0
 10986  0002' 1303               	bcf	3,6	;RP1=0, select bank0
 10987  0003' 0084'              	movwf	___lldiv@quotient+3
 10988  0004' 3000               	movlw	0
 10989  0005' 0083'              	movwf	___lldiv@quotient+2
 10990  0006' 3000               	movlw	0
 10991  0007' 0082'              	movwf	___lldiv@quotient+1
 10992  0008' 3000               	movlw	0
 10993  0009' 0081'              	movwf	___lldiv@quotient
 10994  000A' 0805'              	movf	___lldiv@divisor+3,w
 10995  000B' 0404'              	iorwf	___lldiv@divisor+2,w
 10996  000C' 0403'              	iorwf	___lldiv@divisor+1,w
 10997  000D' 0402'              	iorwf	___lldiv@divisor,w
 10998  000E' 1903               	skipnz
 10999  000F' 2800'              	goto	u6191
 11000  0010' 2800'              	goto	u6190
 11001  0011'                    u6191:
 11002  0011' 2800'              	goto	l4065
 11003  0012'                    u6190:
 11004  0012'                    l4047:
 11005  0012' 0185'              	clrf	___lldiv@counter
 11006  0013' 0A85'              	incf	___lldiv@counter,f
 11007  0014' 2800'              	goto	l4051
 11008  0015'                    l4049:
 11009  0015' 3001               	movlw	1
 11010  0016' 0080'              	movwf	??___lldiv
 11011  0017'                    u6205:
 11012  0017' 1003               	clrc
 11013  0018' 0D82'              	rlf	___lldiv@divisor,f
 11014  0019' 0D83'              	rlf	___lldiv@divisor+1,f
 11015  001A' 0D84'              	rlf	___lldiv@divisor+2,f
 11016  001B' 0D85'              	rlf	___lldiv@divisor+3,f
 11017  001C' 0B80'              	decfsz	??___lldiv,f
 11018  001D' 2800'              	goto	u6205
 11019  001E' 3001               	movlw	1
 11020  001F' 0080'              	movwf	??___lldiv
 11021  0020' 0800'              	movf	??___lldiv,w
 11022  0021' 0785'              	addwf	___lldiv@counter,f
 11023  0022'                    l4051:
 11024  0022' 1F85'              	btfss	___lldiv@divisor+3,7
 11025  0023' 2800'              	goto	u6211
 11026  0024' 2800'              	goto	u6210
 11027  0025'                    u6211:
 11028  0025' 2800'              	goto	l4049
 11029  0026'                    u6210:
 11030  0026'                    l4053:
 11031  0026' 3001               	movlw	1
 11032  0027' 0080'              	movwf	??___lldiv
 11033  0028'                    u6225:
 11034  0028' 1003               	clrc
 11035  0029' 0D81'              	rlf	___lldiv@quotient,f
 11036  002A' 0D82'              	rlf	___lldiv@quotient+1,f
 11037  002B' 0D83'              	rlf	___lldiv@quotient+2,f
 11038  002C' 0D84'              	rlf	___lldiv@quotient+3,f
 11039  002D' 0B80'              	decfsz	??___lldiv,f
 11040  002E' 2800'              	goto	u6225
 11041  002F'                    l4055:
 11042  002F' 0805'              	movf	___lldiv@divisor+3,w
 11043  0030' 0209'              	subwf	___lldiv@dividend+3,w
 11044  0031' 1D03               	skipz
 11045  0032' 2800'              	goto	u6235
 11046  0033' 0804'              	movf	___lldiv@divisor+2,w
 11047  0034' 0208'              	subwf	___lldiv@dividend+2,w
 11048  0035' 1D03               	skipz
 11049  0036' 2800'              	goto	u6235
 11050  0037' 0803'              	movf	___lldiv@divisor+1,w
 11051  0038' 0207'              	subwf	___lldiv@dividend+1,w
 11052  0039' 1D03               	skipz
 11053  003A' 2800'              	goto	u6235
 11054  003B' 0802'              	movf	___lldiv@divisor,w
 11055  003C' 0206'              	subwf	___lldiv@dividend,w
 11056  003D'                    u6235:
 11057  003D' 1C03               	skipc
 11058  003E' 2800'              	goto	u6231
 11059  003F' 2800'              	goto	u6230
 11060  0040'                    u6231:
 11061  0040' 2800'              	goto	l4061
 11062  0041'                    u6230:
 11063  0041'                    l4057:
 11064  0041' 0802'              	movf	___lldiv@divisor,w
 11065  0042' 0286'              	subwf	___lldiv@dividend,f
 11066  0043' 0803'              	movf	___lldiv@divisor+1,w
 11067  0044' 1C03               	skipc
 11068  0045' 0F03'              	incfsz	___lldiv@divisor+1,w
 11069  0046' 0287'              	subwf	___lldiv@dividend+1,f
 11070  0047' 0804'              	movf	___lldiv@divisor+2,w
 11071  0048' 1C03               	skipc
 11072  0049' 0F04'              	incfsz	___lldiv@divisor+2,w
 11073  004A' 0288'              	subwf	___lldiv@dividend+2,f
 11074  004B' 0805'              	movf	___lldiv@divisor+3,w
 11075  004C' 1C03               	skipc
 11076  004D' 0F05'              	incfsz	___lldiv@divisor+3,w
 11077  004E' 0289'              	subwf	___lldiv@dividend+3,f
 11078  004F'                    l4059:
 11079  004F' 1401'              	bsf	___lldiv@quotient,0
 11080  0050'                    l4061:
 11081  0050' 3001               	movlw	1
 11082  0051'                    u6245:
 11083  0051' 1003               	clrc
 11084  0052' 0C85'              	rrf	___lldiv@divisor+3,f
 11085  0053' 0C84'              	rrf	___lldiv@divisor+2,f
 11086  0054' 0C83'              	rrf	___lldiv@divisor+1,f
 11087  0055' 0C82'              	rrf	___lldiv@divisor,f
 11088  0056' 3EFF               	addlw	-1
 11089  0057' 1D03               	skipz
 11090  0058' 2800'              	goto	u6245
 11091  0059'                    l4063:
 11092  0059' 3001               	movlw	1
 11093  005A' 0285'              	subwf	___lldiv@counter,f
 11094  005B' 1D03               	btfss	3,2
 11095  005C' 2800'              	goto	u6251
 11096  005D' 2800'              	goto	u6250
 11097  005E'                    u6251:
 11098  005E' 2800'              	goto	l4053
 11099  005F'                    u6250:
 11100  005F'                    l4065:
 11101  005F' 0804'              	movf	___lldiv@quotient+3,w
 11102  0060' 0085'              	movwf	?___lldiv+3
 11103  0061' 0803'              	movf	___lldiv@quotient+2,w
 11104  0062' 0084'              	movwf	?___lldiv+2
 11105  0063' 0802'              	movf	___lldiv@quotient+1,w
 11106  0064' 0083'              	movwf	?___lldiv+1
 11107  0065' 0801'              	movf	___lldiv@quotient,w
 11108  0066' 0082'              	movwf	?___lldiv
 11109  0067'                    l480:
 11110  0067' 0008               	return
 11111  0068'                    __end_of___lldiv:
 11112                           
 11113                           	psect	text26
 11114  0000'                    __ptext26:	
 11115 ;; *************** function _osc_config *****************
 11116 ;; Defined at:
 11117 ;;		line 201 in file "MAIN_I2C.c"
 11118 ;; Parameters:    Size  Location     Type
 11119 ;;		None
 11120 ;; Auto vars:     Size  Location     Type
 11121 ;;		None
 11122 ;; Return value:  Size  Location     Type
 11123 ;;                  1    wreg      void 
 11124 ;; Registers used:
 11125 ;;		None
 11126 ;; Tracked objects:
 11127 ;;		On entry : 0/0
 11128 ;;		On exit  : 0/0
 11129 ;;		Unchanged: 0/0
 11130 ;; Data sizes:     COMMON   BANK0   BANK1   BANK3   BANK2
 11131 ;;      Params:         0       0       0       0       0
 11132 ;;      Locals:         0       0       0       0       0
 11133 ;;      Temps:          0       0       0       0       0
 11134 ;;      Totals:         0       0       0       0       0
 11135 ;;Total ram usage:        0 bytes
 11136 ;; Hardware stack levels used:    1
 11137 ;; Hardware stack levels required when called:    2
 11138 ;; This function calls:
 11139 ;;		Nothing
 11140 ;; This function is called by:
 11141 ;;		_main
 11142 ;; This function uses a non-reentrant model
 11143 ;;
 11144                           
 11145                           
 11146                           ;psect for function _osc_config
 11147  0000'                    _osc_config:
 11148  0000'                    l3495:	
 11149                           ;incstack = 0
 11150                           ; Regs used in _osc_config: []
 11151                           
 11152                           
 11153                           ;MAIN_I2C.c: 203: 
 11154  0000' 1683               	bsf	3,5	;RP0=1, select bank1
 11155  0001' 1303               	bcf	3,6	;RP1=0, select bank1
 11156  0002' 170F               	bsf	15,6	;volatile
 11157                           
 11158                           ;MAIN_I2C.c: 204: char leer_char(void)
 11159  0003' 168F               	bsf	15,5	;volatile
 11160                           
 11161                           ;MAIN_I2C.c: 205: {
 11162  0004' 160F               	bsf	15,4	;volatile
 11163                           
 11164                           ;MAIN_I2C.c: 206:     if (RCSTAbits.OERR ==0)
 11165  0005' 118F               	bcf	15,3	;volatile
 11166                           
 11167                           ;MAIN_I2C.c: 207:     {
 11168  0006' 110F               	bcf	15,2	;volatile
 11169                           
 11170                           ;MAIN_I2C.c: 208:         CREN = 0;
 11171  0007' 148F               	bsf	15,1	;volatile
 11172                           
 11173                           ;MAIN_I2C.c: 209:         __nop();
 11174  0008' 100F               	bcf	15,0	;volatile
 11175  0009'                    l121:
 11176  0009' 0008               	return
 11177  000A'                    __end_of_osc_config:
 11178                           
 11179                           	psect	text27
 11180  0000'                    __ptext27:	
 11181 ;; *************** function _interrup_config *****************
 11182 ;; Defined at:
 11183 ;;		line 188 in file "MAIN_I2C.c"
 11184 ;; Parameters:    Size  Location     Type
 11185 ;;		None
 11186 ;; Auto vars:     Size  Location     Type
 11187 ;;		None
 11188 ;; Return value:  Size  Location     Type
 11189 ;;                  1    wreg      void 
 11190 ;; Registers used:
 11191 ;;		status,2
 11192 ;; Tracked objects:
 11193 ;;		On entry : 0/0
 11194 ;;		On exit  : 0/0
 11195 ;;		Unchanged: 0/0
 11196 ;; Data sizes:     COMMON   BANK0   BANK1   BANK3   BANK2
 11197 ;;      Params:         0       0       0       0       0
 11198 ;;      Locals:         0       0       0       0       0
 11199 ;;      Temps:          0       0       0       0       0
 11200 ;;      Totals:         0       0       0       0       0
 11201 ;;Total ram usage:        0 bytes
 11202 ;; Hardware stack levels used:    1
 11203 ;; Hardware stack levels required when called:    2
 11204 ;; This function calls:
 11205 ;;		Nothing
 11206 ;; This function is called by:
 11207 ;;		_main
 11208 ;; This function uses a non-reentrant model
 11209 ;;
 11210                           
 11211                           
 11212                           ;psect for function _interrup_config
 11213  0000'                    _interrup_config:
 11214  0000'                    l3497:	
 11215                           ;incstack = 0
 11216                           ; Regs used in _interrup_config: [status,2]
 11217                           
 11218                           
 11219                           ;MAIN_I2C.c: 190:     TXREG = valor;
 11220  0000' 178B               	bsf	11,7	;volatile
 11221                           
 11222                           ;MAIN_I2C.c: 191:     while (PIR1bits.TXIF == 0);
 11223  0001' 170B               	bsf	11,6	;volatile
 11224                           
 11225                           ;MAIN_I2C.c: 192: }
 11226  0002' 168B               	bsf	11,5	;volatile
 11227                           
 11228                           ;MAIN_I2C.c: 193: 
 11229  0003' 120B               	bcf	11,4	;volatile
 11230                           
 11231                           ;MAIN_I2C.c: 194: 
 11232  0004' 118B               	bcf	11,3	;volatile
 11233                           
 11234                           ;MAIN_I2C.c: 195: void USART_SendString(const char *str)
 11235  0005' 110B               	bcf	11,2	;volatile
 11236                           
 11237                           ;MAIN_I2C.c: 196: {
 11238  0006' 108B               	bcf	11,1	;volatile
 11239                           
 11240                           ;MAIN_I2C.c: 197:    while(*str!='\0')
 11241  0007' 100B               	bcf	11,0	;volatile
 11242  0008'                    l3499:
 11243                           
 11244                           ;MAIN_I2C.c: 198:    {
 11245  0008' 1683               	bsf	3,5	;RP0=1, select bank1
 11246  0009' 1303               	bcf	3,6	;RP1=0, select bank1
 11247  000A' 0196               	clrf	22	;volatile
 11248  000B'                    l118:
 11249  000B' 0008               	return
 11250  000C'                    __end_of_interrup_config:
 11251                           
 11252                           	psect	text28
 11253  0000'                    __ptext28:	
 11254 ;; *************** function ___fldiv *****************
 11255 ;; Defined at:
 11256 ;;		line 8 in file "C:\Program Files\Microchip\xc8\v2.31\pic\sources\c90\common\sprcdiv.c"
 11257 ;; Parameters:    Size  Location     Type
 11258 ;;  a               4    6[BANK0 ] void 
 11259 ;;  b               4   10[BANK0 ] void 
 11260 ;; Auto vars:     Size  Location     Type
 11261 ;;  grs             4   26[BANK0 ] unsigned long 
 11262 ;;  rem             4   19[BANK0 ] unsigned long 
 11263 ;;  new_exp         2   24[BANK0 ] int 
 11264 ;;  aexp            1   31[BANK0 ] unsigned char 
 11265 ;;  bexp            1   30[BANK0 ] unsigned char 
 11266 ;;  sign            1   23[BANK0 ] unsigned char 
 11267 ;; Return value:  Size  Location     Type
 11268 ;;                  4    6[BANK0 ] unsigned char 
 11269 ;; Registers used:
 11270 ;;		wreg, status,2, status,0, btemp+1
 11271 ;; Tracked objects:
 11272 ;;		On entry : 0/0
 11273 ;;		On exit  : 0/0
 11274 ;;		Unchanged: 0/0
 11275 ;; Data sizes:     COMMON   BANK0   BANK1   BANK3   BANK2
 11276 ;;      Params:         0       8       0       0       0
 11277 ;;      Locals:         0      13       0       0       0
 11278 ;;      Temps:          0       5       0       0       0
 11279 ;;      Totals:         0      26       0       0       0
 11280 ;;Total ram usage:       26 bytes
 11281 ;; Hardware stack levels used:    1
 11282 ;; Hardware stack levels required when called:    2
 11283 ;; This function calls:
 11284 ;;		Nothing
 11285 ;; This function is called by:
 11286 ;;		_main
 11287 ;; This function uses a non-reentrant model
 11288 ;;
 11289                           
 11290                           
 11291                           ;psect for function ___fldiv
 11292  0000'                    ___fldiv:
 11293  0000'                    l3769:	
 11294                           ;incstack = 0
 11295                           ; Regs used in ___fldiv: [wreg+status,2+status,0+btemp+1]
 11296                           
 11297  0000' 1283               	bcf	3,5	;RP0=0, select bank0
 11298  0001' 1303               	bcf	3,6	;RP1=0, select bank0
 11299  0002' 080D'              	movf	___fldiv@b+3,w
 11300  0003' 3980               	andlw	128
 11301  0004' 008E'              	movwf	??___fldiv
 11302  0005' 080E'              	movf	??___fldiv,w
 11303  0006' 0097'              	movwf	___fldiv@sign
 11304  0007'                    l3771:
 11305  0007' 080D'              	movf	___fldiv@b+3,w
 11306  0008' 008E'              	movwf	??___fldiv
 11307  0009' 070E'              	addwf	??___fldiv,w
 11308  000A' 008F'              	movwf	??___fldiv+1
 11309  000B' 080F'              	movf	??___fldiv+1,w
 11310  000C' 009E'              	movwf	___fldiv@bexp
 11311  000D'                    l3773:
 11312  000D' 1F8C'              	btfss	___fldiv@b+2,7
 11313  000E' 2800'              	goto	u5861
 11314  000F' 2800'              	goto	u5860
 11315  0010'                    u5861:
 11316  0010' 2800'              	goto	l3777
 11317  0011'                    u5860:
 11318  0011'                    l3775:
 11319  0011' 141E'              	bsf	___fldiv@bexp,0
 11320  0012'                    l3777:
 11321  0012' 081E'              	movf	___fldiv@bexp,w
 11322  0013' 1903               	btfsc	3,2
 11323  0014' 2800'              	goto	u5871
 11324  0015' 2800'              	goto	u5870
 11325  0016'                    u5871:
 11326  0016' 2800'              	goto	l3787
 11327  0017'                    u5870:
 11328  0017'                    l3779:
 11329  0017' 0A1E'              	incf	___fldiv@bexp,w
 11330  0018' 1D03               	btfss	3,2
 11331  0019' 2800'              	goto	u5881
 11332  001A' 2800'              	goto	u5880
 11333  001B'                    u5881:
 11334  001B' 2800'              	goto	l3783
 11335  001C'                    u5880:
 11336  001C'                    l3781:
 11337  001C' 3000               	movlw	0
 11338  001D' 008D'              	movwf	___fldiv@b+3
 11339  001E' 3000               	movlw	0
 11340  001F' 008C'              	movwf	___fldiv@b+2
 11341  0020' 3000               	movlw	0
 11342  0021' 008B'              	movwf	___fldiv@b+1
 11343  0022' 3000               	movlw	0
 11344  0023' 008A'              	movwf	___fldiv@b
 11345  0024'                    l3783:
 11346  0024' 178C'              	bsf	___fldiv@b+2,7
 11347  0025'                    l3785:
 11348  0025' 018D'              	clrf	___fldiv@b+3
 11349  0026' 2800'              	goto	l3789
 11350  0027'                    l3787:
 11351  0027' 3000               	movlw	0
 11352  0028' 008D'              	movwf	___fldiv@b+3
 11353  0029' 3000               	movlw	0
 11354  002A' 008C'              	movwf	___fldiv@b+2
 11355  002B' 3000               	movlw	0
 11356  002C' 008B'              	movwf	___fldiv@b+1
 11357  002D' 3000               	movlw	0
 11358  002E' 008A'              	movwf	___fldiv@b
 11359  002F'                    l3789:
 11360  002F' 0809'              	movf	___fldiv@a+3,w
 11361  0030' 3980               	andlw	128
 11362  0031' 008E'              	movwf	??___fldiv
 11363  0032' 080E'              	movf	??___fldiv,w
 11364  0033' 0697'              	xorwf	___fldiv@sign,f
 11365  0034'                    l3791:
 11366  0034' 0809'              	movf	___fldiv@a+3,w
 11367  0035' 008E'              	movwf	??___fldiv
 11368  0036' 070E'              	addwf	??___fldiv,w
 11369  0037' 008F'              	movwf	??___fldiv+1
 11370  0038' 080F'              	movf	??___fldiv+1,w
 11371  0039' 009F'              	movwf	___fldiv@aexp
 11372  003A'                    l3793:
 11373  003A' 1F88'              	btfss	___fldiv@a+2,7
 11374  003B' 2800'              	goto	u5891
 11375  003C' 2800'              	goto	u5890
 11376  003D'                    u5891:
 11377  003D' 2800'              	goto	l3797
 11378  003E'                    u5890:
 11379  003E'                    l3795:
 11380  003E' 141F'              	bsf	___fldiv@aexp,0
 11381  003F'                    l3797:
 11382  003F' 081F'              	movf	___fldiv@aexp,w
 11383  0040' 1903               	btfsc	3,2
 11384  0041' 2800'              	goto	u5901
 11385  0042' 2800'              	goto	u5900
 11386  0043'                    u5901:
 11387  0043' 2800'              	goto	l3807
 11388  0044'                    u5900:
 11389  0044'                    l3799:
 11390  0044' 0A1F'              	incf	___fldiv@aexp,w
 11391  0045' 1D03               	btfss	3,2
 11392  0046' 2800'              	goto	u5911
 11393  0047' 2800'              	goto	u5910
 11394  0048'                    u5911:
 11395  0048' 2800'              	goto	l3803
 11396  0049'                    u5910:
 11397  0049'                    l3801:
 11398  0049' 3000               	movlw	0
 11399  004A' 0089'              	movwf	___fldiv@a+3
 11400  004B' 3000               	movlw	0
 11401  004C' 0088'              	movwf	___fldiv@a+2
 11402  004D' 3000               	movlw	0
 11403  004E' 0087'              	movwf	___fldiv@a+1
 11404  004F' 3000               	movlw	0
 11405  0050' 0086'              	movwf	___fldiv@a
 11406  0051'                    l3803:
 11407  0051' 1788'              	bsf	___fldiv@a+2,7
 11408  0052'                    l3805:
 11409  0052' 0189'              	clrf	___fldiv@a+3
 11410  0053' 2800'              	goto	l827
 11411  0054'                    l3807:
 11412  0054' 3000               	movlw	0
 11413  0055' 0089'              	movwf	___fldiv@a+3
 11414  0056' 3000               	movlw	0
 11415  0057' 0088'              	movwf	___fldiv@a+2
 11416  0058' 3000               	movlw	0
 11417  0059' 0087'              	movwf	___fldiv@a+1
 11418  005A' 3000               	movlw	0
 11419  005B' 0086'              	movwf	___fldiv@a
 11420  005C'                    l827:
 11421  005C' 0809'              	movf	___fldiv@a+3,w
 11422  005D' 0408'              	iorwf	___fldiv@a+2,w
 11423  005E' 0407'              	iorwf	___fldiv@a+1,w
 11424  005F' 0406'              	iorwf	___fldiv@a,w
 11425  0060' 1D03               	skipz
 11426  0061' 2800'              	goto	u5921
 11427  0062' 2800'              	goto	u5920
 11428  0063'                    u5921:
 11429  0063' 2800'              	goto	l3817
 11430  0064'                    u5920:
 11431  0064'                    l3809:
 11432  0064' 3000               	movlw	0
 11433  0065' 008D'              	movwf	___fldiv@b+3
 11434  0066' 3000               	movlw	0
 11435  0067' 008C'              	movwf	___fldiv@b+2
 11436  0068' 3000               	movlw	0
 11437  0069' 008B'              	movwf	___fldiv@b+1
 11438  006A' 3000               	movlw	0
 11439  006B' 008A'              	movwf	___fldiv@b
 11440  006C' 3080               	movlw	128
 11441  006D' 048C'              	iorwf	___fldiv@b+2,f
 11442  006E' 307F               	movlw	127
 11443  006F' 048D'              	iorwf	___fldiv@b+3,f
 11444  0070'                    l3811:
 11445  0070' 0817'              	movf	___fldiv@sign,w
 11446  0071' 008E'              	movwf	??___fldiv
 11447  0072' 080E'              	movf	??___fldiv,w
 11448  0073' 048D'              	iorwf	___fldiv@b+3,f
 11449  0074'                    l3813:
 11450  0074' 080D'              	movf	___fldiv@b+3,w
 11451  0075' 0089'              	movwf	?___fldiv+3
 11452  0076' 080C'              	movf	___fldiv@b+2,w
 11453  0077' 0088'              	movwf	?___fldiv+2
 11454  0078' 080B'              	movf	___fldiv@b+1,w
 11455  0079' 0087'              	movwf	?___fldiv+1
 11456  007A' 080A'              	movf	___fldiv@b,w
 11457  007B' 0086'              	movwf	?___fldiv
 11458  007C' 2800'              	goto	l829
 11459  007D'                    l3817:
 11460  007D' 081E'              	movf	___fldiv@bexp,w
 11461  007E' 1D03               	btfss	3,2
 11462  007F' 2800'              	goto	u5931
 11463  0080' 2800'              	goto	u5930
 11464  0081'                    u5931:
 11465  0081' 2800'              	goto	l3823
 11466  0082'                    u5930:
 11467  0082'                    l3819:
 11468  0082' 3000               	movlw	0
 11469  0083' 0089'              	movwf	?___fldiv+3
 11470  0084' 3000               	movlw	0
 11471  0085' 0088'              	movwf	?___fldiv+2
 11472  0086' 3000               	movlw	0
 11473  0087' 0087'              	movwf	?___fldiv+1
 11474  0088' 3000               	movlw	0
 11475  0089' 0086'              	movwf	?___fldiv
 11476  008A' 2800'              	goto	l829
 11477  008B'                    l3823:
 11478  008B' 081E'              	movf	___fldiv@bexp,w
 11479  008C' 008E'              	movwf	??___fldiv
 11480  008D' 018F'              	clrf	??___fldiv+1
 11481  008E' 080F'              	movf	??___fldiv+1,w
 11482  008F' 0091'              	movwf	??___fldiv+3
 11483  0090' 081F'              	movf	___fldiv@aexp,w
 11484  0091' 020E'              	subwf	??___fldiv,w
 11485  0092' 0090'              	movwf	??___fldiv+2
 11486  0093' 1C03               	skipc
 11487  0094' 0391'              	decf	??___fldiv+3,f
 11488  0095' 0810'              	movf	??___fldiv+2,w
 11489  0096' 3E7F               	addlw	127
 11490  0097' 0098'              	movwf	___fldiv@new_exp
 11491  0098' 0811'              	movf	??___fldiv+3,w
 11492  0099' 1803               	skipnc
 11493  009A' 3E01               	addlw	1
 11494  009B' 3E00               	addlw	0
 11495  009C' 0099'              	movwf	___fldiv@new_exp+1
 11496  009D'                    l3825:
 11497  009D' 080D'              	movf	___fldiv@b+3,w
 11498  009E' 0096'              	movwf	___fldiv@rem+3
 11499  009F' 080C'              	movf	___fldiv@b+2,w
 11500  00A0' 0095'              	movwf	___fldiv@rem+2
 11501  00A1' 080B'              	movf	___fldiv@b+1,w
 11502  00A2' 0094'              	movwf	___fldiv@rem+1
 11503  00A3' 080A'              	movf	___fldiv@b,w
 11504  00A4' 0093'              	movwf	___fldiv@rem
 11505  00A5'                    l3827:
 11506  00A5' 3000               	movlw	0
 11507  00A6' 008D'              	movwf	___fldiv@b+3
 11508  00A7' 3000               	movlw	0
 11509  00A8' 008C'              	movwf	___fldiv@b+2
 11510  00A9' 3000               	movlw	0
 11511  00AA' 008B'              	movwf	___fldiv@b+1
 11512  00AB' 3000               	movlw	0
 11513  00AC' 008A'              	movwf	___fldiv@b
 11514  00AD'                    l3829:
 11515  00AD' 3000               	movlw	0
 11516  00AE' 009D'              	movwf	___fldiv@grs+3
 11517  00AF' 3000               	movlw	0
 11518  00B0' 009C'              	movwf	___fldiv@grs+2
 11519  00B1' 3000               	movlw	0
 11520  00B2' 009B'              	movwf	___fldiv@grs+1
 11521  00B3' 3000               	movlw	0
 11522  00B4' 009A'              	movwf	___fldiv@grs
 11523  00B5'                    l3831:
 11524  00B5' 019F'              	clrf	___fldiv@aexp
 11525  00B6' 2800'              	goto	l3851
 11526  00B7'                    l3833:
 11527  00B7' 081F'              	movf	___fldiv@aexp,w
 11528  00B8' 1903               	btfsc	3,2
 11529  00B9' 2800'              	goto	u5941
 11530  00BA' 2800'              	goto	u5940
 11531  00BB'                    u5941:
 11532  00BB' 2800'              	goto	l3843
 11533  00BC'                    u5940:
 11534  00BC'                    l3835:
 11535  00BC' 3001               	movlw	1
 11536  00BD' 008E'              	movwf	??___fldiv
 11537  00BE'                    u5955:
 11538  00BE' 1003               	clrc
 11539  00BF' 0D93'              	rlf	___fldiv@rem,f
 11540  00C0' 0D94'              	rlf	___fldiv@rem+1,f
 11541  00C1' 0D95'              	rlf	___fldiv@rem+2,f
 11542  00C2' 0D96'              	rlf	___fldiv@rem+3,f
 11543  00C3' 0B8E'              	decfsz	??___fldiv,f
 11544  00C4' 2800'              	goto	u5955
 11545  00C5' 3001               	movlw	1
 11546  00C6' 008E'              	movwf	??___fldiv
 11547  00C7'                    u5965:
 11548  00C7' 1003               	clrc
 11549  00C8' 0D8A'              	rlf	___fldiv@b,f
 11550  00C9' 0D8B'              	rlf	___fldiv@b+1,f
 11551  00CA' 0D8C'              	rlf	___fldiv@b+2,f
 11552  00CB' 0D8D'              	rlf	___fldiv@b+3,f
 11553  00CC' 0B8E'              	decfsz	??___fldiv,f
 11554  00CD' 2800'              	goto	u5965
 11555  00CE'                    l3837:
 11556  00CE' 1F9D'              	btfss	___fldiv@grs+3,7
 11557  00CF' 2800'              	goto	u5971
 11558  00D0' 2800'              	goto	u5970
 11559  00D1'                    u5971:
 11560  00D1' 2800'              	goto	l3841
 11561  00D2'                    u5970:
 11562  00D2'                    l3839:
 11563  00D2' 140A'              	bsf	___fldiv@b,0
 11564  00D3'                    l3841:
 11565  00D3' 3001               	movlw	1
 11566  00D4' 008E'              	movwf	??___fldiv
 11567  00D5'                    u5985:
 11568  00D5' 1003               	clrc
 11569  00D6' 0D9A'              	rlf	___fldiv@grs,f
 11570  00D7' 0D9B'              	rlf	___fldiv@grs+1,f
 11571  00D8' 0D9C'              	rlf	___fldiv@grs+2,f
 11572  00D9' 0D9D'              	rlf	___fldiv@grs+3,f
 11573  00DA' 0B8E'              	decfsz	??___fldiv,f
 11574  00DB' 2800'              	goto	u5985
 11575  00DC'                    l3843:
 11576  00DC' 0809'              	movf	___fldiv@a+3,w
 11577  00DD' 0216'              	subwf	___fldiv@rem+3,w
 11578  00DE' 1D03               	skipz
 11579  00DF' 2800'              	goto	u5995
 11580  00E0' 0808'              	movf	___fldiv@a+2,w
 11581  00E1' 0215'              	subwf	___fldiv@rem+2,w
 11582  00E2' 1D03               	skipz
 11583  00E3' 2800'              	goto	u5995
 11584  00E4' 0807'              	movf	___fldiv@a+1,w
 11585  00E5' 0214'              	subwf	___fldiv@rem+1,w
 11586  00E6' 1D03               	skipz
 11587  00E7' 2800'              	goto	u5995
 11588  00E8' 0806'              	movf	___fldiv@a,w
 11589  00E9' 0213'              	subwf	___fldiv@rem,w
 11590  00EA'                    u5995:
 11591  00EA' 1C03               	skipc
 11592  00EB' 2800'              	goto	u5991
 11593  00EC' 2800'              	goto	u5990
 11594  00ED'                    u5991:
 11595  00ED' 2800'              	goto	l3849
 11596  00EE'                    u5990:
 11597  00EE'                    l3845:
 11598  00EE' 171D'              	bsf	___fldiv@grs+3,6
 11599  00EF'                    l3847:
 11600  00EF' 0806'              	movf	___fldiv@a,w
 11601  00F0' 0293'              	subwf	___fldiv@rem,f
 11602  00F1' 0807'              	movf	___fldiv@a+1,w
 11603  00F2' 1C03               	skipc
 11604  00F3' 0F07'              	incfsz	___fldiv@a+1,w
 11605  00F4' 0294'              	subwf	___fldiv@rem+1,f
 11606  00F5' 0808'              	movf	___fldiv@a+2,w
 11607  00F6' 1C03               	skipc
 11608  00F7' 0F08'              	incfsz	___fldiv@a+2,w
 11609  00F8' 0295'              	subwf	___fldiv@rem+2,f
 11610  00F9' 0809'              	movf	___fldiv@a+3,w
 11611  00FA' 1C03               	skipc
 11612  00FB' 0F09'              	incfsz	___fldiv@a+3,w
 11613  00FC' 0296'              	subwf	___fldiv@rem+3,f
 11614  00FD'                    l3849:
 11615  00FD' 3001               	movlw	1
 11616  00FE' 008E'              	movwf	??___fldiv
 11617  00FF' 080E'              	movf	??___fldiv,w
 11618  0100' 079F'              	addwf	___fldiv@aexp,f
 11619  0101'                    l3851:
 11620  0101' 301A               	movlw	26
 11621  0102' 021F'              	subwf	___fldiv@aexp,w
 11622  0103' 1C03               	skipc
 11623  0104' 2800'              	goto	u6001
 11624  0105' 2800'              	goto	u6000
 11625  0106'                    u6001:
 11626  0106' 2800'              	goto	l3833
 11627  0107'                    u6000:
 11628  0107'                    l3853:
 11629  0107' 0816'              	movf	___fldiv@rem+3,w
 11630  0108' 0415'              	iorwf	___fldiv@rem+2,w
 11631  0109' 0414'              	iorwf	___fldiv@rem+1,w
 11632  010A' 0413'              	iorwf	___fldiv@rem,w
 11633  010B' 1903               	skipnz
 11634  010C' 2800'              	goto	u6011
 11635  010D' 2800'              	goto	u6010
 11636  010E'                    u6011:
 11637  010E' 2800'              	goto	l3867
 11638  010F'                    u6010:
 11639  010F'                    l3855:
 11640  010F' 141A'              	bsf	___fldiv@grs,0
 11641  0110' 2800'              	goto	l3867
 11642  0111'                    l3857:
 11643  0111' 3001               	movlw	1
 11644  0112' 008E'              	movwf	??___fldiv
 11645  0113'                    u6025:
 11646  0113' 1003               	clrc
 11647  0114' 0D8A'              	rlf	___fldiv@b,f
 11648  0115' 0D8B'              	rlf	___fldiv@b+1,f
 11649  0116' 0D8C'              	rlf	___fldiv@b+2,f
 11650  0117' 0D8D'              	rlf	___fldiv@b+3,f
 11651  0118' 0B8E'              	decfsz	??___fldiv,f
 11652  0119' 2800'              	goto	u6025
 11653  011A'                    l3859:
 11654  011A' 1F9D'              	btfss	___fldiv@grs+3,7
 11655  011B' 2800'              	goto	u6031
 11656  011C' 2800'              	goto	u6030
 11657  011D'                    u6031:
 11658  011D' 2800'              	goto	l3863
 11659  011E'                    u6030:
 11660  011E'                    l3861:
 11661  011E' 140A'              	bsf	___fldiv@b,0
 11662  011F'                    l3863:
 11663  011F' 3001               	movlw	1
 11664  0120' 008E'              	movwf	??___fldiv
 11665  0121'                    u6045:
 11666  0121' 1003               	clrc
 11667  0122' 0D9A'              	rlf	___fldiv@grs,f
 11668  0123' 0D9B'              	rlf	___fldiv@grs+1,f
 11669  0124' 0D9C'              	rlf	___fldiv@grs+2,f
 11670  0125' 0D9D'              	rlf	___fldiv@grs+3,f
 11671  0126' 0B8E'              	decfsz	??___fldiv,f
 11672  0127' 2800'              	goto	u6045
 11673  0128'                    l3865:
 11674  0128' 30FF               	movlw	255
 11675  0129' 0798'              	addwf	___fldiv@new_exp,f
 11676  012A' 1803               	skipnc
 11677  012B' 0A99'              	incf	___fldiv@new_exp+1,f
 11678  012C' 30FF               	movlw	255
 11679  012D' 0799'              	addwf	___fldiv@new_exp+1,f
 11680  012E'                    l3867:
 11681  012E' 1F8C'              	btfss	___fldiv@b+2,7
 11682  012F' 2800'              	goto	u6051
 11683  0130' 2800'              	goto	u6050
 11684  0131'                    u6051:
 11685  0131' 2800'              	goto	l3857
 11686  0132'                    u6050:
 11687  0132'                    l3869:
 11688  0132' 019F'              	clrf	___fldiv@aexp
 11689  0133'                    l3871:
 11690  0133' 1F9D'              	btfss	___fldiv@grs+3,7
 11691  0134' 2800'              	goto	u6061
 11692  0135' 2800'              	goto	u6060
 11693  0136'                    u6061:
 11694  0136' 2800'              	goto	l3879
 11695  0137'                    u6060:
 11696  0137'                    l3873:
 11697  0137' 30FF               	movlw	255
 11698  0138' 051A'              	andwf	___fldiv@grs,w
 11699  0139' 008E'              	movwf	??___fldiv
 11700  013A' 30FF               	movlw	255
 11701  013B' 051B'              	andwf	___fldiv@grs+1,w
 11702  013C' 008F'              	movwf	??___fldiv+1
 11703  013D' 30FF               	movlw	255
 11704  013E' 051C'              	andwf	___fldiv@grs+2,w
 11705  013F' 0090'              	movwf	??___fldiv+2
 11706  0140' 307F               	movlw	127
 11707  0141' 051D'              	andwf	___fldiv@grs+3,w
 11708  0142' 0091'              	movwf	??___fldiv+3
 11709  0143' 0811'              	movf	??___fldiv+3,w
 11710  0144' 0410'              	iorwf	??___fldiv+2,w
 11711  0145' 040F'              	iorwf	??___fldiv+1,w
 11712  0146' 040E'              	iorwf	??___fldiv,w
 11713  0147' 1903               	skipnz
 11714  0148' 2800'              	goto	u6071
 11715  0149' 2800'              	goto	u6070
 11716  014A'                    u6071:
 11717  014A' 2800'              	goto	l843
 11718  014B'                    u6070:
 11719  014B'                    l3875:
 11720  014B' 019F'              	clrf	___fldiv@aexp
 11721  014C' 0A9F'              	incf	___fldiv@aexp,f
 11722  014D' 2800'              	goto	l3879
 11723  014E'                    l843:
 11724  014E' 1C0A'              	btfss	___fldiv@b,0
 11725  014F' 2800'              	goto	u6081
 11726  0150' 2800'              	goto	u6080
 11727  0151'                    u6081:
 11728  0151' 2800'              	goto	l3879
 11729  0152'                    u6080:
 11730  0152' 2800'              	goto	l3875
 11731  0153'                    l3879:
 11732  0153' 081F'              	movf	___fldiv@aexp,w
 11733  0154' 1903               	btfsc	3,2
 11734  0155' 2800'              	goto	u6091
 11735  0156' 2800'              	goto	u6090
 11736  0157'                    u6091:
 11737  0157' 2800'              	goto	l3889
 11738  0158'                    u6090:
 11739  0158'                    l3881:
 11740  0158' 3001               	movlw	1
 11741  0159' 078A'              	addwf	___fldiv@b,f
 11742  015A' 3000               	movlw	0
 11743  015B' 1803               	skipnc
 11744  015C' 3001               	movlw	1
 11745  015D' 078B'              	addwf	___fldiv@b+1,f
 11746  015E' 3000               	movlw	0
 11747  015F' 1803               	skipnc
 11748  0160' 3001               	movlw	1
 11749  0161' 078C'              	addwf	___fldiv@b+2,f
 11750  0162' 3000               	movlw	0
 11751  0163' 1803               	skipnc
 11752  0164' 3001               	movlw	1
 11753  0165' 078D'              	addwf	___fldiv@b+3,f
 11754  0166'                    l3883:
 11755  0166' 1C0D'              	btfss	___fldiv@b+3,0
 11756  0167' 2800'              	goto	u6101
 11757  0168' 2800'              	goto	u6100
 11758  0169'                    u6101:
 11759  0169' 2800'              	goto	l3889
 11760  016A'                    u6100:
 11761  016A'                    l3885:
 11762  016A' 080A'              	movf	___fldiv@b,w
 11763  016B' 008E'              	movwf	??___fldiv
 11764  016C' 080B'              	movf	___fldiv@b+1,w
 11765  016D' 008F'              	movwf	??___fldiv+1
 11766  016E' 080C'              	movf	___fldiv@b+2,w
 11767  016F' 0090'              	movwf	??___fldiv+2
 11768  0170' 080D'              	movf	___fldiv@b+3,w
 11769  0171' 0091'              	movwf	??___fldiv+3
 11770  0172' 3001               	movlw	1
 11771  0173' 0092'              	movwf	??___fldiv+4
 11772  0174'                    u6115:
 11773  0174' 0D11'              	rlf	??___fldiv+3,w
 11774  0175' 0C91'              	rrf	??___fldiv+3,f
 11775  0176' 0C90'              	rrf	??___fldiv+2,f
 11776  0177' 0C8F'              	rrf	??___fldiv+1,f
 11777  0178' 0C8E'              	rrf	??___fldiv,f
 11778  0179'                    u6110:
 11779  0179' 0B92'              	decfsz	??___fldiv+4,f
 11780  017A' 2800'              	goto	u6115
 11781  017B' 0811'              	movf	??___fldiv+3,w
 11782  017C' 008D'              	movwf	___fldiv@b+3
 11783  017D' 0810'              	movf	??___fldiv+2,w
 11784  017E' 008C'              	movwf	___fldiv@b+2
 11785  017F' 080F'              	movf	??___fldiv+1,w
 11786  0180' 008B'              	movwf	___fldiv@b+1
 11787  0181' 080E'              	movf	??___fldiv,w
 11788  0182' 008A'              	movwf	___fldiv@b
 11789  0183'                    l3887:
 11790  0183' 3001               	movlw	1
 11791  0184' 0798'              	addwf	___fldiv@new_exp,f
 11792  0185' 1803               	skipnc
 11793  0186' 0A99'              	incf	___fldiv@new_exp+1,f
 11794  0187' 3000               	movlw	0
 11795  0188' 0799'              	addwf	___fldiv@new_exp+1,f
 11796  0189'                    l3889:
 11797  0189' 0819'              	movf	___fldiv@new_exp+1,w
 11798  018A' 3A80               	xorlw	128
 11799  018B' 00FF               	movwf	btemp+1
 11800  018C' 3080               	movlw	128
 11801  018D' 027F               	subwf	btemp+1,w
 11802  018E' 1D03               	skipz
 11803  018F' 2800'              	goto	u6125
 11804  0190' 30FF               	movlw	255
 11805  0191' 0218'              	subwf	___fldiv@new_exp,w
 11806  0192'                    u6125:
 11807  0192' 1C03               	skipc
 11808  0193' 2800'              	goto	u6121
 11809  0194' 2800'              	goto	u6120
 11810  0195'                    u6121:
 11811  0195' 2800'              	goto	l3893
 11812  0196'                    u6120:
 11813  0196'                    l3891:
 11814  0196' 30FF               	movlw	255
 11815  0197' 1283               	bcf	3,5	;RP0=0, select bank0
 11816  0198' 1303               	bcf	3,6	;RP1=0, select bank0
 11817  0199' 0098'              	movwf	___fldiv@new_exp
 11818  019A' 3000               	movlw	0
 11819  019B' 0099'              	movwf	___fldiv@new_exp+1
 11820  019C' 3000               	movlw	0
 11821  019D' 008D'              	movwf	___fldiv@b+3
 11822  019E' 3000               	movlw	0
 11823  019F' 008C'              	movwf	___fldiv@b+2
 11824  01A0' 3000               	movlw	0
 11825  01A1' 008B'              	movwf	___fldiv@b+1
 11826  01A2' 3000               	movlw	0
 11827  01A3' 008A'              	movwf	___fldiv@b
 11828  01A4'                    l3893:
 11829  01A4' 1283               	bcf	3,5	;RP0=0, select bank0
 11830  01A5' 1303               	bcf	3,6	;RP1=0, select bank0
 11831  01A6' 0819'              	movf	___fldiv@new_exp+1,w
 11832  01A7' 3A80               	xorlw	128
 11833  01A8' 00FF               	movwf	btemp+1
 11834  01A9' 3080               	movlw	128
 11835  01AA' 027F               	subwf	btemp+1,w
 11836  01AB' 1D03               	skipz
 11837  01AC' 2800'              	goto	u6135
 11838  01AD' 3001               	movlw	1
 11839  01AE' 0218'              	subwf	___fldiv@new_exp,w
 11840  01AF'                    u6135:
 11841  01AF' 1803               	skipnc
 11842  01B0' 2800'              	goto	u6131
 11843  01B1' 2800'              	goto	u6130
 11844  01B2'                    u6131:
 11845  01B2' 2800'              	goto	l849
 11846  01B3'                    u6130:
 11847  01B3'                    l3895:
 11848  01B3' 1283               	bcf	3,5	;RP0=0, select bank0
 11849  01B4' 1303               	bcf	3,6	;RP1=0, select bank0
 11850  01B5' 0198'              	clrf	___fldiv@new_exp
 11851  01B6' 0199'              	clrf	___fldiv@new_exp+1
 11852  01B7'                    l3897:
 11853  01B7' 3000               	movlw	0
 11854  01B8' 008D'              	movwf	___fldiv@b+3
 11855  01B9' 3000               	movlw	0
 11856  01BA' 008C'              	movwf	___fldiv@b+2
 11857  01BB' 3000               	movlw	0
 11858  01BC' 008B'              	movwf	___fldiv@b+1
 11859  01BD' 3000               	movlw	0
 11860  01BE' 008A'              	movwf	___fldiv@b
 11861  01BF'                    l3899:
 11862  01BF' 0197'              	clrf	___fldiv@sign
 11863  01C0'                    l849:
 11864  01C0' 1283               	bcf	3,5	;RP0=0, select bank0
 11865  01C1' 1303               	bcf	3,6	;RP1=0, select bank0
 11866  01C2' 0818'              	movf	___fldiv@new_exp,w
 11867  01C3' 008E'              	movwf	??___fldiv
 11868  01C4' 080E'              	movf	??___fldiv,w
 11869  01C5' 009E'              	movwf	___fldiv@bexp
 11870  01C6'                    l3901:
 11871  01C6' 1C1E'              	btfss	___fldiv@bexp,0
 11872  01C7' 2800'              	goto	u6141
 11873  01C8' 2800'              	goto	u6140
 11874  01C9'                    u6141:
 11875  01C9' 2800'              	goto	l3905
 11876  01CA'                    u6140:
 11877  01CA'                    l3903:
 11878  01CA' 178C'              	bsf	___fldiv@b+2,7
 11879  01CB' 2800'              	goto	l851
 11880  01CC'                    l3905:
 11881  01CC' 307F               	movlw	127
 11882  01CD' 008E'              	movwf	??___fldiv
 11883  01CE' 080E'              	movf	??___fldiv,w
 11884  01CF' 058C'              	andwf	___fldiv@b+2,f
 11885  01D0'                    l851:
 11886  01D0' 081E'              	movf	___fldiv@bexp,w
 11887  01D1' 008E'              	movwf	??___fldiv
 11888  01D2' 1003               	clrc
 11889  01D3' 0C0E'              	rrf	??___fldiv,w
 11890  01D4' 008F'              	movwf	??___fldiv+1
 11891  01D5' 080F'              	movf	??___fldiv+1,w
 11892  01D6' 008D'              	movwf	___fldiv@b+3
 11893  01D7' 0817'              	movf	___fldiv@sign,w
 11894  01D8' 008E'              	movwf	??___fldiv
 11895  01D9' 080E'              	movf	??___fldiv,w
 11896  01DA' 048D'              	iorwf	___fldiv@b+3,f
 11897  01DB' 2800'              	goto	l3813
 11898  01DC'                    l829:
 11899  01DC' 0008               	return
 11900  01DD'                    __end_of___fldiv:
 11901                           
 11902                           	psect	text29
 11903  0000'                    __ptext29:	
 11904 ;; *************** function _USART_config *****************
 11905 ;; Defined at:
 11906 ;;		line 223 in file "MAIN_I2C.c"
 11907 ;; Parameters:    Size  Location     Type
 11908 ;;		None
 11909 ;; Auto vars:     Size  Location     Type
 11910 ;;		None
 11911 ;; Return value:  Size  Location     Type
 11912 ;;                  1    wreg      void 
 11913 ;; Registers used:
 11914 ;;		wreg, status,2, status,0, pclath, cstack
 11915 ;; Tracked objects:
 11916 ;;		On entry : 0/0
 11917 ;;		On exit  : 0/0
 11918 ;;		Unchanged: 0/0
 11919 ;; Data sizes:     COMMON   BANK0   BANK1   BANK3   BANK2
 11920 ;;      Params:         0       0       0       0       0
 11921 ;;      Locals:         0       0       0       0       0
 11922 ;;      Temps:          0       0       0       0       0
 11923 ;;      Totals:         0       0       0       0       0
 11924 ;;Total ram usage:        0 bytes
 11925 ;; Hardware stack levels used:    1
 11926 ;; Hardware stack levels required when called:    3
 11927 ;; This function calls:
 11928 ;;		_USART_lib_config
 11929 ;; This function is called by:
 11930 ;;		_main
 11931 ;; This function uses a non-reentrant model
 11932 ;;
 11933                           
 11934                           
 11935                           ;psect for function _USART_config
 11936  0000'                    _USART_config:
 11937  0000'                    l3493:	
 11938                           ;incstack = 0
 11939                           ; Regs used in _USART_config: [wreg+status,2+status,0+pclath+cstack]
 11940                           
 11941                           
 11942                           ;MAIN_I2C.c: 225: 
 11943  0000' 120A' 118A' 2000' 120A' 118A' 	fcall	_USART_lib_config
 11944  0005'                    l127:
 11945  0005' 0008               	return
 11946  0006'                    __end_of_USART_config:
 11947                           
 11948                           	psect	text30
 11949  0000'                    __ptext30:	
 11950 ;; *************** function _USART_lib_config *****************
 11951 ;; Defined at:
 11952 ;;		line 18 in file "I2C_USART.c"
 11953 ;; Parameters:    Size  Location     Type
 11954 ;;		None
 11955 ;; Auto vars:     Size  Location     Type
 11956 ;;		None
 11957 ;; Return value:  Size  Location     Type
 11958 ;;                  1    wreg      void 
 11959 ;; Registers used:
 11960 ;;		wreg
 11961 ;; Tracked objects:
 11962 ;;		On entry : 0/0
 11963 ;;		On exit  : 0/0
 11964 ;;		Unchanged: 0/0
 11965 ;; Data sizes:     COMMON   BANK0   BANK1   BANK3   BANK2
 11966 ;;      Params:         0       0       0       0       0
 11967 ;;      Locals:         0       0       0       0       0
 11968 ;;      Temps:          0       0       0       0       0
 11969 ;;      Totals:         0       0       0       0       0
 11970 ;;Total ram usage:        0 bytes
 11971 ;; Hardware stack levels used:    1
 11972 ;; Hardware stack levels required when called:    2
 11973 ;; This function calls:
 11974 ;;		Nothing
 11975 ;; This function is called by:
 11976 ;;		_USART_config
 11977 ;; This function uses a non-reentrant model
 11978 ;;
 11979                           
 11980                           
 11981                           ;psect for function _USART_lib_config
 11982  0000'                    _USART_lib_config:
 11983  0000'                    l3067:	
 11984                           ;incstack = 0
 11985                           ; Regs used in _USART_lib_config: [wreg]
 11986                           
 11987                           
 11988                           ;I2C_USART.c: 20:     SPBRG = 52;
 11989  0000' 3034               	movlw	52
 11990  0001' 1683               	bsf	3,5	;RP0=1, select bank1
 11991  0002' 1303               	bcf	3,6	;RP1=0, select bank1
 11992  0003' 0099               	movwf	25	;volatile
 11993  0004'                    l3069:
 11994                           
 11995                           ;I2C_USART.c: 22:     TXSTAbits.CSRC = 0;
 11996  0004' 1398               	bcf	24,7	;volatile
 11997  0005'                    l3071:
 11998                           
 11999                           ;I2C_USART.c: 23:     TXSTAbits.TX9 = 0;
 12000  0005' 1318               	bcf	24,6	;volatile
 12001  0006'                    l3073:
 12002                           
 12003                           ;I2C_USART.c: 24:     TXSTAbits.TXEN = 1;
 12004  0006' 1698               	bsf	24,5	;volatile
 12005  0007'                    l3075:
 12006                           
 12007                           ;I2C_USART.c: 25:     TXSTAbits.SYNC = 0;
 12008  0007' 1218               	bcf	24,4	;volatile
 12009  0008'                    l3077:
 12010                           
 12011                           ;I2C_USART.c: 26:     TXSTAbits.SENDB= 0;
 12012  0008' 1198               	bcf	24,3	;volatile
 12013  0009'                    l3079:
 12014                           
 12015                           ;I2C_USART.c: 27:     TXSTAbits.BRGH = 1;
 12016  0009' 1518               	bsf	24,2	;volatile
 12017  000A'                    l3081:
 12018                           
 12019                           ;I2C_USART.c: 28:     TXSTAbits.TRMT = 0;
 12020  000A' 1098               	bcf	24,1	;volatile
 12021  000B'                    l3083:
 12022                           
 12023                           ;I2C_USART.c: 29:     TXSTAbits.TX9D = 0;
 12024  000B' 1018               	bcf	24,0	;volatile
 12025  000C'                    l3085:
 12026                           
 12027                           ;I2C_USART.c: 31:     RCSTAbits.SPEN = 1;
 12028  000C' 1283               	bcf	3,5	;RP0=0, select bank0
 12029  000D' 1303               	bcf	3,6	;RP1=0, select bank0
 12030  000E' 1798               	bsf	24,7	;volatile
 12031  000F'                    l3087:
 12032                           
 12033                           ;I2C_USART.c: 32:     RCSTAbits.RX9 = 0;
 12034  000F' 1318               	bcf	24,6	;volatile
 12035  0010'                    l3089:
 12036                           
 12037                           ;I2C_USART.c: 33:     RCSTAbits.SREN = 0;
 12038  0010' 1298               	bcf	24,5	;volatile
 12039  0011'                    l3091:
 12040                           
 12041                           ;I2C_USART.c: 34:     RCSTAbits.CREN = 1;
 12042  0011' 1618               	bsf	24,4	;volatile
 12043  0012'                    l3093:
 12044                           
 12045                           ;I2C_USART.c: 35:     RCSTAbits.ADDEN= 0;
 12046  0012' 1198               	bcf	24,3	;volatile
 12047  0013'                    l3095:
 12048                           
 12049                           ;I2C_USART.c: 36:     RCSTAbits.FERR = 0;
 12050  0013' 1118               	bcf	24,2	;volatile
 12051  0014'                    l3097:
 12052                           
 12053                           ;I2C_USART.c: 37:     RCSTAbits.OERR = 0;
 12054  0014' 1098               	bcf	24,1	;volatile
 12055  0015'                    l3099:
 12056                           
 12057                           ;I2C_USART.c: 38:     RCSTAbits.RX9D = 0;
 12058  0015' 1018               	bcf	24,0	;volatile
 12059  0016'                    l3101:
 12060                           
 12061                           ;I2C_USART.c: 40:     PIR1bits.RCIF = 0;
 12062  0016' 128C               	bcf	12,5	;volatile
 12063  0017'                    l3103:
 12064                           
 12065                           ;I2C_USART.c: 41:     PIE1bits.RCIE = 1;
 12066  0017' 1683               	bsf	3,5	;RP0=1, select bank1
 12067  0018' 1303               	bcf	3,6	;RP1=0, select bank1
 12068  0019' 168C               	bsf	12,5	;volatile
 12069  001A'                    l3105:
 12070                           
 12071                           ;I2C_USART.c: 42:     PIR1bits.TXIF = 0;
 12072  001A' 1283               	bcf	3,5	;RP0=0, select bank0
 12073  001B' 1303               	bcf	3,6	;RP1=0, select bank0
 12074  001C' 120C               	bcf	12,4	;volatile
 12075  001D'                    l259:
 12076  001D' 0008               	return
 12077  001E'                    __end_of_USART_lib_config:
 12078                           
 12079                           	psect	text31
 12080  0000'                    __ptext31:	
 12081 ;; *************** function _USART_SendString *****************
 12082 ;; Defined at:
 12083 ;;		line 235 in file "MAIN_I2C.c"
 12084 ;; Parameters:    Size  Location     Type
 12085 ;;  str             1    wreg     PTR const unsigned char 
 12086 ;;		 -> main@buffer(20), 
 12087 ;; Auto vars:     Size  Location     Type
 12088 ;;  str             1    4[COMMON] PTR const unsigned char 
 12089 ;;		 -> main@buffer(20), 
 12090 ;; Return value:  Size  Location     Type
 12091 ;;                  1    wreg      void 
 12092 ;; Registers used:
 12093 ;;		wreg, fsr0l, fsr0h, status,2, status,0, pclath, cstack
 12094 ;; Tracked objects:
 12095 ;;		On entry : 0/0
 12096 ;;		On exit  : 0/0
 12097 ;;		Unchanged: 0/0
 12098 ;; Data sizes:     COMMON   BANK0   BANK1   BANK3   BANK2
 12099 ;;      Params:         0       0       0       0       0
 12100 ;;      Locals:         1       0       0       0       0
 12101 ;;      Temps:          1       0       0       0       0
 12102 ;;      Totals:         2       0       0       0       0
 12103 ;;Total ram usage:        2 bytes
 12104 ;; Hardware stack levels used:    1
 12105 ;; Hardware stack levels required when called:    3
 12106 ;; This function calls:
 12107 ;;		_escribir_char
 12108 ;; This function is called by:
 12109 ;;		_main
 12110 ;; This function uses a non-reentrant model
 12111 ;;
 12112                           
 12113                           
 12114                           ;psect for function _USART_SendString
 12115  0000'                    _USART_SendString:
 12116                           
 12117                           ;incstack = 0
 12118                           ; Regs used in _USART_SendString: [wreg-fsr0h+status,2+status,0+pclath+cstack]
 12119                           ;USART_SendString@str stored from wreg
 12120  0000' 0084'              	movwf	USART_SendString@str
 12121  0001'                    l3761:
 12122                           
 12123                           ;MAIN_I2C.c: 235:  I2C_Master_Stop();;MAIN_I2C.c: 236: ;MAIN_I2C.c: 237:  I2C_Start_Wait
      +                          (0xD0);
 12124  0001' 2800'              	goto	l3767
 12125  0002'                    l3763:
 12126                           
 12127                           ;MAIN_I2C.c: 238:  I2C_Master_Write(0x1A);;MAIN_I2C.c: 239:  I2C_Master_Write(0x00);
 12128  0002' 0804'              	movf	USART_SendString@str,w
 12129  0003' 0084               	movwf	4
 12130  0004' 0800               	movf	0,w
 12131  0005' 120A' 118A' 2000' 120A' 118A' 	fcall	_escribir_char
 12132  000A'                    l3765:
 12133                           
 12134                           ;MAIN_I2C.c: 240:  I2C_Master_Stop();
 12135  000A' 3001               	movlw	1
 12136  000B' 0083'              	movwf	??_USART_SendString
 12137  000C' 0803'              	movf	??_USART_SendString,w
 12138  000D' 0784'              	addwf	USART_SendString@str,f
 12139  000E'                    l3767:
 12140                           
 12141                           ;MAIN_I2C.c: 237:  I2C_Start_Wait(0xD0);
 12142  000E' 0804'              	movf	USART_SendString@str,w
 12143  000F' 0084               	movwf	4
 12144  0010' 1783               	bsf	3,7	;select IRP bank2
 12145  0011' 0800               	movf	0,w
 12146  0012' 1D03               	btfss	3,2
 12147  0013' 2800'              	goto	u5851
 12148  0014' 2800'              	goto	u5850
 12149  0015'                    u5851:
 12150  0015' 2800'              	goto	l3763
 12151  0016'                    u5850:
 12152  0016'                    l139:
 12153  0016' 0008               	return
 12154  0017'                    __end_of_USART_SendString:
 12155                           
 12156                           	psect	text32
 12157  0000'                    __ptext32:	
 12158 ;; *************** function _escribir_char *****************
 12159 ;; Defined at:
 12160 ;;		line 228 in file "MAIN_I2C.c"
 12161 ;; Parameters:    Size  Location     Type
 12162 ;;  valor           1    wreg     unsigned char 
 12163 ;; Auto vars:     Size  Location     Type
 12164 ;;  valor           1    2[COMMON] unsigned char 
 12165 ;; Return value:  Size  Location     Type
 12166 ;;                  1    wreg      void 
 12167 ;; Registers used:
 12168 ;;		wreg
 12169 ;; Tracked objects:
 12170 ;;		On entry : 0/0
 12171 ;;		On exit  : 0/0
 12172 ;;		Unchanged: 0/0
 12173 ;; Data sizes:     COMMON   BANK0   BANK1   BANK3   BANK2
 12174 ;;      Params:         0       0       0       0       0
 12175 ;;      Locals:         1       0       0       0       0
 12176 ;;      Temps:          0       0       0       0       0
 12177 ;;      Totals:         1       0       0       0       0
 12178 ;;Total ram usage:        1 bytes
 12179 ;; Hardware stack levels used:    1
 12180 ;; Hardware stack levels required when called:    2
 12181 ;; This function calls:
 12182 ;;		Nothing
 12183 ;; This function is called by:
 12184 ;;		_main
 12185 ;;		_USART_SendString
 12186 ;; This function uses a non-reentrant model
 12187 ;;
 12188                           
 12189                           
 12190                           ;psect for function _escribir_char
 12191  0000'                    _escribir_char:
 12192                           
 12193                           ;incstack = 0
 12194                           ; Regs used in _escribir_char: [wreg]
 12195                           ;escribir_char@valor stored from wreg
 12196  0000' 0082'              	movwf	escribir_char@valor
 12197  0001'                    l3053:
 12198                           
 12199                           ;MAIN_I2C.c: 228:  I2C_Master_Write(0x19);;MAIN_I2C.c: 229:  I2C_Master_Write(0x07);;MAI
      +                          N_I2C.c: 230:  I2C_Master_Stop();
 12200  0001' 0802'              	movf	escribir_char@valor,w
 12201  0002' 1283               	bcf	3,5	;RP0=0, select bank0
 12202  0003' 1303               	bcf	3,6	;RP1=0, select bank0
 12203  0004' 0099               	movwf	25	;volatile
 12204  0005'                    l130:	
 12205                           ;MAIN_I2C.c: 231: 
 12206                           
 12207  0005' 1E0C               	btfss	12,4	;volatile
 12208  0006' 2800'              	goto	u4361
 12209  0007' 2800'              	goto	u4360
 12210  0008'                    u4361:
 12211  0008' 2800'              	goto	l130
 12212  0009'                    u4360:
 12213  0009'                    l133:
 12214  0009' 0008               	return
 12215  000A'                    __end_of_escribir_char:
 12216                           
 12217                           	psect	text33
 12218  0000'                    __ptext33:	
 12219 ;; *************** function _MPU_Start_Loc *****************
 12220 ;; Defined at:
 12221 ;;		line 255 in file "MAIN_I2C.c"
 12222 ;; Parameters:    Size  Location     Type
 12223 ;;		None
 12224 ;; Auto vars:     Size  Location     Type
 12225 ;;		None
 12226 ;; Return value:  Size  Location     Type
 12227 ;;                  1    wreg      void 
 12228 ;; Registers used:
 12229 ;;		wreg, fsr0l, fsr0h, fsr1l, fsr1h, fsr1l, fsr1h, status,2, status,0, btemp+1, pclath, cstack
 12230 ;; Tracked objects:
 12231 ;;		On entry : 0/0
 12232 ;;		On exit  : 0/0
 12233 ;;		Unchanged: 0/0
 12234 ;; Data sizes:     COMMON   BANK0   BANK1   BANK3   BANK2
 12235 ;;      Params:         0       0       0       0       0
 12236 ;;      Locals:         0       0       0       0       0
 12237 ;;      Temps:          0       0       0       0       0
 12238 ;;      Totals:         0       0       0       0       0
 12239 ;;Total ram usage:        0 bytes
 12240 ;; Hardware stack levels used:    1
 12241 ;; Hardware stack levels required when called:    5
 12242 ;; This function calls:
 12243 ;;		_I2C_Master_Write
 12244 ;;		_I2C_Repeated_Start
 12245 ;;		_I2C_Start_Wait
 12246 ;; This function is called by:
 12247 ;;		_main
 12248 ;; This function uses a non-reentrant model
 12249 ;;
 12250                           
 12251                           
 12252                           ;psect for function _MPU_Start_Loc
 12253  0000'                    _MPU_Start_Loc:
 12254  0000'                    l3507:	
 12255                           ;incstack = 0
 12256                           ; Regs used in _MPU_Start_Loc: [allreg]
 12257                           
 12258                           
 12259                           ;MAIN_I2C.c: 258:     if (PORTEbits.RE0 == 1)
 12260  0000' 30D0               	movlw	208
 12261  0001' 120A' 118A' 2000' 120A' 118A' 	fcall	_I2C_Start_Wait
 12262                           
 12263                           ;MAIN_I2C.c: 259:     {
 12264  0006' 303B               	movlw	59
 12265  0007' 0082'              	movwf	I2C_Master_Write@d
 12266  0008' 3000               	movlw	0
 12267  0009' 0083'              	movwf	I2C_Master_Write@d+1
 12268  000A' 120A' 118A' 2000' 120A' 118A' 	fcall	_I2C_Master_Write
 12269  000F'                    l3509:
 12270                           
 12271                           ;MAIN_I2C.c: 260:         PORTEbits.RE0 = 0;
 12272  000F' 30D1               	movlw	209
 12273  0010' 120A' 118A' 2000' 120A' 118A' 	fcall	_I2C_Repeated_Start
 12274  0015'                    l146:
 12275  0015' 0008               	return
 12276  0016'                    __end_of_MPU_Start_Loc:
 12277                           
 12278                           	psect	text34
 12279  0000'                    __ptext34:	
 12280 ;; *************** function _I2C_Repeated_Start *****************
 12281 ;; Defined at:
 12282 ;;		line 135 in file "I2C_LIB.c"
 12283 ;; Parameters:    Size  Location     Type
 12284 ;;  slave_read_a    1    wreg     unsigned char 
 12285 ;; Auto vars:     Size  Location     Type
 12286 ;;  slave_read_a    1    4[COMMON] unsigned char 
 12287 ;; Return value:  Size  Location     Type
 12288 ;;                  1    wreg      unsigned char 
 12289 ;; Registers used:
 12290 ;;		wreg, fsr0l, fsr0h, fsr1l, fsr1h, fsr1l, fsr1h, status,2, status,0, btemp+1, pclath, cstack
 12291 ;; Tracked objects:
 12292 ;;		On entry : 0/0
 12293 ;;		On exit  : 0/0
 12294 ;;		Unchanged: 0/0
 12295 ;; Data sizes:     COMMON   BANK0   BANK1   BANK3   BANK2
 12296 ;;      Params:         0       0       0       0       0
 12297 ;;      Locals:         1       0       0       0       0
 12298 ;;      Temps:          2       0       0       0       0
 12299 ;;      Totals:         3       0       0       0       0
 12300 ;;Total ram usage:        3 bytes
 12301 ;; Hardware stack levels used:    1
 12302 ;; Hardware stack levels required when called:    3
 12303 ;; This function calls:
 12304 ;;		_I2C_Write
 12305 ;; This function is called by:
 12306 ;;		_MPU_Start_Loc
 12307 ;; This function uses a non-reentrant model
 12308 ;;
 12309                           
 12310                           
 12311                           ;psect for function _I2C_Repeated_Start
 12312  0000'                    _I2C_Repeated_Start:
 12313                           
 12314                           ;incstack = 0
 12315                           ; Regs used in _I2C_Repeated_Start: [allreg]
 12316                           ;I2C_Repeated_Start@slave_read_address stored from wreg
 12317  0000' 0084'              	movwf	I2C_Repeated_Start@slave_read_address
 12318  0001'                    l3115:
 12319                           
 12320                           ;I2C_LIB.c: 135: char I2C_Repeated_Start(char slave_read_address);I2C_LIB.c: 136: {;I2C_
      +                          LIB.c: 137:     RSEN = 1;
 12321  0001' 1683               	bsf	3,5	;RP0=1, select bank1
 12322  0002' 1303               	bcf	3,6	;RP1=0, select bank1
 12323  0003' 1491               	bsf	17,1	;volatile
 12324  0004'                    l240:	
 12325                           ;I2C_LIB.c: 138:     while(SSPCON2bits.RSEN);
 12326                           
 12327  0004' 1891               	btfsc	17,1	;volatile
 12328  0005' 2800'              	goto	u4411
 12329  0006' 2800'              	goto	u4410
 12330  0007'                    u4411:
 12331  0007' 2800'              	goto	l240
 12332  0008'                    u4410:
 12333  0008'                    l242:
 12334                           
 12335                           ;I2C_LIB.c: 139:     SSPIF = 0;
 12336  0008' 1283               	bcf	3,5	;RP0=0, select bank0
 12337  0009' 1303               	bcf	3,6	;RP1=0, select bank0
 12338  000A' 118C               	bcf	12,3	;volatile
 12339                           
 12340                           ;I2C_LIB.c: 140:     if(!SSPSTATbits.S)
 12341  000B' 1683               	bsf	3,5	;RP0=1, select bank1
 12342  000C' 1303               	bcf	3,6	;RP1=0, select bank1
 12343  000D' 1994               	btfsc	20,3	;volatile
 12344  000E' 2800'              	goto	u4421
 12345  000F' 2800'              	goto	u4420
 12346  0010'                    u4421:
 12347  0010' 2800'              	goto	l3119
 12348  0011'                    u4420:
 12349  0011' 2800'              	goto	l244
 12350  0012'                    l3119:
 12351                           
 12352                           ;I2C_LIB.c: 142:     I2C_Write(slave_read_address);
 12353  0012' 0804'              	movf	I2C_Repeated_Start@slave_read_address,w
 12354  0013' 0082'              	movwf	??_I2C_Repeated_Start
 12355  0014' 0183'              	clrf	??_I2C_Repeated_Start+1
 12356  0015' 0802'              	movf	??_I2C_Repeated_Start,w
 12357  0016' 0080'              	movwf	?_I2C_Write
 12358  0017' 0803'              	movf	??_I2C_Repeated_Start+1,w
 12359  0018' 0081'              	movwf	?_I2C_Write+1
 12360  0019' 120A' 118A' 2000' 120A' 118A' 	fcall	_I2C_Write
 12361  001E'                    l3121:
 12362  001E'                    l244:	
 12363                           ;I2C_LIB.c: 143:     if (ACKSTAT)
 12364                           
 12365  001E' 0008               	return
 12366  001F'                    __end_of_I2C_Repeated_Start:
 12367                           
 12368                           	psect	text35
 12369  0000'                    __ptext35:	
 12370 ;; *************** function _MPU6050_Init *****************
 12371 ;; Defined at:
 12372 ;;		line 263 in file "MAIN_I2C.c"
 12373 ;; Parameters:    Size  Location     Type
 12374 ;;		None
 12375 ;; Auto vars:     Size  Location     Type
 12376 ;;		None
 12377 ;; Return value:  Size  Location     Type
 12378 ;;                  1    wreg      void 
 12379 ;; Registers used:
 12380 ;;		wreg, status,2, status,0, pclath, cstack
 12381 ;; Tracked objects:
 12382 ;;		On entry : 0/0
 12383 ;;		On exit  : 0/0
 12384 ;;		Unchanged: 0/0
 12385 ;; Data sizes:     COMMON   BANK0   BANK1   BANK3   BANK2
 12386 ;;      Params:         0       0       0       0       0
 12387 ;;      Locals:         0       0       0       0       0
 12388 ;;      Temps:          0       0       0       0       0
 12389 ;;      Totals:         0       0       0       0       0
 12390 ;;Total ram usage:        0 bytes
 12391 ;; Hardware stack levels used:    1
 12392 ;; Hardware stack levels required when called:    5
 12393 ;; This function calls:
 12394 ;;		_I2C_Master_Stop
 12395 ;;		_I2C_Master_Write
 12396 ;;		_I2C_Start_Wait
 12397 ;;		_MSdelay
 12398 ;; This function is called by:
 12399 ;;		_main
 12400 ;; This function uses a non-reentrant model
 12401 ;;
 12402                           
 12403                           
 12404                           ;psect for function _MPU6050_Init
 12405  0000'                    _MPU6050_Init:
 12406  0000'                    l3505:	
 12407                           ;incstack = 0
 12408                           ; Regs used in _MPU6050_Init: [wreg+status,2+status,0+pclath+cstack]
 12409                           
 12410                           
 12411                           ;MAIN_I2C.c: 266:         contador = 0;
 12412  0000' 3096               	movlw	150
 12413  0001' 0082'              	movwf	MSdelay@val
 12414  0002' 3000               	movlw	0
 12415  0003' 0083'              	movwf	MSdelay@val+1
 12416  0004' 120A' 118A' 2000' 120A' 118A' 	fcall	_MSdelay
 12417                           
 12418                           ;MAIN_I2C.c: 267:     }
 12419  0009' 30D0               	movlw	208
 12420  000A' 120A' 118A' 2000' 120A' 118A' 	fcall	_I2C_Start_Wait
 12421                           
 12422                           ;MAIN_I2C.c: 268:     }
 12423  000F' 3019               	movlw	25
 12424  0010' 0082'              	movwf	I2C_Master_Write@d
 12425  0011' 3000               	movlw	0
 12426  0012' 0083'              	movwf	I2C_Master_Write@d+1
 12427  0013' 120A' 118A' 2000' 120A' 118A' 	fcall	_I2C_Master_Write
 12428                           
 12429                           ;MAIN_I2C.c: 269: 
 12430  0018' 3007               	movlw	7
 12431  0019' 0082'              	movwf	I2C_Master_Write@d
 12432  001A' 3000               	movlw	0
 12433  001B' 0083'              	movwf	I2C_Master_Write@d+1
 12434  001C' 120A' 118A' 2000' 120A' 118A' 	fcall	_I2C_Master_Write
 12435                           
 12436                           ;MAIN_I2C.c: 270: }
 12437  0021' 120A' 118A' 2000' 120A' 118A' 	fcall	_I2C_Master_Stop
 12438  0026' 30D0               	movlw	208
 12439  0027' 120A' 118A' 2000' 120A' 118A' 	fcall	_I2C_Start_Wait
 12440  002C' 306B               	movlw	107
 12441  002D' 0082'              	movwf	I2C_Master_Write@d
 12442  002E' 3000               	movlw	0
 12443  002F' 0083'              	movwf	I2C_Master_Write@d+1
 12444  0030' 120A' 118A' 2000' 120A' 118A' 	fcall	_I2C_Master_Write
 12445  0035' 3001               	movlw	1
 12446  0036' 0082'              	movwf	I2C_Master_Write@d
 12447  0037' 3000               	movlw	0
 12448  0038' 0083'              	movwf	I2C_Master_Write@d+1
 12449  0039' 120A' 118A' 2000' 120A' 118A' 	fcall	_I2C_Master_Write
 12450  003E' 120A' 118A' 2000' 120A' 118A' 	fcall	_I2C_Master_Stop
 12451  0043' 30D0               	movlw	208
 12452  0044' 120A' 118A' 2000' 120A' 118A' 	fcall	_I2C_Start_Wait
 12453  0049' 301A               	movlw	26
 12454  004A' 0082'              	movwf	I2C_Master_Write@d
 12455  004B' 3000               	movlw	0
 12456  004C' 0083'              	movwf	I2C_Master_Write@d+1
 12457  004D' 120A' 118A' 2000' 120A' 118A' 	fcall	_I2C_Master_Write
 12458  0052' 3000               	movlw	0
 12459  0053' 0082'              	movwf	I2C_Master_Write@d
 12460  0054' 0083'              	movwf	I2C_Master_Write@d+1
 12461  0055' 120A' 118A' 2000' 120A' 118A' 	fcall	_I2C_Master_Write
 12462  005A' 120A' 118A' 2000' 120A' 118A' 	fcall	_I2C_Master_Stop
 12463  005F' 30D0               	movlw	208
 12464  0060' 120A' 118A' 2000' 120A' 118A' 	fcall	_I2C_Start_Wait
 12465  0065' 301B               	movlw	27
 12466  0066' 0082'              	movwf	I2C_Master_Write@d
 12467  0067' 3000               	movlw	0
 12468  0068' 0083'              	movwf	I2C_Master_Write@d+1
 12469  0069' 120A' 118A' 2000' 120A' 118A' 	fcall	_I2C_Master_Write
 12470  006E' 3018               	movlw	24
 12471  006F' 0082'              	movwf	I2C_Master_Write@d
 12472  0070' 3000               	movlw	0
 12473  0071' 0083'              	movwf	I2C_Master_Write@d+1
 12474  0072' 120A' 118A' 2000' 120A' 118A' 	fcall	_I2C_Master_Write
 12475  0077' 120A' 118A' 2000' 120A' 118A' 	fcall	_I2C_Master_Stop
 12476  007C' 30D0               	movlw	208
 12477  007D' 120A' 118A' 2000' 120A' 118A' 	fcall	_I2C_Start_Wait
 12478  0082' 3038               	movlw	56
 12479  0083' 0082'              	movwf	I2C_Master_Write@d
 12480  0084' 3000               	movlw	0
 12481  0085' 0083'              	movwf	I2C_Master_Write@d+1
 12482  0086' 120A' 118A' 2000' 120A' 118A' 	fcall	_I2C_Master_Write
 12483  008B' 3001               	movlw	1
 12484  008C' 0082'              	movwf	I2C_Master_Write@d
 12485  008D' 3000               	movlw	0
 12486  008E' 0083'              	movwf	I2C_Master_Write@d+1
 12487  008F' 120A' 118A' 2000' 120A' 118A' 	fcall	_I2C_Master_Write
 12488  0094' 120A' 118A' 2000' 120A' 118A' 	fcall	_I2C_Master_Stop
 12489  0099'                    l149:
 12490  0099' 0008               	return
 12491  009A'                    __end_of_MPU6050_Init:
 12492                           
 12493                           	psect	text36
 12494  0000'                    __ptext36:	
 12495 ;; *************** function _MSdelay *****************
 12496 ;; Defined at:
 12497 ;;		line 128 in file "I2C_LIB.c"
 12498 ;; Parameters:    Size  Location     Type
 12499 ;;  val             2    2[COMMON] unsigned int 
 12500 ;; Auto vars:     Size  Location     Type
 12501 ;;  j               2    6[COMMON] unsigned int 
 12502 ;;  i               2    4[COMMON] unsigned int 
 12503 ;; Return value:  Size  Location     Type
 12504 ;;                  1    wreg      void 
 12505 ;; Registers used:
 12506 ;;		wreg, status,2
 12507 ;; Tracked objects:
 12508 ;;		On entry : 0/0
 12509 ;;		On exit  : 0/0
 12510 ;;		Unchanged: 0/0
 12511 ;; Data sizes:     COMMON   BANK0   BANK1   BANK3   BANK2
 12512 ;;      Params:         2       0       0       0       0
 12513 ;;      Locals:         4       0       0       0       0
 12514 ;;      Temps:          0       0       0       0       0
 12515 ;;      Totals:         6       0       0       0       0
 12516 ;;Total ram usage:        6 bytes
 12517 ;; Hardware stack levels used:    1
 12518 ;; Hardware stack levels required when called:    2
 12519 ;; This function calls:
 12520 ;;		Nothing
 12521 ;; This function is called by:
 12522 ;;		_MPU6050_Init
 12523 ;; This function uses a non-reentrant model
 12524 ;;
 12525                           
 12526                           
 12527                           ;psect for function _MSdelay
 12528  0000'                    _MSdelay:
 12529  0000'                    l3127:	
 12530                           ;incstack = 0
 12531                           ; Regs used in _MSdelay: [wreg+status,2]
 12532                           
 12533                           
 12534                           ;I2C_LIB.c: 128: void MSdelay(unsigned int val);I2C_LIB.c: 129: {;I2C_LIB.c: 130:      u
      +                          nsigned int i,j;;I2C_LIB.c: 131:         for(i=0;i<=val;i++)
 12535  0000' 0184'              	clrf	MSdelay@i
 12536  0001' 0185'              	clrf	MSdelay@i+1
 12537  0002' 2800'              	goto	l232
 12538  0003'                    l3129:
 12539                           
 12540                           ;I2C_LIB.c: 132:             for(j=0;j<165;j++);
 12541  0003' 0186'              	clrf	MSdelay@j
 12542  0004' 0187'              	clrf	MSdelay@j+1
 12543  0005'                    l3135:
 12544  0005' 3001               	movlw	1
 12545  0006' 0786'              	addwf	MSdelay@j,f
 12546  0007' 1803               	skipnc
 12547  0008' 0A87'              	incf	MSdelay@j+1,f
 12548  0009' 3000               	movlw	0
 12549  000A' 0787'              	addwf	MSdelay@j+1,f
 12550  000B' 3000               	movlw	0
 12551  000C' 0207'              	subwf	MSdelay@j+1,w
 12552  000D' 30A5               	movlw	165
 12553  000E' 1903               	skipnz
 12554  000F' 0206'              	subwf	MSdelay@j,w
 12555  0010' 1C03               	skipc
 12556  0011' 2800'              	goto	u4431
 12557  0012' 2800'              	goto	u4430
 12558  0013'                    u4431:
 12559  0013' 2800'              	goto	l3135
 12560  0014'                    u4430:
 12561  0014'                    l3137:
 12562  0014' 3001               	movlw	1
 12563  0015' 0784'              	addwf	MSdelay@i,f
 12564  0016' 1803               	skipnc
 12565  0017' 0A85'              	incf	MSdelay@i+1,f
 12566  0018' 3000               	movlw	0
 12567  0019' 0785'              	addwf	MSdelay@i+1,f
 12568  001A'                    l232:
 12569  001A' 0805'              	movf	MSdelay@i+1,w
 12570  001B' 0203'              	subwf	MSdelay@val+1,w
 12571  001C' 1D03               	skipz
 12572  001D' 2800'              	goto	u4445
 12573  001E' 0804'              	movf	MSdelay@i,w
 12574  001F' 0202'              	subwf	MSdelay@val,w
 12575  0020'                    u4445:
 12576  0020' 1803               	skipnc
 12577  0021' 2800'              	goto	u4441
 12578  0022' 2800'              	goto	u4440
 12579  0023'                    u4441:
 12580  0023' 2800'              	goto	l3129
 12581  0024'                    u4440:
 12582  0024'                    l237:
 12583  0024' 0008               	return
 12584  0025'                    __end_of_MSdelay:
 12585                           
 12586                           	psect	text37
 12587  0000'                    __ptext37:	
 12588 ;; *************** function _I2C_Start_Wait *****************
 12589 ;; Defined at:
 12590 ;;		line 109 in file "I2C_LIB.c"
 12591 ;; Parameters:    Size  Location     Type
 12592 ;;  slave_write_    1    wreg     unsigned char 
 12593 ;; Auto vars:     Size  Location     Type
 12594 ;;  slave_write_    1    6[COMMON] unsigned char 
 12595 ;; Return value:  Size  Location     Type
 12596 ;;                  1    wreg      void 
 12597 ;; Registers used:
 12598 ;;		wreg, status,2, status,0, pclath, cstack
 12599 ;; Tracked objects:
 12600 ;;		On entry : 0/0
 12601 ;;		On exit  : 0/0
 12602 ;;		Unchanged: 0/0
 12603 ;; Data sizes:     COMMON   BANK0   BANK1   BANK3   BANK2
 12604 ;;      Params:         0       0       0       0       0
 12605 ;;      Locals:         1       0       0       0       0
 12606 ;;      Temps:          2       0       0       0       0
 12607 ;;      Totals:         3       0       0       0       0
 12608 ;;Total ram usage:        3 bytes
 12609 ;; Hardware stack levels used:    1
 12610 ;; Hardware stack levels required when called:    4
 12611 ;; This function calls:
 12612 ;;		_I2C_Master_Stop
 12613 ;;		_I2C_Master_Write
 12614 ;; This function is called by:
 12615 ;;		_MPU_Start_Loc
 12616 ;;		_MPU6050_Init
 12617 ;; This function uses a non-reentrant model
 12618 ;;
 12619                           
 12620                           
 12621                           ;psect for function _I2C_Start_Wait
 12622  0000'                    _I2C_Start_Wait:
 12623                           
 12624                           ;incstack = 0
 12625                           ; Regs used in _I2C_Start_Wait: [wreg+status,2+status,0+pclath+cstack]
 12626                           ;I2C_Start_Wait@slave_write_address stored from wreg
 12627  0000' 0086'              	movwf	I2C_Start_Wait@slave_write_address
 12628  0001'                    l221:	
 12629                           ;I2C_LIB.c: 109: void I2C_Start_Wait(char slave_write_address);I2C_LIB.c: 110: {;I2C_LIB
      +                          .c: 111:   while(1)
 12630                           
 12631                           
 12632                           ;I2C_LIB.c: 112:   {;I2C_LIB.c: 113:     SSPCON2bits.SEN = 1;
 12633  0001' 1683               	bsf	3,5	;RP0=1, select bank1
 12634  0002' 1303               	bcf	3,6	;RP1=0, select bank1
 12635  0003' 1411               	bsf	17,0	;volatile
 12636  0004'                    l222:	
 12637                           ;I2C_LIB.c: 114:     while(SSPCON2bits.SEN);
 12638                           
 12639  0004' 1811               	btfsc	17,0	;volatile
 12640  0005' 2800'              	goto	u4381
 12641  0006' 2800'              	goto	u4380
 12642  0007'                    u4381:
 12643  0007' 2800'              	goto	l222
 12644  0008'                    u4380:
 12645  0008'                    l224:
 12646                           
 12647                           ;I2C_LIB.c: 115:     SSPIF = 0;
 12648  0008' 1283               	bcf	3,5	;RP0=0, select bank0
 12649  0009' 1303               	bcf	3,6	;RP1=0, select bank0
 12650  000A' 118C               	bcf	12,3	;volatile
 12651                           
 12652                           ;I2C_LIB.c: 116:     if(!SSPSTATbits.S)
 12653  000B' 1683               	bsf	3,5	;RP0=1, select bank1
 12654  000C' 1303               	bcf	3,6	;RP1=0, select bank1
 12655  000D' 1994               	btfsc	20,3	;volatile
 12656  000E' 2800'              	goto	u4391
 12657  000F' 2800'              	goto	u4390
 12658  0010'                    u4391:
 12659  0010' 2800'              	goto	l3109
 12660  0011'                    u4390:
 12661  0011' 2800'              	goto	l221
 12662  0012'                    l3109:
 12663                           
 12664                           ;I2C_LIB.c: 118:     I2C_Master_Write(slave_write_address);
 12665  0012' 0806'              	movf	I2C_Start_Wait@slave_write_address,w
 12666  0013' 0084'              	movwf	??_I2C_Start_Wait
 12667  0014' 0185'              	clrf	??_I2C_Start_Wait+1
 12668  0015' 0804'              	movf	??_I2C_Start_Wait,w
 12669  0016' 0082'              	movwf	I2C_Master_Write@d
 12670  0017' 0805'              	movf	??_I2C_Start_Wait+1,w
 12671  0018' 0083'              	movwf	I2C_Master_Write@d+1
 12672  0019' 120A' 118A' 2000' 120A' 118A' 	fcall	_I2C_Master_Write
 12673  001E'                    l3111:
 12674                           
 12675                           ;I2C_LIB.c: 119:     if(ACKSTAT)
 12676  001E' 1683               	bsf	3,5	;RP0=1, select bank1
 12677  001F' 1303               	bcf	3,6	;RP1=0, select bank1
 12678  0020' 1F11               	btfss	17,6	;volatile
 12679  0021' 2800'              	goto	u4401
 12680  0022' 2800'              	goto	u4400
 12681  0023'                    u4401:
 12682  0023' 2800'              	goto	l229
 12683  0024'                    u4400:
 12684  0024'                    l3113:
 12685                           
 12686                           ;I2C_LIB.c: 120:     {;I2C_LIB.c: 121:         I2C_Master_Stop();
 12687  0024' 120A' 118A' 2000' 120A' 118A' 	fcall	_I2C_Master_Stop
 12688                           
 12689                           ;I2C_LIB.c: 122:         continue;
 12690  0029' 2800'              	goto	l221
 12691  002A'                    l229:
 12692  002A' 0008               	return
 12693  002B'                    __end_of_I2C_Start_Wait:
 12694                           
 12695                           	psect	text38
 12696  0000'                    __ptext38:	
 12697 ;; *************** function _I2C_Master_Write *****************
 12698 ;; Defined at:
 12699 ;;		line 66 in file "I2C_LIB.c"
 12700 ;; Parameters:    Size  Location     Type
 12701 ;;  d               2    2[COMMON] unsigned int 
 12702 ;; Auto vars:     Size  Location     Type
 12703 ;;		None
 12704 ;; Return value:  Size  Location     Type
 12705 ;;                  1    wreg      void 
 12706 ;; Registers used:
 12707 ;;		wreg, status,2, status,0, pclath, cstack
 12708 ;; Tracked objects:
 12709 ;;		On entry : 0/0
 12710 ;;		On exit  : 0/0
 12711 ;;		Unchanged: 0/0
 12712 ;; Data sizes:     COMMON   BANK0   BANK1   BANK3   BANK2
 12713 ;;      Params:         2       0       0       0       0
 12714 ;;      Locals:         0       0       0       0       0
 12715 ;;      Temps:          0       0       0       0       0
 12716 ;;      Totals:         2       0       0       0       0
 12717 ;;Total ram usage:        2 bytes
 12718 ;; Hardware stack levels used:    1
 12719 ;; Hardware stack levels required when called:    3
 12720 ;; This function calls:
 12721 ;;		_I2C_Master_Wait
 12722 ;; This function is called by:
 12723 ;;		_MPU_Start_Loc
 12724 ;;		_MPU6050_Init
 12725 ;;		_I2C_Start_Wait
 12726 ;; This function uses a non-reentrant model
 12727 ;;
 12728                           
 12729                           
 12730                           ;psect for function _I2C_Master_Write
 12731  0000'                    _I2C_Master_Write:
 12732  0000'                    l2561:	
 12733                           ;incstack = 0
 12734                           ; Regs used in _I2C_Master_Write: [wreg+status,2+status,0+pclath+cstack]
 12735                           
 12736                           
 12737                           ;I2C_LIB.c: 66: void I2C_Master_Write(unsigned d);I2C_LIB.c: 67: {;I2C_LIB.c: 68:     I2
      +                          C_Master_Wait();
 12738  0000' 120A' 118A' 2000' 120A' 118A' 	fcall	_I2C_Master_Wait
 12739  0005'                    l2563:
 12740                           
 12741                           ;I2C_LIB.c: 69:     SSPBUF = d;
 12742  0005' 0802'              	movf	I2C_Master_Write@d,w
 12743  0006' 1283               	bcf	3,5	;RP0=0, select bank0
 12744  0007' 1303               	bcf	3,6	;RP1=0, select bank0
 12745  0008' 0093               	movwf	19	;volatile
 12746  0009'                    l210:
 12747  0009' 0008               	return
 12748  000A'                    __end_of_I2C_Master_Write:
 12749                           
 12750                           	psect	text39
 12751  0000'                    __ptext39:	
 12752 ;; *************** function _I2C_Master_Stop *****************
 12753 ;; Defined at:
 12754 ;;		line 56 in file "I2C_LIB.c"
 12755 ;; Parameters:    Size  Location     Type
 12756 ;;		None
 12757 ;; Auto vars:     Size  Location     Type
 12758 ;;		None
 12759 ;; Return value:  Size  Location     Type
 12760 ;;                  1    wreg      void 
 12761 ;; Registers used:
 12762 ;;		wreg, status,2, status,0, pclath, cstack
 12763 ;; Tracked objects:
 12764 ;;		On entry : 0/0
 12765 ;;		On exit  : 0/0
 12766 ;;		Unchanged: 0/0
 12767 ;; Data sizes:     COMMON   BANK0   BANK1   BANK3   BANK2
 12768 ;;      Params:         0       0       0       0       0
 12769 ;;      Locals:         0       0       0       0       0
 12770 ;;      Temps:          0       0       0       0       0
 12771 ;;      Totals:         0       0       0       0       0
 12772 ;;Total ram usage:        0 bytes
 12773 ;; Hardware stack levels used:    1
 12774 ;; Hardware stack levels required when called:    3
 12775 ;; This function calls:
 12776 ;;		_I2C_Master_Wait
 12777 ;; This function is called by:
 12778 ;;		_main
 12779 ;;		_MPU6050_Init
 12780 ;;		_I2C_Start_Wait
 12781 ;; This function uses a non-reentrant model
 12782 ;;
 12783                           
 12784                           
 12785                           ;psect for function _I2C_Master_Stop
 12786  0000'                    _I2C_Master_Stop:
 12787  0000'                    l2557:	
 12788                           ;incstack = 0
 12789                           ; Regs used in _I2C_Master_Stop: [wreg+status,2+status,0+pclath+cstack]
 12790                           
 12791                           
 12792                           ;I2C_LIB.c: 58:     I2C_Master_Wait();
 12793  0000' 120A' 118A' 2000' 120A' 118A' 	fcall	_I2C_Master_Wait
 12794  0005'                    l2559:
 12795                           
 12796                           ;I2C_LIB.c: 59:     SSPCON2bits.PEN = 1;
 12797  0005' 1683               	bsf	3,5	;RP0=1, select bank1
 12798  0006' 1303               	bcf	3,6	;RP1=0, select bank1
 12799  0007' 1511               	bsf	17,2	;volatile
 12800  0008'                    l207:
 12801  0008' 0008               	return
 12802  0009'                    __end_of_I2C_Master_Stop:
 12803                           
 12804                           	psect	text40
 12805  0000'                    __ptext40:	
 12806 ;; *************** function _I2C_Master_Read *****************
 12807 ;; Defined at:
 12808 ;;		line 75 in file "I2C_LIB.c"
 12809 ;; Parameters:    Size  Location     Type
 12810 ;;  a               2    2[COMMON] unsigned short 
 12811 ;; Auto vars:     Size  Location     Type
 12812 ;;  temp            2    6[COMMON] unsigned short 
 12813 ;; Return value:  Size  Location     Type
 12814 ;;                  2    2[COMMON] unsigned short 
 12815 ;; Registers used:
 12816 ;;		wreg, status,2, status,0, pclath, cstack
 12817 ;; Tracked objects:
 12818 ;;		On entry : 0/0
 12819 ;;		On exit  : 0/0
 12820 ;;		Unchanged: 0/0
 12821 ;; Data sizes:     COMMON   BANK0   BANK1   BANK3   BANK2
 12822 ;;      Params:         2       0       0       0       0
 12823 ;;      Locals:         2       0       0       0       0
 12824 ;;      Temps:          2       0       0       0       0
 12825 ;;      Totals:         6       0       0       0       0
 12826 ;;Total ram usage:        6 bytes
 12827 ;; Hardware stack levels used:    1
 12828 ;; Hardware stack levels required when called:    3
 12829 ;; This function calls:
 12830 ;;		_I2C_Master_Wait
 12831 ;; This function is called by:
 12832 ;;		_main
 12833 ;; This function uses a non-reentrant model
 12834 ;;
 12835                           
 12836                           
 12837                           ;psect for function _I2C_Master_Read
 12838  0000'                    _I2C_Master_Read:
 12839  0000'                    l3511:	
 12840                           ;incstack = 0
 12841                           ; Regs used in _I2C_Master_Read: [wreg+status,2+status,0+pclath+cstack]
 12842                           
 12843                           
 12844                           ;I2C_LIB.c: 75: unsigned short I2C_Master_Read(unsigned short a);I2C_LIB.c: 76: {;I2C_LI
      +                          B.c: 77:     unsigned short temp;;I2C_LIB.c: 78:     I2C_Master_Wait();
 12845  0000' 120A' 118A' 2000' 120A' 118A' 	fcall	_I2C_Master_Wait
 12846  0005'                    l3513:
 12847                           
 12848                           ;I2C_LIB.c: 79:     SSPCON2bits.RCEN = 1;
 12849  0005' 1683               	bsf	3,5	;RP0=1, select bank1
 12850  0006' 1303               	bcf	3,6	;RP1=0, select bank1
 12851  0007' 1591               	bsf	17,3	;volatile
 12852                           
 12853                           ;I2C_LIB.c: 80:     I2C_Master_Wait();
 12854  0008' 120A' 118A' 2000' 120A' 118A' 	fcall	_I2C_Master_Wait
 12855  000D'                    l3515:
 12856                           
 12857                           ;I2C_LIB.c: 81:     temp = SSPBUF;
 12858  000D' 1283               	bcf	3,5	;RP0=0, select bank0
 12859  000E' 1303               	bcf	3,6	;RP1=0, select bank0
 12860  000F' 0813               	movf	19,w	;volatile
 12861  0010' 0084'              	movwf	??_I2C_Master_Read
 12862  0011' 0185'              	clrf	??_I2C_Master_Read+1
 12863  0012' 0804'              	movf	??_I2C_Master_Read,w
 12864  0013' 0086'              	movwf	I2C_Master_Read@temp
 12865  0014' 0805'              	movf	??_I2C_Master_Read+1,w
 12866  0015' 0087'              	movwf	I2C_Master_Read@temp+1
 12867  0016'                    l3517:
 12868                           
 12869                           ;I2C_LIB.c: 82:     I2C_Master_Wait();
 12870  0016' 120A' 118A' 2000' 120A' 118A' 	fcall	_I2C_Master_Wait
 12871  001B'                    l3519:
 12872                           
 12873                           ;I2C_LIB.c: 83:     if(a == 1){
 12874  001B' 0302'              	decf	I2C_Master_Read@a,w
 12875  001C' 0403'              	iorwf	I2C_Master_Read@a+1,w
 12876  001D' 1D03               	btfss	3,2
 12877  001E' 2800'              	goto	u5451
 12878  001F' 2800'              	goto	u5450
 12879  0020'                    u5451:
 12880  0020' 2800'              	goto	l213
 12881  0021'                    u5450:
 12882  0021'                    l3521:
 12883                           
 12884                           ;I2C_LIB.c: 84:         SSPCON2bits.ACKDT = 0;
 12885  0021' 1683               	bsf	3,5	;RP0=1, select bank1
 12886  0022' 1303               	bcf	3,6	;RP1=0, select bank1
 12887  0023' 1291               	bcf	17,5	;volatile
 12888                           
 12889                           ;I2C_LIB.c: 85:     }else{
 12890  0024' 2800'              	goto	l214
 12891  0025'                    l213:
 12892                           
 12893                           ;I2C_LIB.c: 86:         SSPCON2bits.ACKDT = 1;
 12894  0025' 1683               	bsf	3,5	;RP0=1, select bank1
 12895  0026' 1303               	bcf	3,6	;RP1=0, select bank1
 12896  0027' 1691               	bsf	17,5	;volatile
 12897  0028'                    l214:	
 12898                           ;I2C_LIB.c: 87:     }
 12899                           
 12900                           
 12901                           ;I2C_LIB.c: 88:     SSPCON2bits.ACKEN = 1;
 12902  0028' 1611               	bsf	17,4	;volatile
 12903  0029'                    l3523:
 12904                           
 12905                           ;I2C_LIB.c: 89:     return temp;
 12906  0029' 0807'              	movf	I2C_Master_Read@temp+1,w
 12907  002A' 0083'              	movwf	?_I2C_Master_Read+1
 12908  002B' 0806'              	movf	I2C_Master_Read@temp,w
 12909  002C' 0082'              	movwf	?_I2C_Master_Read
 12910  002D'                    l215:
 12911  002D' 0008               	return
 12912  002E'                    __end_of_I2C_Master_Read:
 12913                           
 12914                           	psect	text41
 12915  0000'                    __ptext41:	
 12916 ;; *************** function _I2C_Master_Wait *****************
 12917 ;; Defined at:
 12918 ;;		line 32 in file "I2C_LIB.c"
 12919 ;; Parameters:    Size  Location     Type
 12920 ;;		None
 12921 ;; Auto vars:     Size  Location     Type
 12922 ;;		None
 12923 ;; Return value:  Size  Location     Type
 12924 ;;                  1    wreg      void 
 12925 ;; Registers used:
 12926 ;;		wreg, status,2
 12927 ;; Tracked objects:
 12928 ;;		On entry : 0/0
 12929 ;;		On exit  : 0/0
 12930 ;;		Unchanged: 0/0
 12931 ;; Data sizes:     COMMON   BANK0   BANK1   BANK3   BANK2
 12932 ;;      Params:         0       0       0       0       0
 12933 ;;      Locals:         0       0       0       0       0
 12934 ;;      Temps:          0       0       0       0       0
 12935 ;;      Totals:         0       0       0       0       0
 12936 ;;Total ram usage:        0 bytes
 12937 ;; Hardware stack levels used:    1
 12938 ;; Hardware stack levels required when called:    2
 12939 ;; This function calls:
 12940 ;;		Nothing
 12941 ;; This function is called by:
 12942 ;;		_I2C_Master_Stop
 12943 ;;		_I2C_Master_Write
 12944 ;;		_I2C_Master_Read
 12945 ;;		_I2C_Master_Start
 12946 ;;		_I2C_Master_RepeatedStart
 12947 ;; This function uses a non-reentrant model
 12948 ;;
 12949                           
 12950                           
 12951                           ;psect for function _I2C_Master_Wait
 12952  0000'                    _I2C_Master_Wait:
 12953  0000'                    l2539:	
 12954                           ;incstack = 0
 12955                           ; Regs used in _I2C_Master_Wait: [wreg+status,2]
 12956                           
 12957  0000'                    l195:	
 12958                           ;I2C_LIB.c: 34:     while ((SSPSTAT & 0x04) || (SSPCON2 & 0x1F));
 12959                           
 12960  0000' 1683               	bsf	3,5	;RP0=1, select bank1
 12961  0001' 1303               	bcf	3,6	;RP1=0, select bank1
 12962  0002' 1914               	btfsc	20,2	;volatile
 12963  0003' 2800'              	goto	u3091
 12964  0004' 2800'              	goto	u3090
 12965  0005'                    u3091:
 12966  0005' 2800'              	goto	l195
 12967  0006'                    u3090:
 12968  0006'                    l2541:
 12969  0006' 0811               	movf	17,w	;volatile
 12970  0007' 391F               	andlw	31
 12971  0008' 1D03               	btfss	3,2
 12972  0009' 2800'              	goto	u3101
 12973  000A' 2800'              	goto	u3100
 12974  000B'                    u3101:
 12975  000B' 2800'              	goto	l195
 12976  000C'                    u3100:
 12977  000C'                    l198:
 12978  000C' 0008               	return
 12979  000D'                    __end_of_I2C_Master_Wait:
 12980                           
 12981                           	psect	text42
 12982  0000'                    __ptext42:	
 12983 ;; *************** function _ISR *****************
 12984 ;; Defined at:
 12985 ;;		line 71 in file "MAIN_I2C.c"
 12986 ;; Parameters:    Size  Location     Type
 12987 ;;		None
 12988 ;; Auto vars:     Size  Location     Type
 12989 ;;		None
 12990 ;; Return value:  Size  Location     Type
 12991 ;;                  1    wreg      void 
 12992 ;; Registers used:
 12993 ;;		wreg, status,2, status,0, pclath, cstack
 12994 ;; Tracked objects:
 12995 ;;		On entry : 0/0
 12996 ;;		On exit  : 0/0
 12997 ;;		Unchanged: 0/0
 12998 ;; Data sizes:     COMMON   BANK0   BANK1   BANK3   BANK2
 12999 ;;      Params:         0       0       0       0       0
 13000 ;;      Locals:         0       0       0       0       0
 13001 ;;      Temps:          2       0       0       0       0
 13002 ;;      Totals:         2       0       0       0       0
 13003 ;;Total ram usage:        2 bytes
 13004 ;; Hardware stack levels used:    1
 13005 ;; Hardware stack levels required when called:    1
 13006 ;; This function calls:
 13007 ;;		_Led
 13008 ;; This function is called by:
 13009 ;;		Interrupt level 1
 13010 ;; This function uses a non-reentrant model
 13011 ;;
 13012                           
 13013                           
 13014                           ;psect for function _ISR
 13015  0000'                    _ISR:
 13016  0000'                    i1l3911:
 13017                           
 13018                           ;MAIN_I2C.c: 73:   Az = (((int)I2C_Master_Read(0)<<8) | (int)I2C_Master_Read(0));
 13019  0000' 1D0B               	btfss	11,2	;volatile
 13020  0001' 2800'              	goto	u615_21
 13021  0002' 2800'              	goto	u615_20
 13022  0003'                    u615_21:
 13023  0003' 2800'              	goto	i1l104
 13024  0004'                    u615_20:
 13025  0004'                    i1l3913:
 13026                           
 13027                           ;MAIN_I2C.c: 74:   T = (((int)I2C_Master_Read(0)<<8) | (int)I2C_Master_Read(0));;MAIN_I2
      +                          C.c: 75:   Gx = (((int)I2C_Master_Read(0)<<8) | (int)I2C_Master_Read(0));
 13028  0004' 110B               	bcf	11,2	;volatile
 13029  0005'                    i1l3915:
 13030                           
 13031                           ;MAIN_I2C.c: 76:   Gy = (((int)I2C_Master_Read(0)<<8) | (int)I2C_Master_Read(0));
 13032  0005' 3064               	movlw	100
 13033  0006' 1283               	bcf	3,5	;RP0=0, select bank0
 13034  0007' 1303               	bcf	3,6	;RP1=0, select bank0
 13035  0008' 0081               	movwf	1	;volatile
 13036  0009'                    i1l3917:
 13037                           
 13038                           ;MAIN_I2C.c: 77:   Gz = (((int)I2C_Master_Read(0)<<8) | (int)I2C_Master_Read(1));
 13039  0009' 1683               	bsf	3,5	;RP0=1, select bank1
 13040  000A' 1303               	bcf	3,6	;RP1=0, select bank1
 13041  000B' 0800'              	movf	_contador^(0+128),w
 13042  000C' 3E01               	addlw	1
 13043  000D' 0080'              	movwf	_contador^(0+128)
 13044  000E' 0800'              	movf	(_contador+1)^(0+128),w
 13045  000F' 1803               	skipnc
 13046  0010' 3E01               	addlw	1
 13047  0011' 3E00               	addlw	0
 13048  0012' 0080'              	movwf	(_contador+1)^(0+128)
 13049  0013'                    i1l3919:
 13050                           
 13051                           ;MAIN_I2C.c: 78:   I2C_Master_Stop();
 13052  0013' 120A' 118A' 2000' 120A' 118A' 	fcall	_Led
 13053  0018'                    i1l104:
 13054  0018' 0801'              	movf	??_ISR+1,w
 13055  0019' 008A               	movwf	10
 13056  001A' 0E00'              	swapf	??_ISR,w
 13057  001B' 0083               	movwf	3
 13058  001C' 0EFE               	swapf	btemp,f
 13059  001D' 0E7E               	swapf	btemp,w
 13060  001E' 0009               	retfie
 13061  001F'                    __end_of_ISR:
 13062                           
 13063                           	psect	intentry
 13064  0000'                    __pintentry:	
 13065                           ;incstack = 0
 13066                           ; Regs used in _ISR: [wreg+status,2+status,0+pclath+cstack]
 13067                           
 13068  0000'                    interrupt_function:
 13069  007E                     saved_w	set	btemp
 13070  0000' 00FE               	movwf	btemp
 13071  0001' 0E03               	swapf	3,w
 13072  0002' 0080'              	movwf	??_ISR
 13073  0003' 080A               	movf	10,w
 13074  0004' 0081'              	movwf	??_ISR+1
 13075  0005' 120A' 118A' 2800'  	ljmp	_ISR
 13076                           
 13077                           	psect	text43
 13078  0000'                    __ptext43:	
 13079 ;; *************** function _Led *****************
 13080 ;; Defined at:
 13081 ;;		line 294 in file "MAIN_I2C.c"
 13082 ;; Parameters:    Size  Location     Type
 13083 ;;		None
 13084 ;; Auto vars:     Size  Location     Type
 13085 ;;		None
 13086 ;; Return value:  Size  Location     Type
 13087 ;;                  1    wreg      void 
 13088 ;; Registers used:
 13089 ;;		wreg, status,2
 13090 ;; Tracked objects:
 13091 ;;		On entry : 0/0
 13092 ;;		On exit  : 0/0
 13093 ;;		Unchanged: 0/0
 13094 ;; Data sizes:     COMMON   BANK0   BANK1   BANK3   BANK2
 13095 ;;      Params:         0       0       0       0       0
 13096 ;;      Locals:         0       0       0       0       0
 13097 ;;      Temps:          0       0       0       0       0
 13098 ;;      Totals:         0       0       0       0       0
 13099 ;;Total ram usage:        0 bytes
 13100 ;; Hardware stack levels used:    1
 13101 ;; This function calls:
 13102 ;;		Nothing
 13103 ;; This function is called by:
 13104 ;;		_ISR
 13105 ;; This function uses a non-reentrant model
 13106 ;;
 13107                           
 13108                           
 13109                           ;psect for function _Led
 13110  0000'                    _Led:
 13111  0000'                    i1l3473:	
 13112                           ;incstack = 0
 13113                           ; Regs used in _Led: [wreg+status,2]
 13114                           
 13115  0000' 3003               	movlw	3
 13116  0001' 1683               	bsf	3,5	;RP0=1, select bank1
 13117  0002' 1303               	bcf	3,6	;RP1=0, select bank1
 13118  0003' 0200'              	subwf	(_contador+1)^(0+128),w
 13119  0004' 30E9               	movlw	233
 13120  0005' 1903               	skipnz
 13121  0006' 0200'              	subwf	_contador^(0+128),w
 13122  0007' 1C03               	skipc
 13123  0008' 2800'              	goto	u543_21
 13124  0009' 2800'              	goto	u543_20
 13125  000A'                    u543_21:
 13126  000A' 2800'              	goto	i1l155
 13127  000B'                    u543_20:
 13128  000B'                    i1l3475:
 13129  000B' 1283               	bcf	3,5	;RP0=0, select bank0
 13130  000C' 1303               	bcf	3,6	;RP1=0, select bank0
 13131  000D' 1C09               	btfss	9,0	;volatile
 13132  000E' 2800'              	goto	u544_21
 13133  000F' 2800'              	goto	u544_20
 13134  0010'                    u544_21:
 13135  0010' 2800'              	goto	i1l153
 13136  0011'                    u544_20:
 13137  0011'                    i1l3477:
 13138  0011' 1009               	bcf	9,0	;volatile
 13139  0012'                    i1l3479:
 13140  0012' 1683               	bsf	3,5	;RP0=1, select bank1
 13141  0013' 1303               	bcf	3,6	;RP1=0, select bank1
 13142  0014' 0180'              	clrf	_contador^(0+128)
 13143  0015' 0180'              	clrf	(_contador+1)^(0+128)
 13144  0016' 2800'              	goto	i1l155
 13145  0017'                    i1l153:
 13146  0017' 1409               	bsf	9,0	;volatile
 13147  0018' 2800'              	goto	i1l3479
 13148  0019'                    i1l155:
 13149  0019' 0008               	return
 13150  001A'                    __end_of_Led:
 13151  007E                     btemp	set	126	;btemp
 13152  007E                     wtemp0	set	126
 13153                           
 13154                           	psect	config
 13155                           
 13156                           ;Config register CONFIG1 @ 0x2007
 13157                           ;	Oscillator Selection bits
 13158                           ;	FOSC = INTRC_NOCLKOUT, INTOSCIO oscillator: I/O function on RA6/OSC2/CLKOUT pin, I/O f
      +                          unction on RA7/OSC1/CLKIN
 13159                           ;	Watchdog Timer Enable bit
 13160                           ;	WDTE = OFF, WDT disabled and can be enabled by SWDTEN bit of the WDTCON register
 13161                           ;	Power-up Timer Enable bit
 13162                           ;	PWRTE = OFF, PWRT disabled
 13163                           ;	RE3/MCLR pin function select bit
 13164                           ;	MCLRE = OFF, RE3/MCLR pin function is digital input, MCLR internally tied to VDD
 13165                           ;	Code Protection bit
 13166                           ;	CP = OFF, Program memory code protection is disabled
 13167                           ;	Data Code Protection bit
 13168                           ;	CPD = OFF, Data memory code protection is disabled
 13169                           ;	Brown Out Reset Selection bits
 13170                           ;	BOREN = OFF, BOR disabled
 13171                           ;	Internal External Switchover bit
 13172                           ;	IESO = OFF, Internal/External Switchover mode is disabled
 13173                           ;	Fail-Safe Clock Monitor Enabled bit
 13174                           ;	FCMEN = OFF, Fail-Safe Clock Monitor is disabled
 13175                           ;	Low Voltage Programming Enable bit
 13176                           ;	LVP = OFF, RB3 pin has digital I/O, HV on MCLR must be used for programming
 13177                           ;	In-Circuit Debugger Mode bit
 13178                           ;	DEBUG = 0x1, unprogrammed default
 13179  2007                     	org	8199
 13180  2007  20D4               	dw	8404
 13181                           
 13182                           ;Config register CONFIG2 @ 0x2008
 13183                           ;	Brown-out Reset Selection bit
 13184                           ;	BOR4V = BOR40V, Brown-out Reset set to 4.0V
 13185                           ;	Flash Program Memory Self Write Enable bits
 13186                           ;	WRT = OFF, Write protection off
 13187  2008                     	org	8200
 13188  2008  3FFF               	dw	16383

Data Sizes:
    Strings     105
    Constant    144
    Data        0
    BSS         4
    Persistent  0
    Stack       0

Auto Spaces:
    Space          Size  Autos    Used
    COMMON           14     10      12
    BANK0            80     79      79
    BANK1            80     46      48
    BANK3            96     62      62
    BANK2            96      0       0

Pointer List with Targets:

    sprintf@cp	PTR const unsigned char  size(1) Largest target is 1
		 -> sprintf@c(BANK1[1]), 

    sprintf@f	PTR const unsigned char  size(2) Largest target is 17
		 -> STR_7(CODE[17]), STR_6(CODE[16]), STR_5(CODE[16]), STR_4(CODE[14]), 
		 -> STR_3(CODE[14]), STR_2(CODE[14]), STR_1(CODE[14]), 

    sprintf@sp	PTR unsigned char  size(1) Largest target is 20
		 -> main@buffer(BANK3[20]), 

    sprintf@ap	PTR void [1] size(1) Largest target is 2
		 -> ?_sprintf(BANK1[2]), 

    USART_SendString@str	PTR const unsigned char  size(1) Largest target is 20
		 -> main@buffer(BANK3[20]), 


Critical Paths under _main in COMMON

    _main->___xxtofl
    _sprintf->___awdiv
    _sprintf->___fleq
    _sprintf->___flge
    _sprintf->___lldiv
    _sprintf->___llmod
    _sprintf->___xxtofl
    _sprintf->__div_to_l_
    _sprintf->__tdiv_to_l_
    _scale->___awdiv
    ___awdiv->___awmod
    ___lwdiv->___lwmod
    ___flmul->___awdiv
    ___flsub->___xxtofl
    ___fladd->___xxtofl
    _I2C_Master_Init->___lldiv
    ___fldiv->___xxtofl
    _USART_SendString->_escribir_char
    _MPU_Start_Loc->_I2C_Start_Wait
    _MPU6050_Init->_MSdelay
    _I2C_Start_Wait->_I2C_Master_Write

Critical Paths under _ISR in COMMON

    None.

Critical Paths under _main in BANK0

    _main->_sprintf
    _sprintf->___fladd
    _scale->___flmul
    _fround->___flmul
    ___flmul->___awdiv
    ___fltol->_scale
    ___flsub->___fladd
    ___fladd->_fround
    _setup->_I2C_Master_Init
    _I2C_Master_Init->___lldiv
    ___fldiv->___xxtofl

Critical Paths under _ISR in BANK0

    None.

Critical Paths under _main in BANK1

    _main->_sprintf
    _sprintf->___flsub

Critical Paths under _ISR in BANK1

    None.

Critical Paths under _main in BANK3

    None.

Critical Paths under _ISR in BANK3

    None.

Critical Paths under _main in BANK2

    None.

Critical Paths under _ISR in BANK2

    None.

Call Graph Tables:

 ---------------------------------------------------------------------------------
 (Depth) Function   	        Calls       Base Space   Used Autos Params    Refs
 ---------------------------------------------------------------------------------
 (0) _main                                                64    64      0   51044
                                             44 BANK1      2     2      0
                                              0 BANK3     62    62      0
                    _I2C_Master_Read
                    _I2C_Master_Stop
                       _MPU6050_Init
                      _MPU_Start_Loc
                   _USART_SendString
                       _USART_config
                            ___fladd
                            ___fldiv
                           ___xxtofl
                      _escribir_char
                    _interrup_config
                         _osc_config
                              _setup
                            _sprintf
                        _tmr0_config
 ---------------------------------------------------------------------------------
 (1) _tmr0_config                                          0     0      0       0
 ---------------------------------------------------------------------------------
 (1) _sprintf                                             44    36      8   38212
                                             74 BANK0      5     5      0
                                              8 BANK1     36    28      8
                            ___awdiv
                            ___fladd
                             ___fleq
                             ___flge
                            ___flmul
                            ___flneg
                            ___flsub
                            ___fltol
                            ___lldiv
                            ___llmod
                             ___wmul
                           ___xxtofl
                         __div_to_l_
                        __tdiv_to_l_
                             _fround
                            _isdigit
                              _scale
 ---------------------------------------------------------------------------------
 (2) _scale                                               19    15      4    8894
                                             34 BANK0     19    15      4
                            ___awdiv
                            ___awmod
                            ___flmul
 ---------------------------------------------------------------------------------
 (3) ___awmod                                              7     3      4    1208
                                              2 COMMON     7     3      4
 ---------------------------------------------------------------------------------
 (3) ___awdiv                                              9     5      4    1364
                                              9 COMMON     1     1      0
                                              0 BANK0      8     4      4
                            ___awmod (ARG)
 ---------------------------------------------------------------------------------
 (2) _isdigit                                              2     2      0      68
                                              2 COMMON     2     2      0
 ---------------------------------------------------------------------------------
 (2) _fround                                              20    16      4    7439
                                             34 BANK0     20    16      4
                            ___flmul
                            ___lwdiv
                            ___lwmod
 ---------------------------------------------------------------------------------
 (3) ___lwmod                                              6     2      4     615
                                              2 COMMON     6     2      4
 ---------------------------------------------------------------------------------
 (3) ___lwdiv                                              8     4      4     781
                                              8 COMMON     1     1      0
                                              0 BANK0      7     3      4
                            ___lwmod (ARG)
 ---------------------------------------------------------------------------------
 (3) ___flmul                                             26    18      8    5693
                                              8 BANK0     26    18      8
                          __Umul8_16
                            ___awdiv (ARG)
                            ___awmod (ARG)
                            ___lwdiv (ARG)
                            ___lwmod (ARG)
 ---------------------------------------------------------------------------------
 (4) __Umul8_16                                            9     7      2     980
                                              2 COMMON     4     2      2
                                              0 BANK0      5     5      0
 ---------------------------------------------------------------------------------
 (2) __tdiv_to_l_                                         18    10      8     455
                                              2 COMMON     8     0      8
                                              0 BANK0     10    10      0
 ---------------------------------------------------------------------------------
 (2) __div_to_l_                                          15     7      8     634
                                              2 COMMON     8     0      8
                                              0 BANK0      7     7      0
 ---------------------------------------------------------------------------------
 (2) ___xxtofl                                            14    10      4     930
                                              2 COMMON     8     4      4
                                              0 BANK0      6     6      0
 ---------------------------------------------------------------------------------
 (2) ___wmul                                               6     2      4     396
                                              2 COMMON     6     2      4
 ---------------------------------------------------------------------------------
 (2) ___llmod                                             10     2      8     772
                                              2 COMMON     8     0      8
                                              0 BANK0      2     2      0
 ---------------------------------------------------------------------------------
 (2) ___fltol                                             11     7      4     457
                                             53 BANK0     11     7      4
                            ___flmul (ARG)
                              _scale (ARG)
 ---------------------------------------------------------------------------------
 (2) ___flsub                                              8     0      8    2637
                                              0 BANK1      8     0      8
                            ___fladd
                           ___xxtofl (ARG)
 ---------------------------------------------------------------------------------
 (3) ___fladd                                             20    12      8    2440
                                             54 BANK0     20    12      8
                            ___fldiv (ARG)
                           ___xxtofl (ARG)
                             _fround (ARG)
 ---------------------------------------------------------------------------------
 (2) ___flneg                                              4     0      4     121
                                              2 COMMON     4     0      4
 ---------------------------------------------------------------------------------
 (2) ___flge                                              12     4      8     790
                                              2 COMMON     8     0      8
                                              0 BANK0      4     4      0
 ---------------------------------------------------------------------------------
 (2) ___fleq                                              12     4      8     394
                                              2 COMMON     8     0      8
                                              0 BANK0      4     4      0
 ---------------------------------------------------------------------------------
 (1) _setup                                                0     0      0     902
                    _I2C_Master_Init
 ---------------------------------------------------------------------------------
 (2) _I2C_Master_Init                                      8     4      4     902
                                              6 BANK0      8     4      4
                            ___lldiv
 ---------------------------------------------------------------------------------
 (2) ___lldiv                                             14     6      8     781
                                              2 COMMON     8     0      8
                                              0 BANK0      6     6      0
 ---------------------------------------------------------------------------------
 (1) _osc_config                                           0     0      0       0
 ---------------------------------------------------------------------------------
 (1) _interrup_config                                      0     0      0       0
 ---------------------------------------------------------------------------------
 (1) ___fldiv                                             26    18      8    2185
                                              6 BANK0     26    18      8
                           ___xxtofl (ARG)
 ---------------------------------------------------------------------------------
 (1) _USART_config                                         0     0      0       0
                   _USART_lib_config
 ---------------------------------------------------------------------------------
 (2) _USART_lib_config                                     0     0      0       0
 ---------------------------------------------------------------------------------
 (1) _USART_SendString                                     2     2      0     298
                                              3 COMMON     2     2      0
                      _escribir_char
 ---------------------------------------------------------------------------------
 (1) _escribir_char                                        1     1      0      22
                                              2 COMMON     1     1      0
 ---------------------------------------------------------------------------------
 (1) _MPU_Start_Loc                                        0     0      0    1912
                   _I2C_Master_Write
                 _I2C_Repeated_Start
                     _I2C_Start_Wait
 ---------------------------------------------------------------------------------
 (2) _I2C_Repeated_Start                                   3     3      0      22
                                              2 COMMON     3     3      0
                          _I2C_Write
 ---------------------------------------------------------------------------------
 (3) _I2C_Write                                            2     0      2       0
 ---------------------------------------------------------------------------------
 (1) _MPU6050_Init                                         0     0      0    2058
                    _I2C_Master_Stop
                   _I2C_Master_Write
                     _I2C_Start_Wait
                            _MSdelay
 ---------------------------------------------------------------------------------
 (2) _MSdelay                                              6     4      2     168
                                              2 COMMON     6     4      2
 ---------------------------------------------------------------------------------
 (2) _I2C_Start_Wait                                       3     3      0     956
                                              4 COMMON     3     3      0
                    _I2C_Master_Stop
                   _I2C_Master_Write
 ---------------------------------------------------------------------------------
 (3) _I2C_Master_Write                                     2     0      2     934
                                              2 COMMON     2     0      2
                    _I2C_Master_Wait
 ---------------------------------------------------------------------------------
 (3) _I2C_Master_Stop                                      0     0      0       0
                    _I2C_Master_Wait
 ---------------------------------------------------------------------------------
 (1) _I2C_Master_Read                                      6     4      2    1109
                                              2 COMMON     6     4      2
                    _I2C_Master_Wait
 ---------------------------------------------------------------------------------
 (4) _I2C_Master_Wait                                      0     0      0       0
 ---------------------------------------------------------------------------------
 Estimated maximum stack depth 4
 ---------------------------------------------------------------------------------
 (Depth) Function   	        Calls       Base Space   Used Autos Params    Refs
 ---------------------------------------------------------------------------------
 (5) _ISR                                                  2     2      0       0
                                              0 COMMON     2     2      0
                                _Led
 ---------------------------------------------------------------------------------
 (6) _Led                                                  0     0      0       0
 ---------------------------------------------------------------------------------
 Estimated maximum stack depth 6
 ---------------------------------------------------------------------------------

 Call Graph Graphs:

 _main (ROOT)
   _I2C_Master_Read
     _I2C_Master_Wait
   _I2C_Master_Stop
     _I2C_Master_Wait
   _MPU6050_Init
     _I2C_Master_Stop
       _I2C_Master_Wait
     _I2C_Master_Write
       _I2C_Master_Wait
     _I2C_Start_Wait
       _I2C_Master_Stop
         _I2C_Master_Wait
       _I2C_Master_Write
         _I2C_Master_Wait
     _MSdelay
   _MPU_Start_Loc
     _I2C_Master_Write
       _I2C_Master_Wait
     _I2C_Repeated_Start
       _I2C_Write
     _I2C_Start_Wait
       _I2C_Master_Stop
         _I2C_Master_Wait
       _I2C_Master_Write
         _I2C_Master_Wait
   _USART_SendString
     _escribir_char
   _USART_config
     _USART_lib_config
   ___fladd
     ___fldiv (ARG)
       ___xxtofl (ARG)
     ___xxtofl (ARG)
     _fround (ARG)
       ___flmul
         __Umul8_16
         ___awdiv (ARG)
           ___awmod (ARG)
         ___awmod (ARG)
         ___lwdiv (ARG)
           ___lwmod (ARG)
         ___lwmod (ARG)
       ___lwdiv
         ___lwmod (ARG)
       ___lwmod
   ___fldiv
     ___xxtofl (ARG)
   ___xxtofl
   _escribir_char
   _interrup_config
   _osc_config
   _setup
     _I2C_Master_Init
       ___lldiv
   _sprintf
     ___awdiv
       ___awmod (ARG)
     ___fladd
       ___fldiv (ARG)
         ___xxtofl (ARG)
       ___xxtofl (ARG)
       _fround (ARG)
         ___flmul
           __Umul8_16
           ___awdiv (ARG)
             ___awmod (ARG)
           ___awmod (ARG)
           ___lwdiv (ARG)
             ___lwmod (ARG)
           ___lwmod (ARG)
         ___lwdiv
           ___lwmod (ARG)
         ___lwmod
     ___fleq
     ___flge
     ___flmul
       __Umul8_16
       ___awdiv (ARG)
         ___awmod (ARG)
       ___awmod (ARG)
       ___lwdiv (ARG)
         ___lwmod (ARG)
       ___lwmod (ARG)
     ___flneg
     ___flsub
       ___fladd
         ___fldiv (ARG)
           ___xxtofl (ARG)
         ___xxtofl (ARG)
         _fround (ARG)
           ___flmul
             __Umul8_16
             ___awdiv (ARG)
               ___awmod (ARG)
             ___awmod (ARG)
             ___lwdiv (ARG)
               ___lwmod (ARG)
             ___lwmod (ARG)
           ___lwdiv
             ___lwmod (ARG)
           ___lwmod
       ___xxtofl (ARG)
     ___fltol
       ___flmul (ARG)
         __Umul8_16
         ___awdiv (ARG)
           ___awmod (ARG)
         ___awmod (ARG)
         ___lwdiv (ARG)
           ___lwmod (ARG)
         ___lwmod (ARG)
       _scale (ARG)
         ___awdiv
           ___awmod (ARG)
         ___awmod
         ___flmul
           __Umul8_16
           ___awdiv (ARG)
             ___awmod (ARG)
           ___awmod (ARG)
           ___lwdiv (ARG)
             ___lwmod (ARG)
           ___lwmod (ARG)
     ___lldiv
     ___llmod
     ___wmul
     ___xxtofl
     __div_to_l_
     __tdiv_to_l_
     _fround
       ___flmul
         __Umul8_16
         ___awdiv (ARG)
           ___awmod (ARG)
         ___awmod (ARG)
         ___lwdiv (ARG)
           ___lwmod (ARG)
         ___lwmod (ARG)
       ___lwdiv
         ___lwmod (ARG)
       ___lwmod
     _isdigit
     _scale
       ___awdiv
         ___awmod (ARG)
       ___awmod
       ___flmul
         __Umul8_16
         ___awdiv (ARG)
           ___awmod (ARG)
         ___awmod (ARG)
         ___lwdiv (ARG)
           ___lwmod (ARG)
         ___lwmod (ARG)
   _tmr0_config

 _ISR (ROOT)
   _Led

 Address spaces:
Name               Size   Autos  Total    Cost      Usage
BITCOMMON            E      0       0       0        0.0%
EEDATA             100      0       0       0        0.0%
NULL                 0      0       0       0        0.0%
CODE                 0      0       0       0        0.0%
COMMON               E      A       C       1       85.7%
BITSFR0              0      0       0       1        0.0%
SFR0                 0      0       0       1        0.0%
BITSFR1              0      0       0       2        0.0%
SFR1                 0      0       0       2        0.0%
STACK                0      0       0       2        0.0%
ABS                  0      0      C9       3        0.0%
BITBANK0            50      0       0       4        0.0%
BITSFR3              0      0       0       4        0.0%
SFR3                 0      0       0       4        0.0%
BANK0               50     4F      4F       5       98.8%
BITSFR2              0      0       0       5        0.0%
SFR2                 0      0       0       5        0.0%
BITBANK1            50      0       0       6        0.0%
BANK1               50     2E      30       7       60.0%
BITBANK3            60      0       0       8        0.0%
BANK3               60     3E      3E       9       64.6%
BITBANK2            60      0       0      10        0.0%
BANK2               60      0       0      11        0.0%
DATA                 0      0      C9      12        0.0%


Microchip Technology PIC Macro Assembler V2.31 build 20201012212115 
Symbol Table                                                                                   Fri Mar 05 01:25:13 2021

                        ___fldiv@aexp 001F                          ___fldiv@bexp 001E  
                                   pc 0002                          ___fldiv@sign 0017  
                         _SSPSTATbits 0094                          ___awdiv@sign 0005  
              __size_of_escribir_char 000A                                    fsr 0004  
                 ___wmul@multiplicand 0004                   __Umul8_16@word_mpld 0002  
                                 l121 0009                                   l210 0009  
                                 l130 0005                                   l115 0038  
                                 l124 000C                                   l213 0025  
                                 l221 0001                                   l133 0009  
                                 l109 001E                                   l214 0028  
                                 l222 0004                                   l118 000B  
                                 l215 002D                                   l207 0008  
                                 l127 0005                                   l224 0008  
                                 l232 001A                                   l240 0004  
                                 l242 0008                                   l146 0015  
                                 l139 0016                                   l244 001E  
                                 l229 002A                                   l237 0024  
                                 l149 0099                                   l192 0037  
                                 l440 07A4                                   l361 0224  
                                 l610 0058                                   l434 0739  
                                 l426 05A0                                   l195 0000  
                                 l259 001D                                   l700 0055  
                                 l444 000C                                   l198 000C  
                                 l630 001E                                   l446 0024  
                                 l614 00BD                                   l631 003A  
                                 l615 0022                                   l480 0067  
                                 l632 004F                                   l368 0398  
                                 l625 00B0                                   l802 021B  
                                 l618 0080                                   l635 001E  
                                 l643 000A                                   l387 00A3  
                                 l813 027B                                   l805 0259  
                                 l661 00BC                                   l638 008A  
                                 l814 0287                                   l654 0066  
                                 l662 002E                                   l750 0045  
                                 l639 00A3                                   l647 007B  
                                 l911 0024                                   l672 00AF  
                                 l760 0039                                   l817 004F  
                                 l657 007B                                   l913 00BB  
                                 l665 007F                                   l851 01D0  
                                 l843 014E                                   l827 005C  
                                 l771 0063                                   l931 0011  
                                 l924 0085                                   l829 01DC  
                                 l925 0091                                   l917 0069  
                                 l597 0068                                   l775 010A  
                                 l792 01D5                                   l784 0287  
                                 l849 01C0                                   l777 00E1  
                                 l873 02CC                                   l867 0360  
                                 l796 01F9               __end_of_interrup_config 000C  
                                 l886 0016                                   l879 0354  
                                 l888 0028                                   _GIE 005F  
                                 _ISR 0000                                   _Led 0000  
                    _USART_lib_config 0000                                   fsr0 0004  
                                 _str 0000                                   indf 0000  
                        ___awmod@sign 0008                          ___flmul@aexp 0016  
                        ___flmul@bexp 001B                       ??_MPU_Start_Loc 0007  
                        ___flmul@sign 0015                          ___flmul@temp 0020  
                        ___flmul@prod 001C                                  ?_ISR 0000  
                                ?_Led 0000                          ___fltol@exp1 003F  
                                l3101 0016                                  l3111 001E  
                                l3103 0017                                  l3113 0024  
                                l3121 001E                                  l3105 001A  
                                l3201 0008                                  l3115 0001  
                                l3211 0013                                  l3203 000E  
                                l3109 0012                                  l3053 0001  
                                l3221 002F                                  l4101 0011  
                                l3205 0010                                  l3135 0005  
                                l3127 0000                                  l3119 0012  
                                l3071 0005                                  l3231 0058  
                                l3223 0035                                  l3215 001C  
                                l4031 0003                                  l4111 0026  
                                l4103 0012                                  l3137 0014  
                                l3129 0003                                  l3081 000A  
                                l3073 0006                                  l3401 0070  
                                l3321 001A                                  l3313 0000  
                                l3241 0083                                  l3233 0066  
                                l3225 0044                                  l3209 0000  
                                l4041 0024                                  l4033 0005  
                                l4121 003E                                  l4113 002E  
                                l4105 0017                                  l2601 0017  
                                l3091 0011                                  l3083 000B  
                                l3075 0007                                  l3067 0000  
                                l4051 0022                                  l3331 0032  
                                l3323 0020                                  l3315 0002  
                                l3235 0070                                  l3227 0046  
                                l4035 000C                                  l4211 0301  
                                l4203 02D1                                  l4131 005A  
                                l4123 0043                                  l4115 0033  
                                l4107 001C                                  l2611 002D  
                                l2603 001B                                  l2541 0006  
                                l3093 0012                                  l3085 000C  
                                l3077 0008                                  l3069 0004  
                                l4061 0050                                  l4053 0026  
                                l4045 0000                                  l3333 004C  
                                l3341 0016                                  l3317 0006  
                                l3237 0071                                  l3229 004F  
                                l4037 0010                                  l4221 0338  
                                l4205 02D6                                  l4213 0307  
                                l4141 007D                                  l4133 005F  
                                l4125 0048                                  l4117 0039  
                                l4109 0024                                  l2701 0009  
                                l2621 004D                                  l2613 0031  
                                l2605 001D                                  l4301 0368  
                                l3501 0000                                  l3511 0000  
                                l3095 0013                                  l3087 000F  
                                l3079 0009                                  l4063 0059  
                                l4055 002F                                  l4047 0012  
                                l3335 004E                                  l3327 0000  
                                l3351 0066                                  l3343 0032  
                                l3423 0000                                  l3319 0013  
                                l3431 0008                                  l4311 0016  
                                l3255 00A4                                  l3247 008B  
                                l3239 0079                                  l4039 001F  
                                l4231 0358                                  l4223 033A  
                                l4215 0314                                  l4207 02E4  
                                l4151 010B                                  l4143 008A  
                                l4135 0064                                  l4127 0050  
                                l4119 003D                                  l4071 0004  
                                l2711 0028                                  l2703 0010  
                                l2623 0054                                  l2615 0035  
                                l2607 0023                                  l3503 0008  
                                l3521 0021                                  l3513 0005  
                                l2561 0000                                  l3505 0000  
                                l3097 0014                                  l3089 0010  
                                l4057 0041                                  l4049 0015  
                                l4065 005F                                  l4241 0031  
                                l3329 0016                                  l3353 00A0  
                                l3345 003A                                  l3361 0008  
                                l2801 00C5                                  l2721 0007  
                                l3425 0004                                  l3441 0035  
                                l3433 000C                                  l4321 003C  
                                l4305 0000                                  l3257 00B4  
                                l3249 009D                                  l4225 0348  
                                l4217 031F                                  l4209 02E8  
                                l4161 016D                                  l4153 0127  
                                l4145 00A7                                  l4129 0052  
                                l4081 001C                                  l4073 000A  
                                l2713 002F                                  l2705 0014  
                                l2617 0046                                  l2609 0026  
                                l2625 005A                                  l2641 000C  
                                l2633 0000                                  l4401 003F  
                                l2539 0000                                  l3523 0029  
                                l3515 000D                                  l2563 0005  
                                l3507 0000                                  l3099 0015  
                                l4059 004F                                  l4243 0032  
                                l4235 0000                                  l3355 00A2  
                                l3347 003E                                  l3339 0000  
                                l3363 000A                                  l2811 00F5  
                                l2803 00E5                                  l2731 001C  
                                l2723 000D                                  l3451 0060  
                                l3443 003A                                  l3435 001C  
                                l4331 0070                                  l4323 003E  
                                l4307 000D                                  l4227 034C  
                                l4219 032E                                  l4171 01FD  
                                l4163 018A                                  l4155 0130  
                                l4147 00C3                                  l4139 006D  
                                l4083 002D                                  l4075 000D  
                                l4091 0041                                  l2707 0018  
                                l2715 0035                                  l2627 005F  
                                l2619 004C                                  l2651 0025  
                                l2643 0010                                  l2635 0001  
                                l4411 0084                                  l4403 0045  
                                l3517 0016                                  l2557 0000  
                                l3509 000F                                  l4245 0033  
                                l4237 0003                                  l3349 0062  
                                l2901 0270                                  l2813 00FE  
                                l2805 00EE                                  l2741 0034  
                                l2733 0024                                  l2725 0011  
                                l3381 0036                                  l3373 0016  
                                l3461 0093                                  l3453 0070  
                                l3445 0047                                  l3437 002C  
                                l3429 0003                                  l4333 0071  
                                l4325 0047                                  l4317 0023  
                                l4229 034D                                  l4181 028F  
                                l4173 022A                                  l4165 01A3  
                                l4157 0140                                  l4149 00EF  
                                l4085 0033                                  l4077 0014  
                                l4069 0000                                  l2709 0022  
                                l4261 01DD                                  l3197 0001  
                                l2629 0064                                  l2661 0044  
                                l2653 0029                                  l2645 0015  
                                l2637 0005                                  l4501 039A  
                                l4421 00BA                                  l4405 0048  
                                l4413 009D                                  l3519 001B  
                                l2559 0005                                  l4239 0030  
                                l3359 0000                                  l2911 0286  
                                l2903 0271                                  l2831 0144  
                                l2823 011C                                  l2807 00F0  
                                l2815 0102                                  l2751 0046  
                                l2743 003A                                  l2735 0025  
                                l2727 0012                                  l2719 0000  
                                l3383 003A                                  l3391 0054  
                                l3375 002B                                  l3367 0000  
                                l3463 00A9                                  l3455 007B  
                                l3447 004E                                  l4351 00A5  
                                l4343 008C                                  l4335 007A  
                                l4327 0050                                  l4319 002B  
                                l4183 0298                                  l4191 02AC  
                                l4175 0250                                  l4167 01C0  
                                l4159 015D                                  l4095 0000  
                                l4087 0034                                  l4079 0018  
                                l4255 0124                                  l4247 0003  
                                l3199 0002                                  l2591 0003  
                                l2655 002D                                  l2647 001B  
                                l2663 004A                                  l2639 000A  
                                l4271 0010                                  l4511 03E8  
                                l4503 03A3                                  l4431 00F0  
                                l4423 00C1                                  l4415 00A1  
                                l4407 005D                                  l3801 0049  
                                l2905 0275                                  l2833 0146  
                                l2825 0133                                  l2817 010E  
                                l2841 0159                                  l2809 00F4  
                                l2753 004B                                  l2761 005B  
                                l2745 003B                                  l2729 0017  
                                l2737 0027                                  l3377 002C  
                                l3369 000D                                  l4361 000D  
                                l3465 00AE                                  l3457 007F  
                                l3449 0052                                  l4353 00B5  
                                l4337 0084                                  l4345 009E  
                                l4329 0062                                  l4193 02B0  
                                l4185 029C                                  l4177 0278  
                                l4169 01ED                                  l4097 0007  
                                l4089 003B                                  l4257 012A  
                                l4249 0009                                  l2593 0007  
                                l2665 004F                                  l2657 0037  
                                l2649 001E                                  l4265 0003  
                                l4601 0758                                  l4521 0459  
                                l4505 03AB                                  l4513 03F1  
                                l4433 00FD                                  l4425 00D1  
                                l4417 00A7                                  l4441 0111  
                                l4409 007E                                  l3811 0070  
                                l3803 0051                                  l2907 0277  
                                l2843 016F                                  l2851 01C7  
                                l2835 014A                                  l2827 0137  
                                l2819 0113                                  l2771 0079  
                                l2763 0069                                  l2755 0050  
                                l2747 0041                                  l2739 002F  
                                l3379 0034                                  l4371 0047  
                                l4363 001A                                  l3467 00B2  
                                l3459 0089                                  l4195 02B1  
                                l4187 029D                                  l4179 0281  
                                l4099 000D                                  l2595 000C  
                                l2667 0054                                  l2659 003D  
                                l4283 01A0                                  l4267 0007  
                                l4603 0758                                  l4531 04B9  
                                l4515 0426                                  l4507 03C9  
                                l4451 016E                                  l4611 079E  
                                l4435 0105                                  l4427 00D7  
                                l4419 00AD                                  l4443 0144  
                                l3493 0000                                  l3901 01C6  
                                l3813 0074                                  l3805 0052  
                                l4381 0025                                  l2909 0282  
                                l2861 01F4                                  l2853 01DD  
                                l2845 01AD                                  l2837 014B  
                                l2829 013B                                  l2781 008D  
                                l2773 007D                                  l2765 006D  
                                l2757 0058                                  l2749 0045  
                                l3397 005B                                  l3389 0042  
                                l4365 001E                                  l4373 004D  
                                l4357 0000                                  l3469 00B3  
                                l4197 02B5                                  l4189 02A6  
                                l2597 000E                                  l2589 0000  
                                l4277 0108                                  l4269 0009  
                                l4605 076C                                  l4541 053F  
                                l4533 04CB                                  l4525 0460  
                                l4517 0455                                  l4461 01B0  
                                l4453 0176                                  l4445 0156  
                                l4437 010C                                  l4429 00DF  
                                l4621 0000                                  l3903 01CA  
                                l3831 00B5                                  l3823 008B  
                                l3807 0054                                  l3495 0000  
                                l4383 0028                                  l2871 0207  
                                l2863 01F8                                  l2855 01E2  
                                l2847 01B3                                  l2839 0154  
                                l2791 00A1                                  l2783 0091  
                                l2775 0081                                  l2767 0071  
                                l2759 0059                                  l3399 006B  
                                l4367 0030                                  l4359 0008  
                                l4199 02C9                                  l2599 0012  
                                l4295 02D0                                  l4279 010F  
                                l4287 01D1                                  l4551 056B  
                                l4535 04D6                                  l4519 0457  
                                l4471 0210                                  l4463 01C9  
                                l4455 018F                                  l4447 015C  
                                l4391 0012                                  l4631 0034  
                                l4623 000A                                  l3761 0001  
                                l3905 01CC                                  l3841 00D3  
                                l3833 00B7                                  l3825 009D  
                                l3809 0064                                  l3817 007D  
                                l3497 0000                                  l4385 0029  
                                l4377 0000                                  l2881 0218  
                                l2865 01FD                                  l2873 0209  
                                l2849 01B8                                  l2793 00A5  
                                l2785 0095                                  l2777 0085  
                                l2769 0075                                  l4369 003E  
                                l2697 0000                                  l4297 02D7  
                                l4289 01D8                                  l4561 05B1  
                                l4553 0571                                  l4537 04DD  
                                l4545 054E                                  l4529 04AB  
                                l4481 029D                                  l4473 0214  
                                l4465 01D4                                  l4457 01A8  
                                l4449 0160                                  l4393 001F  
                                l4609 0778                                  l4641 00D5  
                                l4633 0039                                  l4625 000F  
                                l3763 0002                                  l3835 00BC  
                                l3843 00DC                                  l3851 0101  
                                l3827 00A5                                  l3819 0082  
                                l3771 0007                                  l3499 0008  
                                l4379 0018                                  l2891 0237  
                                l2867 0200                                  l2859 01EB  
                                l2875 020D                                  l2795 00A9  
                                l2787 0099                                  l2779 0089  
                                l2699 0006                                  l4571 0642  
                                l4563 05B6                                  l4555 057E  
                                l4547 0558                                  l4539 0520  
                                l4491 031F                                  l4483 02A6  
                                l4475 021A                                  l4467 01DA  
                                l4459 01AC                                  l4723 0139  
                                l4395 0026                                  l4387 0003  
                                l4651 0192                                  l4643 00FC  
                                l4635 0060                                  l4627 0024  
                                l3765 000A                                  l3861 011E  
                                l3853 0107                                  l3845 00EE  
                                l3837 00CE                                  l3829 00AD  
                                l3781 001C                                  l3773 000D  
                                l2893 0255                                  l2885 0220  
                                l2877 020E                                  l2869 0202  
                                l2789 009D                                  l2797 00AD  
                                l4573 0685                                  l4581 06FB  
                                l4565 05C3                                  l4557 058D  
                                l4549 0565                                  l4493 032E  
                                l4485 02C1                                  l4477 0239  
                                l4469 01ED                                  l4397 0028  
                                l4389 000C                                  l4661 02DC  
                                l4653 01D4                                  l4645 0123  
                                l4637 0087                                  l4629 002E  
                                l3767 000E                                  l3871 0133  
                                l3863 011F                                  l3855 010F  
                                l3847 00EF                                  l3839 00D2  
                                l3791 0034                                  l3783 0024  
                                l3775 0011                                  l2895 025E  
                                l2887 0225                                  l2879 0212  
                                l2799 00AE                                  l4583 0703  
                                l4575 06A4                                  l4567 05C9  
                                l4559 0596                                  l4495 0349  
                                l4479 0284                                  l4487 02C9  
                                l4591 0723                                  l4399 003C  
                                l4671 0389                                  l4663 0335  
                                l4655 0216                                  l4647 014B  
                                l4639 00AE                                  l3881 0158  
                                l3873 0137                                  l3865 0128  
                                l3857 0111                                  l3849 00FD  
                                l3793 003A                                  l3785 0025  
                                l3777 0012                                  l3769 0000  
                                l2897 0263                                  l2889 0233  
                                l4593 072B                                  l4585 0710  
                                l4577 06B2                                  l4569 05E7  
                                l4497 0370                                  l4489 02D8  
                                l4681 0409                                  l4673 03AD  
                                l4665 0359                                  l4657 0258  
                                l4649 0150                                  l3891 0196  
                                l3883 0166                                  l3875 014B  
                                l3859 011A                                  l3867 012E  
                                l3795 003E                                  l3779 0017  
                                l3787 0027                                  l2899 026B  
                                l4595 0733                                  l4587 0716  
                                l4579 06B8                                  l4499 037F  
                                l4691 046B                                  l4683 040F  
                                l4675 03B3                                  l4667 035F  
                                l4659 029A                                  l3893 01A4  
                                l3885 016A                                  l3869 0132  
                                l3797 003F                                  l3789 002F  
                                l4597 0744                                  l4589 071C  
                                l4685 0437                                  l4677 03DB  
                                l4669 0383                                  l3895 01B3  
                                l3887 0183                                  l3879 0153  
                                l3799 0044                                  l4599 0745  
                                l4687 043D                                  l4679 03E1  
                                l3897 01B7                                  l3889 0189  
                                l4689 0465                                  l3899 01BF  
                                STR_1 00E1                                  STR_2 00EF  
                                STR_3 00FD                                  STR_4 00D3  
                                STR_5 00B3                                  STR_6 00C3  
                                STR_7 00A2                                  _CREN 00C4  
                                u3100 000C                                  _IOCB 0096  
                                u3101 000B                                  u3210 0007  
                                u3211 0006                                  u3300 005F  
                                u3220 0012                                  u3301 005E  
                                u3221 0011                                  u3230 0023  
                                u3310 0005                                  u3231 0022  
                                u3311 0004                                  u3320 0010  
                                u3321 000F                                  u3090 0006  
                                u5010 0020                                  u3250 0035  
                                u3330 001B                                  u3091 0005  
                                u5011 001F                                  u3251 0034  
                                u3331 001A                                  u5020 0016  
                                u3500 0022                                  u5021 0015  
                                u5101 0075                                  u5005 0014  
                                u3501 0021                                  u3245 0027  
                                u5030 0032                                  u5110 00A0  
                                u5102 0076                                  u3270 0046  
                                u3350 002D                                  u5031 0031  
                                u5111 009F                                  u5103 007B  
                                u3271 0045                                  u3351 002C  
                                u4400 0024                                  u6000 0107  
                                u5040 004C                                  u5104 007C  
                                u5120 0008                                  u3600 0069  
                                u3520 0035                                  u3360 0037  
                                u4401 0023                                  u6001 0106  
                                u5041 004B                                  u5105 0081  
                                u5121 0007                                  u3601 0068  
                                u3521 0034                                  u3505 001E  
                                u3265 0036                                  u3361 0036  
                                u3345 001F                                  u4410 0008  
                                u6010 010F                                  u5106 0082  
                                u5050 0016                                  u3610 006D  
                                u3530 0011                                  u5210 006B  
                                u5130 000D                                  u3290 005A  
                                u4411 0007                                  u6011 010E  
                                u5115 009C                                  u5051 0015  
                                u3611 006C                                  u3531 0010  
                                u5211 006A                                  u5131 000C  
                                u3515 0029                                  u3291 0059  
                                u3275 0042                                  u4420 0011  
                                u6100 016A                                  u5060 0032  
                                u3700 0113                                  u3620 00C5  
                                u3540 0017                                  u5220 0070  
                                u5140 0024                                  u5300 000C  
                                u3380 004A                                  u4421 0010  
                                u6101 0169                                  u5045 0048  
                                u5061 0031                                  u3701 0112  
                                u3621 00C4                                  u3541 0016  
                                u5221 006F                                  u5205 005D  
                                u5301 000B                                  u3285 004E  
                                u3381 0049                                  u3365 0033  
                                u4430 0014                                  u6110 0179  
                                u6030 011E                                  u5070 003E  
                                u3630 00D0                                  u3550 001C  
                                u5150 003A                                  u5310 002C  
                                u3470 0006                                  u3390 004F  
                                u4431 0013                                  u6031 011D  
                                u5071 003D                                  u3711 0125  
                                u3631 00CE                                  u3551 001B  
                                u5151 0039                                  u5311 002B  
                                u3471 0005                                  u3391 004E  
                                u3375 003E                                  u4440 0024  
                                u4360 0009                                  u6120 0196  
                                u3800 01DD                                  u3720 0137  
                                u3712 012C                                  u3640 00D1  
                                u3560 003A                                  u5160 0041  
                                u5400 009E                                  u4441 0023  
                                u4361 0008                                  u6121 0195  
                                u6025 0113                                  u5081 004D  
                                u3801 01DC                                  u3721 0136  
                                u3713 0133                                  u3625 00C1  
                                u3561 0039                                  u5161 0040  
                                u5145 001F                                  u6130 01B3  
                                u6050 0132                                  u6210 0026  
                                u5090 0066                                  u5082 004E  
                                u3810 01E2                                  u3730 013B  
                                u3650 00E5                                  u3570 0045  
                                u5410 00AE                                  u5330 004D  
                                u7010 0080                                  u3490 0018  
                                u6131 01B2                                  u6115 0174  
                                u6051 0131                                  u6211 0025  
                                u5091 0065                                  u5083 0053  
                                u3811 01E1                                  u3731 013A  
                                u3651 00E4                                  u3571 0044  
                                u5411 00AD                                  u5331 004C  
                                u7011 007F                                  u3491 0017  
                                _PEIE 005E                                  u4380 0008  
                                u6140 01CA                                  u6060 0137  
                                u5084 0054                                  u3900 0225  
                                u3740 014A                                  u3660 00F4  
                                u3580 004B                                  u5180 0053  
                                u5420 00B2                                  u7020 0084  
                                u6300 002D                                  u4700 0008  
                                u4381 0007                                  u4445 0020  
                                u6141 01C9                                  u6125 0192  
                                u6061 0136                                  u6045 0121  
                                u6205 0017                                  u5085 0059  
                                u3901 0224                                  u3741 0149  
                                u3661 00F3                                  u3581 004A  
                                u5181 0052                                  u5421 00B1  
                                u5405 0099                                  u5325 003F  
                                u7021 0083                                  u7005 0073  
                                u6301 002C                                  u3485 000A  
                                u4701 0007                                  u4390 0011  
                                u6070 014B                                  u6230 0041  
                                u5086 005A                                  u3910 0237  
                                u3830 01F8                                  u3590 0050  
                                u5190 005A                                  u7110 001E  
                                u5350 006F                                  u7030 008B  
                                u4710 000E                                  u4391 0010  
                                u6135 01AF                                  u6071 014A  
                                u6231 0040                                  u3911 0236  
                                u3831 01F7                                  u3591 004F  
                                u5191 0059                                  u5175 0043  
                                u7111 001D                                  u5351 006E  
                                u7031 008A                                  u4711 000D  
                                u6080 0152                                  u3920 0246  
                                u3840 01FD                                  u3760 016F  
                                u3680 010A                                  u7120 0030  
                                u4720 0013                                  u6160 0010  
                                u6400 0064                                  u6320 0041  
                                u7200 00EF                                  u6081 0151  
                                u6225 0028                                  u3841 01FC  
                                u3825 01ED                                  u3761 016E  
                                u3681 0109                                  u7121 002F  
                                u7105 000F                                  u5345 0061  
                                u4721 0012                                  u6161 000F  
                                u6401 0063                                  u6321 0040  
                                u6305 0029                                  u7201 00EE  
                                u5450 0021                                  u6090 0158  
                                u6250 005F                                  u3930 0255  
                                u3850 0207                                  u3690 010E  
                                u5370 007F                                  u5290 0008  
                                u7050 009D                                  u4810 009C  
                                u4730 002D                                  u6330 0011  
                                u7210 0156                                  u5451 0020  
                                u6091 0157                                  u6251 005E  
                                u6235 003D                                  u3931 0254  
                                u3851 0206                                  u3771 0186  
                                u3763 016B                                  u3755 014D  
                                u3691 010D                                  u3675 00F7  
                                u5371 007E                                  u5291 0007  
                                u7051 009C                                  u4811 009B  
                                u4731 002C                                  u6411 00B5  
                                u6331 0010                                  u6315 0035  
                                u7211 0155                                  u3940 025E  
                                u3860 020D                                  u3780 019A  
                                u3772 0187                                  u7140 004D  
                                u5380 0085                                  u7060 00A4  
                                u4820 00A3                                  u6180 0024  
                                u6412 00BC                                  u6340 0017  
                                u6260 000A                                  u7300 0349  
                                u7220 015C                                  u6245 0051  
                                u3941 025D                                  u3925 0241  
                                u3861 020C                                  u3781 019B  
                                u3773 018C                                  u7141 004C  
                                u7125 002C                                  u5381 0084  
                                u5365 0074                                  u7061 00A3  
                                u7045 008D                                  u4821 00A2  
                                u4805 008C                                  u6181 0023  
                                u6501 01DF                                  u6421 00D1  
                                u6413 00C3                                  u6341 0016  
                                u6261 0009                                  u7301 0348  
                                u7221 015B                                  u6190 0012  
                                u3950 0263                                  u3870 0212  
                                u3790 01B8                                  u3782 01A0  
                                u3774 018D                                  u5390 0089  
                                u4750 0066                                  u6502 01E6  
                                u6422 00D8                                  u6350 001C  
                                u7310 0370                                  u7230 018F  
                                u7150 0012                                  u6191 0011  
                                u3951 0262                                  u3871 0211  
                                u3791 01B7                                  u3783 01A1  
                                u3775 0192                                  u7135 003F  
                                u5391 0088                                  u4751 0065  
                                u6175 0017                                  u6511 020C  
                                u6503 01ED                                  u6431 00FD  
                                u6423 00DF                                  u6351 001B  
                                u7311 036F                                  u7231 018E  
                                u7151 0011                                  u3960 0270  
                                u3880 0218                                  u3776 0193  
                                u7080 00B5                                  u4840 00B4  
                                u6600 02B0                                  u6520 0236  
                                u6512 0213                                  u6432 0104  
                                u6360 003D                                  u6280 001C  
                                u7400 0557                                  u7320 037F  
                                u7240 01C9                                  u7160 003C  
                                u3961 026F                                  u3881 0217  
                                u7081 00B4                                  u4841 00B3  
                                u4745 0051                                  u6601 02AF  
                                u6513 021A                                  u6441 0119  
                                u6433 010B                                  u6361 003C  
                                u6281 001B                                  u7401 0556  
                                u7321 037E                                  u7241 01C8  
                                u7161 003B                                  u3970 0275  
                                u3890 021F                                  u7090 0008  
                                u4770 007F                                  u6610 02B5  
                                u6442 0120                                  u6370 0043  
                                u7410 057E                                  u7330 039A  
                                u7250 0214                                  u7170 009C  
                                u3971 0274                                  u3891 021E  
                                u7091 0007                                  u7075 00A7  
                                u4835 00A6                                  u4771 007E  
                                u4755 0062                                  u6611 02B4  
                                u6531 0242                                  u6443 0127  
                                u6371 0042                                  u6275 000E  
                                u7411 057D                                  u7331 0399  
                                u7251 0213                                  u7171 009B  
                                u5900 0044                                  u6700 0013  
                                u3980 0286                                  u4780 0083  
                                u6620 02C9                                  u6540 025E  
                                u6532 0249                                  u6380 0048  
                                u7500 0744                                  u7420 058D  
                                u7340 045F                                  u7260 029D  
                                u7180 00AD                                  u5901 0043  
                                u3981 0285                                  u4781 0082  
                                u4765 0072                                  u6621 02C8  
                                u6533 0250                                  u6525 0231  
                                u6461 014F                                  u6381 0047  
                                u7501 0743                                  u7421 058C  
                                u7341 045E                                  u7325 037B  
                                u7261 029C                                  u7181 00AC  
                                u5910 0049                                  u4790 008A  
                                u6630 02D0                                  u6462 0156  
                                u6390 005F                                  u6710 0009  
                                u7510 0758                                  u7430 05B6  
                                u7270 02C1                                  u7190 00BA  
                                u5911 0048                                  u4791 0089  
                                u6631 02CF                                  u6551 026A  
                                u6471 017C                                  u6463 015D  
                                u6455 0129                                  u6391 005E  
                                u6295 001D                                  u6711 0008  
                                u7511 0757                                  u7431 05B5  
                                u7415 057A                                  u7271 02C0  
                                u7191 00B9                                  u5920 0064  
                                u6640 02D6                                  u6552 0271  
                                u6472 0183                                  u6800 0010  
                                u7520 076C                                  u7360 04AA  
                                u7280 02D8                                  u5921 0063  
                                u6705 000E                                  u6641 02D5  
                                u6553 0278                                  u6545 0259  
                                u6473 018A                                  u6801 000F  
                                u7521 076B                                  u7505 0740  
                                u7425 0589                                  u7361 04A9  
                                u7281 02D7                                  u5850 0016  
                                u5930 0082                                  u6650 02E8  
                                u7530 079E                                  u7370 04B9  
                                u7290 032E                                  u5851 0015  
                                u5931 0081                                  u6651 02E7  
                                u6491 01B2                                  u7531 079D  
                                u7515 0754                                  u7371 04B8  
                                u7355 0465                                  u7291 032D  
                                u7195 00B6                                  u5940 00BC  
                                u5860 0011                                  u4980 0006  
                                u6660 02F7                                  u6580 029C  
                                u6492 01B9                                  u7460 0702  
                                u7380 04CB                                  u5941 00BB  
                                u5861 0010                                  u4981 0005  
                                u6581 029B                                  u6565 027A  
                                u6493 01C0                                  u6485 018C  
                                u6725 0026                                  u7461 0701  
                                u7445 0647                                  u7381 04CA  
                                u7365 04A6                                  u7285 02D4  
                                u5870 0017                                  u6670 0314  
                                u6750 012A                                  u7470 0722  
                                u5871 0016                                  u6671 0313  
                                u6575 0291                                  u6751 0129  
                                u6735 0086                                  u6815 0032  
                                u7471 0721                                  u7455 06BD  
                                u7295 032A                                  u5880 001C  
                                u6680 032E                                  u6920 02D7  
                                u6840 010F                                  u7480 072B  
                                u5881 001B                                  u6681 032D  
                                u6665 02F2                                  u6745 00DF  
                                u6921 02D6                                  u6905 023B  
                                u6841 010E                                  u6825 0073  
                                u7481 072A                                  u5970 00D2  
                                u5890 003E                                  u6690 034C  
                                u7490 0733                                  u5971 00D1  
                                u5955 00BE                                  u5891 003D  
                                u4995 000D                                  u6691 034B  
                                u6675 0310                                  u6595 029F  
                                u6915 028B                                  u6835 00C3  
                                u7491 0732                                  u7395 04E2  
                                u7547 002A                                  u5965 00C7  
                                u6685 032A                                  u6765 0147  
                                u5990 00EE                                  u6790 0007  
                                u5991 00ED                                  u6775 0198  
                                u6935 02EA                                  u6855 0122  
                                u6791 0006                                  u6960 000D  
                                u6880 01D8                                  u5985 00D5  
                                u6961 000C                                  u6785 01E8  
                                u6945 032A                                  u6881 01D7  
                                u6865 0162                                  u6970 0021  
                                u5995 00EA                                  u6971 0020  
                                u6955 036B                                  u6875 01A3  
                                u6990 0062                                  u6991 0061  
                                u6895 01FA                                  u6985 0049  
                                u6995 005E                                  _TMR0 0001  
                                _RSEN 0489                                  _main 0000  
                                btemp 007E              __end_of_USART_SendString 0017  
                                start 0000*                      __end_of_MSdelay 0025  
                     ___fldiv@new_exp 0018                          _sprintf$1397 0010  
                               ??_ISR 0000                                 ??_Led 0000  
                    ?_I2C_Master_Init 0006                      ?_I2C_Master_Read 0002  
                    ?_I2C_Master_Wait 0000                      ?_I2C_Master_Stop 0000  
                       ___fltol@sign1 003E                       __end_of___fladd 0288  
                               ?_main 0000                       __end_of___fldiv 01DD  
                     __end_of___awdiv 0069                       __end_of___flneg 000B  
                     __end_of___awmod 0059                       __end_of___flmul 0361  
                     __end_of___flsub 0050                       __end_of___fltol 007C  
                               _ANSEL 0188                       __end_of___lldiv 0068  
                     ___awdiv@divisor 0000                       __end_of___llmod 0056  
                     __end_of___lwdiv 0046                                 i1l104 0018  
                               i1l153 0017                                 i1l155 0019  
                     __end_of___lwmod 003A                       ___awdiv@counter 0004  
                               _RCREG 001A                                 _SPBRG 0099  
                               _PORTA 0005                                 _PORTB 0006  
                               _PORTC 0007                                 _PORTD 0008  
                               _PORTE 0009                                 _TRISA 0085  
                               _TRISB 0086                                 _TRISC 0087  
                               _TRISD 0088                                 _SSPIE 0463  
                               _TRISE 0089                                 _SSPIF 0063  
                               _TXREG 0019                         ?_MPU6050_Init 0000  
                     __end_of_dpowers 00A2                                 _scale 0000  
                     __end_of_isdigit 0012                                 _valor 0001  
                               _setup 0000                                 main@T 0036  
                               main@t 0020                         _escribir_char 0000  
                               pclath 000A                                 status 0003  
                               wtemp0 007E                       __end_of_sprintf 07A5  
                     __initialization 0000                          __end_of_main 0477  
                              ??_main 002C                      ?_interrup_config 0000  
                __size_of__tdiv_to_l_ 00BD                          ?_tmr0_config 0000  
                   ?_I2C_Master_Write 0002                        ??_MPU6050_Init 0008  
                  ??_I2C_Master_Write 0004                      ___llmod@dividend 0006  
                              ?_scale 0022                      ___awdiv@dividend 0002  
                      ?_escribir_char 0000                                ?_setup 0000  
                              _ANSELH 0189                             ??_MSdelay 0004  
                              i1l3473 0000                                i1l3475 000B  
                              i1l3477 0011                                i1l3479 0012  
                              i1l3911 0000                                i1l3913 0004  
                              i1l3915 0005                                i1l3917 0009  
                              i1l3919 0013                                u543_20 000B  
                              u615_20 0004                                u543_21 000A  
                              u615_21 0003                                u544_20 0011  
                              u544_21 0010                                _SSPADD 0093  
                              _TRISC3 043B                                _TRISC4 043C  
                              _SSPCON 0014                                _SSPBUF 0013  
                    __end_of___xxtofl 00BC                      __end_of__powers_ 0046  
                              ___flge 0000                                ___fleq 0000  
                           ??___fladd 003E                                ___wmul 0000  
                           ??___fldiv 000E                             ??___awdiv 0009  
                           ??___flneg 0006                             ??___awmod 0006  
                           ??___flmul 0010                             ??___flsub 000A  
                           ??___fltol 0039                             ??___lldiv 0000  
                           ??___llmod 0000                             ??___lwdiv 0008  
                           ??___lwmod 0006                                _fround 0000  
                    ___awdiv@quotient 0006                       ___awmod@divisor 0002  
                     ___awmod@counter 0007                    _I2C_Repeated_Start 0000  
                              main@Ax 0030                                main@Ay 0032  
                              main@Az 0034                                main@Gx 0038  
                              main@Gy 003A                                main@Gz 003C  
                              main@Xa 0014                                main@Ya 0018  
                              main@Za 001C                                main@Xg 0024  
                              main@Yg 0028                                main@Zg 002C  
                           ??_isdigit 0002                    __size_of__Umul8_16 0029  
                              saved_w 007E                   ?_I2C_Repeated_Start 0000  
                           ??_sprintf 004A                            ___flge@ff1 0002  
                          ___flge@ff2 0006                          ___xxtofl@arg 0002  
                        ___xxtofl@exp 0001                          ___xxtofl@val 0002  
                          ___fleq@ff1 0002                            ___fleq@ff2 0006  
             __end_of__initialization 0006                            ___flneg@f1 0002  
            __end_of_USART_lib_config 001E                            ___fltol@f1 0035  
                ??_I2C_Repeated_Start 0002                        __pcstackCOMMON 0000  
                       __end_of_scale 0399                         __end_of_setup 0039  
                          __div_to_l_ 0000                        _OPTION_REGbits 0081  
                     ??_escribir_char 0002                       __div_to_l_@exp1 0006  
                     __div_to_l_@cntr 0005                               ??_scale 0026  
                     __div_to_l_@quot 0001                               ??_setup 000A  
             __size_of_I2C_Start_Wait 002B                            __pbssBANK1 0000  
                   ?_USART_SendString 0000                         __div_to_l_@f1 0002  
                       __div_to_l_@f2 0006                     __end_of__Umul8_16 0029  
                  ??_USART_SendString 0003                            __pmaintext 0000  
                             ?___flge 0002                               ?___fleq 0002  
                __end_of_MPU6050_Init 009A                               ?___wmul 0002  
                          __pintentry 0000                               _ACKSTAT 048E  
                             ?_fround 0022                             ?___xxtofl 0002  
                __size_of_tmr0_config 000D                               _SSPCON2 0091  
               __end_of_MPU_Start_Loc 0016                               _SSPSTAT 0094  
                          __stringtab 0000                               _MSdelay 0000  
                           _I2C_Write 0000*                    __end_of__npowers_ 007A  
                          _scale$1396 0030                       __size_of___flge 00A4  
                     __size_of___fleq 0050                               ___fladd 0000  
                             ___fldiv 0000                               ___awdiv 0000  
                             ___flneg 0000                               ___awmod 0000  
                             ___flmul 0000                               ___flsub 0000  
                             ___fltol 0000                               ___lldiv 0000  
                     __size_of___wmul 0025                               ___llmod 0000  
                             ___lwdiv 0000                               ___lwmod 0000  
                     __size_of_fround 0225                               __ptext1 0000  
                             __ptext2 0000                               __ptext3 0000  
                             __ptext4 0000                               __ptext5 0000  
                             __ptext6 0000                               __ptext7 0000  
                             __ptext8 0000                               __ptext9 0000  
   I2C_Start_Wait@slave_write_address 0006                   USART_SendString@str 0004  
                        __size_of_ISR 001F                           ?__div_to_l_ 0002  
                        __size_of_Led 001A                               _dpowers 007A  
                             _isdigit 0000                            ??___xxtofl 0006  
                    ___awmod@dividend 0004              __size_of_I2C_Master_Init 0038  
            __size_of_I2C_Master_Read 002E              __size_of_I2C_Master_Wait 000D  
            __size_of_I2C_Master_Stop 0009                               _sprintf 0000  
                end_of_initialization 0006                            _osc_config 0000  
                          ?_I2C_Write 0000             __size_of_I2C_Master_Write 000A  
                     ___lldiv@divisor 0002                       ___lldiv@counter 0005  
                           _RCSTAbits 0018                      I2C_Master_Init@c 0006  
                    I2C_Master_Read@a 0002                          __pstringtext 0000  
                      __tdiv_to_l_@f1 0002                        __tdiv_to_l_@f2 0006  
                       ??__tdiv_to_l_ 0000                             _PORTEbits 0009  
                         ___fladd@grs 0049                         ___xxtofl@sign 0000  
                           _TRISCbits 0087                             _TRISEbits 0089  
                         ___fldiv@grs 001A                           ___fldiv@rem 0013  
                      _I2C_Start_Wait 0000              __size_of_interrup_config 000C  
                         ___flmul@grs 0017                            main@buffer 0000  
                           _TXSTAbits 0098                 __size_of_MPU6050_Init 009A  
                 __size_of__div_to_l_ 00BE                     ?_USART_lib_config 0000  
                       ?_USART_config 0000                    ??_USART_lib_config 0002  
                      __end_of___flge 00A4                        __end_of___fleq 0050  
                      __end_of___wmul 0025                        __end_of_fround 0225  
                 start_initialization 0000                           __end_of_ISR 001F  
                         __end_of_Led 001A                __end_of_I2C_Start_Wait 002B  
                 __end_of__tdiv_to_l_ 00BD                          _MPU6050_Init 0000  
I2C_Repeated_Start@slave_read_address 0004                     ??_I2C_Master_Init 000A  
                   ??_I2C_Master_Read 0004                     ??_I2C_Master_Wait 0002  
                   ??_I2C_Master_Stop 0002                           ?_osc_config 0000  
                     ___llmod@divisor 0002                       ___llmod@counter 0001  
                         ??_I2C_Write 0000                        ??_USART_config 0002  
         __size_of_I2C_Repeated_Start 001F                              ??___flge 0000  
                            ??___fleq 0000                              ??___wmul 0006  
                           __Umul8_16 0000                              ??_fround 0026  
                       sprintf@tmpval 0020             __size_of_USART_SendString 0017  
                           ___fladd@a 003A                             ___fladd@b 0036  
                          fround@prec 0035                             ___fldiv@a 0006  
                           ___fldiv@b 000A                             ___flmul@a 000C  
                           ___flmul@b 0008                           __pbssCOMMON 0000  
                           ___flsub@a 0000                             ___flsub@b 0004  
                           ___latbits 0002                         __pcstackBANK0 0000  
                       __pcstackBANK1 0000                         __pcstackBANK3 0000  
                     ?_I2C_Start_Wait 0000                     __size_of___xxtofl 00BC  
                        _isdigit$1211 0002                 __end_of_escribir_char 000A  
                            ?_MSdelay 0002                           sprintf@flag 0018  
                         sprintf@eexp 001E                           sprintf@fval 0024  
                         sprintf@prec 0029                      _I2C_Master_Write 0000  
                   ??_interrup_config 0002                      ___lwdiv@dividend 0002  
                            ?___fladd 0036                              ?___fldiv 0006  
                            ?___awdiv 0000                              ?___flneg 0002  
                            ?___awmod 0002                              ?___flmul 0008  
                            ?___flsub 0000                              ?___fltol 0035  
                            ?___lldiv 0002                              ?___llmod 0002  
                           __npowers_ 0046                            ?__Umul8_16 0002  
                            ?___lwdiv 0000                              ?___lwmod 0002  
                         __tdiv_to_l_ 0000                          ??__div_to_l_ 0000  
                 __size_of_osc_config 000A                              ?_isdigit 0000  
                       ??_tmr0_config 0002                      ___lwdiv@quotient 0005  
                            ?_sprintf 0008                        __size_of_scale 0399  
                      __size_of_setup 0039                              MSdelay@i 0004  
                            MSdelay@j 0006                     interrupt_function 0000  
                      ___wmul@product 0006                              _PIE1bits 008C  
                            _PIR1bits 000C                    __end_of__div_to_l_ 00BE  
              __size_of_MPU_Start_Loc 0016                           __stringbase 0012  
                   ___wmul@multiplier 0002                  __end_of_USART_config 0006  
                 I2C_Master_Read@temp 0006                   __end_of_tmr0_config 000D  
                    __size_of_MSdelay 0025                           ??__Umul8_16 0004  
                    __size_of___fladd 0288                      __size_of___fldiv 01DD  
                    __size_of___awdiv 0069                      __size_of___flneg 000B  
                    __size_of___awmod 0059                      __size_of___flmul 0361  
                    __size_of___flsub 0050                      __size_of___fltol 007C  
                    __size_of___lldiv 0068                      __size_of___llmod 0056  
                    __size_of___lwdiv 0046                      __size_of___lwmod 003A  
                         _fround$1394 0031                           _fround$1395 002D  
                  __end_of__stringtab 0012                      _USART_SendString 0000  
           __size_of_USART_lib_config 001E                            sprintf@len 0015  
                          sprintf@val 001A                       _I2C_Master_Init 0000  
                     _I2C_Master_Read 0000                              ___xxtofl 0000  
                     _I2C_Master_Wait 0000                       _I2C_Master_Stop 0000  
                    __size_of_isdigit 0012                       ___lwdiv@divisor 0000  
                     ___lwdiv@counter 0004                              __ptext10 0000  
                            __ptext11 0000                              __ptext20 0000  
                            __ptext12 0000                              __ptext21 0000  
                            __ptext13 0000                              __ptext30 0000  
                            __ptext22 0000                              __ptext14 0000  
                            __ptext31 0000                              __ptext23 0000  
                            __ptext15 0000                              __ptext40 0000  
                            __ptext32 0000                              __ptext24 0000  
                            __ptext16 0000                              __ptext41 0000  
                            __ptext33 0000                              __ptext25 0000  
                            __ptext17 0000                              __ptext42 0000  
                            __ptext34 0000                              __ptext26 0000  
                            __ptext18 0000                              __ptext43 0000  
                            __ptext35 0000                              __ptext27 0000  
                            __ptext19 0000                              __ptext36 0000  
                            __ptext28 0000                              __ptext37 0000  
                            __ptext29 0000                              __ptext38 0000  
                            __ptext39 0000                              __powers_ 0012  
                  escribir_char@valor 0002                              _contador 0000  
                       _MPU_Start_Loc 0000                      __size_of_sprintf 07A5  
                        ??_osc_config 0002                         __size_of_main 0477  
                          MSdelay@val 0002                      ??_I2C_Start_Wait 0004  
            __end_of_I2C_Master_Write 000A                            _INTCONbits 000B  
                  __end_of_osc_config 000A                           _tmr0_config 0000  
                            isdigit@c 0003                       _interrup_config 0000  
                            scale@scl 0034                        ?_MPU_Start_Loc 0000  
                            intlevel1 0000*                            sprintf@ap 0017  
                           sprintf@cp 0014                      __tdiv_to_l_@exp1 0009  
                    __tdiv_to_l_@cntr 0008                             sprintf@sp 0028  
                    __tdiv_to_l_@quot 0004                      ___lwmod@dividend 0004  
                    ___lldiv@dividend 0006            __end_of_I2C_Repeated_Start 001F  
                           stringcode 000A                            _OSCCONbits 008F  
             __end_of_I2C_Master_Init 0038               __end_of_I2C_Master_Read 002E  
             __end_of_I2C_Master_Wait 000D               __end_of_I2C_Master_Stop 0009  
                        ?__tdiv_to_l_ 0002                 __size_of_USART_config 0006  
              __Umul8_16@multiplicand 0002                              sprintf@c 002B  
                            sprintf@f 0008                      ___lldiv@quotient 0001  
                   I2C_Master_Write@d 0002                       ___lwmod@divisor 0002  
                     ___lwmod@counter 0007                              stringtab 0000  
                         _SSPCON2bits 0091                         ___fladd@signs 0046  
                        ___fladd@aexp 0047                          ___fladd@bexp 0048  
                __Umul8_16@multiplier 0004                     __Umul8_16@product 0000  
                        _USART_config 0000  
