

Microchip MPLAB XC8 Assembler V2.31 build 20201012212115 
                                                                                               Sun Mar 07 22:24:50 2021

Microchip MPLAB XC8 C Compiler v2.31 (Free license) build 20201012212115 Og1 
     1                           	processor	16F887
     2                           	pagewidth 120
     3                           	opt	flic
     4                           	psect	cinit,global,class=CODE,merge=1,delta=2
     5                           	psect	bssCOMMON,global,class=COMMON,space=1,delta=1,noexec
     6                           	psect	bssBANK0,global,class=BANK0,space=1,delta=1,noexec
     7                           	psect	cstackBANK1,global,class=BANK1,space=1,delta=1,noexec
     8                           	psect	cstackCOMMON,global,class=COMMON,space=1,delta=1,noexec
     9                           	psect	cstackBANK0,global,class=BANK0,space=1,delta=1,noexec
    10                           	psect	maintext,global,class=CODE,split=1,delta=2
    11                           	psect	text1,local,class=CODE,merge=1,delta=2
    12                           	psect	text2,local,class=CODE,merge=1,delta=2
    13                           	psect	text3,local,class=CODE,merge=1,delta=2
    14                           	psect	text4,local,class=CODE,merge=1,delta=2
    15                           	psect	text5,local,class=CODE,merge=1,delta=2
    16                           	psect	text6,local,class=CODE,merge=1,delta=2,group=1
    17                           	psect	text7,local,class=CODE,merge=1,delta=2,group=1
    18                           	psect	text8,local,class=CODE,merge=1,delta=2
    19                           	psect	text9,local,class=CODE,merge=1,delta=2
    20                           	psect	text10,local,class=CODE,merge=1,delta=2
    21                           	psect	text11,local,class=CODE,merge=1,delta=2,group=1
    22                           	psect	text12,local,class=CODE,merge=1,delta=2,group=1
    23                           	psect	text13,local,class=CODE,merge=1,delta=2,group=1
    24                           	psect	text14,local,class=CODE,merge=1,delta=2,group=1
    25                           	psect	text15,local,class=CODE,merge=1,delta=2
    26                           	psect	text16,local,class=CODE,merge=1,delta=2
    27                           	psect	text17,local,class=CODE,merge=1,delta=2
    28                           	psect	text18,local,class=CODE,merge=1,delta=2
    29                           	psect	text19,local,class=CODE,merge=1,delta=2
    30                           	psect	text20,local,class=CODE,merge=1,delta=2
    31                           	psect	text21,local,class=CODE,merge=1,delta=2
    32                           	psect	text22,local,class=CODE,merge=1,delta=2
    33                           	psect	text23,local,class=CODE,merge=1,delta=2
    34                           	psect	text24,local,class=CODE,merge=1,delta=2
    35                           	psect	text25,local,class=CODE,merge=1,delta=2
    36                           	psect	text26,local,class=CODE,merge=1,delta=2
    37                           	psect	text27,local,class=CODE,merge=1,delta=2
    38                           	psect	text28,local,class=CODE,merge=1,delta=2
    39                           	psect	intentry,global,class=CODE,delta=2
    40                           	psect	text29,local,class=CODE,merge=1,delta=2
    41                           	psect	config,global,abs,ovrld,class=CONFIG,space=4,delta=2,noexec
    42                           	dabs	1,0x7E,2
    43  0000                     
    44                           ; Version 2.20
    45                           ; Generated 12/02/2020 GMT
    46                           ; 
    47                           ; Copyright © 2020, Microchip Technology Inc. and its subsidiaries ("Microchip")
    48                           ; All rights reserved.
    49                           ; 
    50                           ; This software is developed by Microchip Technology Inc. and its subsidiaries ("Microch
      +                          ip").
    51                           ; 
    52                           ; Redistribution and use in source and binary forms, with or without modification, are
    53                           ; permitted provided that the following conditions are met:
    54                           ; 
    55                           ;     1. Redistributions of source code must retain the above copyright notice, this lis
      +                          t of
    56                           ;        conditions and the following disclaimer.
    57                           ; 
    58                           ;     2. Redistributions in binary form must reproduce the above copyright notice, this 
      +                          list
    59                           ;        of conditions and the following disclaimer in the documentation and/or other
    60                           ;        materials provided with the distribution.
    61                           ; 
    62                           ;     3. Microchip's name may not be used to endorse or promote products derived from th
      +                          is
    63                           ;        software without specific prior written permission.
    64                           ; 
    65                           ; THIS SOFTWARE IS PROVIDED BY MICROCHIP "AS IS" AND ANY EXPRESS OR IMPLIED WARRANTIES,
    66                           ; INCLUDING, BUT NOT LIMITED TO, THE IMPLIED WARRANTIES OF MERCHANTABILITY AND FITNESS F
      +                          OR
    67                           ; PURPOSE ARE DISCLAIMED.  IN NO EVENT SHALL MICROCHIP BE LIABLE FOR ANY DIRECT, INDIREC
      +                          T,
    68                           ; INCIDENTAL, SPECIAL, EXEMPLARY, OR CONSEQUENTIAL DAMAGES (INCLUDING BUT NOT LIMITED TO
    69                           ; PROCUREMENT OF SUBSTITUTE GOODS OR SERVICES; LOSS OF USE, DATA OR PROFITS; OR BUSINESS
    70                           ; INTERRUPTION) HOWSOEVER CAUSED AND ON ANY THEORY OF LIABILITY, WHETHER IN CONTRACT, ST
      +                          RICT
    71                           ; LIABILITY, OR TORT (INCLUDING NEGLIGENCE OR OTHERWISE) ARISING IN ANY WAY OUT OF THE U
      +                          SE OF
    72                           ; THIS SOFTWARE, EVEN IF ADVISED OF THE POSSIBILITY OF SUCH DAMAGE.
    73                           ; 
    74                           ; 
    75                           ; Code-generator required, PIC16F887 Definitions
    76                           ; 
    77                           ; SFR Addresses
    78  0000                     	;# 
    79  0001                     	;# 
    80  0002                     	;# 
    81  0003                     	;# 
    82  0004                     	;# 
    83  0005                     	;# 
    84  0006                     	;# 
    85  0007                     	;# 
    86  0008                     	;# 
    87  0009                     	;# 
    88  000A                     	;# 
    89  000B                     	;# 
    90  000C                     	;# 
    91  000D                     	;# 
    92  000E                     	;# 
    93  000E                     	;# 
    94  000F                     	;# 
    95  0010                     	;# 
    96  0011                     	;# 
    97  0012                     	;# 
    98  0013                     	;# 
    99  0014                     	;# 
   100  0015                     	;# 
   101  0015                     	;# 
   102  0016                     	;# 
   103  0017                     	;# 
   104  0018                     	;# 
   105  0019                     	;# 
   106  001A                     	;# 
   107  001B                     	;# 
   108  001B                     	;# 
   109  001C                     	;# 
   110  001D                     	;# 
   111  001E                     	;# 
   112  001F                     	;# 
   113  0081                     	;# 
   114  0085                     	;# 
   115  0086                     	;# 
   116  0087                     	;# 
   117  0088                     	;# 
   118  0089                     	;# 
   119  008C                     	;# 
   120  008D                     	;# 
   121  008E                     	;# 
   122  008F                     	;# 
   123  0090                     	;# 
   124  0091                     	;# 
   125  0092                     	;# 
   126  0093                     	;# 
   127  0093                     	;# 
   128  0093                     	;# 
   129  0094                     	;# 
   130  0095                     	;# 
   131  0096                     	;# 
   132  0097                     	;# 
   133  0098                     	;# 
   134  0099                     	;# 
   135  009A                     	;# 
   136  009B                     	;# 
   137  009C                     	;# 
   138  009D                     	;# 
   139  009E                     	;# 
   140  009F                     	;# 
   141  0105                     	;# 
   142  0107                     	;# 
   143  0108                     	;# 
   144  0109                     	;# 
   145  010C                     	;# 
   146  010C                     	;# 
   147  010D                     	;# 
   148  010E                     	;# 
   149  010F                     	;# 
   150  0185                     	;# 
   151  0187                     	;# 
   152  0188                     	;# 
   153  0189                     	;# 
   154  018C                     	;# 
   155  018D                     	;# 
   156  0000                     	;# 
   157  0001                     	;# 
   158  0002                     	;# 
   159  0003                     	;# 
   160  0004                     	;# 
   161  0005                     	;# 
   162  0006                     	;# 
   163  0007                     	;# 
   164  0008                     	;# 
   165  0009                     	;# 
   166  000A                     	;# 
   167  000B                     	;# 
   168  000C                     	;# 
   169  000D                     	;# 
   170  000E                     	;# 
   171  000E                     	;# 
   172  000F                     	;# 
   173  0010                     	;# 
   174  0011                     	;# 
   175  0012                     	;# 
   176  0013                     	;# 
   177  0014                     	;# 
   178  0015                     	;# 
   179  0015                     	;# 
   180  0016                     	;# 
   181  0017                     	;# 
   182  0018                     	;# 
   183  0019                     	;# 
   184  001A                     	;# 
   185  001B                     	;# 
   186  001B                     	;# 
   187  001C                     	;# 
   188  001D                     	;# 
   189  001E                     	;# 
   190  001F                     	;# 
   191  0081                     	;# 
   192  0085                     	;# 
   193  0086                     	;# 
   194  0087                     	;# 
   195  0088                     	;# 
   196  0089                     	;# 
   197  008C                     	;# 
   198  008D                     	;# 
   199  008E                     	;# 
   200  008F                     	;# 
   201  0090                     	;# 
   202  0091                     	;# 
   203  0092                     	;# 
   204  0093                     	;# 
   205  0093                     	;# 
   206  0093                     	;# 
   207  0094                     	;# 
   208  0095                     	;# 
   209  0096                     	;# 
   210  0097                     	;# 
   211  0098                     	;# 
   212  0099                     	;# 
   213  009A                     	;# 
   214  009B                     	;# 
   215  009C                     	;# 
   216  009D                     	;# 
   217  009E                     	;# 
   218  009F                     	;# 
   219  0105                     	;# 
   220  0107                     	;# 
   221  0108                     	;# 
   222  0109                     	;# 
   223  010C                     	;# 
   224  010C                     	;# 
   225  010D                     	;# 
   226  010E                     	;# 
   227  010F                     	;# 
   228  0185                     	;# 
   229  0187                     	;# 
   230  0188                     	;# 
   231  0189                     	;# 
   232  018C                     	;# 
   233  018D                     	;# 
   234  0000                     	;# 
   235  0001                     	;# 
   236  0002                     	;# 
   237  0003                     	;# 
   238  0004                     	;# 
   239  0005                     	;# 
   240  0006                     	;# 
   241  0007                     	;# 
   242  0008                     	;# 
   243  0009                     	;# 
   244  000A                     	;# 
   245  000B                     	;# 
   246  000C                     	;# 
   247  000D                     	;# 
   248  000E                     	;# 
   249  000E                     	;# 
   250  000F                     	;# 
   251  0010                     	;# 
   252  0011                     	;# 
   253  0012                     	;# 
   254  0013                     	;# 
   255  0014                     	;# 
   256  0015                     	;# 
   257  0015                     	;# 
   258  0016                     	;# 
   259  0017                     	;# 
   260  0018                     	;# 
   261  0019                     	;# 
   262  001A                     	;# 
   263  001B                     	;# 
   264  001B                     	;# 
   265  001C                     	;# 
   266  001D                     	;# 
   267  001E                     	;# 
   268  001F                     	;# 
   269  0081                     	;# 
   270  0085                     	;# 
   271  0086                     	;# 
   272  0087                     	;# 
   273  0088                     	;# 
   274  0089                     	;# 
   275  008C                     	;# 
   276  008D                     	;# 
   277  008E                     	;# 
   278  008F                     	;# 
   279  0090                     	;# 
   280  0091                     	;# 
   281  0092                     	;# 
   282  0093                     	;# 
   283  0093                     	;# 
   284  0093                     	;# 
   285  0094                     	;# 
   286  0095                     	;# 
   287  0096                     	;# 
   288  0097                     	;# 
   289  0098                     	;# 
   290  0099                     	;# 
   291  009A                     	;# 
   292  009B                     	;# 
   293  009C                     	;# 
   294  009D                     	;# 
   295  009E                     	;# 
   296  009F                     	;# 
   297  0105                     	;# 
   298  0107                     	;# 
   299  0108                     	;# 
   300  0109                     	;# 
   301  010C                     	;# 
   302  010C                     	;# 
   303  010D                     	;# 
   304  010E                     	;# 
   305  010F                     	;# 
   306  0185                     	;# 
   307  0187                     	;# 
   308  0188                     	;# 
   309  0189                     	;# 
   310  018C                     	;# 
   311  018D                     	;# 
   312  0000                     	;# 
   313  0001                     	;# 
   314  0002                     	;# 
   315  0003                     	;# 
   316  0004                     	;# 
   317  0005                     	;# 
   318  0006                     	;# 
   319  0007                     	;# 
   320  0008                     	;# 
   321  0009                     	;# 
   322  000A                     	;# 
   323  000B                     	;# 
   324  000C                     	;# 
   325  000D                     	;# 
   326  000E                     	;# 
   327  000E                     	;# 
   328  000F                     	;# 
   329  0010                     	;# 
   330  0011                     	;# 
   331  0012                     	;# 
   332  0013                     	;# 
   333  0014                     	;# 
   334  0015                     	;# 
   335  0015                     	;# 
   336  0016                     	;# 
   337  0017                     	;# 
   338  0018                     	;# 
   339  0019                     	;# 
   340  001A                     	;# 
   341  001B                     	;# 
   342  001B                     	;# 
   343  001C                     	;# 
   344  001D                     	;# 
   345  001E                     	;# 
   346  001F                     	;# 
   347  0081                     	;# 
   348  0085                     	;# 
   349  0086                     	;# 
   350  0087                     	;# 
   351  0088                     	;# 
   352  0089                     	;# 
   353  008C                     	;# 
   354  008D                     	;# 
   355  008E                     	;# 
   356  008F                     	;# 
   357  0090                     	;# 
   358  0091                     	;# 
   359  0092                     	;# 
   360  0093                     	;# 
   361  0093                     	;# 
   362  0093                     	;# 
   363  0094                     	;# 
   364  0095                     	;# 
   365  0096                     	;# 
   366  0097                     	;# 
   367  0098                     	;# 
   368  0099                     	;# 
   369  009A                     	;# 
   370  009B                     	;# 
   371  009C                     	;# 
   372  009D                     	;# 
   373  009E                     	;# 
   374  009F                     	;# 
   375  0105                     	;# 
   376  0107                     	;# 
   377  0108                     	;# 
   378  0109                     	;# 
   379  010C                     	;# 
   380  010C                     	;# 
   381  010D                     	;# 
   382  010E                     	;# 
   383  010F                     	;# 
   384  0185                     	;# 
   385  0187                     	;# 
   386  0188                     	;# 
   387  0189                     	;# 
   388  018C                     	;# 
   389  018D                     	;# 
   390  0018                     _RCSTA	set	24
   391  0013                     _SSPBUF	set	19
   392  0014                     _SSPCON	set	20
   393  0009                     _PORTEbits	set	9
   394  001A                     _RCREG	set	26
   395  0018                     _RCSTAbits	set	24
   396  000C                     _PIR1bits	set	12
   397  0019                     _TXREG	set	25
   398  0009                     _PORTE	set	9
   399  0008                     _PORTD	set	8
   400  0007                     _PORTC	set	7
   401  0006                     _PORTB	set	6
   402  0005                     _PORTA	set	5
   403  0001                     _TMR0	set	1
   404  000B                     _INTCONbits	set	11
   405  0063                     _SSPIF	set	99
   406  00C4                     _CREN	set	196
   407  0098                     _TXSTA	set	152
   408  0099                     _SPBRG	set	153
   409  008C                     _PIE1bits	set	140
   410  0098                     _TXSTAbits	set	152
   411  0094                     _SSPSTATbits	set	148
   412  0091                     _SSPCON2bits	set	145
   413  0093                     _SSPADD	set	147
   414  0091                     _SSPCON2	set	145
   415  0094                     _SSPSTAT	set	148
   416  0081                     _OPTION_REGbits	set	129
   417  008F                     _OSCCONbits	set	143
   418  0096                     _IOCB	set	150
   419  0089                     _TRISE	set	137
   420  0088                     _TRISD	set	136
   421  0087                     _TRISCbits	set	135
   422  0087                     _TRISC	set	135
   423  0086                     _TRISB	set	134
   424  0085                     _TRISA	set	133
   425  043F                     _TRISC7	set	1087
   426  043E                     _TRISC6	set	1086
   427  048A                     _PEN	set	1162
   428  048B                     _RCEN	set	1163
   429  048C                     _ACKEN	set	1164
   430  048D                     _ACKDT	set	1165
   431  0489                     _RSEN	set	1161
   432  048E                     _ACKSTAT	set	1166
   433  0463                     _SSPIE	set	1123
   434  0431                     _TRISB1	set	1073
   435  0430                     _TRISB0	set	1072
   436  0189                     _ANSELH	set	393
   437  0188                     _ANSEL	set	392
   438                           
   439                           	psect	cinit
   440  000F                     start_initialization:	
   441                           ; #config settings
   442                           
   443  000F                     __initialization:
   444                           
   445                           ; Clear objects allocated to COMMON
   446  000F  01FA               	clrf	__pbssCOMMON& (0+127)
   447  0010  01FB               	clrf	(__pbssCOMMON+1)& (0+127)
   448                           
   449                           ; Clear objects allocated to BANK0
   450  0011  1283               	bcf	3,5	;RP0=0, select bank0
   451  0012  1303               	bcf	3,6	;RP1=0, select bank0
   452  0013  01E7               	clrf	__pbssBANK0& (0+127)
   453  0014  01E8               	clrf	(__pbssBANK0+1)& (0+127)
   454  0015                     end_of_initialization:	
   455                           ;End of C runtime variable initialization code
   456                           
   457  0015                     __end_of__initialization:
   458  0015  0183               	clrf	3
   459  0016  120A  118A  2819   	ljmp	_main	;jump to C main() function
   460                           
   461                           	psect	bssCOMMON
   462  007A                     __pbssCOMMON:
   463  007A                     _str:
   464  007A                     	ds	1
   465  007B                     _valor:
   466  007B                     	ds	1
   467                           
   468                           	psect	bssBANK0
   469  0067                     __pbssBANK0:
   470  0067                     _contador:
   471  0067                     	ds	2
   472                           
   473                           	psect	cstackBANK1
   474  00A0                     __pcstackBANK1:
   475  00A0                     	ds	2
   476  00A2                     main@Gx:
   477                           
   478                           ; 2 bytes @ 0x2
   479  00A2                     	ds	2
   480  00A4                     main@Gy:
   481                           
   482                           ; 2 bytes @ 0x4
   483  00A4                     	ds	2
   484  00A6                     main@Gz:
   485                           
   486                           ; 2 bytes @ 0x6
   487  00A6                     	ds	2
   488  00A8                     main@Ax:
   489                           
   490                           ; 2 bytes @ 0x8
   491  00A8                     	ds	2
   492  00AA                     main@Ay:
   493                           
   494                           ; 2 bytes @ 0xA
   495  00AA                     	ds	2
   496  00AC                     main@Az:
   497                           
   498                           ; 2 bytes @ 0xC
   499  00AC                     	ds	2
   500  00AE                     main@Ax1:
   501                           
   502                           ; 1 bytes @ 0xE
   503  00AE                     	ds	1
   504  00AF                     main@Ay1:
   505                           
   506                           ; 1 bytes @ 0xF
   507  00AF                     	ds	1
   508  00B0                     main@Az1:
   509                           
   510                           ; 1 bytes @ 0x10
   511  00B0                     	ds	1
   512  00B1                     main@decimal:
   513                           
   514                           ; 1 bytes @ 0x11
   515  00B1                     	ds	1
   516  00B2                     main@entero:
   517                           
   518                           ; 1 bytes @ 0x12
   519  00B2                     	ds	1
   520  00B3                     main@unidad:
   521                           
   522                           ; 1 bytes @ 0x13
   523  00B3                     	ds	1
   524  00B4                     main@residuo2:
   525                           
   526                           ; 1 bytes @ 0x14
   527  00B4                     	ds	1
   528  00B5                     main@decena:
   529                           
   530                           ; 1 bytes @ 0x15
   531  00B5                     	ds	1
   532  00B6                     main@residuo0:
   533                           
   534                           ; 1 bytes @ 0x16
   535  00B6                     	ds	1
   536  00B7                     main@residuo1:
   537                           
   538                           ; 1 bytes @ 0x17
   539  00B7                     	ds	1
   540                           
   541                           	psect	cstackCOMMON
   542  0070                     __pcstackCOMMON:
   543  0070                     ?_Led:
   544  0070                     ??_Led:	
   545                           ; 1 bytes @ 0x0
   546                           
   547  0070                     ?_setup:	
   548                           ; 1 bytes @ 0x0
   549                           
   550  0070                     ?_osc_config:	
   551                           ; 1 bytes @ 0x0
   552                           
   553  0070                     ?_interrup_config:	
   554                           ; 1 bytes @ 0x0
   555                           
   556  0070                     ?_tmr0_config:	
   557                           ; 1 bytes @ 0x0
   558                           
   559  0070                     ?_USART_config:	
   560                           ; 1 bytes @ 0x0
   561                           
   562  0070                     ?_MPU6050_Init:	
   563                           ; 1 bytes @ 0x0
   564                           
   565  0070                     ?_I2C_Init:	
   566                           ; 1 bytes @ 0x0
   567                           
   568  0070                     ?_MPU_Start_Loc:	
   569                           ; 1 bytes @ 0x0
   570                           
   571  0070                     ?_I2C_Read:	
   572                           ; 1 bytes @ 0x0
   573                           
   574  0070                     ?_I2C_Stop:	
   575                           ; 1 bytes @ 0x0
   576                           
   577  0070                     ?_escribir_char:	
   578                           ; 1 bytes @ 0x0
   579                           
   580  0070                     ?_USART_lib_config:	
   581                           ; 1 bytes @ 0x0
   582                           
   583  0070                     ?_I2C_Start:	
   584                           ; 1 bytes @ 0x0
   585                           
   586  0070                     ?_I2C_Write:	
   587                           ; 1 bytes @ 0x0
   588                           
   589  0070                     ?_I2C_Repeated_Start:	
   590                           ; 1 bytes @ 0x0
   591                           
   592  0070                     ?_I2C_Start_Wait:	
   593                           ; 1 bytes @ 0x0
   594                           
   595  0070                     ?_I2C_Ready:	
   596                           ; 1 bytes @ 0x0
   597                           
   598  0070                     ?_ISR:	
   599                           ; 1 bytes @ 0x0
   600                           
   601  0070                     ??_ISR:	
   602                           ; 1 bytes @ 0x0
   603                           
   604  0070                     ?_main:	
   605                           ; 1 bytes @ 0x0
   606                           
   607  0070                     ?_I2C_Ack:	
   608                           ; 1 bytes @ 0x0
   609                           
   610  0070                     ?_I2C_Nack:	
   611                           ; 1 bytes @ 0x0
   612                           
   613                           
   614                           ; 1 bytes @ 0x0
   615  0070                     	ds	2
   616  0072                     ??_setup:
   617  0072                     ??_osc_config:	
   618                           ; 1 bytes @ 0x2
   619                           
   620  0072                     ??_interrup_config:	
   621                           ; 1 bytes @ 0x2
   622                           
   623  0072                     ??_tmr0_config:	
   624                           ; 1 bytes @ 0x2
   625                           
   626  0072                     ??_USART_config:	
   627                           ; 1 bytes @ 0x2
   628                           
   629  0072                     ??_I2C_Init:	
   630                           ; 1 bytes @ 0x2
   631                           
   632  0072                     ??_I2C_Read:	
   633                           ; 1 bytes @ 0x2
   634                           
   635  0072                     ??_I2C_Stop:	
   636                           ; 1 bytes @ 0x2
   637                           
   638  0072                     ??_escribir_char:	
   639                           ; 1 bytes @ 0x2
   640                           
   641  0072                     ??_USART_lib_config:	
   642                           ; 1 bytes @ 0x2
   643                           
   644  0072                     ??_I2C_Write:	
   645                           ; 1 bytes @ 0x2
   646                           
   647  0072                     ?_MSdelay:	
   648                           ; 1 bytes @ 0x2
   649                           
   650  0072                     ??_I2C_Ready:	
   651                           ; 1 bytes @ 0x2
   652                           
   653  0072                     ??_I2C_Ack:	
   654                           ; 1 bytes @ 0x2
   655                           
   656  0072                     ??_I2C_Nack:	
   657                           ; 1 bytes @ 0x2
   658                           
   659  0072                     ?___awdiv:	
   660                           ; 1 bytes @ 0x2
   661                           
   662  0072                     ?___awmod:	
   663                           ; 2 bytes @ 0x2
   664                           
   665  0072                     ?___xxtofl:	
   666                           ; 2 bytes @ 0x2
   667                           
   668  0072                     escribir_char@valor:	
   669                           ; 4 bytes @ 0x2
   670                           
   671  0072                     I2C_Write@data:	
   672                           ; 1 bytes @ 0x2
   673                           
   674  0072                     MSdelay@val:	
   675                           ; 1 bytes @ 0x2
   676                           
   677  0072                     ___awdiv@divisor:	
   678                           ; 2 bytes @ 0x2
   679                           
   680  0072                     ___awmod@divisor:	
   681                           ; 2 bytes @ 0x2
   682                           
   683  0072                     ___xxtofl@val:	
   684                           ; 2 bytes @ 0x2
   685                           
   686                           
   687                           ; 4 bytes @ 0x2
   688  0072                     	ds	1
   689  0073                     ??_I2C_Start:
   690  0073                     ??_I2C_Repeated_Start:	
   691                           ; 1 bytes @ 0x3
   692                           
   693  0073                     ??_I2C_Start_Wait:	
   694                           ; 1 bytes @ 0x3
   695                           
   696  0073                     I2C_Start@slave_write_address:	
   697                           ; 1 bytes @ 0x3
   698                           
   699  0073                     I2C_Start_Wait@slave_write_address:	
   700                           ; 1 bytes @ 0x3
   701                           
   702  0073                     I2C_Repeated_Start@slave_read_address:	
   703                           ; 1 bytes @ 0x3
   704                           
   705  0073                     I2C_Read@flag:	
   706                           ; 1 bytes @ 0x3
   707                           
   708                           
   709                           ; 1 bytes @ 0x3
   710  0073                     	ds	1
   711  0074                     ??_MSdelay:
   712  0074                     I2C_Read@buffer:	
   713                           ; 1 bytes @ 0x4
   714                           
   715  0074                     MSdelay@i:	
   716                           ; 1 bytes @ 0x4
   717                           
   718  0074                     ___awdiv@dividend:	
   719                           ; 2 bytes @ 0x4
   720                           
   721  0074                     ___awmod@dividend:	
   722                           ; 2 bytes @ 0x4
   723                           
   724                           
   725                           ; 2 bytes @ 0x4
   726  0074                     	ds	1
   727  0075                     ??_MPU_Start_Loc:
   728                           
   729                           ; 1 bytes @ 0x5
   730  0075                     	ds	1
   731  0076                     ??___awdiv:
   732  0076                     ??___awmod:	
   733                           ; 1 bytes @ 0x6
   734                           
   735  0076                     ??___xxtofl:	
   736                           ; 1 bytes @ 0x6
   737                           
   738  0076                     MSdelay@j:	
   739                           ; 1 bytes @ 0x6
   740                           
   741                           
   742                           ; 2 bytes @ 0x6
   743  0076                     	ds	1
   744  0077                     ___awmod@counter:
   745                           
   746                           ; 1 bytes @ 0x7
   747  0077                     	ds	1
   748  0078                     ??_MPU6050_Init:
   749  0078                     ___awmod@sign:	
   750                           ; 1 bytes @ 0x8
   751                           
   752                           
   753                           ; 1 bytes @ 0x8
   754  0078                     	ds	2
   755  007A                     ??_USART_Init:
   756                           
   757                           	psect	cstackBANK0
   758  0020                     __pcstackBANK0:	
   759                           ; 1 bytes @ 0xA
   760                           
   761  0020                     ___awdiv@counter:
   762  0020                     ___xxtofl@sign:	
   763                           ; 1 bytes @ 0x0
   764                           
   765                           
   766                           ; 1 bytes @ 0x0
   767  0020                     	ds	1
   768  0021                     ___awdiv@sign:
   769  0021                     ___xxtofl@exp:	
   770                           ; 1 bytes @ 0x1
   771                           
   772                           
   773                           ; 1 bytes @ 0x1
   774  0021                     	ds	1
   775  0022                     ___awdiv@quotient:
   776  0022                     ___xxtofl@arg:	
   777                           ; 2 bytes @ 0x2
   778                           
   779                           
   780                           ; 4 bytes @ 0x2
   781  0022                     	ds	4
   782  0026                     ?___fldiv:
   783  0026                     ___fldiv@a:	
   784                           ; 4 bytes @ 0x6
   785                           
   786                           
   787                           ; 4 bytes @ 0x6
   788  0026                     	ds	4
   789  002A                     ___fldiv@b:
   790                           
   791                           ; 4 bytes @ 0xA
   792  002A                     	ds	4
   793  002E                     ??___fldiv:
   794                           
   795                           ; 1 bytes @ 0xE
   796  002E                     	ds	5
   797  0033                     ___fldiv@rem:
   798                           
   799                           ; 4 bytes @ 0x13
   800  0033                     	ds	4
   801  0037                     ___fldiv@sign:
   802                           
   803                           ; 1 bytes @ 0x17
   804  0037                     	ds	1
   805  0038                     ___fldiv@new_exp:
   806                           
   807                           ; 2 bytes @ 0x18
   808  0038                     	ds	2
   809  003A                     ___fldiv@grs:
   810                           
   811                           ; 4 bytes @ 0x1A
   812  003A                     	ds	4
   813  003E                     ___fldiv@bexp:
   814                           
   815                           ; 1 bytes @ 0x1E
   816  003E                     	ds	1
   817  003F                     ___fldiv@aexp:
   818                           
   819                           ; 1 bytes @ 0x1F
   820  003F                     	ds	1
   821  0040                     ?___fladd:
   822  0040                     ___fladd@b:	
   823                           ; 4 bytes @ 0x20
   824                           
   825                           
   826                           ; 4 bytes @ 0x20
   827  0040                     	ds	4
   828  0044                     ___fladd@a:
   829                           
   830                           ; 4 bytes @ 0x24
   831  0044                     	ds	4
   832  0048                     ??___fladd:
   833                           
   834                           ; 1 bytes @ 0x28
   835  0048                     	ds	8
   836  0050                     ___fladd@signs:
   837                           
   838                           ; 1 bytes @ 0x30
   839  0050                     	ds	1
   840  0051                     ___fladd@aexp:
   841                           
   842                           ; 1 bytes @ 0x31
   843  0051                     	ds	1
   844  0052                     ___fladd@bexp:
   845                           
   846                           ; 1 bytes @ 0x32
   847  0052                     	ds	1
   848  0053                     ___fladd@grs:
   849                           
   850                           ; 1 bytes @ 0x33
   851  0053                     	ds	1
   852  0054                     ?___fltol:
   853  0054                     ___fltol@f1:	
   854                           ; 4 bytes @ 0x34
   855                           
   856                           
   857                           ; 4 bytes @ 0x34
   858  0054                     	ds	4
   859  0058                     ??___fltol:
   860                           
   861                           ; 1 bytes @ 0x38
   862  0058                     	ds	5
   863  005D                     ___fltol@sign1:
   864                           
   865                           ; 1 bytes @ 0x3D
   866  005D                     	ds	1
   867  005E                     ___fltol@exp1:
   868                           
   869                           ; 1 bytes @ 0x3E
   870  005E                     	ds	1
   871  005F                     ?_USART_Init:
   872  005F                     USART_Init@baud_rate:	
   873                           ; 1 bytes @ 0x3F
   874                           
   875                           
   876                           ; 4 bytes @ 0x3F
   877  005F                     	ds	4
   878  0063                     ??_main:
   879                           
   880                           ; 1 bytes @ 0x43
   881  0063                     	ds	4
   882                           
   883                           	psect	maintext
   884  0019                     __pmaintext:	
   885 ;;
   886 ;;Main: autosize = 0, tempsize = 4, incstack = 0, save=0
   887 ;;
   888 ;; *************** function _main *****************
   889 ;; Defined at:
   890 ;;		line 91 in file "MAIN_I2C.c"
   891 ;; Parameters:    Size  Location     Type
   892 ;;		None
   893 ;; Auto vars:     Size  Location     Type
   894 ;;  residuo1        1   23[BANK1 ] unsigned char 
   895 ;;  residuo0        1   22[BANK1 ] unsigned char 
   896 ;;  decena          1   21[BANK1 ] unsigned char 
   897 ;;  residuo2        1   20[BANK1 ] unsigned char 
   898 ;;  unidad          1   19[BANK1 ] unsigned char 
   899 ;;  entero          1   18[BANK1 ] unsigned char 
   900 ;;  decimal         1   17[BANK1 ] unsigned char 
   901 ;;  Az1             1   16[BANK1 ] unsigned char 
   902 ;;  Ay1             1   15[BANK1 ] unsigned char 
   903 ;;  Ax1             1   14[BANK1 ] unsigned char 
   904 ;;  Az              2   12[BANK1 ] int 
   905 ;;  Ay              2   10[BANK1 ] int 
   906 ;;  Ax              2    8[BANK1 ] int 
   907 ;;  Gz              2    6[BANK1 ] int 
   908 ;;  Gy              2    4[BANK1 ] int 
   909 ;;  Gx              2    2[BANK1 ] int 
   910 ;;  T               2    0        int 
   911 ;; Return value:  Size  Location     Type
   912 ;;                  1    wreg      void 
   913 ;; Registers used:
   914 ;;		wreg, status,2, status,0, btemp+1, pclath, cstack
   915 ;; Tracked objects:
   916 ;;		On entry : B00/0
   917 ;;		On exit  : 0/0
   918 ;;		Unchanged: 0/0
   919 ;; Data sizes:     COMMON   BANK0   BANK1   BANK3   BANK2
   920 ;;      Params:         0       0       0       0       0
   921 ;;      Locals:         0       0      24       0       0
   922 ;;      Temps:          0       4       0       0       0
   923 ;;      Totals:         0       4      24       0       0
   924 ;;Total ram usage:       28 bytes
   925 ;; Hardware stack levels required when called:    6
   926 ;; This function calls:
   927 ;;		_I2C_Init
   928 ;;		_I2C_Read
   929 ;;		_I2C_Stop
   930 ;;		_MPU6050_Init
   931 ;;		_MPU_Start_Loc
   932 ;;		_USART_Init
   933 ;;		_USART_config
   934 ;;		___awdiv
   935 ;;		___awmod
   936 ;;		_escribir_char
   937 ;;		_interrup_config
   938 ;;		_osc_config
   939 ;;		_setup
   940 ;;		_tmr0_config
   941 ;; This function is called by:
   942 ;;		Startup code after reset
   943 ;; This function uses a non-reentrant model
   944 ;;
   945                           
   946                           
   947                           ;psect for function _main
   948  0019                     _main:
   949  0019                     l2543:	
   950                           ;incstack = 0
   951                           ; Regs used in _main: [wreg+status,2+status,0+btemp+1+pclath+cstack]
   952                           
   953                           
   954                           ;MAIN_I2C.c: 92: 
   955  0019  120A  118A  27CF  120A  118A  	fcall	_setup
   956                           
   957                           ;MAIN_I2C.c: 93:         escribir_char(65);
   958  001E  120A  118A  27F5  120A  118A  	fcall	_osc_config
   959                           
   960                           ;MAIN_I2C.c: 94:         escribir_char(120);
   961  0023  120A  158A  22B2  120A  118A  	fcall	_interrup_config
   962  0028                     l2545:
   963                           
   964                           ;MAIN_I2C.c: 95:         escribir_char(61);
   965  0028  120A  158A  22BE  120A  118A  	fcall	_tmr0_config
   966  002D                     l2547:
   967                           
   968                           ;MAIN_I2C.c: 96:         escribir_char(32);
   969  002D  120A  158A  2288  120A  118A  	fcall	_USART_config
   970                           
   971                           ;MAIN_I2C.c: 97:         escribir_char(decimal+48);
   972  0032  120A  158A  25A6  120A  118A  	fcall	_MPU6050_Init
   973                           
   974                           ;MAIN_I2C.c: 98:         escribir_char(entero+48);
   975  0037  120A  158A  22D9  120A  118A  	fcall	_I2C_Init
   976  003C                     l2549:
   977                           
   978                           ;MAIN_I2C.c: 99:         escribir_char(46);
   979  003C  3000               	movlw	0
   980  003D  1283               	bcf	3,5	;RP0=0, select bank0
   981  003E  1303               	bcf	3,6	;RP1=0, select bank0
   982  003F  00E2               	movwf	USART_Init@baud_rate+3
   983  0040  3000               	movlw	0
   984  0041  00E1               	movwf	USART_Init@baud_rate+2
   985  0042  3025               	movlw	37
   986  0043  00E0               	movwf	USART_Init@baud_rate+1
   987  0044  3080               	movlw	128
   988  0045  00DF               	movwf	USART_Init@baud_rate
   989  0046  120A  158A  2463  120A  118A  	fcall	_USART_Init
   990  004B                     l2551:
   991                           
   992                           ;MAIN_I2C.c: 108:         residuo0 = Ay1 % 1000;
   993  004B  120A  158A  2349  120A  118A  	fcall	_MPU_Start_Loc
   994                           
   995                           ;MAIN_I2C.c: 109:         entero = residuo0 / 100;
   996  0050  3000               	movlw	0
   997  0051  120A  158A  23E5  120A  118A  	fcall	_I2C_Read
   998  0056  1283               	bcf	3,5	;RP0=0, select bank0
   999  0057  1303               	bcf	3,6	;RP1=0, select bank0
  1000  0058  00E3               	movwf	??_main
  1001  0059  01E4               	clrf	??_main+1
  1002  005A  3000               	movlw	0
  1003  005B  120A  158A  23E5  120A  118A  	fcall	_I2C_Read
  1004  0060  1283               	bcf	3,5	;RP0=0, select bank0
  1005  0061  1303               	bcf	3,6	;RP1=0, select bank0
  1006  0062  00E5               	movwf	??_main+2
  1007  0063  01E6               	clrf	??_main+3
  1008  0064  0865               	movf	??_main+2,w
  1009  0065  00E6               	movwf	??_main+3
  1010  0066  01E5               	clrf	??_main+2
  1011  0067  0863               	movf	??_main,w
  1012  0068  0465               	iorwf	??_main+2,w
  1013  0069  1683               	bsf	3,5	;RP0=1, select bank1
  1014  006A  1303               	bcf	3,6	;RP1=0, select bank1
  1015  006B  00A8               	movwf	main@Ax^(0+128)
  1016  006C  1283               	bcf	3,5	;RP0=0, select bank0
  1017  006D  1303               	bcf	3,6	;RP1=0, select bank0
  1018  006E  0864               	movf	??_main+1,w
  1019  006F  0466               	iorwf	??_main+3,w
  1020  0070  1683               	bsf	3,5	;RP0=1, select bank1
  1021  0071  1303               	bcf	3,6	;RP1=0, select bank1
  1022  0072  00A9               	movwf	(main@Ax+1)^(0+128)
  1023                           
  1024                           ;MAIN_I2C.c: 110:         residuo1 = residuo0 % 100;
  1025  0073  3000               	movlw	0
  1026  0074  120A  158A  23E5  120A  118A  	fcall	_I2C_Read
  1027  0079  1283               	bcf	3,5	;RP0=0, select bank0
  1028  007A  1303               	bcf	3,6	;RP1=0, select bank0
  1029  007B  00E3               	movwf	??_main
  1030  007C  01E4               	clrf	??_main+1
  1031  007D  3000               	movlw	0
  1032  007E  120A  158A  23E5  120A  118A  	fcall	_I2C_Read
  1033  0083  1283               	bcf	3,5	;RP0=0, select bank0
  1034  0084  1303               	bcf	3,6	;RP1=0, select bank0
  1035  0085  00E5               	movwf	??_main+2
  1036  0086  01E6               	clrf	??_main+3
  1037  0087  0865               	movf	??_main+2,w
  1038  0088  00E6               	movwf	??_main+3
  1039  0089  01E5               	clrf	??_main+2
  1040  008A  0863               	movf	??_main,w
  1041  008B  0465               	iorwf	??_main+2,w
  1042  008C  1683               	bsf	3,5	;RP0=1, select bank1
  1043  008D  1303               	bcf	3,6	;RP1=0, select bank1
  1044  008E  00AA               	movwf	main@Ay^(0+128)
  1045  008F  1283               	bcf	3,5	;RP0=0, select bank0
  1046  0090  1303               	bcf	3,6	;RP1=0, select bank0
  1047  0091  0864               	movf	??_main+1,w
  1048  0092  0466               	iorwf	??_main+3,w
  1049  0093  1683               	bsf	3,5	;RP0=1, select bank1
  1050  0094  1303               	bcf	3,6	;RP1=0, select bank1
  1051  0095  00AB               	movwf	(main@Ay+1)^(0+128)
  1052                           
  1053                           ;MAIN_I2C.c: 111:         unidad = residuo1 / 10;
  1054  0096  3000               	movlw	0
  1055  0097  120A  158A  23E5  120A  118A  	fcall	_I2C_Read
  1056  009C  1283               	bcf	3,5	;RP0=0, select bank0
  1057  009D  1303               	bcf	3,6	;RP1=0, select bank0
  1058  009E  00E3               	movwf	??_main
  1059  009F  01E4               	clrf	??_main+1
  1060  00A0  3000               	movlw	0
  1061  00A1  120A  158A  23E5  120A  118A  	fcall	_I2C_Read
  1062  00A6  1283               	bcf	3,5	;RP0=0, select bank0
  1063  00A7  1303               	bcf	3,6	;RP1=0, select bank0
  1064  00A8  00E5               	movwf	??_main+2
  1065  00A9  01E6               	clrf	??_main+3
  1066  00AA  0865               	movf	??_main+2,w
  1067  00AB  00E6               	movwf	??_main+3
  1068  00AC  01E5               	clrf	??_main+2
  1069  00AD  0863               	movf	??_main,w
  1070  00AE  0465               	iorwf	??_main+2,w
  1071  00AF  1683               	bsf	3,5	;RP0=1, select bank1
  1072  00B0  1303               	bcf	3,6	;RP1=0, select bank1
  1073  00B1  00AC               	movwf	main@Az^(0+128)
  1074  00B2  1283               	bcf	3,5	;RP0=0, select bank0
  1075  00B3  1303               	bcf	3,6	;RP1=0, select bank0
  1076  00B4  0864               	movf	??_main+1,w
  1077  00B5  0466               	iorwf	??_main+3,w
  1078  00B6  1683               	bsf	3,5	;RP0=1, select bank1
  1079  00B7  1303               	bcf	3,6	;RP1=0, select bank1
  1080  00B8  00AD               	movwf	(main@Az+1)^(0+128)
  1081  00B9  3000               	movlw	0
  1082  00BA  120A  158A  23E5  120A  118A  	fcall	_I2C_Read
  1083  00BF  3000               	movlw	0
  1084  00C0  120A  158A  23E5  120A  118A  	fcall	_I2C_Read
  1085                           
  1086                           ;MAIN_I2C.c: 113:         decena = residuo2 / 1;
  1087  00C5  3000               	movlw	0
  1088  00C6  120A  158A  23E5  120A  118A  	fcall	_I2C_Read
  1089  00CB  1283               	bcf	3,5	;RP0=0, select bank0
  1090  00CC  1303               	bcf	3,6	;RP1=0, select bank0
  1091  00CD  00E3               	movwf	??_main
  1092  00CE  01E4               	clrf	??_main+1
  1093  00CF  3000               	movlw	0
  1094  00D0  120A  158A  23E5  120A  118A  	fcall	_I2C_Read
  1095  00D5  1283               	bcf	3,5	;RP0=0, select bank0
  1096  00D6  1303               	bcf	3,6	;RP1=0, select bank0
  1097  00D7  00E5               	movwf	??_main+2
  1098  00D8  01E6               	clrf	??_main+3
  1099  00D9  0865               	movf	??_main+2,w
  1100  00DA  00E6               	movwf	??_main+3
  1101  00DB  01E5               	clrf	??_main+2
  1102  00DC  0863               	movf	??_main,w
  1103  00DD  0465               	iorwf	??_main+2,w
  1104  00DE  1683               	bsf	3,5	;RP0=1, select bank1
  1105  00DF  1303               	bcf	3,6	;RP1=0, select bank1
  1106  00E0  00A2               	movwf	main@Gx^(0+128)
  1107  00E1  1283               	bcf	3,5	;RP0=0, select bank0
  1108  00E2  1303               	bcf	3,6	;RP1=0, select bank0
  1109  00E3  0864               	movf	??_main+1,w
  1110  00E4  0466               	iorwf	??_main+3,w
  1111  00E5  1683               	bsf	3,5	;RP0=1, select bank1
  1112  00E6  1303               	bcf	3,6	;RP1=0, select bank1
  1113  00E7  00A3               	movwf	(main@Gx+1)^(0+128)
  1114                           
  1115                           ;MAIN_I2C.c: 114: 
  1116  00E8  3000               	movlw	0
  1117  00E9  120A  158A  23E5  120A  118A  	fcall	_I2C_Read
  1118  00EE  1283               	bcf	3,5	;RP0=0, select bank0
  1119  00EF  1303               	bcf	3,6	;RP1=0, select bank0
  1120  00F0  00E3               	movwf	??_main
  1121  00F1  01E4               	clrf	??_main+1
  1122  00F2  3000               	movlw	0
  1123  00F3  120A  158A  23E5  120A  118A  	fcall	_I2C_Read
  1124  00F8  1283               	bcf	3,5	;RP0=0, select bank0
  1125  00F9  1303               	bcf	3,6	;RP1=0, select bank0
  1126  00FA  00E5               	movwf	??_main+2
  1127  00FB  01E6               	clrf	??_main+3
  1128  00FC  0865               	movf	??_main+2,w
  1129  00FD  00E6               	movwf	??_main+3
  1130  00FE  01E5               	clrf	??_main+2
  1131  00FF  0863               	movf	??_main,w
  1132  0100  0465               	iorwf	??_main+2,w
  1133  0101  1683               	bsf	3,5	;RP0=1, select bank1
  1134  0102  1303               	bcf	3,6	;RP1=0, select bank1
  1135  0103  00A4               	movwf	main@Gy^(0+128)
  1136  0104  1283               	bcf	3,5	;RP0=0, select bank0
  1137  0105  1303               	bcf	3,6	;RP1=0, select bank0
  1138  0106  0864               	movf	??_main+1,w
  1139  0107  0466               	iorwf	??_main+3,w
  1140  0108  1683               	bsf	3,5	;RP0=1, select bank1
  1141  0109  1303               	bcf	3,6	;RP1=0, select bank1
  1142  010A  00A5               	movwf	(main@Gy+1)^(0+128)
  1143                           
  1144                           ;MAIN_I2C.c: 115:         escribir_char(65);
  1145  010B  3001               	movlw	1
  1146  010C  120A  158A  23E5  120A  118A  	fcall	_I2C_Read
  1147  0111  1283               	bcf	3,5	;RP0=0, select bank0
  1148  0112  1303               	bcf	3,6	;RP1=0, select bank0
  1149  0113  00E3               	movwf	??_main
  1150  0114  01E4               	clrf	??_main+1
  1151  0115  3000               	movlw	0
  1152  0116  120A  158A  23E5  120A  118A  	fcall	_I2C_Read
  1153  011B  1283               	bcf	3,5	;RP0=0, select bank0
  1154  011C  1303               	bcf	3,6	;RP1=0, select bank0
  1155  011D  00E5               	movwf	??_main+2
  1156  011E  01E6               	clrf	??_main+3
  1157  011F  0865               	movf	??_main+2,w
  1158  0120  00E6               	movwf	??_main+3
  1159  0121  01E5               	clrf	??_main+2
  1160  0122  0863               	movf	??_main,w
  1161  0123  0465               	iorwf	??_main+2,w
  1162  0124  1683               	bsf	3,5	;RP0=1, select bank1
  1163  0125  1303               	bcf	3,6	;RP1=0, select bank1
  1164  0126  00A6               	movwf	main@Gz^(0+128)
  1165  0127  1283               	bcf	3,5	;RP0=0, select bank0
  1166  0128  1303               	bcf	3,6	;RP1=0, select bank0
  1167  0129  0864               	movf	??_main+1,w
  1168  012A  0466               	iorwf	??_main+3,w
  1169  012B  1683               	bsf	3,5	;RP0=1, select bank1
  1170  012C  1303               	bcf	3,6	;RP1=0, select bank1
  1171  012D  00A7               	movwf	(main@Gz+1)^(0+128)
  1172  012E                     l2553:
  1173                           
  1174                           ;MAIN_I2C.c: 116:         escribir_char(121);
  1175  012E  120A  158A  22CB  120A  118A  	fcall	_I2C_Stop
  1176  0133                     l2555:
  1177                           
  1178                           ;MAIN_I2C.c: 118:         escribir_char(32);
  1179  0133  3000               	movlw	0
  1180  0134  00F2               	movwf	___awdiv@divisor
  1181  0135  3001               	movlw	1
  1182  0136  00F3               	movwf	___awdiv@divisor+1
  1183  0137  1683               	bsf	3,5	;RP0=1, select bank1
  1184  0138  1303               	bcf	3,6	;RP1=0, select bank1
  1185  0139  0829               	movf	(main@Ax+1)^(0+128),w
  1186  013A  00F5               	movwf	___awdiv@dividend+1
  1187  013B  0828               	movf	main@Ax^(0+128),w
  1188  013C  00F4               	movwf	___awdiv@dividend
  1189  013D  120A  158A  24C1  120A  118A  	fcall	___awdiv
  1190  0142  0872               	movf	?___awdiv,w
  1191  0143  1283               	bcf	3,5	;RP0=0, select bank0
  1192  0144  1303               	bcf	3,6	;RP1=0, select bank0
  1193  0145  00E3               	movwf	??_main
  1194  0146  0863               	movf	??_main,w
  1195  0147  1683               	bsf	3,5	;RP0=1, select bank1
  1196  0148  1303               	bcf	3,6	;RP1=0, select bank1
  1197  0149  00AE               	movwf	main@Ax1^(0+128)
  1198  014A                     l2557:
  1199                           
  1200                           ;MAIN_I2C.c: 119:         escribir_char(decimal+48);
  1201  014A  3000               	movlw	0
  1202  014B  00F2               	movwf	___awdiv@divisor
  1203  014C  3001               	movlw	1
  1204  014D  00F3               	movwf	___awdiv@divisor+1
  1205  014E  082B               	movf	(main@Ay+1)^(0+128),w
  1206  014F  00F5               	movwf	___awdiv@dividend+1
  1207  0150  082A               	movf	main@Ay^(0+128),w
  1208  0151  00F4               	movwf	___awdiv@dividend
  1209  0152  120A  158A  24C1  120A  118A  	fcall	___awdiv
  1210  0157  0872               	movf	?___awdiv,w
  1211  0158  1283               	bcf	3,5	;RP0=0, select bank0
  1212  0159  1303               	bcf	3,6	;RP1=0, select bank0
  1213  015A  00E3               	movwf	??_main
  1214  015B  0863               	movf	??_main,w
  1215  015C  1683               	bsf	3,5	;RP0=1, select bank1
  1216  015D  1303               	bcf	3,6	;RP1=0, select bank1
  1217  015E  00AF               	movwf	main@Ay1^(0+128)
  1218  015F                     l2559:
  1219                           
  1220                           ;MAIN_I2C.c: 120:         escribir_char(entero+48);
  1221  015F  3000               	movlw	0
  1222  0160  00F2               	movwf	___awdiv@divisor
  1223  0161  3001               	movlw	1
  1224  0162  00F3               	movwf	___awdiv@divisor+1
  1225  0163  082D               	movf	(main@Az+1)^(0+128),w
  1226  0164  00F5               	movwf	___awdiv@dividend+1
  1227  0165  082C               	movf	main@Az^(0+128),w
  1228  0166  00F4               	movwf	___awdiv@dividend
  1229  0167  120A  158A  24C1  120A  118A  	fcall	___awdiv
  1230  016C  0872               	movf	?___awdiv,w
  1231  016D  1283               	bcf	3,5	;RP0=0, select bank0
  1232  016E  1303               	bcf	3,6	;RP1=0, select bank0
  1233  016F  00E3               	movwf	??_main
  1234  0170  0863               	movf	??_main,w
  1235  0171  1683               	bsf	3,5	;RP0=1, select bank1
  1236  0172  1303               	bcf	3,6	;RP1=0, select bank1
  1237  0173  00B0               	movwf	main@Az1^(0+128)
  1238  0174                     l2561:
  1239                           
  1240                           ;MAIN_I2C.c: 122:         escribir_char(unidad+48);
  1241  0174  082E               	movf	main@Ax1^(0+128),w
  1242  0175  1283               	bcf	3,5	;RP0=0, select bank0
  1243  0176  1303               	bcf	3,6	;RP1=0, select bank0
  1244  0177  00E3               	movwf	??_main
  1245  0178  3001               	movlw	1
  1246  0179                     u3065:
  1247  0179  1003               	clrc
  1248  017A  0DE3               	rlf	??_main,f
  1249  017B  3EFF               	addlw	-1
  1250  017C  1D03               	skipz
  1251  017D  2979               	goto	u3065
  1252  017E  1003               	clrc
  1253  017F  0D63               	rlf	??_main,w
  1254  0180  00E4               	movwf	??_main+1
  1255  0181  0864               	movf	??_main+1,w
  1256  0182  1683               	bsf	3,5	;RP0=1, select bank1
  1257  0183  1303               	bcf	3,6	;RP1=0, select bank1
  1258  0184  00AE               	movwf	main@Ax1^(0+128)
  1259  0185                     l2563:
  1260                           
  1261                           ;MAIN_I2C.c: 123:         escribir_char(decena+48);
  1262  0185  082F               	movf	main@Ay1^(0+128),w
  1263  0186  1283               	bcf	3,5	;RP0=0, select bank0
  1264  0187  1303               	bcf	3,6	;RP1=0, select bank0
  1265  0188  00E3               	movwf	??_main
  1266  0189  3001               	movlw	1
  1267  018A                     u3075:
  1268  018A  1003               	clrc
  1269  018B  0DE3               	rlf	??_main,f
  1270  018C  3EFF               	addlw	-1
  1271  018D  1D03               	skipz
  1272  018E  298A               	goto	u3075
  1273  018F  1003               	clrc
  1274  0190  0D63               	rlf	??_main,w
  1275  0191  00E4               	movwf	??_main+1
  1276  0192  0864               	movf	??_main+1,w
  1277  0193  1683               	bsf	3,5	;RP0=1, select bank1
  1278  0194  1303               	bcf	3,6	;RP1=0, select bank1
  1279  0195  00AF               	movwf	main@Ay1^(0+128)
  1280  0196                     l2565:
  1281                           
  1282                           ;MAIN_I2C.c: 124:         escribir_char(32);
  1283  0196  0830               	movf	main@Az1^(0+128),w
  1284  0197  1283               	bcf	3,5	;RP0=0, select bank0
  1285  0198  1303               	bcf	3,6	;RP1=0, select bank0
  1286  0199  00E3               	movwf	??_main
  1287  019A  3001               	movlw	1
  1288  019B                     u3085:
  1289  019B  1003               	clrc
  1290  019C  0DE3               	rlf	??_main,f
  1291  019D  3EFF               	addlw	-1
  1292  019E  1D03               	skipz
  1293  019F  299B               	goto	u3085
  1294  01A0  1003               	clrc
  1295  01A1  0D63               	rlf	??_main,w
  1296  01A2  00E4               	movwf	??_main+1
  1297  01A3  0864               	movf	??_main+1,w
  1298  01A4  1683               	bsf	3,5	;RP0=1, select bank1
  1299  01A5  1303               	bcf	3,6	;RP1=0, select bank1
  1300  01A6  00B0               	movwf	main@Az1^(0+128)
  1301  01A7                     l2567:
  1302                           
  1303                           ;MAIN_I2C.c: 128: 
  1304  01A7  30E8               	movlw	232
  1305  01A8  00F2               	movwf	___awdiv@divisor
  1306  01A9  3003               	movlw	3
  1307  01AA  00F3               	movwf	___awdiv@divisor+1
  1308  01AB  082E               	movf	main@Ax1^(0+128),w
  1309  01AC  1283               	bcf	3,5	;RP0=0, select bank0
  1310  01AD  1303               	bcf	3,6	;RP1=0, select bank0
  1311  01AE  00E3               	movwf	??_main
  1312  01AF  01E4               	clrf	??_main+1
  1313  01B0  0863               	movf	??_main,w
  1314  01B1  00F4               	movwf	___awdiv@dividend
  1315  01B2  0864               	movf	??_main+1,w
  1316  01B3  00F5               	movwf	___awdiv@dividend+1
  1317  01B4  120A  158A  24C1  120A  118A  	fcall	___awdiv
  1318  01B9  0872               	movf	?___awdiv,w
  1319  01BA  1283               	bcf	3,5	;RP0=0, select bank0
  1320  01BB  1303               	bcf	3,6	;RP1=0, select bank0
  1321  01BC  00E5               	movwf	??_main+2
  1322  01BD  0865               	movf	??_main+2,w
  1323  01BE  1683               	bsf	3,5	;RP0=1, select bank1
  1324  01BF  1303               	bcf	3,6	;RP1=0, select bank1
  1325  01C0  00B1               	movwf	main@decimal^(0+128)
  1326  01C1                     l2569:
  1327                           
  1328                           ;MAIN_I2C.c: 129:   decimal = Az1 /1000;
  1329  01C1  30E8               	movlw	232
  1330  01C2  00F2               	movwf	___awmod@divisor
  1331  01C3  3003               	movlw	3
  1332  01C4  00F3               	movwf	___awmod@divisor+1
  1333  01C5  082E               	movf	main@Ax1^(0+128),w
  1334  01C6  1283               	bcf	3,5	;RP0=0, select bank0
  1335  01C7  1303               	bcf	3,6	;RP1=0, select bank0
  1336  01C8  00E3               	movwf	??_main
  1337  01C9  01E4               	clrf	??_main+1
  1338  01CA  0863               	movf	??_main,w
  1339  01CB  00F4               	movwf	___awmod@dividend
  1340  01CC  0864               	movf	??_main+1,w
  1341  01CD  00F5               	movwf	___awmod@dividend+1
  1342  01CE  120A  158A  240A  120A  118A  	fcall	___awmod
  1343  01D3  0872               	movf	?___awmod,w
  1344  01D4  1283               	bcf	3,5	;RP0=0, select bank0
  1345  01D5  1303               	bcf	3,6	;RP1=0, select bank0
  1346  01D6  00E5               	movwf	??_main+2
  1347  01D7  0865               	movf	??_main+2,w
  1348  01D8  1683               	bsf	3,5	;RP0=1, select bank1
  1349  01D9  1303               	bcf	3,6	;RP1=0, select bank1
  1350  01DA  00B6               	movwf	main@residuo0^(0+128)
  1351  01DB                     l2571:
  1352                           
  1353                           ;MAIN_I2C.c: 130:         residuo0 = Az1 % 1000;
  1354  01DB  3064               	movlw	100
  1355  01DC  00F2               	movwf	___awdiv@divisor
  1356  01DD  3000               	movlw	0
  1357  01DE  00F3               	movwf	___awdiv@divisor+1
  1358  01DF  0836               	movf	main@residuo0^(0+128),w
  1359  01E0  1283               	bcf	3,5	;RP0=0, select bank0
  1360  01E1  1303               	bcf	3,6	;RP1=0, select bank0
  1361  01E2  00E3               	movwf	??_main
  1362  01E3  01E4               	clrf	??_main+1
  1363  01E4  0863               	movf	??_main,w
  1364  01E5  00F4               	movwf	___awdiv@dividend
  1365  01E6  0864               	movf	??_main+1,w
  1366  01E7  00F5               	movwf	___awdiv@dividend+1
  1367  01E8  120A  158A  24C1  120A  118A  	fcall	___awdiv
  1368  01ED  0872               	movf	?___awdiv,w
  1369  01EE  1283               	bcf	3,5	;RP0=0, select bank0
  1370  01EF  1303               	bcf	3,6	;RP1=0, select bank0
  1371  01F0  00E5               	movwf	??_main+2
  1372  01F1  0865               	movf	??_main+2,w
  1373  01F2  1683               	bsf	3,5	;RP0=1, select bank1
  1374  01F3  1303               	bcf	3,6	;RP1=0, select bank1
  1375  01F4  00B2               	movwf	main@entero^(0+128)
  1376  01F5                     l2573:
  1377                           
  1378                           ;MAIN_I2C.c: 131:         entero = residuo0 / 100;
  1379  01F5  3064               	movlw	100
  1380  01F6  00F2               	movwf	___awmod@divisor
  1381  01F7  3000               	movlw	0
  1382  01F8  00F3               	movwf	___awmod@divisor+1
  1383  01F9  0836               	movf	main@residuo0^(0+128),w
  1384  01FA  1283               	bcf	3,5	;RP0=0, select bank0
  1385  01FB  1303               	bcf	3,6	;RP1=0, select bank0
  1386  01FC  00E3               	movwf	??_main
  1387  01FD  01E4               	clrf	??_main+1
  1388  01FE  0863               	movf	??_main,w
  1389  01FF  00F4               	movwf	___awmod@dividend
  1390  0200  0864               	movf	??_main+1,w
  1391  0201  00F5               	movwf	___awmod@dividend+1
  1392  0202  120A  158A  240A  120A  118A  	fcall	___awmod
  1393  0207  0872               	movf	?___awmod,w
  1394  0208  1283               	bcf	3,5	;RP0=0, select bank0
  1395  0209  1303               	bcf	3,6	;RP1=0, select bank0
  1396  020A  00E5               	movwf	??_main+2
  1397  020B  0865               	movf	??_main+2,w
  1398  020C  1683               	bsf	3,5	;RP0=1, select bank1
  1399  020D  1303               	bcf	3,6	;RP1=0, select bank1
  1400  020E  00B7               	movwf	main@residuo1^(0+128)
  1401  020F                     l2575:
  1402                           
  1403                           ;MAIN_I2C.c: 132:         residuo1 = residuo0 % 100;
  1404  020F  300A               	movlw	10
  1405  0210  00F2               	movwf	___awdiv@divisor
  1406  0211  3000               	movlw	0
  1407  0212  00F3               	movwf	___awdiv@divisor+1
  1408  0213  0837               	movf	main@residuo1^(0+128),w
  1409  0214  1283               	bcf	3,5	;RP0=0, select bank0
  1410  0215  1303               	bcf	3,6	;RP1=0, select bank0
  1411  0216  00E3               	movwf	??_main
  1412  0217  01E4               	clrf	??_main+1
  1413  0218  0863               	movf	??_main,w
  1414  0219  00F4               	movwf	___awdiv@dividend
  1415  021A  0864               	movf	??_main+1,w
  1416  021B  00F5               	movwf	___awdiv@dividend+1
  1417  021C  120A  158A  24C1  120A  118A  	fcall	___awdiv
  1418  0221  0872               	movf	?___awdiv,w
  1419  0222  1283               	bcf	3,5	;RP0=0, select bank0
  1420  0223  1303               	bcf	3,6	;RP1=0, select bank0
  1421  0224  00E5               	movwf	??_main+2
  1422  0225  0865               	movf	??_main+2,w
  1423  0226  1683               	bsf	3,5	;RP0=1, select bank1
  1424  0227  1303               	bcf	3,6	;RP1=0, select bank1
  1425  0228  00B3               	movwf	main@unidad^(0+128)
  1426  0229                     l2577:
  1427                           
  1428                           ;MAIN_I2C.c: 133:         unidad = residuo1 / 10;
  1429  0229  300A               	movlw	10
  1430  022A  00F2               	movwf	___awmod@divisor
  1431  022B  3000               	movlw	0
  1432  022C  00F3               	movwf	___awmod@divisor+1
  1433  022D  0837               	movf	main@residuo1^(0+128),w
  1434  022E  1283               	bcf	3,5	;RP0=0, select bank0
  1435  022F  1303               	bcf	3,6	;RP1=0, select bank0
  1436  0230  00E3               	movwf	??_main
  1437  0231  01E4               	clrf	??_main+1
  1438  0232  0863               	movf	??_main,w
  1439  0233  00F4               	movwf	___awmod@dividend
  1440  0234  0864               	movf	??_main+1,w
  1441  0235  00F5               	movwf	___awmod@dividend+1
  1442  0236  120A  158A  240A  120A  118A  	fcall	___awmod
  1443  023B  0872               	movf	?___awmod,w
  1444  023C  1283               	bcf	3,5	;RP0=0, select bank0
  1445  023D  1303               	bcf	3,6	;RP1=0, select bank0
  1446  023E  00E5               	movwf	??_main+2
  1447  023F  0865               	movf	??_main+2,w
  1448  0240  1683               	bsf	3,5	;RP0=1, select bank1
  1449  0241  1303               	bcf	3,6	;RP1=0, select bank1
  1450  0242  00B4               	movwf	main@residuo2^(0+128)
  1451  0243                     l2579:
  1452                           
  1453                           ;MAIN_I2C.c: 134:         residuo2 = residuo1 % 10;
  1454  0243  0834               	movf	main@residuo2^(0+128),w
  1455  0244  1283               	bcf	3,5	;RP0=0, select bank0
  1456  0245  1303               	bcf	3,6	;RP1=0, select bank0
  1457  0246  00E3               	movwf	??_main
  1458  0247  0863               	movf	??_main,w
  1459  0248  1683               	bsf	3,5	;RP0=1, select bank1
  1460  0249  1303               	bcf	3,6	;RP1=0, select bank1
  1461  024A  00B5               	movwf	main@decena^(0+128)
  1462  024B                     l2581:
  1463                           
  1464                           ;MAIN_I2C.c: 136: 
  1465  024B  3041               	movlw	65
  1466  024C  120A  158A  22A8  120A  118A  	fcall	_escribir_char
  1467  0251                     l2583:
  1468                           
  1469                           ;MAIN_I2C.c: 137:         escribir_char(65);
  1470  0251  3078               	movlw	120
  1471  0252  120A  158A  22A8  120A  118A  	fcall	_escribir_char
  1472  0257                     l2585:
  1473                           
  1474                           ;MAIN_I2C.c: 138:         escribir_char(122);
  1475  0257  303D               	movlw	61
  1476  0258  120A  158A  22A8  120A  118A  	fcall	_escribir_char
  1477  025D                     l2587:
  1478                           
  1479                           ;MAIN_I2C.c: 139:         escribir_char(61);
  1480  025D  3020               	movlw	32
  1481  025E  120A  158A  22A8  120A  118A  	fcall	_escribir_char
  1482  0263                     l2589:
  1483                           
  1484                           ;MAIN_I2C.c: 140:         escribir_char(32);
  1485  0263  1683               	bsf	3,5	;RP0=1, select bank1
  1486  0264  1303               	bcf	3,6	;RP1=0, select bank1
  1487  0265  0831               	movf	main@decimal^(0+128),w
  1488  0266  3E30               	addlw	48
  1489  0267  120A  158A  22A8  120A  118A  	fcall	_escribir_char
  1490  026C                     l2591:
  1491                           
  1492                           ;MAIN_I2C.c: 141:         escribir_char(decimal+48);
  1493  026C  1683               	bsf	3,5	;RP0=1, select bank1
  1494  026D  1303               	bcf	3,6	;RP1=0, select bank1
  1495  026E  0832               	movf	main@entero^(0+128),w
  1496  026F  3E30               	addlw	48
  1497  0270  120A  158A  22A8  120A  118A  	fcall	_escribir_char
  1498  0275                     l2593:
  1499                           
  1500                           ;MAIN_I2C.c: 142:         escribir_char(entero+48);
  1501  0275  302E               	movlw	46
  1502  0276  120A  158A  22A8  120A  118A  	fcall	_escribir_char
  1503  027B                     l2595:
  1504                           
  1505                           ;MAIN_I2C.c: 143:         escribir_char(46);
  1506  027B  1683               	bsf	3,5	;RP0=1, select bank1
  1507  027C  1303               	bcf	3,6	;RP1=0, select bank1
  1508  027D  0833               	movf	main@unidad^(0+128),w
  1509  027E  3E30               	addlw	48
  1510  027F  120A  158A  22A8  120A  118A  	fcall	_escribir_char
  1511  0284                     l2597:
  1512                           
  1513                           ;MAIN_I2C.c: 144:         escribir_char(unidad+48);
  1514  0284  1683               	bsf	3,5	;RP0=1, select bank1
  1515  0285  1303               	bcf	3,6	;RP1=0, select bank1
  1516  0286  0835               	movf	main@decena^(0+128),w
  1517  0287  3E30               	addlw	48
  1518  0288  120A  158A  22A8  120A  118A  	fcall	_escribir_char
  1519  028D                     l2599:
  1520                           
  1521                           ;MAIN_I2C.c: 145:         escribir_char(decena+48);
  1522  028D  3020               	movlw	32
  1523  028E  120A  158A  22A8  120A  118A  	fcall	_escribir_char
  1524  0293                     l2601:
  1525                           
  1526                           ;MAIN_I2C.c: 146:         escribir_char(32);
  1527  0293  3020               	movlw	32
  1528  0294  120A  158A  22A8  120A  118A  	fcall	_escribir_char
  1529  0299                     l2603:
  1530                           
  1531                           ;MAIN_I2C.c: 150: 
  1532  0299  30E8               	movlw	232
  1533  029A  00F2               	movwf	___awdiv@divisor
  1534  029B  3003               	movlw	3
  1535  029C  00F3               	movwf	___awdiv@divisor+1
  1536  029D  1683               	bsf	3,5	;RP0=1, select bank1
  1537  029E  1303               	bcf	3,6	;RP1=0, select bank1
  1538  029F  082F               	movf	main@Ay1^(0+128),w
  1539  02A0  1283               	bcf	3,5	;RP0=0, select bank0
  1540  02A1  1303               	bcf	3,6	;RP1=0, select bank0
  1541  02A2  00E3               	movwf	??_main
  1542  02A3  01E4               	clrf	??_main+1
  1543  02A4  0863               	movf	??_main,w
  1544  02A5  00F4               	movwf	___awdiv@dividend
  1545  02A6  0864               	movf	??_main+1,w
  1546  02A7  00F5               	movwf	___awdiv@dividend+1
  1547  02A8  120A  158A  24C1  120A  118A  	fcall	___awdiv
  1548  02AD  0872               	movf	?___awdiv,w
  1549  02AE  1283               	bcf	3,5	;RP0=0, select bank0
  1550  02AF  1303               	bcf	3,6	;RP1=0, select bank0
  1551  02B0  00E5               	movwf	??_main+2
  1552  02B1  0865               	movf	??_main+2,w
  1553  02B2  1683               	bsf	3,5	;RP0=1, select bank1
  1554  02B3  1303               	bcf	3,6	;RP1=0, select bank1
  1555  02B4  00B1               	movwf	main@decimal^(0+128)
  1556  02B5                     l2605:
  1557                           
  1558                           ;MAIN_I2C.c: 151: 
  1559  02B5  30E8               	movlw	232
  1560  02B6  00F2               	movwf	___awmod@divisor
  1561  02B7  3003               	movlw	3
  1562  02B8  00F3               	movwf	___awmod@divisor+1
  1563  02B9  082F               	movf	main@Ay1^(0+128),w
  1564  02BA  1283               	bcf	3,5	;RP0=0, select bank0
  1565  02BB  1303               	bcf	3,6	;RP1=0, select bank0
  1566  02BC  00E3               	movwf	??_main
  1567  02BD  01E4               	clrf	??_main+1
  1568  02BE  0863               	movf	??_main,w
  1569  02BF  00F4               	movwf	___awmod@dividend
  1570  02C0  0864               	movf	??_main+1,w
  1571  02C1  00F5               	movwf	___awmod@dividend+1
  1572  02C2  120A  158A  240A  120A  118A  	fcall	___awmod
  1573  02C7  0872               	movf	?___awmod,w
  1574  02C8  1283               	bcf	3,5	;RP0=0, select bank0
  1575  02C9  1303               	bcf	3,6	;RP1=0, select bank0
  1576  02CA  00E5               	movwf	??_main+2
  1577  02CB  0865               	movf	??_main+2,w
  1578  02CC  1683               	bsf	3,5	;RP0=1, select bank1
  1579  02CD  1303               	bcf	3,6	;RP1=0, select bank1
  1580  02CE  00B6               	movwf	main@residuo0^(0+128)
  1581  02CF                     l2607:
  1582                           
  1583                           ;MAIN_I2C.c: 152: 
  1584  02CF  3064               	movlw	100
  1585  02D0  00F2               	movwf	___awdiv@divisor
  1586  02D1  3000               	movlw	0
  1587  02D2  00F3               	movwf	___awdiv@divisor+1
  1588  02D3  0836               	movf	main@residuo0^(0+128),w
  1589  02D4  1283               	bcf	3,5	;RP0=0, select bank0
  1590  02D5  1303               	bcf	3,6	;RP1=0, select bank0
  1591  02D6  00E3               	movwf	??_main
  1592  02D7  01E4               	clrf	??_main+1
  1593  02D8  0863               	movf	??_main,w
  1594  02D9  00F4               	movwf	___awdiv@dividend
  1595  02DA  0864               	movf	??_main+1,w
  1596  02DB  00F5               	movwf	___awdiv@dividend+1
  1597  02DC  120A  158A  24C1  120A  118A  	fcall	___awdiv
  1598  02E1  0872               	movf	?___awdiv,w
  1599  02E2  1283               	bcf	3,5	;RP0=0, select bank0
  1600  02E3  1303               	bcf	3,6	;RP1=0, select bank0
  1601  02E4  00E5               	movwf	??_main+2
  1602  02E5  0865               	movf	??_main+2,w
  1603  02E6  1683               	bsf	3,5	;RP0=1, select bank1
  1604  02E7  1303               	bcf	3,6	;RP1=0, select bank1
  1605  02E8  00B2               	movwf	main@entero^(0+128)
  1606  02E9                     l2609:
  1607                           
  1608                           ;MAIN_I2C.c: 153: }
  1609  02E9  3064               	movlw	100
  1610  02EA  00F2               	movwf	___awmod@divisor
  1611  02EB  3000               	movlw	0
  1612  02EC  00F3               	movwf	___awmod@divisor+1
  1613  02ED  0836               	movf	main@residuo0^(0+128),w
  1614  02EE  1283               	bcf	3,5	;RP0=0, select bank0
  1615  02EF  1303               	bcf	3,6	;RP1=0, select bank0
  1616  02F0  00E3               	movwf	??_main
  1617  02F1  01E4               	clrf	??_main+1
  1618  02F2  0863               	movf	??_main,w
  1619  02F3  00F4               	movwf	___awmod@dividend
  1620  02F4  0864               	movf	??_main+1,w
  1621  02F5  00F5               	movwf	___awmod@dividend+1
  1622  02F6  120A  158A  240A  120A  118A  	fcall	___awmod
  1623  02FB  0872               	movf	?___awmod,w
  1624  02FC  1283               	bcf	3,5	;RP0=0, select bank0
  1625  02FD  1303               	bcf	3,6	;RP1=0, select bank0
  1626  02FE  00E5               	movwf	??_main+2
  1627  02FF  0865               	movf	??_main+2,w
  1628  0300  1683               	bsf	3,5	;RP0=1, select bank1
  1629  0301  1303               	bcf	3,6	;RP1=0, select bank1
  1630  0302  00B7               	movwf	main@residuo1^(0+128)
  1631  0303                     l2611:
  1632                           
  1633                           ;MAIN_I2C.c: 154: 
  1634  0303  300A               	movlw	10
  1635  0304  00F2               	movwf	___awdiv@divisor
  1636  0305  3000               	movlw	0
  1637  0306  00F3               	movwf	___awdiv@divisor+1
  1638  0307  0837               	movf	main@residuo1^(0+128),w
  1639  0308  1283               	bcf	3,5	;RP0=0, select bank0
  1640  0309  1303               	bcf	3,6	;RP1=0, select bank0
  1641  030A  00E3               	movwf	??_main
  1642  030B  01E4               	clrf	??_main+1
  1643  030C  0863               	movf	??_main,w
  1644  030D  00F4               	movwf	___awdiv@dividend
  1645  030E  0864               	movf	??_main+1,w
  1646  030F  00F5               	movwf	___awdiv@dividend+1
  1647  0310  120A  158A  24C1  120A  118A  	fcall	___awdiv
  1648  0315  0872               	movf	?___awdiv,w
  1649  0316  1283               	bcf	3,5	;RP0=0, select bank0
  1650  0317  1303               	bcf	3,6	;RP1=0, select bank0
  1651  0318  00E5               	movwf	??_main+2
  1652  0319  0865               	movf	??_main+2,w
  1653  031A  1683               	bsf	3,5	;RP0=1, select bank1
  1654  031B  1303               	bcf	3,6	;RP1=0, select bank1
  1655  031C  00B3               	movwf	main@unidad^(0+128)
  1656  031D                     l2613:
  1657                           
  1658                           ;MAIN_I2C.c: 155: 
  1659  031D  300A               	movlw	10
  1660  031E  00F2               	movwf	___awmod@divisor
  1661  031F  3000               	movlw	0
  1662  0320  00F3               	movwf	___awmod@divisor+1
  1663  0321  0837               	movf	main@residuo1^(0+128),w
  1664  0322  1283               	bcf	3,5	;RP0=0, select bank0
  1665  0323  1303               	bcf	3,6	;RP1=0, select bank0
  1666  0324  00E3               	movwf	??_main
  1667  0325  01E4               	clrf	??_main+1
  1668  0326  0863               	movf	??_main,w
  1669  0327  00F4               	movwf	___awmod@dividend
  1670  0328  0864               	movf	??_main+1,w
  1671  0329  00F5               	movwf	___awmod@dividend+1
  1672  032A  120A  158A  240A  120A  118A  	fcall	___awmod
  1673  032F  0872               	movf	?___awmod,w
  1674  0330  1283               	bcf	3,5	;RP0=0, select bank0
  1675  0331  1303               	bcf	3,6	;RP1=0, select bank0
  1676  0332  00E5               	movwf	??_main+2
  1677  0333  0865               	movf	??_main+2,w
  1678  0334  1683               	bsf	3,5	;RP0=1, select bank1
  1679  0335  1303               	bcf	3,6	;RP1=0, select bank1
  1680  0336  00B4               	movwf	main@residuo2^(0+128)
  1681  0337                     l2615:
  1682                           
  1683                           ;MAIN_I2C.c: 156: 
  1684  0337  0834               	movf	main@residuo2^(0+128),w
  1685  0338  1283               	bcf	3,5	;RP0=0, select bank0
  1686  0339  1303               	bcf	3,6	;RP1=0, select bank0
  1687  033A  00E3               	movwf	??_main
  1688  033B  0863               	movf	??_main,w
  1689  033C  1683               	bsf	3,5	;RP0=1, select bank1
  1690  033D  1303               	bcf	3,6	;RP1=0, select bank1
  1691  033E  00B5               	movwf	main@decena^(0+128)
  1692  033F                     l2617:
  1693                           
  1694                           ;MAIN_I2C.c: 158: 
  1695  033F  3041               	movlw	65
  1696  0340  120A  158A  22A8  120A  118A  	fcall	_escribir_char
  1697  0345                     l2619:
  1698                           
  1699                           ;MAIN_I2C.c: 159: void setup(void)
  1700  0345  3079               	movlw	121
  1701  0346  120A  158A  22A8  120A  118A  	fcall	_escribir_char
  1702  034B                     l2621:
  1703                           
  1704                           ;MAIN_I2C.c: 160: {
  1705  034B  303D               	movlw	61
  1706  034C  120A  158A  22A8  120A  118A  	fcall	_escribir_char
  1707  0351                     l2623:
  1708                           
  1709                           ;MAIN_I2C.c: 161:     ANSEL = 0;
  1710  0351  3020               	movlw	32
  1711  0352  120A  158A  22A8  120A  118A  	fcall	_escribir_char
  1712  0357                     l2625:
  1713                           
  1714                           ;MAIN_I2C.c: 162:     TRISA = 0;
  1715  0357  1683               	bsf	3,5	;RP0=1, select bank1
  1716  0358  1303               	bcf	3,6	;RP1=0, select bank1
  1717  0359  0831               	movf	main@decimal^(0+128),w
  1718  035A  3E30               	addlw	48
  1719  035B  120A  158A  22A8  120A  118A  	fcall	_escribir_char
  1720  0360                     l2627:
  1721                           
  1722                           ;MAIN_I2C.c: 163:     PORTA = 0;
  1723  0360  1683               	bsf	3,5	;RP0=1, select bank1
  1724  0361  1303               	bcf	3,6	;RP1=0, select bank1
  1725  0362  0832               	movf	main@entero^(0+128),w
  1726  0363  3E30               	addlw	48
  1727  0364  120A  158A  22A8  120A  118A  	fcall	_escribir_char
  1728  0369                     l2629:
  1729                           
  1730                           ;MAIN_I2C.c: 164:     ANSELH = 0;
  1731  0369  302E               	movlw	46
  1732  036A  120A  158A  22A8  120A  118A  	fcall	_escribir_char
  1733  036F                     l2631:
  1734                           
  1735                           ;MAIN_I2C.c: 165:     TRISB = 0;
  1736  036F  1683               	bsf	3,5	;RP0=1, select bank1
  1737  0370  1303               	bcf	3,6	;RP1=0, select bank1
  1738  0371  0833               	movf	main@unidad^(0+128),w
  1739  0372  3E30               	addlw	48
  1740  0373  120A  158A  22A8  120A  118A  	fcall	_escribir_char
  1741  0378                     l2633:
  1742                           
  1743                           ;MAIN_I2C.c: 166:     PORTB = 0;
  1744  0378  1683               	bsf	3,5	;RP0=1, select bank1
  1745  0379  1303               	bcf	3,6	;RP1=0, select bank1
  1746  037A  0835               	movf	main@decena^(0+128),w
  1747  037B  3E30               	addlw	48
  1748  037C  120A  158A  22A8  120A  118A  	fcall	_escribir_char
  1749  0381                     l2635:
  1750                           
  1751                           ;MAIN_I2C.c: 167:     TRISC = 0;
  1752  0381  3020               	movlw	32
  1753  0382  120A  158A  22A8  120A  118A  	fcall	_escribir_char
  1754  0387                     l2637:
  1755                           
  1756                           ;MAIN_I2C.c: 168:     PORTC = 0;
  1757  0387  3020               	movlw	32
  1758  0388  120A  158A  22A8  120A  118A  	fcall	_escribir_char
  1759  038D                     l2639:
  1760                           
  1761                           ;MAIN_I2C.c: 172:     PORTD = 0;
  1762  038D  30E8               	movlw	232
  1763  038E  00F2               	movwf	___awdiv@divisor
  1764  038F  3003               	movlw	3
  1765  0390  00F3               	movwf	___awdiv@divisor+1
  1766  0391  1683               	bsf	3,5	;RP0=1, select bank1
  1767  0392  1303               	bcf	3,6	;RP1=0, select bank1
  1768  0393  0830               	movf	main@Az1^(0+128),w
  1769  0394  1283               	bcf	3,5	;RP0=0, select bank0
  1770  0395  1303               	bcf	3,6	;RP1=0, select bank0
  1771  0396  00E3               	movwf	??_main
  1772  0397  01E4               	clrf	??_main+1
  1773  0398  0863               	movf	??_main,w
  1774  0399  00F4               	movwf	___awdiv@dividend
  1775  039A  0864               	movf	??_main+1,w
  1776  039B  00F5               	movwf	___awdiv@dividend+1
  1777  039C  120A  158A  24C1  120A  118A  	fcall	___awdiv
  1778  03A1  0872               	movf	?___awdiv,w
  1779  03A2  1283               	bcf	3,5	;RP0=0, select bank0
  1780  03A3  1303               	bcf	3,6	;RP1=0, select bank0
  1781  03A4  00E5               	movwf	??_main+2
  1782  03A5  0865               	movf	??_main+2,w
  1783  03A6  1683               	bsf	3,5	;RP0=1, select bank1
  1784  03A7  1303               	bcf	3,6	;RP1=0, select bank1
  1785  03A8  00B1               	movwf	main@decimal^(0+128)
  1786  03A9                     l2641:
  1787                           
  1788                           ;MAIN_I2C.c: 173:     TRISE = 0;
  1789  03A9  30E8               	movlw	232
  1790  03AA  00F2               	movwf	___awmod@divisor
  1791  03AB  3003               	movlw	3
  1792  03AC  00F3               	movwf	___awmod@divisor+1
  1793  03AD  0830               	movf	main@Az1^(0+128),w
  1794  03AE  1283               	bcf	3,5	;RP0=0, select bank0
  1795  03AF  1303               	bcf	3,6	;RP1=0, select bank0
  1796  03B0  00E3               	movwf	??_main
  1797  03B1  01E4               	clrf	??_main+1
  1798  03B2  0863               	movf	??_main,w
  1799  03B3  00F4               	movwf	___awmod@dividend
  1800  03B4  0864               	movf	??_main+1,w
  1801  03B5  00F5               	movwf	___awmod@dividend+1
  1802  03B6  120A  158A  240A  120A  118A  	fcall	___awmod
  1803  03BB  0872               	movf	?___awmod,w
  1804  03BC  1283               	bcf	3,5	;RP0=0, select bank0
  1805  03BD  1303               	bcf	3,6	;RP1=0, select bank0
  1806  03BE  00E5               	movwf	??_main+2
  1807  03BF  0865               	movf	??_main+2,w
  1808  03C0  1683               	bsf	3,5	;RP0=1, select bank1
  1809  03C1  1303               	bcf	3,6	;RP1=0, select bank1
  1810  03C2  00B6               	movwf	main@residuo0^(0+128)
  1811  03C3                     l2643:
  1812                           
  1813                           ;MAIN_I2C.c: 174:     PORTE = 0;
  1814  03C3  3064               	movlw	100
  1815  03C4  00F2               	movwf	___awdiv@divisor
  1816  03C5  3000               	movlw	0
  1817  03C6  00F3               	movwf	___awdiv@divisor+1
  1818  03C7  0836               	movf	main@residuo0^(0+128),w
  1819  03C8  1283               	bcf	3,5	;RP0=0, select bank0
  1820  03C9  1303               	bcf	3,6	;RP1=0, select bank0
  1821  03CA  00E3               	movwf	??_main
  1822  03CB  01E4               	clrf	??_main+1
  1823  03CC  0863               	movf	??_main,w
  1824  03CD  00F4               	movwf	___awdiv@dividend
  1825  03CE  0864               	movf	??_main+1,w
  1826  03CF  00F5               	movwf	___awdiv@dividend+1
  1827  03D0  120A  158A  24C1  120A  118A  	fcall	___awdiv
  1828  03D5  0872               	movf	?___awdiv,w
  1829  03D6  1283               	bcf	3,5	;RP0=0, select bank0
  1830  03D7  1303               	bcf	3,6	;RP1=0, select bank0
  1831  03D8  00E5               	movwf	??_main+2
  1832  03D9  0865               	movf	??_main+2,w
  1833  03DA  1683               	bsf	3,5	;RP0=1, select bank1
  1834  03DB  1303               	bcf	3,6	;RP1=0, select bank1
  1835  03DC  00B2               	movwf	main@entero^(0+128)
  1836  03DD                     l2645:
  1837                           
  1838                           ;MAIN_I2C.c: 175: 
  1839  03DD  3064               	movlw	100
  1840  03DE  00F2               	movwf	___awmod@divisor
  1841  03DF  3000               	movlw	0
  1842  03E0  00F3               	movwf	___awmod@divisor+1
  1843  03E1  0836               	movf	main@residuo0^(0+128),w
  1844  03E2  1283               	bcf	3,5	;RP0=0, select bank0
  1845  03E3  1303               	bcf	3,6	;RP1=0, select bank0
  1846  03E4  00E3               	movwf	??_main
  1847  03E5  01E4               	clrf	??_main+1
  1848  03E6  0863               	movf	??_main,w
  1849  03E7  00F4               	movwf	___awmod@dividend
  1850  03E8  0864               	movf	??_main+1,w
  1851  03E9  00F5               	movwf	___awmod@dividend+1
  1852  03EA  120A  158A  240A  120A  118A  	fcall	___awmod
  1853  03EF  0872               	movf	?___awmod,w
  1854  03F0  1283               	bcf	3,5	;RP0=0, select bank0
  1855  03F1  1303               	bcf	3,6	;RP1=0, select bank0
  1856  03F2  00E5               	movwf	??_main+2
  1857  03F3  0865               	movf	??_main+2,w
  1858  03F4  1683               	bsf	3,5	;RP0=1, select bank1
  1859  03F5  1303               	bcf	3,6	;RP1=0, select bank1
  1860  03F6  00B7               	movwf	main@residuo1^(0+128)
  1861  03F7                     l2647:
  1862                           
  1863                           ;MAIN_I2C.c: 176: }
  1864  03F7  300A               	movlw	10
  1865  03F8  00F2               	movwf	___awdiv@divisor
  1866  03F9  3000               	movlw	0
  1867  03FA  00F3               	movwf	___awdiv@divisor+1
  1868  03FB  0837               	movf	main@residuo1^(0+128),w
  1869  03FC  1283               	bcf	3,5	;RP0=0, select bank0
  1870  03FD  1303               	bcf	3,6	;RP1=0, select bank0
  1871  03FE  00E3               	movwf	??_main
  1872  03FF  01E4               	clrf	??_main+1
  1873  0400  0863               	movf	??_main,w
  1874  0401  00F4               	movwf	___awdiv@dividend
  1875  0402  0864               	movf	??_main+1,w
  1876  0403  00F5               	movwf	___awdiv@dividend+1
  1877  0404  120A  158A  24C1  120A  118A  	fcall	___awdiv
  1878  0409  0872               	movf	?___awdiv,w
  1879  040A  1283               	bcf	3,5	;RP0=0, select bank0
  1880  040B  1303               	bcf	3,6	;RP1=0, select bank0
  1881  040C  00E5               	movwf	??_main+2
  1882  040D  0865               	movf	??_main+2,w
  1883  040E  1683               	bsf	3,5	;RP0=1, select bank1
  1884  040F  1303               	bcf	3,6	;RP1=0, select bank1
  1885  0410  00B3               	movwf	main@unidad^(0+128)
  1886  0411                     l2649:
  1887                           
  1888                           ;MAIN_I2C.c: 177: 
  1889  0411  300A               	movlw	10
  1890  0412  00F2               	movwf	___awmod@divisor
  1891  0413  3000               	movlw	0
  1892  0414  00F3               	movwf	___awmod@divisor+1
  1893  0415  0837               	movf	main@residuo1^(0+128),w
  1894  0416  1283               	bcf	3,5	;RP0=0, select bank0
  1895  0417  1303               	bcf	3,6	;RP1=0, select bank0
  1896  0418  00E3               	movwf	??_main
  1897  0419  01E4               	clrf	??_main+1
  1898  041A  0863               	movf	??_main,w
  1899  041B  00F4               	movwf	___awmod@dividend
  1900  041C  0864               	movf	??_main+1,w
  1901  041D  00F5               	movwf	___awmod@dividend+1
  1902  041E  120A  158A  240A  120A  118A  	fcall	___awmod
  1903  0423  0872               	movf	?___awmod,w
  1904  0424  1283               	bcf	3,5	;RP0=0, select bank0
  1905  0425  1303               	bcf	3,6	;RP1=0, select bank0
  1906  0426  00E5               	movwf	??_main+2
  1907  0427  0865               	movf	??_main+2,w
  1908  0428  1683               	bsf	3,5	;RP0=1, select bank1
  1909  0429  1303               	bcf	3,6	;RP1=0, select bank1
  1910  042A  00B4               	movwf	main@residuo2^(0+128)
  1911  042B                     l2651:
  1912                           
  1913                           ;MAIN_I2C.c: 178: void interrup_config (void)
  1914  042B  0834               	movf	main@residuo2^(0+128),w
  1915  042C  1283               	bcf	3,5	;RP0=0, select bank0
  1916  042D  1303               	bcf	3,6	;RP1=0, select bank0
  1917  042E  00E3               	movwf	??_main
  1918  042F  0863               	movf	??_main,w
  1919  0430  1683               	bsf	3,5	;RP0=1, select bank1
  1920  0431  1303               	bcf	3,6	;RP1=0, select bank1
  1921  0432  00B5               	movwf	main@decena^(0+128)
  1922  0433                     l2653:
  1923                           
  1924                           ;MAIN_I2C.c: 180:     INTCONbits.GIE = 1;
  1925  0433  3041               	movlw	65
  1926  0434  120A  158A  22A8  120A  118A  	fcall	_escribir_char
  1927  0439                     l2655:
  1928                           
  1929                           ;MAIN_I2C.c: 181:     INTCONbits.PEIE = 1;
  1930  0439  307A               	movlw	122
  1931  043A  120A  158A  22A8  120A  118A  	fcall	_escribir_char
  1932  043F                     l2657:
  1933                           
  1934                           ;MAIN_I2C.c: 182:     INTCONbits.T0IE = 1;
  1935  043F  303D               	movlw	61
  1936  0440  120A  158A  22A8  120A  118A  	fcall	_escribir_char
  1937  0445                     l2659:
  1938                           
  1939                           ;MAIN_I2C.c: 183:     INTCONbits.INTE = 0;
  1940  0445  3020               	movlw	32
  1941  0446  120A  158A  22A8  120A  118A  	fcall	_escribir_char
  1942  044B                     l2661:
  1943                           
  1944                           ;MAIN_I2C.c: 184:     INTCONbits.RBIE = 0;
  1945  044B  1683               	bsf	3,5	;RP0=1, select bank1
  1946  044C  1303               	bcf	3,6	;RP1=0, select bank1
  1947  044D  0831               	movf	main@decimal^(0+128),w
  1948  044E  3E30               	addlw	48
  1949  044F  120A  158A  22A8  120A  118A  	fcall	_escribir_char
  1950  0454                     l2663:
  1951                           
  1952                           ;MAIN_I2C.c: 185:     INTCONbits.T0IF = 0;
  1953  0454  1683               	bsf	3,5	;RP0=1, select bank1
  1954  0455  1303               	bcf	3,6	;RP1=0, select bank1
  1955  0456  0832               	movf	main@entero^(0+128),w
  1956  0457  3E30               	addlw	48
  1957  0458  120A  158A  22A8  120A  118A  	fcall	_escribir_char
  1958  045D                     l2665:
  1959                           
  1960                           ;MAIN_I2C.c: 186:     INTCONbits.INTF = 0;
  1961  045D  302E               	movlw	46
  1962  045E  120A  158A  22A8  120A  118A  	fcall	_escribir_char
  1963  0463                     l2667:
  1964                           
  1965                           ;MAIN_I2C.c: 187:     INTCONbits.RBIF = 0;
  1966  0463  1683               	bsf	3,5	;RP0=1, select bank1
  1967  0464  1303               	bcf	3,6	;RP1=0, select bank1
  1968  0465  0833               	movf	main@unidad^(0+128),w
  1969  0466  3E30               	addlw	48
  1970  0467  120A  158A  22A8  120A  118A  	fcall	_escribir_char
  1971  046C                     l2669:
  1972                           
  1973                           ;MAIN_I2C.c: 188:     IOCB = 0b00000000;
  1974  046C  1683               	bsf	3,5	;RP0=1, select bank1
  1975  046D  1303               	bcf	3,6	;RP1=0, select bank1
  1976  046E  0835               	movf	main@decena^(0+128),w
  1977  046F  3E30               	addlw	48
  1978  0470  120A  158A  22A8  120A  118A  	fcall	_escribir_char
  1979  0475                     l2671:
  1980                           
  1981                           ;MAIN_I2C.c: 189: }
  1982  0475  3020               	movlw	32
  1983  0476  120A  158A  22A8  120A  118A  	fcall	_escribir_char
  1984  047B                     l2673:
  1985                           
  1986                           ;MAIN_I2C.c: 190: 
  1987  047B  3020               	movlw	32
  1988  047C  120A  158A  22A8  120A  118A  	fcall	_escribir_char
  1989  0481                     l2675:
  1990                           
  1991                           ;MAIN_I2C.c: 191: void osc_config (void)
  1992  0481  300A               	movlw	10
  1993  0482  120A  158A  22A8  120A  118A  	fcall	_escribir_char
  1994  0487  284B               	goto	l2551
  1995  0488  120A  118A  280C   	ljmp	start
  1996  048B                     __end_of_main:
  1997                           
  1998                           	psect	text1
  1999  0ABE                     __ptext1:	
  2000 ;; *************** function _tmr0_config *****************
  2001 ;; Defined at:
  2002 ;;		line 245 in file "MAIN_I2C.c"
  2003 ;; Parameters:    Size  Location     Type
  2004 ;;		None
  2005 ;; Auto vars:     Size  Location     Type
  2006 ;;		None
  2007 ;; Return value:  Size  Location     Type
  2008 ;;                  1    wreg      void 
  2009 ;; Registers used:
  2010 ;;		wreg
  2011 ;; Tracked objects:
  2012 ;;		On entry : 0/0
  2013 ;;		On exit  : 0/0
  2014 ;;		Unchanged: 0/0
  2015 ;; Data sizes:     COMMON   BANK0   BANK1   BANK3   BANK2
  2016 ;;      Params:         0       0       0       0       0
  2017 ;;      Locals:         0       0       0       0       0
  2018 ;;      Temps:          0       0       0       0       0
  2019 ;;      Totals:         0       0       0       0       0
  2020 ;;Total ram usage:        0 bytes
  2021 ;; Hardware stack levels used:    1
  2022 ;; Hardware stack levels required when called:    2
  2023 ;; This function calls:
  2024 ;;		Nothing
  2025 ;; This function is called by:
  2026 ;;		_main
  2027 ;; This function uses a non-reentrant model
  2028 ;;
  2029                           
  2030                           
  2031                           ;psect for function _tmr0_config
  2032  0ABE                     _tmr0_config:
  2033  0ABE                     l2189:	
  2034                           ;incstack = 0
  2035                           ; Regs used in _tmr0_config: [wreg]
  2036                           
  2037                           
  2038                           ;MAIN_I2C.c: 247: {
  2039  0ABE  1683               	bsf	3,5	;RP0=1, select bank1
  2040  0ABF  1303               	bcf	3,6	;RP1=0, select bank1
  2041  0AC0  1381               	bcf	1,7	;volatile
  2042                           
  2043                           ;MAIN_I2C.c: 248:  I2C_Start(0xD0);
  2044  0AC1  1281               	bcf	1,5	;volatile
  2045                           
  2046                           ;MAIN_I2C.c: 249:  I2C_Write(0x3B);
  2047  0AC2  1181               	bcf	1,3	;volatile
  2048                           
  2049                           ;MAIN_I2C.c: 250:  I2C_Repeated_Start(0xD1);
  2050  0AC3  1101               	bcf	1,2	;volatile
  2051                           
  2052                           ;MAIN_I2C.c: 251:     I2C_Read(0);
  2053  0AC4  1481               	bsf	1,1	;volatile
  2054                           
  2055                           ;MAIN_I2C.c: 252: }
  2056  0AC5  1001               	bcf	1,0	;volatile
  2057  0AC6                     l2191:
  2058                           
  2059                           ;MAIN_I2C.c: 253: 
  2060  0AC6  3064               	movlw	100
  2061  0AC7  1283               	bcf	3,5	;RP0=0, select bank0
  2062  0AC8  1303               	bcf	3,6	;RP1=0, select bank0
  2063  0AC9  0081               	movwf	1	;volatile
  2064  0ACA                     l120:
  2065  0ACA  0008               	return
  2066  0ACB                     __end_of_tmr0_config:
  2067                           
  2068                           	psect	text2
  2069  07CF                     __ptext2:	
  2070 ;; *************** function _setup *****************
  2071 ;; Defined at:
  2072 ;;		line 202 in file "MAIN_I2C.c"
  2073 ;; Parameters:    Size  Location     Type
  2074 ;;		None
  2075 ;; Auto vars:     Size  Location     Type
  2076 ;;		None
  2077 ;; Return value:  Size  Location     Type
  2078 ;;                  1    wreg      void 
  2079 ;; Registers used:
  2080 ;;		status,2
  2081 ;; Tracked objects:
  2082 ;;		On entry : 0/0
  2083 ;;		On exit  : 0/0
  2084 ;;		Unchanged: 0/0
  2085 ;; Data sizes:     COMMON   BANK0   BANK1   BANK3   BANK2
  2086 ;;      Params:         0       0       0       0       0
  2087 ;;      Locals:         0       0       0       0       0
  2088 ;;      Temps:          0       0       0       0       0
  2089 ;;      Totals:         0       0       0       0       0
  2090 ;;Total ram usage:        0 bytes
  2091 ;; Hardware stack levels used:    1
  2092 ;; Hardware stack levels required when called:    2
  2093 ;; This function calls:
  2094 ;;		Nothing
  2095 ;; This function is called by:
  2096 ;;		_main
  2097 ;; This function uses a non-reentrant model
  2098 ;;
  2099                           
  2100                           
  2101                           ;psect for function _setup
  2102  07CF                     _setup:
  2103  07CF                     l2179:	
  2104                           ;incstack = 0
  2105                           ; Regs used in _setup: [status,2]
  2106                           
  2107                           
  2108                           ;MAIN_I2C.c: 204:     OPTION_REGbits.nRBPU = 0;
  2109  07CF  1683               	bsf	3,5	;RP0=1, select bank3
  2110  07D0  1703               	bsf	3,6	;RP1=1, select bank3
  2111  07D1  0188               	clrf	8	;volatile
  2112                           
  2113                           ;MAIN_I2C.c: 205:     OPTION_REGbits.T0CS = 0;
  2114  07D2  1683               	bsf	3,5	;RP0=1, select bank1
  2115  07D3  1303               	bcf	3,6	;RP1=0, select bank1
  2116  07D4  0185               	clrf	5	;volatile
  2117                           
  2118                           ;MAIN_I2C.c: 206:     OPTION_REGbits.PSA = 0;
  2119  07D5  1283               	bcf	3,5	;RP0=0, select bank0
  2120  07D6  1303               	bcf	3,6	;RP1=0, select bank0
  2121  07D7  0185               	clrf	5	;volatile
  2122                           
  2123                           ;MAIN_I2C.c: 207:     OPTION_REGbits.PS2 = 0;
  2124  07D8  1683               	bsf	3,5	;RP0=1, select bank3
  2125  07D9  1703               	bsf	3,6	;RP1=1, select bank3
  2126  07DA  0189               	clrf	9	;volatile
  2127                           
  2128                           ;MAIN_I2C.c: 208:     OPTION_REGbits.PS1 = 1;
  2129  07DB  1683               	bsf	3,5	;RP0=1, select bank1
  2130  07DC  1303               	bcf	3,6	;RP1=0, select bank1
  2131  07DD  0186               	clrf	6	;volatile
  2132                           
  2133                           ;MAIN_I2C.c: 209:     OPTION_REGbits.PS0 = 0;
  2134  07DE  1283               	bcf	3,5	;RP0=0, select bank0
  2135  07DF  1303               	bcf	3,6	;RP1=0, select bank0
  2136  07E0  0186               	clrf	6	;volatile
  2137                           
  2138                           ;MAIN_I2C.c: 210:     TMR0 = 100;
  2139  07E1  1683               	bsf	3,5	;RP0=1, select bank1
  2140  07E2  1303               	bcf	3,6	;RP1=0, select bank1
  2141  07E3  0187               	clrf	7	;volatile
  2142                           
  2143                           ;MAIN_I2C.c: 211: }
  2144  07E4  1283               	bcf	3,5	;RP0=0, select bank0
  2145  07E5  1303               	bcf	3,6	;RP1=0, select bank0
  2146  07E6  0187               	clrf	7	;volatile
  2147  07E7                     l2181:
  2148                           
  2149                           ;MAIN_I2C.c: 212: 
  2150  07E7  1683               	bsf	3,5	;RP0=1, select bank1
  2151  07E8  1303               	bcf	3,6	;RP1=0, select bank1
  2152  07E9  1307               	bcf	7,6	;volatile
  2153                           
  2154                           ;MAIN_I2C.c: 214: {
  2155  07EA  0188               	clrf	8	;volatile
  2156                           
  2157                           ;MAIN_I2C.c: 215:     USART_lib_config();
  2158  07EB  1283               	bcf	3,5	;RP0=0, select bank0
  2159  07EC  1303               	bcf	3,6	;RP1=0, select bank0
  2160  07ED  0188               	clrf	8	;volatile
  2161                           
  2162                           ;MAIN_I2C.c: 216: }
  2163  07EE  1683               	bsf	3,5	;RP0=1, select bank1
  2164  07EF  1303               	bcf	3,6	;RP1=0, select bank1
  2165  07F0  0189               	clrf	9	;volatile
  2166                           
  2167                           ;MAIN_I2C.c: 217: 
  2168  07F1  1283               	bcf	3,5	;RP0=0, select bank0
  2169  07F2  1303               	bcf	3,6	;RP1=0, select bank0
  2170  07F3  0189               	clrf	9	;volatile
  2171  07F4                     l111:
  2172  07F4  0008               	return
  2173  07F5                     __end_of_setup:
  2174                           
  2175                           	psect	text3
  2176  07F5                     __ptext3:	
  2177 ;; *************** function _osc_config *****************
  2178 ;; Defined at:
  2179 ;;		line 234 in file "MAIN_I2C.c"
  2180 ;; Parameters:    Size  Location     Type
  2181 ;;		None
  2182 ;; Auto vars:     Size  Location     Type
  2183 ;;		None
  2184 ;; Return value:  Size  Location     Type
  2185 ;;                  1    wreg      void 
  2186 ;; Registers used:
  2187 ;;		None
  2188 ;; Tracked objects:
  2189 ;;		On entry : 0/0
  2190 ;;		On exit  : 0/0
  2191 ;;		Unchanged: 0/0
  2192 ;; Data sizes:     COMMON   BANK0   BANK1   BANK3   BANK2
  2193 ;;      Params:         0       0       0       0       0
  2194 ;;      Locals:         0       0       0       0       0
  2195 ;;      Temps:          0       0       0       0       0
  2196 ;;      Totals:         0       0       0       0       0
  2197 ;;Total ram usage:        0 bytes
  2198 ;; Hardware stack levels used:    1
  2199 ;; Hardware stack levels required when called:    2
  2200 ;; This function calls:
  2201 ;;		Nothing
  2202 ;; This function is called by:
  2203 ;;		_main
  2204 ;; This function uses a non-reentrant model
  2205 ;;
  2206                           
  2207                           
  2208                           ;psect for function _osc_config
  2209  07F5                     _osc_config:
  2210  07F5                     l2183:	
  2211                           ;incstack = 0
  2212                           ; Regs used in _osc_config: []
  2213                           
  2214                           
  2215                           ;MAIN_I2C.c: 236:     if (RCSTAbits.OERR ==0)
  2216  07F5  1683               	bsf	3,5	;RP0=1, select bank1
  2217  07F6  1303               	bcf	3,6	;RP1=0, select bank1
  2218  07F7  170F               	bsf	15,6	;volatile
  2219                           
  2220                           ;MAIN_I2C.c: 237:     {
  2221  07F8  168F               	bsf	15,5	;volatile
  2222                           
  2223                           ;MAIN_I2C.c: 238:         CREN = 0;
  2224  07F9  160F               	bsf	15,4	;volatile
  2225                           
  2226                           ;MAIN_I2C.c: 239:         __nop();
  2227  07FA  118F               	bcf	15,3	;volatile
  2228                           
  2229                           ;MAIN_I2C.c: 240:         CREN = 1;
  2230  07FB  110F               	bcf	15,2	;volatile
  2231                           
  2232                           ;MAIN_I2C.c: 241:     }
  2233  07FC  148F               	bsf	15,1	;volatile
  2234                           
  2235                           ;MAIN_I2C.c: 242:     return (RCREG);
  2236  07FD  100F               	bcf	15,0	;volatile
  2237  07FE                     l117:
  2238  07FE  0008               	return
  2239  07FF                     __end_of_osc_config:
  2240                           
  2241                           	psect	text4
  2242  0AB2                     __ptext4:	
  2243 ;; *************** function _interrup_config *****************
  2244 ;; Defined at:
  2245 ;;		line 221 in file "MAIN_I2C.c"
  2246 ;; Parameters:    Size  Location     Type
  2247 ;;		None
  2248 ;; Auto vars:     Size  Location     Type
  2249 ;;		None
  2250 ;; Return value:  Size  Location     Type
  2251 ;;                  1    wreg      void 
  2252 ;; Registers used:
  2253 ;;		status,2
  2254 ;; Tracked objects:
  2255 ;;		On entry : 0/0
  2256 ;;		On exit  : 0/0
  2257 ;;		Unchanged: 0/0
  2258 ;; Data sizes:     COMMON   BANK0   BANK1   BANK3   BANK2
  2259 ;;      Params:         0       0       0       0       0
  2260 ;;      Locals:         0       0       0       0       0
  2261 ;;      Temps:          0       0       0       0       0
  2262 ;;      Totals:         0       0       0       0       0
  2263 ;;Total ram usage:        0 bytes
  2264 ;; Hardware stack levels used:    1
  2265 ;; Hardware stack levels required when called:    2
  2266 ;; This function calls:
  2267 ;;		Nothing
  2268 ;; This function is called by:
  2269 ;;		_main
  2270 ;; This function uses a non-reentrant model
  2271 ;;
  2272                           
  2273                           
  2274                           ;psect for function _interrup_config
  2275  0AB2                     _interrup_config:
  2276  0AB2                     l2185:	
  2277                           ;incstack = 0
  2278                           ; Regs used in _interrup_config: [status,2]
  2279                           
  2280                           
  2281                           ;MAIN_I2C.c: 223: 
  2282  0AB2  178B               	bsf	11,7	;volatile
  2283                           
  2284                           ;MAIN_I2C.c: 224: 
  2285  0AB3  170B               	bsf	11,6	;volatile
  2286                           
  2287                           ;MAIN_I2C.c: 225: void USART_SendString(const char *str)
  2288  0AB4  168B               	bsf	11,5	;volatile
  2289                           
  2290                           ;MAIN_I2C.c: 226: {
  2291  0AB5  120B               	bcf	11,4	;volatile
  2292                           
  2293                           ;MAIN_I2C.c: 227:    while(*str!='\0')
  2294  0AB6  118B               	bcf	11,3	;volatile
  2295                           
  2296                           ;MAIN_I2C.c: 228:    {
  2297  0AB7  110B               	bcf	11,2	;volatile
  2298                           
  2299                           ;MAIN_I2C.c: 229:         escribir_char(*str);
  2300  0AB8  108B               	bcf	11,1	;volatile
  2301                           
  2302                           ;MAIN_I2C.c: 230:         str++;
  2303  0AB9  100B               	bcf	11,0	;volatile
  2304  0ABA                     l2187:
  2305                           
  2306                           ;MAIN_I2C.c: 231:    }
  2307  0ABA  1683               	bsf	3,5	;RP0=1, select bank1
  2308  0ABB  1303               	bcf	3,6	;RP1=0, select bank1
  2309  0ABC  0196               	clrf	22	;volatile
  2310  0ABD                     l114:
  2311  0ABD  0008               	return
  2312  0ABE                     __end_of_interrup_config:
  2313                           
  2314                           	psect	text5
  2315  0AA8                     __ptext5:	
  2316 ;; *************** function _escribir_char *****************
  2317 ;; Defined at:
  2318 ;;		line 261 in file "MAIN_I2C.c"
  2319 ;; Parameters:    Size  Location     Type
  2320 ;;  valor           1    wreg     unsigned char 
  2321 ;; Auto vars:     Size  Location     Type
  2322 ;;  valor           1    2[COMMON] unsigned char 
  2323 ;; Return value:  Size  Location     Type
  2324 ;;                  1    wreg      void 
  2325 ;; Registers used:
  2326 ;;		wreg
  2327 ;; Tracked objects:
  2328 ;;		On entry : 0/0
  2329 ;;		On exit  : 0/0
  2330 ;;		Unchanged: 0/0
  2331 ;; Data sizes:     COMMON   BANK0   BANK1   BANK3   BANK2
  2332 ;;      Params:         0       0       0       0       0
  2333 ;;      Locals:         1       0       0       0       0
  2334 ;;      Temps:          0       0       0       0       0
  2335 ;;      Totals:         1       0       0       0       0
  2336 ;;Total ram usage:        1 bytes
  2337 ;; Hardware stack levels used:    1
  2338 ;; Hardware stack levels required when called:    2
  2339 ;; This function calls:
  2340 ;;		Nothing
  2341 ;; This function is called by:
  2342 ;;		_main
  2343 ;;		_USART_SendString
  2344 ;; This function uses a non-reentrant model
  2345 ;;
  2346                           
  2347                           
  2348                           ;psect for function _escribir_char
  2349  0AA8                     _escribir_char:
  2350                           
  2351                           ;incstack = 0
  2352                           ; Regs used in _escribir_char: [wreg]
  2353                           ;escribir_char@valor stored from wreg
  2354  0AA8  00F2               	movwf	escribir_char@valor
  2355  0AA9                     l2219:
  2356                           
  2357                           ;MAIN_I2C.c: 261:  I2C_Stop();;MAIN_I2C.c: 262: ;MAIN_I2C.c: 263:  I2C_Start_Wait(0xD0);
  2358  0AA9  0872               	movf	escribir_char@valor,w
  2359  0AAA  1283               	bcf	3,5	;RP0=0, select bank0
  2360  0AAB  1303               	bcf	3,6	;RP1=0, select bank0
  2361  0AAC  0099               	movwf	25	;volatile
  2362  0AAD                     l126:	
  2363                           ;MAIN_I2C.c: 264:  I2C_Write(0x6B);
  2364                           
  2365  0AAD  1E0C               	btfss	12,4	;volatile
  2366  0AAE  2AB0               	goto	u2611
  2367  0AAF  2AB1               	goto	u2610
  2368  0AB0                     u2611:
  2369  0AB0  2AAD               	goto	l126
  2370  0AB1                     u2610:
  2371  0AB1                     l129:
  2372  0AB1  0008               	return
  2373  0AB2                     __end_of_escribir_char:
  2374                           
  2375                           	psect	text6
  2376  0C0A                     __ptext6:	
  2377 ;; *************** function ___awmod *****************
  2378 ;; Defined at:
  2379 ;;		line 5 in file "C:\Program Files\Microchip\xc8\v2.31\pic\sources\c90\common\awmod.c"
  2380 ;; Parameters:    Size  Location     Type
  2381 ;;  divisor         2    2[COMMON] int 
  2382 ;;  dividend        2    4[COMMON] int 
  2383 ;; Auto vars:     Size  Location     Type
  2384 ;;  sign            1    8[COMMON] unsigned char 
  2385 ;;  counter         1    7[COMMON] unsigned char 
  2386 ;; Return value:  Size  Location     Type
  2387 ;;                  2    2[COMMON] int 
  2388 ;; Registers used:
  2389 ;;		wreg, status,2, status,0
  2390 ;; Tracked objects:
  2391 ;;		On entry : 0/0
  2392 ;;		On exit  : 0/0
  2393 ;;		Unchanged: 0/0
  2394 ;; Data sizes:     COMMON   BANK0   BANK1   BANK3   BANK2
  2395 ;;      Params:         4       0       0       0       0
  2396 ;;      Locals:         2       0       0       0       0
  2397 ;;      Temps:          1       0       0       0       0
  2398 ;;      Totals:         7       0       0       0       0
  2399 ;;Total ram usage:        7 bytes
  2400 ;; Hardware stack levels used:    1
  2401 ;; Hardware stack levels required when called:    2
  2402 ;; This function calls:
  2403 ;;		Nothing
  2404 ;; This function is called by:
  2405 ;;		_main
  2406 ;; This function uses a non-reentrant model
  2407 ;;
  2408                           
  2409                           
  2410                           ;psect for function ___awmod
  2411  0C0A                     ___awmod:
  2412  0C0A                     l2265:	
  2413                           ;incstack = 0
  2414                           ; Regs used in ___awmod: [wreg+status,2+status,0]
  2415                           
  2416  0C0A  01F8               	clrf	___awmod@sign
  2417  0C0B                     l2267:
  2418  0C0B  1FF5               	btfss	___awmod@dividend+1,7
  2419  0C0C  2C0E               	goto	u2721
  2420  0C0D  2C0F               	goto	u2720
  2421  0C0E                     u2721:
  2422  0C0E  2C16               	goto	l2273
  2423  0C0F                     u2720:
  2424  0C0F                     l2269:
  2425  0C0F  09F4               	comf	___awmod@dividend,f
  2426  0C10  09F5               	comf	___awmod@dividend+1,f
  2427  0C11  0AF4               	incf	___awmod@dividend,f
  2428  0C12  1903               	skipnz
  2429  0C13  0AF5               	incf	___awmod@dividend+1,f
  2430  0C14                     l2271:
  2431  0C14  01F8               	clrf	___awmod@sign
  2432  0C15  0AF8               	incf	___awmod@sign,f
  2433  0C16                     l2273:
  2434  0C16  1FF3               	btfss	___awmod@divisor+1,7
  2435  0C17  2C19               	goto	u2731
  2436  0C18  2C1A               	goto	u2730
  2437  0C19                     u2731:
  2438  0C19  2C1F               	goto	l2277
  2439  0C1A                     u2730:
  2440  0C1A                     l2275:
  2441  0C1A  09F2               	comf	___awmod@divisor,f
  2442  0C1B  09F3               	comf	___awmod@divisor+1,f
  2443  0C1C  0AF2               	incf	___awmod@divisor,f
  2444  0C1D  1903               	skipnz
  2445  0C1E  0AF3               	incf	___awmod@divisor+1,f
  2446  0C1F                     l2277:
  2447  0C1F  0872               	movf	___awmod@divisor,w
  2448  0C20  0473               	iorwf	___awmod@divisor+1,w
  2449  0C21  1903               	btfsc	3,2
  2450  0C22  2C24               	goto	u2741
  2451  0C23  2C25               	goto	u2740
  2452  0C24                     u2741:
  2453  0C24  2C54               	goto	l2295
  2454  0C25                     u2740:
  2455  0C25                     l2279:
  2456  0C25  01F7               	clrf	___awmod@counter
  2457  0C26  0AF7               	incf	___awmod@counter,f
  2458  0C27  2C33               	goto	l2285
  2459  0C28                     l2281:
  2460  0C28  3001               	movlw	1
  2461  0C29                     u2755:
  2462  0C29  1003               	clrc
  2463  0C2A  0DF2               	rlf	___awmod@divisor,f
  2464  0C2B  0DF3               	rlf	___awmod@divisor+1,f
  2465  0C2C  3EFF               	addlw	-1
  2466  0C2D  1D03               	skipz
  2467  0C2E  2C29               	goto	u2755
  2468  0C2F                     l2283:
  2469  0C2F  3001               	movlw	1
  2470  0C30  00F6               	movwf	??___awmod
  2471  0C31  0876               	movf	??___awmod,w
  2472  0C32  07F7               	addwf	___awmod@counter,f
  2473  0C33                     l2285:
  2474  0C33  1FF3               	btfss	___awmod@divisor+1,7
  2475  0C34  2C36               	goto	u2761
  2476  0C35  2C37               	goto	u2760
  2477  0C36                     u2761:
  2478  0C36  2C28               	goto	l2281
  2479  0C37                     u2760:
  2480  0C37                     l2287:
  2481  0C37  0873               	movf	___awmod@divisor+1,w
  2482  0C38  0275               	subwf	___awmod@dividend+1,w
  2483  0C39  1D03               	skipz
  2484  0C3A  2C3D               	goto	u2775
  2485  0C3B  0872               	movf	___awmod@divisor,w
  2486  0C3C  0274               	subwf	___awmod@dividend,w
  2487  0C3D                     u2775:
  2488  0C3D  1C03               	skipc
  2489  0C3E  2C40               	goto	u2771
  2490  0C3F  2C41               	goto	u2770
  2491  0C40                     u2771:
  2492  0C40  2C47               	goto	l2291
  2493  0C41                     u2770:
  2494  0C41                     l2289:
  2495  0C41  0872               	movf	___awmod@divisor,w
  2496  0C42  02F4               	subwf	___awmod@dividend,f
  2497  0C43  0873               	movf	___awmod@divisor+1,w
  2498  0C44  1C03               	skipc
  2499  0C45  03F5               	decf	___awmod@dividend+1,f
  2500  0C46  02F5               	subwf	___awmod@dividend+1,f
  2501  0C47                     l2291:
  2502  0C47  3001               	movlw	1
  2503  0C48                     u2785:
  2504  0C48  1003               	clrc
  2505  0C49  0CF3               	rrf	___awmod@divisor+1,f
  2506  0C4A  0CF2               	rrf	___awmod@divisor,f
  2507  0C4B  3EFF               	addlw	-1
  2508  0C4C  1D03               	skipz
  2509  0C4D  2C48               	goto	u2785
  2510  0C4E                     l2293:
  2511  0C4E  3001               	movlw	1
  2512  0C4F  02F7               	subwf	___awmod@counter,f
  2513  0C50  1D03               	btfss	3,2
  2514  0C51  2C53               	goto	u2791
  2515  0C52  2C54               	goto	u2790
  2516  0C53                     u2791:
  2517  0C53  2C37               	goto	l2287
  2518  0C54                     u2790:
  2519  0C54                     l2295:
  2520  0C54  0878               	movf	___awmod@sign,w
  2521  0C55  1903               	btfsc	3,2
  2522  0C56  2C58               	goto	u2801
  2523  0C57  2C59               	goto	u2800
  2524  0C58                     u2801:
  2525  0C58  2C5E               	goto	l2299
  2526  0C59                     u2800:
  2527  0C59                     l2297:
  2528  0C59  09F4               	comf	___awmod@dividend,f
  2529  0C5A  09F5               	comf	___awmod@dividend+1,f
  2530  0C5B  0AF4               	incf	___awmod@dividend,f
  2531  0C5C  1903               	skipnz
  2532  0C5D  0AF5               	incf	___awmod@dividend+1,f
  2533  0C5E                     l2299:
  2534  0C5E  0875               	movf	___awmod@dividend+1,w
  2535  0C5F  00F3               	movwf	?___awmod+1
  2536  0C60  0874               	movf	___awmod@dividend,w
  2537  0C61  00F2               	movwf	?___awmod
  2538  0C62                     l543:
  2539  0C62  0008               	return
  2540  0C63                     __end_of___awmod:
  2541                           
  2542                           	psect	text7
  2543  0CC1                     __ptext7:	
  2544 ;; *************** function ___awdiv *****************
  2545 ;; Defined at:
  2546 ;;		line 5 in file "C:\Program Files\Microchip\xc8\v2.31\pic\sources\c90\common\awdiv.c"
  2547 ;; Parameters:    Size  Location     Type
  2548 ;;  divisor         2    2[COMMON] int 
  2549 ;;  dividend        2    4[COMMON] int 
  2550 ;; Auto vars:     Size  Location     Type
  2551 ;;  quotient        2    2[BANK0 ] int 
  2552 ;;  sign            1    1[BANK0 ] unsigned char 
  2553 ;;  counter         1    0[BANK0 ] unsigned char 
  2554 ;; Return value:  Size  Location     Type
  2555 ;;                  2    2[COMMON] int 
  2556 ;; Registers used:
  2557 ;;		wreg, status,2, status,0
  2558 ;; Tracked objects:
  2559 ;;		On entry : 0/0
  2560 ;;		On exit  : 0/0
  2561 ;;		Unchanged: 0/0
  2562 ;; Data sizes:     COMMON   BANK0   BANK1   BANK3   BANK2
  2563 ;;      Params:         4       0       0       0       0
  2564 ;;      Locals:         0       4       0       0       0
  2565 ;;      Temps:          1       0       0       0       0
  2566 ;;      Totals:         5       4       0       0       0
  2567 ;;Total ram usage:        9 bytes
  2568 ;; Hardware stack levels used:    1
  2569 ;; Hardware stack levels required when called:    2
  2570 ;; This function calls:
  2571 ;;		Nothing
  2572 ;; This function is called by:
  2573 ;;		_main
  2574 ;; This function uses a non-reentrant model
  2575 ;;
  2576                           
  2577                           
  2578                           ;psect for function ___awdiv
  2579  0CC1                     ___awdiv:
  2580  0CC1                     l2499:	
  2581                           ;incstack = 0
  2582                           ; Regs used in ___awdiv: [wreg+status,2+status,0]
  2583                           
  2584  0CC1  1283               	bcf	3,5	;RP0=0, select bank0
  2585  0CC2  1303               	bcf	3,6	;RP1=0, select bank0
  2586  0CC3  01A1               	clrf	___awdiv@sign
  2587  0CC4                     l2501:
  2588  0CC4  1FF3               	btfss	___awdiv@divisor+1,7
  2589  0CC5  2CC7               	goto	u2961
  2590  0CC6  2CC8               	goto	u2960
  2591  0CC7                     u2961:
  2592  0CC7  2CCF               	goto	l2507
  2593  0CC8                     u2960:
  2594  0CC8                     l2503:
  2595  0CC8  09F2               	comf	___awdiv@divisor,f
  2596  0CC9  09F3               	comf	___awdiv@divisor+1,f
  2597  0CCA  0AF2               	incf	___awdiv@divisor,f
  2598  0CCB  1903               	skipnz
  2599  0CCC  0AF3               	incf	___awdiv@divisor+1,f
  2600  0CCD                     l2505:
  2601  0CCD  01A1               	clrf	___awdiv@sign
  2602  0CCE  0AA1               	incf	___awdiv@sign,f
  2603  0CCF                     l2507:
  2604  0CCF  1FF5               	btfss	___awdiv@dividend+1,7
  2605  0CD0  2CD2               	goto	u2971
  2606  0CD1  2CD3               	goto	u2970
  2607  0CD2                     u2971:
  2608  0CD2  2CDC               	goto	l2513
  2609  0CD3                     u2970:
  2610  0CD3                     l2509:
  2611  0CD3  09F4               	comf	___awdiv@dividend,f
  2612  0CD4  09F5               	comf	___awdiv@dividend+1,f
  2613  0CD5  0AF4               	incf	___awdiv@dividend,f
  2614  0CD6  1903               	skipnz
  2615  0CD7  0AF5               	incf	___awdiv@dividend+1,f
  2616  0CD8                     l2511:
  2617  0CD8  3001               	movlw	1
  2618  0CD9  00F6               	movwf	??___awdiv
  2619  0CDA  0876               	movf	??___awdiv,w
  2620  0CDB  06A1               	xorwf	___awdiv@sign,f
  2621  0CDC                     l2513:
  2622  0CDC  01A2               	clrf	___awdiv@quotient
  2623  0CDD  01A3               	clrf	___awdiv@quotient+1
  2624  0CDE                     l2515:
  2625  0CDE  0872               	movf	___awdiv@divisor,w
  2626  0CDF  0473               	iorwf	___awdiv@divisor+1,w
  2627  0CE0  1903               	btfsc	3,2
  2628  0CE1  2CE3               	goto	u2981
  2629  0CE2  2CE4               	goto	u2980
  2630  0CE3                     u2981:
  2631  0CE3  2D1B               	goto	l2535
  2632  0CE4                     u2980:
  2633  0CE4                     l2517:
  2634  0CE4  01A0               	clrf	___awdiv@counter
  2635  0CE5  0AA0               	incf	___awdiv@counter,f
  2636  0CE6  2CF2               	goto	l2523
  2637  0CE7                     l2519:
  2638  0CE7  3001               	movlw	1
  2639  0CE8                     u2995:
  2640  0CE8  1003               	clrc
  2641  0CE9  0DF2               	rlf	___awdiv@divisor,f
  2642  0CEA  0DF3               	rlf	___awdiv@divisor+1,f
  2643  0CEB  3EFF               	addlw	-1
  2644  0CEC  1D03               	skipz
  2645  0CED  2CE8               	goto	u2995
  2646  0CEE                     l2521:
  2647  0CEE  3001               	movlw	1
  2648  0CEF  00F6               	movwf	??___awdiv
  2649  0CF0  0876               	movf	??___awdiv,w
  2650  0CF1  07A0               	addwf	___awdiv@counter,f
  2651  0CF2                     l2523:
  2652  0CF2  1FF3               	btfss	___awdiv@divisor+1,7
  2653  0CF3  2CF5               	goto	u3001
  2654  0CF4  2CF6               	goto	u3000
  2655  0CF5                     u3001:
  2656  0CF5  2CE7               	goto	l2519
  2657  0CF6                     u3000:
  2658  0CF6                     l2525:
  2659  0CF6  3001               	movlw	1
  2660  0CF7                     u3015:
  2661  0CF7  1003               	clrc
  2662  0CF8  0DA2               	rlf	___awdiv@quotient,f
  2663  0CF9  0DA3               	rlf	___awdiv@quotient+1,f
  2664  0CFA  3EFF               	addlw	-1
  2665  0CFB  1D03               	skipz
  2666  0CFC  2CF7               	goto	u3015
  2667  0CFD  0873               	movf	___awdiv@divisor+1,w
  2668  0CFE  0275               	subwf	___awdiv@dividend+1,w
  2669  0CFF  1D03               	skipz
  2670  0D00  2D03               	goto	u3025
  2671  0D01  0872               	movf	___awdiv@divisor,w
  2672  0D02  0274               	subwf	___awdiv@dividend,w
  2673  0D03                     u3025:
  2674  0D03  1C03               	skipc
  2675  0D04  2D06               	goto	u3021
  2676  0D05  2D07               	goto	u3020
  2677  0D06                     u3021:
  2678  0D06  2D0E               	goto	l2531
  2679  0D07                     u3020:
  2680  0D07                     l2527:
  2681  0D07  0872               	movf	___awdiv@divisor,w
  2682  0D08  02F4               	subwf	___awdiv@dividend,f
  2683  0D09  0873               	movf	___awdiv@divisor+1,w
  2684  0D0A  1C03               	skipc
  2685  0D0B  03F5               	decf	___awdiv@dividend+1,f
  2686  0D0C  02F5               	subwf	___awdiv@dividend+1,f
  2687  0D0D                     l2529:
  2688  0D0D  1422               	bsf	___awdiv@quotient,0
  2689  0D0E                     l2531:
  2690  0D0E  3001               	movlw	1
  2691  0D0F                     u3035:
  2692  0D0F  1003               	clrc
  2693  0D10  0CF3               	rrf	___awdiv@divisor+1,f
  2694  0D11  0CF2               	rrf	___awdiv@divisor,f
  2695  0D12  3EFF               	addlw	-1
  2696  0D13  1D03               	skipz
  2697  0D14  2D0F               	goto	u3035
  2698  0D15                     l2533:
  2699  0D15  3001               	movlw	1
  2700  0D16  02A0               	subwf	___awdiv@counter,f
  2701  0D17  1D03               	btfss	3,2
  2702  0D18  2D1A               	goto	u3041
  2703  0D19  2D1B               	goto	u3040
  2704  0D1A                     u3041:
  2705  0D1A  2CF6               	goto	l2525
  2706  0D1B                     u3040:
  2707  0D1B                     l2535:
  2708  0D1B  0821               	movf	___awdiv@sign,w
  2709  0D1C  1903               	btfsc	3,2
  2710  0D1D  2D1F               	goto	u3051
  2711  0D1E  2D20               	goto	u3050
  2712  0D1F                     u3051:
  2713  0D1F  2D25               	goto	l2539
  2714  0D20                     u3050:
  2715  0D20                     l2537:
  2716  0D20  09A2               	comf	___awdiv@quotient,f
  2717  0D21  09A3               	comf	___awdiv@quotient+1,f
  2718  0D22  0AA2               	incf	___awdiv@quotient,f
  2719  0D23  1903               	skipnz
  2720  0D24  0AA3               	incf	___awdiv@quotient+1,f
  2721  0D25                     l2539:
  2722  0D25  0823               	movf	___awdiv@quotient+1,w
  2723  0D26  00F3               	movwf	?___awdiv+1
  2724  0D27  0822               	movf	___awdiv@quotient,w
  2725  0D28  00F2               	movwf	?___awdiv
  2726  0D29                     l530:
  2727  0D29  0008               	return
  2728  0D2A                     __end_of___awdiv:
  2729                           
  2730                           	psect	text8
  2731  0A88                     __ptext8:	
  2732 ;; *************** function _USART_config *****************
  2733 ;; Defined at:
  2734 ;;		line 256 in file "MAIN_I2C.c"
  2735 ;; Parameters:    Size  Location     Type
  2736 ;;		None
  2737 ;; Auto vars:     Size  Location     Type
  2738 ;;		None
  2739 ;; Return value:  Size  Location     Type
  2740 ;;                  1    wreg      void 
  2741 ;; Registers used:
  2742 ;;		status,2, status,0, pclath, cstack
  2743 ;; Tracked objects:
  2744 ;;		On entry : 0/0
  2745 ;;		On exit  : 0/0
  2746 ;;		Unchanged: 0/0
  2747 ;; Data sizes:     COMMON   BANK0   BANK1   BANK3   BANK2
  2748 ;;      Params:         0       0       0       0       0
  2749 ;;      Locals:         0       0       0       0       0
  2750 ;;      Temps:          0       0       0       0       0
  2751 ;;      Totals:         0       0       0       0       0
  2752 ;;Total ram usage:        0 bytes
  2753 ;; Hardware stack levels used:    1
  2754 ;; Hardware stack levels required when called:    3
  2755 ;; This function calls:
  2756 ;;		_USART_lib_config
  2757 ;; This function is called by:
  2758 ;;		_main
  2759 ;; This function uses a non-reentrant model
  2760 ;;
  2761                           
  2762                           
  2763                           ;psect for function _USART_config
  2764  0A88                     _USART_config:
  2765  0A88                     l2193:	
  2766                           ;incstack = 0
  2767                           ; Regs used in _USART_config: [status,2+status,0+pclath+cstack]
  2768                           
  2769                           
  2770                           ;MAIN_I2C.c: 258:  I2C_Start_Wait(0xD0);
  2771  0A88  120A  158A  2362  120A  158A  	fcall	_USART_lib_config
  2772  0A8D                     l123:
  2773  0A8D  0008               	return
  2774  0A8E                     __end_of_USART_config:
  2775                           
  2776                           	psect	text9
  2777  0B62                     __ptext9:	
  2778 ;; *************** function _USART_lib_config *****************
  2779 ;; Defined at:
  2780 ;;		line 18 in file "I2C_USART.c"
  2781 ;; Parameters:    Size  Location     Type
  2782 ;;		None
  2783 ;; Auto vars:     Size  Location     Type
  2784 ;;		None
  2785 ;; Return value:  Size  Location     Type
  2786 ;;                  1    wreg      void 
  2787 ;; Registers used:
  2788 ;;		None
  2789 ;; Tracked objects:
  2790 ;;		On entry : 0/0
  2791 ;;		On exit  : 0/0
  2792 ;;		Unchanged: 0/0
  2793 ;; Data sizes:     COMMON   BANK0   BANK1   BANK3   BANK2
  2794 ;;      Params:         0       0       0       0       0
  2795 ;;      Locals:         0       0       0       0       0
  2796 ;;      Temps:          0       0       0       0       0
  2797 ;;      Totals:         0       0       0       0       0
  2798 ;;Total ram usage:        0 bytes
  2799 ;; Hardware stack levels used:    1
  2800 ;; Hardware stack levels required when called:    2
  2801 ;; This function calls:
  2802 ;;		Nothing
  2803 ;; This function is called by:
  2804 ;;		_USART_config
  2805 ;; This function uses a non-reentrant model
  2806 ;;
  2807                           
  2808                           
  2809                           ;psect for function _USART_lib_config
  2810  0B62                     _USART_lib_config:
  2811  0B62                     l1711:	
  2812                           ;incstack = 0
  2813                           ; Regs used in _USART_lib_config: []
  2814                           
  2815                           
  2816                           ;I2C_USART.c: 22:     TXSTAbits.CSRC = 0;
  2817  0B62  1683               	bsf	3,5	;RP0=1, select bank1
  2818  0B63  1303               	bcf	3,6	;RP1=0, select bank1
  2819  0B64  1398               	bcf	24,7	;volatile
  2820                           
  2821                           ;I2C_USART.c: 23:     TXSTAbits.TX9 = 0;
  2822  0B65  1318               	bcf	24,6	;volatile
  2823                           
  2824                           ;I2C_USART.c: 24:     TXSTAbits.TXEN = 1;
  2825  0B66  1698               	bsf	24,5	;volatile
  2826                           
  2827                           ;I2C_USART.c: 25:     TXSTAbits.SYNC = 0;
  2828  0B67  1218               	bcf	24,4	;volatile
  2829                           
  2830                           ;I2C_USART.c: 26:     TXSTAbits.SENDB= 0;
  2831  0B68  1198               	bcf	24,3	;volatile
  2832                           
  2833                           ;I2C_USART.c: 27:     TXSTAbits.BRGH = 0;
  2834  0B69  1118               	bcf	24,2	;volatile
  2835                           
  2836                           ;I2C_USART.c: 28:     TXSTAbits.TRMT = 0;
  2837  0B6A  1098               	bcf	24,1	;volatile
  2838                           
  2839                           ;I2C_USART.c: 29:     TXSTAbits.TX9D = 0;
  2840  0B6B  1018               	bcf	24,0	;volatile
  2841                           
  2842                           ;I2C_USART.c: 31:     RCSTAbits.SPEN = 1;
  2843  0B6C  1283               	bcf	3,5	;RP0=0, select bank0
  2844  0B6D  1303               	bcf	3,6	;RP1=0, select bank0
  2845  0B6E  1798               	bsf	24,7	;volatile
  2846                           
  2847                           ;I2C_USART.c: 32:     RCSTAbits.RX9 = 0;
  2848  0B6F  1318               	bcf	24,6	;volatile
  2849                           
  2850                           ;I2C_USART.c: 33:     RCSTAbits.SREN = 0;
  2851  0B70  1298               	bcf	24,5	;volatile
  2852                           
  2853                           ;I2C_USART.c: 34:     RCSTAbits.CREN = 1;
  2854  0B71  1618               	bsf	24,4	;volatile
  2855                           
  2856                           ;I2C_USART.c: 35:     RCSTAbits.ADDEN= 0;
  2857  0B72  1198               	bcf	24,3	;volatile
  2858                           
  2859                           ;I2C_USART.c: 36:     RCSTAbits.FERR = 0;
  2860  0B73  1118               	bcf	24,2	;volatile
  2861                           
  2862                           ;I2C_USART.c: 37:     RCSTAbits.OERR = 0;
  2863  0B74  1098               	bcf	24,1	;volatile
  2864                           
  2865                           ;I2C_USART.c: 38:     RCSTAbits.RX9D = 0;
  2866  0B75  1018               	bcf	24,0	;volatile
  2867                           
  2868                           ;I2C_USART.c: 40:     PIR1bits.RCIF = 0;
  2869  0B76  128C               	bcf	12,5	;volatile
  2870                           
  2871                           ;I2C_USART.c: 41:     PIE1bits.RCIE = 1;
  2872  0B77  1683               	bsf	3,5	;RP0=1, select bank1
  2873  0B78  1303               	bcf	3,6	;RP1=0, select bank1
  2874  0B79  168C               	bsf	12,5	;volatile
  2875                           
  2876                           ;I2C_USART.c: 42:     PIR1bits.TXIF = 0;
  2877  0B7A  1283               	bcf	3,5	;RP0=0, select bank0
  2878  0B7B  1303               	bcf	3,6	;RP1=0, select bank0
  2879  0B7C  120C               	bcf	12,4	;volatile
  2880  0B7D                     l288:
  2881  0B7D  0008               	return
  2882  0B7E                     __end_of_USART_lib_config:
  2883                           
  2884                           	psect	text10
  2885  0C63                     __ptext10:	
  2886 ;; *************** function _USART_Init *****************
  2887 ;; Defined at:
  2888 ;;		line 45 in file "I2C_USART.c"
  2889 ;; Parameters:    Size  Location     Type
  2890 ;;  baud_rate       4   63[BANK0 ] long 
  2891 ;; Auto vars:     Size  Location     Type
  2892 ;;		None
  2893 ;; Return value:  Size  Location     Type
  2894 ;;                  1    wreg      void 
  2895 ;; Registers used:
  2896 ;;		wreg, status,2, status,0, btemp+1, pclath, cstack
  2897 ;; Tracked objects:
  2898 ;;		On entry : 0/0
  2899 ;;		On exit  : 0/0
  2900 ;;		Unchanged: 0/0
  2901 ;; Data sizes:     COMMON   BANK0   BANK1   BANK3   BANK2
  2902 ;;      Params:         0       4       0       0       0
  2903 ;;      Locals:         0       0       0       0       0
  2904 ;;      Temps:          0       0       0       0       0
  2905 ;;      Totals:         0       4       0       0       0
  2906 ;;Total ram usage:        4 bytes
  2907 ;; Hardware stack levels used:    1
  2908 ;; Hardware stack levels required when called:    3
  2909 ;; This function calls:
  2910 ;;		___fladd
  2911 ;;		___fldiv
  2912 ;;		___fltol
  2913 ;;		___xxtofl
  2914 ;; This function is called by:
  2915 ;;		_main
  2916 ;; This function uses a non-reentrant model
  2917 ;;
  2918                           
  2919                           
  2920                           ;psect for function _USART_Init
  2921  0C63                     _USART_Init:
  2922  0C63                     l2491:	
  2923                           ;incstack = 0
  2924                           ; Regs used in _USART_Init: [wreg+status,2+status,0+btemp+1+pclath+cstack]
  2925                           
  2926                           
  2927                           ;I2C_USART.c: 45: void USART_Init(long baud_rate);I2C_USART.c: 46: {;I2C_USART.c: 47:   
      +                            TRISC6 = 0;
  2928  0C63  1683               	bsf	3,5	;RP0=1, select bank1
  2929  0C64  1303               	bcf	3,6	;RP1=0, select bank1
  2930  0C65  1307               	bcf	7,6	;volatile
  2931                           
  2932                           ;I2C_USART.c: 48:     TRISC7 = 1;
  2933  0C66  1787               	bsf	7,7	;volatile
  2934  0C67                     l2493:
  2935                           
  2936                           ;I2C_USART.c: 49:     SPBRG = (((float)(8000000/64)/(float)baud_rate)-1);
  2937  0C67  3047               	movlw	71
  2938  0C68  1283               	bcf	3,5	;RP0=0, select bank0
  2939  0C69  1303               	bcf	3,6	;RP1=0, select bank0
  2940  0C6A  00AD               	movwf	___fldiv@b+3
  2941  0C6B  30F4               	movlw	244
  2942  0C6C  00AC               	movwf	___fldiv@b+2
  2943  0C6D  3024               	movlw	36
  2944  0C6E  00AB               	movwf	___fldiv@b+1
  2945  0C6F  3000               	movlw	0
  2946  0C70  00AA               	movwf	___fldiv@b
  2947  0C71  0862               	movf	USART_Init@baud_rate+3,w
  2948  0C72  00F5               	movwf	___xxtofl@val+3
  2949  0C73  0861               	movf	USART_Init@baud_rate+2,w
  2950  0C74  00F4               	movwf	___xxtofl@val+2
  2951  0C75  0860               	movf	USART_Init@baud_rate+1,w
  2952  0C76  00F3               	movwf	___xxtofl@val+1
  2953  0C77  085F               	movf	USART_Init@baud_rate,w
  2954  0C78  00F2               	movwf	___xxtofl@val
  2955  0C79  3001               	movlw	1
  2956  0C7A  120A  118A  2713  120A  158A  	fcall	___xxtofl
  2957  0C7F  0875               	movf	?___xxtofl+3,w
  2958  0C80  1283               	bcf	3,5	;RP0=0, select bank0
  2959  0C81  1303               	bcf	3,6	;RP1=0, select bank0
  2960  0C82  00A9               	movwf	___fldiv@a+3
  2961  0C83  0874               	movf	?___xxtofl+2,w
  2962  0C84  00A8               	movwf	___fldiv@a+2
  2963  0C85  0873               	movf	?___xxtofl+1,w
  2964  0C86  00A7               	movwf	___fldiv@a+1
  2965  0C87  0872               	movf	?___xxtofl,w
  2966  0C88  00A6               	movwf	___fldiv@a
  2967  0C89  120A  158A  2623  120A  158A  	fcall	___fldiv
  2968  0C8E  1283               	bcf	3,5	;RP0=0, select bank0
  2969  0C8F  1303               	bcf	3,6	;RP1=0, select bank0
  2970  0C90  0829               	movf	?___fldiv+3,w
  2971  0C91  00C7               	movwf	___fladd@a+3
  2972  0C92  0828               	movf	?___fldiv+2,w
  2973  0C93  00C6               	movwf	___fladd@a+2
  2974  0C94  0827               	movf	?___fldiv+1,w
  2975  0C95  00C5               	movwf	___fladd@a+1
  2976  0C96  0826               	movf	?___fldiv,w
  2977  0C97  00C4               	movwf	___fladd@a
  2978  0C98  30BF               	movlw	191
  2979  0C99  00C3               	movwf	___fladd@b+3
  2980  0C9A  3080               	movlw	128
  2981  0C9B  00C2               	movwf	___fladd@b+2
  2982  0C9C  3000               	movlw	0
  2983  0C9D  00C1               	movwf	___fladd@b+1
  2984  0C9E  3000               	movlw	0
  2985  0C9F  00C0               	movwf	___fladd@b
  2986  0CA0  120A  118A  248B  120A  158A  	fcall	___fladd
  2987  0CA5  1283               	bcf	3,5	;RP0=0, select bank0
  2988  0CA6  1303               	bcf	3,6	;RP1=0, select bank0
  2989  0CA7  0843               	movf	?___fladd+3,w
  2990  0CA8  00D7               	movwf	___fltol@f1+3
  2991  0CA9  0842               	movf	?___fladd+2,w
  2992  0CAA  00D6               	movwf	___fltol@f1+2
  2993  0CAB  0841               	movf	?___fladd+1,w
  2994  0CAC  00D5               	movwf	___fltol@f1+1
  2995  0CAD  0840               	movf	?___fladd,w
  2996  0CAE  00D4               	movwf	___fltol@f1
  2997  0CAF  120A  158A  252A  120A  158A  	fcall	___fltol
  2998  0CB4  1283               	bcf	3,5	;RP0=0, select bank0
  2999  0CB5  1303               	bcf	3,6	;RP1=0, select bank0
  3000  0CB6  0854               	movf	?___fltol,w
  3001  0CB7  1683               	bsf	3,5	;RP0=1, select bank1
  3002  0CB8  1303               	bcf	3,6	;RP1=0, select bank1
  3003  0CB9  0099               	movwf	25	;volatile
  3004  0CBA                     l2495:
  3005                           
  3006                           ;I2C_USART.c: 50:     TXSTA = 0x20;
  3007  0CBA  3020               	movlw	32
  3008  0CBB  0098               	movwf	24	;volatile
  3009  0CBC                     l2497:
  3010                           
  3011                           ;I2C_USART.c: 51:     RCSTA = 0x90;
  3012  0CBC  3090               	movlw	144
  3013  0CBD  1283               	bcf	3,5	;RP0=0, select bank0
  3014  0CBE  1303               	bcf	3,6	;RP1=0, select bank0
  3015  0CBF  0098               	movwf	24	;volatile
  3016  0CC0                     l291:
  3017  0CC0  0008               	return
  3018  0CC1                     __end_of_USART_Init:
  3019                           
  3020                           	psect	text11
  3021  0713                     __ptext11:	
  3022 ;; *************** function ___xxtofl *****************
  3023 ;; Defined at:
  3024 ;;		line 10 in file "C:\Program Files\Microchip\xc8\v2.31\pic\sources\c90\common\xxtofl.c"
  3025 ;; Parameters:    Size  Location     Type
  3026 ;;  sign            1    wreg     unsigned char 
  3027 ;;  val             4    2[COMMON] long 
  3028 ;; Auto vars:     Size  Location     Type
  3029 ;;  sign            1    0[BANK0 ] unsigned char 
  3030 ;;  arg             4    2[BANK0 ] unsigned long 
  3031 ;;  exp             1    1[BANK0 ] unsigned char 
  3032 ;; Return value:  Size  Location     Type
  3033 ;;                  4    2[COMMON] unsigned char 
  3034 ;; Registers used:
  3035 ;;		wreg, status,2, status,0
  3036 ;; Tracked objects:
  3037 ;;		On entry : 0/0
  3038 ;;		On exit  : 0/0
  3039 ;;		Unchanged: 0/0
  3040 ;; Data sizes:     COMMON   BANK0   BANK1   BANK3   BANK2
  3041 ;;      Params:         4       0       0       0       0
  3042 ;;      Locals:         0       6       0       0       0
  3043 ;;      Temps:          4       0       0       0       0
  3044 ;;      Totals:         8       6       0       0       0
  3045 ;;Total ram usage:       14 bytes
  3046 ;; Hardware stack levels used:    1
  3047 ;; Hardware stack levels required when called:    2
  3048 ;; This function calls:
  3049 ;;		Nothing
  3050 ;; This function is called by:
  3051 ;;		_USART_Init
  3052 ;; This function uses a non-reentrant model
  3053 ;;
  3054                           
  3055                           
  3056                           ;psect for function ___xxtofl
  3057  0713                     ___xxtofl:
  3058                           
  3059                           ;incstack = 0
  3060                           ; Regs used in ___xxtofl: [wreg+status,2+status,0]
  3061                           ;___xxtofl@sign stored from wreg
  3062  0713  1283               	bcf	3,5	;RP0=0, select bank0
  3063  0714  1303               	bcf	3,6	;RP1=0, select bank0
  3064  0715  00A0               	movwf	___xxtofl@sign
  3065  0716                     l2125:
  3066  0716  0820               	movf	___xxtofl@sign,w
  3067  0717  1903               	btfsc	3,2
  3068  0718  2F1A               	goto	u2451
  3069  0719  2F1B               	goto	u2450
  3070  071A                     u2451:
  3071  071A  2F2F               	goto	l2131
  3072  071B                     u2450:
  3073  071B                     l2127:
  3074  071B  1FF5               	btfss	___xxtofl@val+3,7
  3075  071C  2F1E               	goto	u2461
  3076  071D  2F1F               	goto	u2460
  3077  071E                     u2461:
  3078  071E  2F2F               	goto	l2131
  3079  071F                     u2460:
  3080  071F                     l2129:
  3081  071F  0972               	comf	___xxtofl@val,w
  3082  0720  00A2               	movwf	___xxtofl@arg
  3083  0721  0973               	comf	___xxtofl@val+1,w
  3084  0722  00A3               	movwf	___xxtofl@arg+1
  3085  0723  0974               	comf	___xxtofl@val+2,w
  3086  0724  00A4               	movwf	___xxtofl@arg+2
  3087  0725  0975               	comf	___xxtofl@val+3,w
  3088  0726  00A5               	movwf	___xxtofl@arg+3
  3089  0727  0AA2               	incf	___xxtofl@arg,f
  3090  0728  1903               	skipnz
  3091  0729  0AA3               	incf	___xxtofl@arg+1,f
  3092  072A  1903               	skipnz
  3093  072B  0AA4               	incf	___xxtofl@arg+2,f
  3094  072C  1903               	skipnz
  3095  072D  0AA5               	incf	___xxtofl@arg+3,f
  3096  072E  2F37               	goto	l810
  3097  072F                     l2131:
  3098  072F  0875               	movf	___xxtofl@val+3,w
  3099  0730  00A5               	movwf	___xxtofl@arg+3
  3100  0731  0874               	movf	___xxtofl@val+2,w
  3101  0732  00A4               	movwf	___xxtofl@arg+2
  3102  0733  0873               	movf	___xxtofl@val+1,w
  3103  0734  00A3               	movwf	___xxtofl@arg+1
  3104  0735  0872               	movf	___xxtofl@val,w
  3105  0736  00A2               	movwf	___xxtofl@arg
  3106  0737                     l810:
  3107  0737  0875               	movf	___xxtofl@val+3,w
  3108  0738  0474               	iorwf	___xxtofl@val+2,w
  3109  0739  0473               	iorwf	___xxtofl@val+1,w
  3110  073A  0472               	iorwf	___xxtofl@val,w
  3111  073B  1D03               	skipz
  3112  073C  2F3E               	goto	u2471
  3113  073D  2F3F               	goto	u2470
  3114  073E                     u2471:
  3115  073E  2F48               	goto	l2137
  3116  073F                     u2470:
  3117  073F                     l2133:
  3118  073F  3000               	movlw	0
  3119  0740  00F5               	movwf	?___xxtofl+3
  3120  0741  3000               	movlw	0
  3121  0742  00F4               	movwf	?___xxtofl+2
  3122  0743  3000               	movlw	0
  3123  0744  00F3               	movwf	?___xxtofl+1
  3124  0745  3000               	movlw	0
  3125  0746  00F2               	movwf	?___xxtofl
  3126  0747  2FCE               	goto	l812
  3127  0748                     l2137:
  3128  0748  3096               	movlw	150
  3129  0749  00F6               	movwf	??___xxtofl
  3130  074A  0876               	movf	??___xxtofl,w
  3131  074B  00A1               	movwf	___xxtofl@exp
  3132  074C  2F5A               	goto	l2141
  3133  074D                     l2139:
  3134  074D  3001               	movlw	1
  3135  074E  00F6               	movwf	??___xxtofl
  3136  074F  0876               	movf	??___xxtofl,w
  3137  0750  07A1               	addwf	___xxtofl@exp,f
  3138  0751  3001               	movlw	1
  3139  0752                     u2485:
  3140  0752  1003               	clrc
  3141  0753  0CA5               	rrf	___xxtofl@arg+3,f
  3142  0754  0CA4               	rrf	___xxtofl@arg+2,f
  3143  0755  0CA3               	rrf	___xxtofl@arg+1,f
  3144  0756  0CA2               	rrf	___xxtofl@arg,f
  3145  0757  3EFF               	addlw	-1
  3146  0758  1D03               	skipz
  3147  0759  2F52               	goto	u2485
  3148  075A                     l2141:
  3149  075A  30FE               	movlw	254
  3150  075B  0525               	andwf	___xxtofl@arg+3,w
  3151  075C  1D03               	btfss	3,2
  3152  075D  2F5F               	goto	u2491
  3153  075E  2F60               	goto	u2490
  3154  075F                     u2491:
  3155  075F  2F4D               	goto	l2139
  3156  0760                     u2490:
  3157  0760  2F7C               	goto	l816
  3158  0761                     l2143:
  3159  0761  3001               	movlw	1
  3160  0762  00F6               	movwf	??___xxtofl
  3161  0763  0876               	movf	??___xxtofl,w
  3162  0764  07A1               	addwf	___xxtofl@exp,f
  3163  0765                     l2145:
  3164  0765  3001               	movlw	1
  3165  0766  07A2               	addwf	___xxtofl@arg,f
  3166  0767  3000               	movlw	0
  3167  0768  1803               	skipnc
  3168  0769  3001               	movlw	1
  3169  076A  07A3               	addwf	___xxtofl@arg+1,f
  3170  076B  3000               	movlw	0
  3171  076C  1803               	skipnc
  3172  076D  3001               	movlw	1
  3173  076E  07A4               	addwf	___xxtofl@arg+2,f
  3174  076F  3000               	movlw	0
  3175  0770  1803               	skipnc
  3176  0771  3001               	movlw	1
  3177  0772  07A5               	addwf	___xxtofl@arg+3,f
  3178  0773                     l2147:
  3179  0773  3001               	movlw	1
  3180  0774                     u2505:
  3181  0774  1003               	clrc
  3182  0775  0CA5               	rrf	___xxtofl@arg+3,f
  3183  0776  0CA4               	rrf	___xxtofl@arg+2,f
  3184  0777  0CA3               	rrf	___xxtofl@arg+1,f
  3185  0778  0CA2               	rrf	___xxtofl@arg,f
  3186  0779  3EFF               	addlw	-1
  3187  077A  1D03               	skipz
  3188  077B  2F74               	goto	u2505
  3189  077C                     l816:
  3190  077C  30FF               	movlw	255
  3191  077D  0525               	andwf	___xxtofl@arg+3,w
  3192  077E  1D03               	btfss	3,2
  3193  077F  2F81               	goto	u2511
  3194  0780  2F82               	goto	u2510
  3195  0781                     u2511:
  3196  0781  2F61               	goto	l2143
  3197  0782                     u2510:
  3198  0782  2F8E               	goto	l2151
  3199  0783                     l2149:
  3200  0783  3001               	movlw	1
  3201  0784  02A1               	subwf	___xxtofl@exp,f
  3202  0785  3001               	movlw	1
  3203  0786  00F6               	movwf	??___xxtofl
  3204  0787                     u2525:
  3205  0787  1003               	clrc
  3206  0788  0DA2               	rlf	___xxtofl@arg,f
  3207  0789  0DA3               	rlf	___xxtofl@arg+1,f
  3208  078A  0DA4               	rlf	___xxtofl@arg+2,f
  3209  078B  0DA5               	rlf	___xxtofl@arg+3,f
  3210  078C  0BF6               	decfsz	??___xxtofl,f
  3211  078D  2F87               	goto	u2525
  3212  078E                     l2151:
  3213  078E  1BA4               	btfsc	___xxtofl@arg+2,7
  3214  078F  2F91               	goto	u2531
  3215  0790  2F92               	goto	u2530
  3216  0791                     u2531:
  3217  0791  2F98               	goto	l823
  3218  0792                     u2530:
  3219  0792                     l2153:
  3220  0792  3002               	movlw	2
  3221  0793  0221               	subwf	___xxtofl@exp,w
  3222  0794  1803               	skipnc
  3223  0795  2F97               	goto	u2541
  3224  0796  2F98               	goto	u2540
  3225  0797                     u2541:
  3226  0797  2F83               	goto	l2149
  3227  0798                     u2540:
  3228  0798                     l823:
  3229  0798  1821               	btfsc	___xxtofl@exp,0
  3230  0799  2F9B               	goto	u2551
  3231  079A  2F9C               	goto	u2550
  3232  079B                     u2551:
  3233  079B  2FA4               	goto	l824
  3234  079C                     u2550:
  3235  079C                     l2155:
  3236  079C  30FF               	movlw	255
  3237  079D  05A2               	andwf	___xxtofl@arg,f
  3238  079E  30FF               	movlw	255
  3239  079F  05A3               	andwf	___xxtofl@arg+1,f
  3240  07A0  307F               	movlw	127
  3241  07A1  05A4               	andwf	___xxtofl@arg+2,f
  3242  07A2  30FF               	movlw	255
  3243  07A3  05A5               	andwf	___xxtofl@arg+3,f
  3244  07A4                     l824:
  3245  07A4  1003               	clrc
  3246  07A5  0CA1               	rrf	___xxtofl@exp,f
  3247  07A6                     l2157:
  3248  07A6  0821               	movf	___xxtofl@exp,w
  3249  07A7  00F6               	movwf	??___xxtofl
  3250  07A8  01F7               	clrf	??___xxtofl+1
  3251  07A9  01F8               	clrf	??___xxtofl+2
  3252  07AA  01F9               	clrf	??___xxtofl+3
  3253  07AB  3018               	movlw	24
  3254  07AC                     u2565:
  3255  07AC  1003               	clrc
  3256  07AD  0DF6               	rlf	??___xxtofl,f
  3257  07AE  0DF7               	rlf	??___xxtofl+1,f
  3258  07AF  0DF8               	rlf	??___xxtofl+2,f
  3259  07B0  0DF9               	rlf	??___xxtofl+3,f
  3260  07B1                     u2560:
  3261  07B1  3EFF               	addlw	-1
  3262  07B2  1D03               	skipz
  3263  07B3  2FAC               	goto	u2565
  3264  07B4  0876               	movf	??___xxtofl,w
  3265  07B5  04A2               	iorwf	___xxtofl@arg,f
  3266  07B6  0877               	movf	??___xxtofl+1,w
  3267  07B7  04A3               	iorwf	___xxtofl@arg+1,f
  3268  07B8  0878               	movf	??___xxtofl+2,w
  3269  07B9  04A4               	iorwf	___xxtofl@arg+2,f
  3270  07BA  0879               	movf	??___xxtofl+3,w
  3271  07BB  04A5               	iorwf	___xxtofl@arg+3,f
  3272  07BC                     l2159:
  3273  07BC  0820               	movf	___xxtofl@sign,w
  3274  07BD  1903               	btfsc	3,2
  3275  07BE  2FC0               	goto	u2571
  3276  07BF  2FC1               	goto	u2570
  3277  07C0                     u2571:
  3278  07C0  2FC6               	goto	l2165
  3279  07C1                     u2570:
  3280  07C1                     l2161:
  3281  07C1  1FF5               	btfss	___xxtofl@val+3,7
  3282  07C2  2FC4               	goto	u2581
  3283  07C3  2FC5               	goto	u2580
  3284  07C4                     u2581:
  3285  07C4  2FC6               	goto	l2165
  3286  07C5                     u2580:
  3287  07C5                     l2163:
  3288  07C5  17A5               	bsf	___xxtofl@arg+3,7
  3289  07C6                     l2165:
  3290  07C6  0825               	movf	___xxtofl@arg+3,w
  3291  07C7  00F5               	movwf	?___xxtofl+3
  3292  07C8  0824               	movf	___xxtofl@arg+2,w
  3293  07C9  00F4               	movwf	?___xxtofl+2
  3294  07CA  0823               	movf	___xxtofl@arg+1,w
  3295  07CB  00F3               	movwf	?___xxtofl+1
  3296  07CC  0822               	movf	___xxtofl@arg,w
  3297  07CD  00F2               	movwf	?___xxtofl
  3298  07CE                     l812:
  3299  07CE  0008               	return
  3300  07CF                     __end_of___xxtofl:
  3301                           
  3302                           	psect	text12
  3303  0D2A                     __ptext12:	
  3304 ;; *************** function ___fltol *****************
  3305 ;; Defined at:
  3306 ;;		line 43 in file "C:\Program Files\Microchip\xc8\v2.31\pic\sources\c90\common\fltol.c"
  3307 ;; Parameters:    Size  Location     Type
  3308 ;;  f1              4   52[BANK0 ] unsigned char 
  3309 ;; Auto vars:     Size  Location     Type
  3310 ;;  exp1            1   62[BANK0 ] unsigned char 
  3311 ;;  sign1           1   61[BANK0 ] unsigned char 
  3312 ;; Return value:  Size  Location     Type
  3313 ;;                  4   52[BANK0 ] long 
  3314 ;; Registers used:
  3315 ;;		wreg, status,2, status,0
  3316 ;; Tracked objects:
  3317 ;;		On entry : 0/0
  3318 ;;		On exit  : 0/0
  3319 ;;		Unchanged: 0/0
  3320 ;; Data sizes:     COMMON   BANK0   BANK1   BANK3   BANK2
  3321 ;;      Params:         0       4       0       0       0
  3322 ;;      Locals:         0       2       0       0       0
  3323 ;;      Temps:          0       5       0       0       0
  3324 ;;      Totals:         0      11       0       0       0
  3325 ;;Total ram usage:       11 bytes
  3326 ;; Hardware stack levels used:    1
  3327 ;; Hardware stack levels required when called:    2
  3328 ;; This function calls:
  3329 ;;		Nothing
  3330 ;; This function is called by:
  3331 ;;		_USART_Init
  3332 ;; This function uses a non-reentrant model
  3333 ;;
  3334                           
  3335                           
  3336                           ;psect for function ___fltol
  3337  0D2A                     ___fltol:
  3338  0D2A                     l2455:	
  3339                           ;incstack = 0
  3340                           ; Regs used in ___fltol: [wreg+status,2+status,0]
  3341                           
  3342  0D2A  1003               	clrc
  3343  0D2B  1283               	bcf	3,5	;RP0=0, select bank0
  3344  0D2C  1303               	bcf	3,6	;RP1=0, select bank0
  3345  0D2D  0D56               	rlf	___fltol@f1+2,w
  3346  0D2E  0D57               	rlf	___fltol@f1+3,w
  3347  0D2F  00D8               	movwf	??___fltol
  3348  0D30  0858               	movf	??___fltol,w
  3349  0D31  00DE               	movwf	___fltol@exp1
  3350  0D32  085E               	movf	___fltol@exp1,w
  3351  0D33  1D03               	btfss	3,2
  3352  0D34  2D36               	goto	u2861
  3353  0D35  2D37               	goto	u2860
  3354  0D36                     u2861:
  3355  0D36  2D40               	goto	l2461
  3356  0D37                     u2860:
  3357  0D37                     l2457:
  3358  0D37  3000               	movlw	0
  3359  0D38  00D7               	movwf	?___fltol+3
  3360  0D39  3000               	movlw	0
  3361  0D3A  00D6               	movwf	?___fltol+2
  3362  0D3B  3000               	movlw	0
  3363  0D3C  00D5               	movwf	?___fltol+1
  3364  0D3D  3000               	movlw	0
  3365  0D3E  00D4               	movwf	?___fltol
  3366  0D3F  2DA5               	goto	l563
  3367  0D40                     l2461:
  3368  0D40  0854               	movf	___fltol@f1,w
  3369  0D41  00D8               	movwf	??___fltol
  3370  0D42  0855               	movf	___fltol@f1+1,w
  3371  0D43  00D9               	movwf	??___fltol+1
  3372  0D44  0856               	movf	___fltol@f1+2,w
  3373  0D45  00DA               	movwf	??___fltol+2
  3374  0D46  0857               	movf	___fltol@f1+3,w
  3375  0D47  00DB               	movwf	??___fltol+3
  3376  0D48  301F               	movlw	31
  3377  0D49                     u2875:
  3378  0D49  1003               	clrc
  3379  0D4A  0CDB               	rrf	??___fltol+3,f
  3380  0D4B  0CDA               	rrf	??___fltol+2,f
  3381  0D4C  0CD9               	rrf	??___fltol+1,f
  3382  0D4D  0CD8               	rrf	??___fltol,f
  3383  0D4E                     u2870:
  3384  0D4E  3EFF               	addlw	-1
  3385  0D4F  1D03               	skipz
  3386  0D50  2D49               	goto	u2875
  3387  0D51  0858               	movf	??___fltol,w
  3388  0D52  00DC               	movwf	??___fltol+4
  3389  0D53  085C               	movf	??___fltol+4,w
  3390  0D54  00DD               	movwf	___fltol@sign1
  3391  0D55                     l2463:
  3392  0D55  17D6               	bsf	___fltol@f1+2,7
  3393  0D56                     l2465:
  3394  0D56  30FF               	movlw	255
  3395  0D57  05D4               	andwf	___fltol@f1,f
  3396  0D58  30FF               	movlw	255
  3397  0D59  05D5               	andwf	___fltol@f1+1,f
  3398  0D5A  30FF               	movlw	255
  3399  0D5B  05D6               	andwf	___fltol@f1+2,f
  3400  0D5C  3000               	movlw	0
  3401  0D5D  05D7               	andwf	___fltol@f1+3,f
  3402  0D5E                     l2467:
  3403  0D5E  3096               	movlw	150
  3404  0D5F  02DE               	subwf	___fltol@exp1,f
  3405  0D60                     l2469:
  3406  0D60  1FDE               	btfss	___fltol@exp1,7
  3407  0D61  2D63               	goto	u2881
  3408  0D62  2D64               	goto	u2880
  3409  0D63                     u2881:
  3410  0D63  2D7E               	goto	l2479
  3411  0D64                     u2880:
  3412  0D64                     l2471:
  3413  0D64  085E               	movf	___fltol@exp1,w
  3414  0D65  3A80               	xorlw	128
  3415  0D66  3E97               	addlw	151
  3416  0D67  1803               	skipnc
  3417  0D68  2D6A               	goto	u2891
  3418  0D69  2D6B               	goto	u2890
  3419  0D6A                     u2891:
  3420  0D6A  2D6C               	goto	l2477
  3421  0D6B                     u2890:
  3422  0D6B  2D37               	goto	l2457
  3423  0D6C                     l2477:
  3424  0D6C  3001               	movlw	1
  3425  0D6D                     u2905:
  3426  0D6D  1003               	clrc
  3427  0D6E  0CD7               	rrf	___fltol@f1+3,f
  3428  0D6F  0CD6               	rrf	___fltol@f1+2,f
  3429  0D70  0CD5               	rrf	___fltol@f1+1,f
  3430  0D71  0CD4               	rrf	___fltol@f1,f
  3431  0D72  3EFF               	addlw	-1
  3432  0D73  1D03               	skipz
  3433  0D74  2D6D               	goto	u2905
  3434  0D75  3001               	movlw	1
  3435  0D76  00D8               	movwf	??___fltol
  3436  0D77  0858               	movf	??___fltol,w
  3437  0D78  07DE               	addwf	___fltol@exp1,f
  3438  0D79  1D03               	btfss	3,2
  3439  0D7A  2D7C               	goto	u2911
  3440  0D7B  2D7D               	goto	u2910
  3441  0D7C                     u2911:
  3442  0D7C  2D6C               	goto	l2477
  3443  0D7D                     u2910:
  3444  0D7D  2D95               	goto	l2487
  3445  0D7E                     l2479:
  3446  0D7E  3020               	movlw	32
  3447  0D7F  025E               	subwf	___fltol@exp1,w
  3448  0D80  1C03               	skipc
  3449  0D81  2D83               	goto	u2921
  3450  0D82  2D84               	goto	u2920
  3451  0D83                     u2921:
  3452  0D83  2D90               	goto	l570
  3453  0D84                     u2920:
  3454  0D84  2D37               	goto	l2457
  3455  0D85                     l2485:
  3456  0D85  3001               	movlw	1
  3457  0D86  00D8               	movwf	??___fltol
  3458  0D87                     u2935:
  3459  0D87  1003               	clrc
  3460  0D88  0DD4               	rlf	___fltol@f1,f
  3461  0D89  0DD5               	rlf	___fltol@f1+1,f
  3462  0D8A  0DD6               	rlf	___fltol@f1+2,f
  3463  0D8B  0DD7               	rlf	___fltol@f1+3,f
  3464  0D8C  0BD8               	decfsz	??___fltol,f
  3465  0D8D  2D87               	goto	u2935
  3466  0D8E  3001               	movlw	1
  3467  0D8F  02DE               	subwf	___fltol@exp1,f
  3468  0D90                     l570:
  3469  0D90  085E               	movf	___fltol@exp1,w
  3470  0D91  1D03               	btfss	3,2
  3471  0D92  2D94               	goto	u2941
  3472  0D93  2D95               	goto	u2940
  3473  0D94                     u2941:
  3474  0D94  2D85               	goto	l2485
  3475  0D95                     u2940:
  3476  0D95                     l2487:
  3477  0D95  085D               	movf	___fltol@sign1,w
  3478  0D96  1903               	btfsc	3,2
  3479  0D97  2D99               	goto	u2951
  3480  0D98  2D9A               	goto	u2950
  3481  0D99                     u2951:
  3482  0D99  2DA5               	goto	l573
  3483  0D9A                     u2950:
  3484  0D9A                     l2489:
  3485  0D9A  09D4               	comf	___fltol@f1,f
  3486  0D9B  09D5               	comf	___fltol@f1+1,f
  3487  0D9C  09D6               	comf	___fltol@f1+2,f
  3488  0D9D  09D7               	comf	___fltol@f1+3,f
  3489  0D9E  0AD4               	incf	___fltol@f1,f
  3490  0D9F  1903               	skipnz
  3491  0DA0  0AD5               	incf	___fltol@f1+1,f
  3492  0DA1  1903               	skipnz
  3493  0DA2  0AD6               	incf	___fltol@f1+2,f
  3494  0DA3  1903               	skipnz
  3495  0DA4  0AD7               	incf	___fltol@f1+3,f
  3496  0DA5                     l573:
  3497  0DA5                     l563:
  3498  0DA5  0008               	return
  3499  0DA6                     __end_of___fltol:
  3500                           
  3501                           	psect	text13
  3502  0E23                     __ptext13:	
  3503 ;; *************** function ___fldiv *****************
  3504 ;; Defined at:
  3505 ;;		line 8 in file "C:\Program Files\Microchip\xc8\v2.31\pic\sources\c90\common\sprcdiv.c"
  3506 ;; Parameters:    Size  Location     Type
  3507 ;;  a               4    6[BANK0 ] long 
  3508 ;;  b               4   10[BANK0 ] long 
  3509 ;; Auto vars:     Size  Location     Type
  3510 ;;  grs             4   26[BANK0 ] unsigned long 
  3511 ;;  rem             4   19[BANK0 ] unsigned long 
  3512 ;;  new_exp         2   24[BANK0 ] int 
  3513 ;;  aexp            1   31[BANK0 ] unsigned char 
  3514 ;;  bexp            1   30[BANK0 ] unsigned char 
  3515 ;;  sign            1   23[BANK0 ] unsigned char 
  3516 ;; Return value:  Size  Location     Type
  3517 ;;                  4    6[BANK0 ] unsigned char 
  3518 ;; Registers used:
  3519 ;;		wreg, status,2, status,0, btemp+1
  3520 ;; Tracked objects:
  3521 ;;		On entry : 0/0
  3522 ;;		On exit  : 0/0
  3523 ;;		Unchanged: 0/0
  3524 ;; Data sizes:     COMMON   BANK0   BANK1   BANK3   BANK2
  3525 ;;      Params:         0       8       0       0       0
  3526 ;;      Locals:         0      13       0       0       0
  3527 ;;      Temps:          0       5       0       0       0
  3528 ;;      Totals:         0      26       0       0       0
  3529 ;;Total ram usage:       26 bytes
  3530 ;; Hardware stack levels used:    1
  3531 ;; Hardware stack levels required when called:    2
  3532 ;; This function calls:
  3533 ;;		Nothing
  3534 ;; This function is called by:
  3535 ;;		_USART_Init
  3536 ;; This function uses a non-reentrant model
  3537 ;;
  3538                           
  3539                           
  3540                           ;psect for function ___fldiv
  3541  0E23                     ___fldiv:
  3542  0E23                     l1983:	
  3543                           ;incstack = 0
  3544                           ; Regs used in ___fldiv: [wreg+status,2+status,0+btemp+1]
  3545                           
  3546  0E23  1283               	bcf	3,5	;RP0=0, select bank0
  3547  0E24  1303               	bcf	3,6	;RP1=0, select bank0
  3548  0E25  082D               	movf	___fldiv@b+3,w
  3549  0E26  3980               	andlw	128
  3550  0E27  00AE               	movwf	??___fldiv
  3551  0E28  082E               	movf	??___fldiv,w
  3552  0E29  00B7               	movwf	___fldiv@sign
  3553  0E2A                     l1985:
  3554  0E2A  082D               	movf	___fldiv@b+3,w
  3555  0E2B  00AE               	movwf	??___fldiv
  3556  0E2C  072E               	addwf	??___fldiv,w
  3557  0E2D  00AF               	movwf	??___fldiv+1
  3558  0E2E  082F               	movf	??___fldiv+1,w
  3559  0E2F  00BE               	movwf	___fldiv@bexp
  3560  0E30                     l1987:
  3561  0E30  1FAC               	btfss	___fldiv@b+2,7
  3562  0E31  2E33               	goto	u2161
  3563  0E32  2E34               	goto	u2160
  3564  0E33                     u2161:
  3565  0E33  2E35               	goto	l1991
  3566  0E34                     u2160:
  3567  0E34                     l1989:
  3568  0E34  143E               	bsf	___fldiv@bexp,0
  3569  0E35                     l1991:
  3570  0E35  083E               	movf	___fldiv@bexp,w
  3571  0E36  1903               	btfsc	3,2
  3572  0E37  2E39               	goto	u2171
  3573  0E38  2E3A               	goto	u2170
  3574  0E39                     u2171:
  3575  0E39  2E4A               	goto	l2001
  3576  0E3A                     u2170:
  3577  0E3A                     l1993:
  3578  0E3A  0A3E               	incf	___fldiv@bexp,w
  3579  0E3B  1D03               	btfss	3,2
  3580  0E3C  2E3E               	goto	u2181
  3581  0E3D  2E3F               	goto	u2180
  3582  0E3E                     u2181:
  3583  0E3E  2E47               	goto	l1997
  3584  0E3F                     u2180:
  3585  0E3F                     l1995:
  3586  0E3F  3000               	movlw	0
  3587  0E40  00AD               	movwf	___fldiv@b+3
  3588  0E41  3000               	movlw	0
  3589  0E42  00AC               	movwf	___fldiv@b+2
  3590  0E43  3000               	movlw	0
  3591  0E44  00AB               	movwf	___fldiv@b+1
  3592  0E45  3000               	movlw	0
  3593  0E46  00AA               	movwf	___fldiv@b
  3594  0E47                     l1997:
  3595  0E47  17AC               	bsf	___fldiv@b+2,7
  3596  0E48                     l1999:
  3597  0E48  01AD               	clrf	___fldiv@b+3
  3598  0E49  2E52               	goto	l2003
  3599  0E4A                     l2001:
  3600  0E4A  3000               	movlw	0
  3601  0E4B  00AD               	movwf	___fldiv@b+3
  3602  0E4C  3000               	movlw	0
  3603  0E4D  00AC               	movwf	___fldiv@b+2
  3604  0E4E  3000               	movlw	0
  3605  0E4F  00AB               	movwf	___fldiv@b+1
  3606  0E50  3000               	movlw	0
  3607  0E51  00AA               	movwf	___fldiv@b
  3608  0E52                     l2003:
  3609  0E52  0829               	movf	___fldiv@a+3,w
  3610  0E53  3980               	andlw	128
  3611  0E54  00AE               	movwf	??___fldiv
  3612  0E55  082E               	movf	??___fldiv,w
  3613  0E56  06B7               	xorwf	___fldiv@sign,f
  3614  0E57                     l2005:
  3615  0E57  0829               	movf	___fldiv@a+3,w
  3616  0E58  00AE               	movwf	??___fldiv
  3617  0E59  072E               	addwf	??___fldiv,w
  3618  0E5A  00AF               	movwf	??___fldiv+1
  3619  0E5B  082F               	movf	??___fldiv+1,w
  3620  0E5C  00BF               	movwf	___fldiv@aexp
  3621  0E5D                     l2007:
  3622  0E5D  1FA8               	btfss	___fldiv@a+2,7
  3623  0E5E  2E60               	goto	u2191
  3624  0E5F  2E61               	goto	u2190
  3625  0E60                     u2191:
  3626  0E60  2E62               	goto	l2011
  3627  0E61                     u2190:
  3628  0E61                     l2009:
  3629  0E61  143F               	bsf	___fldiv@aexp,0
  3630  0E62                     l2011:
  3631  0E62  083F               	movf	___fldiv@aexp,w
  3632  0E63  1903               	btfsc	3,2
  3633  0E64  2E66               	goto	u2201
  3634  0E65  2E67               	goto	u2200
  3635  0E66                     u2201:
  3636  0E66  2E77               	goto	l2021
  3637  0E67                     u2200:
  3638  0E67                     l2013:
  3639  0E67  0A3F               	incf	___fldiv@aexp,w
  3640  0E68  1D03               	btfss	3,2
  3641  0E69  2E6B               	goto	u2211
  3642  0E6A  2E6C               	goto	u2210
  3643  0E6B                     u2211:
  3644  0E6B  2E74               	goto	l2017
  3645  0E6C                     u2210:
  3646  0E6C                     l2015:
  3647  0E6C  3000               	movlw	0
  3648  0E6D  00A9               	movwf	___fldiv@a+3
  3649  0E6E  3000               	movlw	0
  3650  0E6F  00A8               	movwf	___fldiv@a+2
  3651  0E70  3000               	movlw	0
  3652  0E71  00A7               	movwf	___fldiv@a+1
  3653  0E72  3000               	movlw	0
  3654  0E73  00A6               	movwf	___fldiv@a
  3655  0E74                     l2017:
  3656  0E74  17A8               	bsf	___fldiv@a+2,7
  3657  0E75                     l2019:
  3658  0E75  01A9               	clrf	___fldiv@a+3
  3659  0E76  2E7F               	goto	l726
  3660  0E77                     l2021:
  3661  0E77  3000               	movlw	0
  3662  0E78  00A9               	movwf	___fldiv@a+3
  3663  0E79  3000               	movlw	0
  3664  0E7A  00A8               	movwf	___fldiv@a+2
  3665  0E7B  3000               	movlw	0
  3666  0E7C  00A7               	movwf	___fldiv@a+1
  3667  0E7D  3000               	movlw	0
  3668  0E7E  00A6               	movwf	___fldiv@a
  3669  0E7F                     l726:
  3670  0E7F  0829               	movf	___fldiv@a+3,w
  3671  0E80  0428               	iorwf	___fldiv@a+2,w
  3672  0E81  0427               	iorwf	___fldiv@a+1,w
  3673  0E82  0426               	iorwf	___fldiv@a,w
  3674  0E83  1D03               	skipz
  3675  0E84  2E86               	goto	u2221
  3676  0E85  2E87               	goto	u2220
  3677  0E86                     u2221:
  3678  0E86  2EA0               	goto	l2031
  3679  0E87                     u2220:
  3680  0E87                     l2023:
  3681  0E87  3000               	movlw	0
  3682  0E88  00AD               	movwf	___fldiv@b+3
  3683  0E89  3000               	movlw	0
  3684  0E8A  00AC               	movwf	___fldiv@b+2
  3685  0E8B  3000               	movlw	0
  3686  0E8C  00AB               	movwf	___fldiv@b+1
  3687  0E8D  3000               	movlw	0
  3688  0E8E  00AA               	movwf	___fldiv@b
  3689  0E8F  3080               	movlw	128
  3690  0E90  04AC               	iorwf	___fldiv@b+2,f
  3691  0E91  307F               	movlw	127
  3692  0E92  04AD               	iorwf	___fldiv@b+3,f
  3693  0E93                     l2025:
  3694  0E93  0837               	movf	___fldiv@sign,w
  3695  0E94  00AE               	movwf	??___fldiv
  3696  0E95  082E               	movf	??___fldiv,w
  3697  0E96  04AD               	iorwf	___fldiv@b+3,f
  3698  0E97                     l2027:
  3699  0E97  082D               	movf	___fldiv@b+3,w
  3700  0E98  00A9               	movwf	?___fldiv+3
  3701  0E99  082C               	movf	___fldiv@b+2,w
  3702  0E9A  00A8               	movwf	?___fldiv+2
  3703  0E9B  082B               	movf	___fldiv@b+1,w
  3704  0E9C  00A7               	movwf	?___fldiv+1
  3705  0E9D  082A               	movf	___fldiv@b,w
  3706  0E9E  00A6               	movwf	?___fldiv
  3707  0E9F  2FFF               	goto	l728
  3708  0EA0                     l2031:
  3709  0EA0  083E               	movf	___fldiv@bexp,w
  3710  0EA1  1D03               	btfss	3,2
  3711  0EA2  2EA4               	goto	u2231
  3712  0EA3  2EA5               	goto	u2230
  3713  0EA4                     u2231:
  3714  0EA4  2EAE               	goto	l2037
  3715  0EA5                     u2230:
  3716  0EA5                     l2033:
  3717  0EA5  3000               	movlw	0
  3718  0EA6  00A9               	movwf	?___fldiv+3
  3719  0EA7  3000               	movlw	0
  3720  0EA8  00A8               	movwf	?___fldiv+2
  3721  0EA9  3000               	movlw	0
  3722  0EAA  00A7               	movwf	?___fldiv+1
  3723  0EAB  3000               	movlw	0
  3724  0EAC  00A6               	movwf	?___fldiv
  3725  0EAD  2FFF               	goto	l728
  3726  0EAE                     l2037:
  3727  0EAE  083E               	movf	___fldiv@bexp,w
  3728  0EAF  00AE               	movwf	??___fldiv
  3729  0EB0  01AF               	clrf	??___fldiv+1
  3730  0EB1  082F               	movf	??___fldiv+1,w
  3731  0EB2  00B1               	movwf	??___fldiv+3
  3732  0EB3  083F               	movf	___fldiv@aexp,w
  3733  0EB4  022E               	subwf	??___fldiv,w
  3734  0EB5  00B0               	movwf	??___fldiv+2
  3735  0EB6  1C03               	skipc
  3736  0EB7  03B1               	decf	??___fldiv+3,f
  3737  0EB8  0830               	movf	??___fldiv+2,w
  3738  0EB9  3E7F               	addlw	127
  3739  0EBA  00B8               	movwf	___fldiv@new_exp
  3740  0EBB  0831               	movf	??___fldiv+3,w
  3741  0EBC  1803               	skipnc
  3742  0EBD  3E01               	addlw	1
  3743  0EBE  3E00               	addlw	0
  3744  0EBF  00B9               	movwf	___fldiv@new_exp+1
  3745  0EC0                     l2039:
  3746  0EC0  082D               	movf	___fldiv@b+3,w
  3747  0EC1  00B6               	movwf	___fldiv@rem+3
  3748  0EC2  082C               	movf	___fldiv@b+2,w
  3749  0EC3  00B5               	movwf	___fldiv@rem+2
  3750  0EC4  082B               	movf	___fldiv@b+1,w
  3751  0EC5  00B4               	movwf	___fldiv@rem+1
  3752  0EC6  082A               	movf	___fldiv@b,w
  3753  0EC7  00B3               	movwf	___fldiv@rem
  3754  0EC8                     l2041:
  3755  0EC8  3000               	movlw	0
  3756  0EC9  00AD               	movwf	___fldiv@b+3
  3757  0ECA  3000               	movlw	0
  3758  0ECB  00AC               	movwf	___fldiv@b+2
  3759  0ECC  3000               	movlw	0
  3760  0ECD  00AB               	movwf	___fldiv@b+1
  3761  0ECE  3000               	movlw	0
  3762  0ECF  00AA               	movwf	___fldiv@b
  3763  0ED0                     l2043:
  3764  0ED0  3000               	movlw	0
  3765  0ED1  00BD               	movwf	___fldiv@grs+3
  3766  0ED2  3000               	movlw	0
  3767  0ED3  00BC               	movwf	___fldiv@grs+2
  3768  0ED4  3000               	movlw	0
  3769  0ED5  00BB               	movwf	___fldiv@grs+1
  3770  0ED6  3000               	movlw	0
  3771  0ED7  00BA               	movwf	___fldiv@grs
  3772  0ED8                     l2045:
  3773  0ED8  01BF               	clrf	___fldiv@aexp
  3774  0ED9  2F24               	goto	l2065
  3775  0EDA                     l2047:
  3776  0EDA  083F               	movf	___fldiv@aexp,w
  3777  0EDB  1903               	btfsc	3,2
  3778  0EDC  2EDE               	goto	u2241
  3779  0EDD  2EDF               	goto	u2240
  3780  0EDE                     u2241:
  3781  0EDE  2EFF               	goto	l2057
  3782  0EDF                     u2240:
  3783  0EDF                     l2049:
  3784  0EDF  3001               	movlw	1
  3785  0EE0  00AE               	movwf	??___fldiv
  3786  0EE1                     u2255:
  3787  0EE1  1003               	clrc
  3788  0EE2  0DB3               	rlf	___fldiv@rem,f
  3789  0EE3  0DB4               	rlf	___fldiv@rem+1,f
  3790  0EE4  0DB5               	rlf	___fldiv@rem+2,f
  3791  0EE5  0DB6               	rlf	___fldiv@rem+3,f
  3792  0EE6  0BAE               	decfsz	??___fldiv,f
  3793  0EE7  2EE1               	goto	u2255
  3794  0EE8  3001               	movlw	1
  3795  0EE9  00AE               	movwf	??___fldiv
  3796  0EEA                     u2265:
  3797  0EEA  1003               	clrc
  3798  0EEB  0DAA               	rlf	___fldiv@b,f
  3799  0EEC  0DAB               	rlf	___fldiv@b+1,f
  3800  0EED  0DAC               	rlf	___fldiv@b+2,f
  3801  0EEE  0DAD               	rlf	___fldiv@b+3,f
  3802  0EEF  0BAE               	decfsz	??___fldiv,f
  3803  0EF0  2EEA               	goto	u2265
  3804  0EF1                     l2051:
  3805  0EF1  1FBD               	btfss	___fldiv@grs+3,7
  3806  0EF2  2EF4               	goto	u2271
  3807  0EF3  2EF5               	goto	u2270
  3808  0EF4                     u2271:
  3809  0EF4  2EF6               	goto	l2055
  3810  0EF5                     u2270:
  3811  0EF5                     l2053:
  3812  0EF5  142A               	bsf	___fldiv@b,0
  3813  0EF6                     l2055:
  3814  0EF6  3001               	movlw	1
  3815  0EF7  00AE               	movwf	??___fldiv
  3816  0EF8                     u2285:
  3817  0EF8  1003               	clrc
  3818  0EF9  0DBA               	rlf	___fldiv@grs,f
  3819  0EFA  0DBB               	rlf	___fldiv@grs+1,f
  3820  0EFB  0DBC               	rlf	___fldiv@grs+2,f
  3821  0EFC  0DBD               	rlf	___fldiv@grs+3,f
  3822  0EFD  0BAE               	decfsz	??___fldiv,f
  3823  0EFE  2EF8               	goto	u2285
  3824  0EFF                     l2057:
  3825  0EFF  0829               	movf	___fldiv@a+3,w
  3826  0F00  0236               	subwf	___fldiv@rem+3,w
  3827  0F01  1D03               	skipz
  3828  0F02  2F0D               	goto	u2295
  3829  0F03  0828               	movf	___fldiv@a+2,w
  3830  0F04  0235               	subwf	___fldiv@rem+2,w
  3831  0F05  1D03               	skipz
  3832  0F06  2F0D               	goto	u2295
  3833  0F07  0827               	movf	___fldiv@a+1,w
  3834  0F08  0234               	subwf	___fldiv@rem+1,w
  3835  0F09  1D03               	skipz
  3836  0F0A  2F0D               	goto	u2295
  3837  0F0B  0826               	movf	___fldiv@a,w
  3838  0F0C  0233               	subwf	___fldiv@rem,w
  3839  0F0D                     u2295:
  3840  0F0D  1C03               	skipc
  3841  0F0E  2F10               	goto	u2291
  3842  0F0F  2F11               	goto	u2290
  3843  0F10                     u2291:
  3844  0F10  2F20               	goto	l2063
  3845  0F11                     u2290:
  3846  0F11                     l2059:
  3847  0F11  173D               	bsf	___fldiv@grs+3,6
  3848  0F12                     l2061:
  3849  0F12  0826               	movf	___fldiv@a,w
  3850  0F13  02B3               	subwf	___fldiv@rem,f
  3851  0F14  0827               	movf	___fldiv@a+1,w
  3852  0F15  1C03               	skipc
  3853  0F16  0F27               	incfsz	___fldiv@a+1,w
  3854  0F17  02B4               	subwf	___fldiv@rem+1,f
  3855  0F18  0828               	movf	___fldiv@a+2,w
  3856  0F19  1C03               	skipc
  3857  0F1A  0F28               	incfsz	___fldiv@a+2,w
  3858  0F1B  02B5               	subwf	___fldiv@rem+2,f
  3859  0F1C  0829               	movf	___fldiv@a+3,w
  3860  0F1D  1C03               	skipc
  3861  0F1E  0F29               	incfsz	___fldiv@a+3,w
  3862  0F1F  02B6               	subwf	___fldiv@rem+3,f
  3863  0F20                     l2063:
  3864  0F20  3001               	movlw	1
  3865  0F21  00AE               	movwf	??___fldiv
  3866  0F22  082E               	movf	??___fldiv,w
  3867  0F23  07BF               	addwf	___fldiv@aexp,f
  3868  0F24                     l2065:
  3869  0F24  301A               	movlw	26
  3870  0F25  023F               	subwf	___fldiv@aexp,w
  3871  0F26  1C03               	skipc
  3872  0F27  2F29               	goto	u2301
  3873  0F28  2F2A               	goto	u2300
  3874  0F29                     u2301:
  3875  0F29  2EDA               	goto	l2047
  3876  0F2A                     u2300:
  3877  0F2A                     l2067:
  3878  0F2A  0836               	movf	___fldiv@rem+3,w
  3879  0F2B  0435               	iorwf	___fldiv@rem+2,w
  3880  0F2C  0434               	iorwf	___fldiv@rem+1,w
  3881  0F2D  0433               	iorwf	___fldiv@rem,w
  3882  0F2E  1903               	skipnz
  3883  0F2F  2F31               	goto	u2311
  3884  0F30  2F32               	goto	u2310
  3885  0F31                     u2311:
  3886  0F31  2F51               	goto	l2081
  3887  0F32                     u2310:
  3888  0F32                     l2069:
  3889  0F32  143A               	bsf	___fldiv@grs,0
  3890  0F33  2F51               	goto	l2081
  3891  0F34                     l2071:
  3892  0F34  3001               	movlw	1
  3893  0F35  00AE               	movwf	??___fldiv
  3894  0F36                     u2325:
  3895  0F36  1003               	clrc
  3896  0F37  0DAA               	rlf	___fldiv@b,f
  3897  0F38  0DAB               	rlf	___fldiv@b+1,f
  3898  0F39  0DAC               	rlf	___fldiv@b+2,f
  3899  0F3A  0DAD               	rlf	___fldiv@b+3,f
  3900  0F3B  0BAE               	decfsz	??___fldiv,f
  3901  0F3C  2F36               	goto	u2325
  3902  0F3D                     l2073:
  3903  0F3D  1FBD               	btfss	___fldiv@grs+3,7
  3904  0F3E  2F40               	goto	u2331
  3905  0F3F  2F41               	goto	u2330
  3906  0F40                     u2331:
  3907  0F40  2F42               	goto	l2077
  3908  0F41                     u2330:
  3909  0F41                     l2075:
  3910  0F41  142A               	bsf	___fldiv@b,0
  3911  0F42                     l2077:
  3912  0F42  3001               	movlw	1
  3913  0F43  00AE               	movwf	??___fldiv
  3914  0F44                     u2345:
  3915  0F44  1003               	clrc
  3916  0F45  0DBA               	rlf	___fldiv@grs,f
  3917  0F46  0DBB               	rlf	___fldiv@grs+1,f
  3918  0F47  0DBC               	rlf	___fldiv@grs+2,f
  3919  0F48  0DBD               	rlf	___fldiv@grs+3,f
  3920  0F49  0BAE               	decfsz	??___fldiv,f
  3921  0F4A  2F44               	goto	u2345
  3922  0F4B                     l2079:
  3923  0F4B  30FF               	movlw	255
  3924  0F4C  07B8               	addwf	___fldiv@new_exp,f
  3925  0F4D  1803               	skipnc
  3926  0F4E  0AB9               	incf	___fldiv@new_exp+1,f
  3927  0F4F  30FF               	movlw	255
  3928  0F50  07B9               	addwf	___fldiv@new_exp+1,f
  3929  0F51                     l2081:
  3930  0F51  1FAC               	btfss	___fldiv@b+2,7
  3931  0F52  2F54               	goto	u2351
  3932  0F53  2F55               	goto	u2350
  3933  0F54                     u2351:
  3934  0F54  2F34               	goto	l2071
  3935  0F55                     u2350:
  3936  0F55                     l2083:
  3937  0F55  01BF               	clrf	___fldiv@aexp
  3938  0F56                     l2085:
  3939  0F56  1FBD               	btfss	___fldiv@grs+3,7
  3940  0F57  2F59               	goto	u2361
  3941  0F58  2F5A               	goto	u2360
  3942  0F59                     u2361:
  3943  0F59  2F76               	goto	l2093
  3944  0F5A                     u2360:
  3945  0F5A                     l2087:
  3946  0F5A  30FF               	movlw	255
  3947  0F5B  053A               	andwf	___fldiv@grs,w
  3948  0F5C  00AE               	movwf	??___fldiv
  3949  0F5D  30FF               	movlw	255
  3950  0F5E  053B               	andwf	___fldiv@grs+1,w
  3951  0F5F  00AF               	movwf	??___fldiv+1
  3952  0F60  30FF               	movlw	255
  3953  0F61  053C               	andwf	___fldiv@grs+2,w
  3954  0F62  00B0               	movwf	??___fldiv+2
  3955  0F63  307F               	movlw	127
  3956  0F64  053D               	andwf	___fldiv@grs+3,w
  3957  0F65  00B1               	movwf	??___fldiv+3
  3958  0F66  0831               	movf	??___fldiv+3,w
  3959  0F67  0430               	iorwf	??___fldiv+2,w
  3960  0F68  042F               	iorwf	??___fldiv+1,w
  3961  0F69  042E               	iorwf	??___fldiv,w
  3962  0F6A  1903               	skipnz
  3963  0F6B  2F6D               	goto	u2371
  3964  0F6C  2F6E               	goto	u2370
  3965  0F6D                     u2371:
  3966  0F6D  2F71               	goto	l742
  3967  0F6E                     u2370:
  3968  0F6E                     l2089:
  3969  0F6E  01BF               	clrf	___fldiv@aexp
  3970  0F6F  0ABF               	incf	___fldiv@aexp,f
  3971  0F70  2F76               	goto	l2093
  3972  0F71                     l742:
  3973  0F71  1C2A               	btfss	___fldiv@b,0
  3974  0F72  2F74               	goto	u2381
  3975  0F73  2F75               	goto	u2380
  3976  0F74                     u2381:
  3977  0F74  2F76               	goto	l2093
  3978  0F75                     u2380:
  3979  0F75  2F6E               	goto	l2089
  3980  0F76                     l2093:
  3981  0F76  083F               	movf	___fldiv@aexp,w
  3982  0F77  1903               	btfsc	3,2
  3983  0F78  2F7A               	goto	u2391
  3984  0F79  2F7B               	goto	u2390
  3985  0F7A                     u2391:
  3986  0F7A  2FAC               	goto	l2103
  3987  0F7B                     u2390:
  3988  0F7B                     l2095:
  3989  0F7B  3001               	movlw	1
  3990  0F7C  07AA               	addwf	___fldiv@b,f
  3991  0F7D  3000               	movlw	0
  3992  0F7E  1803               	skipnc
  3993  0F7F  3001               	movlw	1
  3994  0F80  07AB               	addwf	___fldiv@b+1,f
  3995  0F81  3000               	movlw	0
  3996  0F82  1803               	skipnc
  3997  0F83  3001               	movlw	1
  3998  0F84  07AC               	addwf	___fldiv@b+2,f
  3999  0F85  3000               	movlw	0
  4000  0F86  1803               	skipnc
  4001  0F87  3001               	movlw	1
  4002  0F88  07AD               	addwf	___fldiv@b+3,f
  4003  0F89                     l2097:
  4004  0F89  1C2D               	btfss	___fldiv@b+3,0
  4005  0F8A  2F8C               	goto	u2401
  4006  0F8B  2F8D               	goto	u2400
  4007  0F8C                     u2401:
  4008  0F8C  2FAC               	goto	l2103
  4009  0F8D                     u2400:
  4010  0F8D                     l2099:
  4011  0F8D  082A               	movf	___fldiv@b,w
  4012  0F8E  00AE               	movwf	??___fldiv
  4013  0F8F  082B               	movf	___fldiv@b+1,w
  4014  0F90  00AF               	movwf	??___fldiv+1
  4015  0F91  082C               	movf	___fldiv@b+2,w
  4016  0F92  00B0               	movwf	??___fldiv+2
  4017  0F93  082D               	movf	___fldiv@b+3,w
  4018  0F94  00B1               	movwf	??___fldiv+3
  4019  0F95  3001               	movlw	1
  4020  0F96  00B2               	movwf	??___fldiv+4
  4021  0F97                     u2415:
  4022  0F97  0D31               	rlf	??___fldiv+3,w
  4023  0F98  0CB1               	rrf	??___fldiv+3,f
  4024  0F99  0CB0               	rrf	??___fldiv+2,f
  4025  0F9A  0CAF               	rrf	??___fldiv+1,f
  4026  0F9B  0CAE               	rrf	??___fldiv,f
  4027  0F9C                     u2410:
  4028  0F9C  0BB2               	decfsz	??___fldiv+4,f
  4029  0F9D  2F97               	goto	u2415
  4030  0F9E  0831               	movf	??___fldiv+3,w
  4031  0F9F  00AD               	movwf	___fldiv@b+3
  4032  0FA0  0830               	movf	??___fldiv+2,w
  4033  0FA1  00AC               	movwf	___fldiv@b+2
  4034  0FA2  082F               	movf	??___fldiv+1,w
  4035  0FA3  00AB               	movwf	___fldiv@b+1
  4036  0FA4  082E               	movf	??___fldiv,w
  4037  0FA5  00AA               	movwf	___fldiv@b
  4038  0FA6                     l2101:
  4039  0FA6  3001               	movlw	1
  4040  0FA7  07B8               	addwf	___fldiv@new_exp,f
  4041  0FA8  1803               	skipnc
  4042  0FA9  0AB9               	incf	___fldiv@new_exp+1,f
  4043  0FAA  3000               	movlw	0
  4044  0FAB  07B9               	addwf	___fldiv@new_exp+1,f
  4045  0FAC                     l2103:
  4046  0FAC  0839               	movf	___fldiv@new_exp+1,w
  4047  0FAD  3A80               	xorlw	128
  4048  0FAE  00FF               	movwf	btemp+1
  4049  0FAF  3080               	movlw	128
  4050  0FB0  027F               	subwf	btemp+1,w
  4051  0FB1  1D03               	skipz
  4052  0FB2  2FB5               	goto	u2425
  4053  0FB3  30FF               	movlw	255
  4054  0FB4  0238               	subwf	___fldiv@new_exp,w
  4055  0FB5                     u2425:
  4056  0FB5  1C03               	skipc
  4057  0FB6  2FB8               	goto	u2421
  4058  0FB7  2FB9               	goto	u2420
  4059  0FB8                     u2421:
  4060  0FB8  2FC7               	goto	l2107
  4061  0FB9                     u2420:
  4062  0FB9                     l2105:
  4063  0FB9  30FF               	movlw	255
  4064  0FBA  1283               	bcf	3,5	;RP0=0, select bank0
  4065  0FBB  1303               	bcf	3,6	;RP1=0, select bank0
  4066  0FBC  00B8               	movwf	___fldiv@new_exp
  4067  0FBD  3000               	movlw	0
  4068  0FBE  00B9               	movwf	___fldiv@new_exp+1
  4069  0FBF  3000               	movlw	0
  4070  0FC0  00AD               	movwf	___fldiv@b+3
  4071  0FC1  3000               	movlw	0
  4072  0FC2  00AC               	movwf	___fldiv@b+2
  4073  0FC3  3000               	movlw	0
  4074  0FC4  00AB               	movwf	___fldiv@b+1
  4075  0FC5  3000               	movlw	0
  4076  0FC6  00AA               	movwf	___fldiv@b
  4077  0FC7                     l2107:
  4078  0FC7  1283               	bcf	3,5	;RP0=0, select bank0
  4079  0FC8  1303               	bcf	3,6	;RP1=0, select bank0
  4080  0FC9  0839               	movf	___fldiv@new_exp+1,w
  4081  0FCA  3A80               	xorlw	128
  4082  0FCB  00FF               	movwf	btemp+1
  4083  0FCC  3080               	movlw	128
  4084  0FCD  027F               	subwf	btemp+1,w
  4085  0FCE  1D03               	skipz
  4086  0FCF  2FD2               	goto	u2435
  4087  0FD0  3001               	movlw	1
  4088  0FD1  0238               	subwf	___fldiv@new_exp,w
  4089  0FD2                     u2435:
  4090  0FD2  1803               	skipnc
  4091  0FD3  2FD5               	goto	u2431
  4092  0FD4  2FD6               	goto	u2430
  4093  0FD5                     u2431:
  4094  0FD5  2FE3               	goto	l748
  4095  0FD6                     u2430:
  4096  0FD6                     l2109:
  4097  0FD6  1283               	bcf	3,5	;RP0=0, select bank0
  4098  0FD7  1303               	bcf	3,6	;RP1=0, select bank0
  4099  0FD8  01B8               	clrf	___fldiv@new_exp
  4100  0FD9  01B9               	clrf	___fldiv@new_exp+1
  4101  0FDA                     l2111:
  4102  0FDA  3000               	movlw	0
  4103  0FDB  00AD               	movwf	___fldiv@b+3
  4104  0FDC  3000               	movlw	0
  4105  0FDD  00AC               	movwf	___fldiv@b+2
  4106  0FDE  3000               	movlw	0
  4107  0FDF  00AB               	movwf	___fldiv@b+1
  4108  0FE0  3000               	movlw	0
  4109  0FE1  00AA               	movwf	___fldiv@b
  4110  0FE2                     l2113:
  4111  0FE2  01B7               	clrf	___fldiv@sign
  4112  0FE3                     l748:
  4113  0FE3  1283               	bcf	3,5	;RP0=0, select bank0
  4114  0FE4  1303               	bcf	3,6	;RP1=0, select bank0
  4115  0FE5  0838               	movf	___fldiv@new_exp,w
  4116  0FE6  00AE               	movwf	??___fldiv
  4117  0FE7  082E               	movf	??___fldiv,w
  4118  0FE8  00BE               	movwf	___fldiv@bexp
  4119  0FE9                     l2115:
  4120  0FE9  1C3E               	btfss	___fldiv@bexp,0
  4121  0FEA  2FEC               	goto	u2441
  4122  0FEB  2FED               	goto	u2440
  4123  0FEC                     u2441:
  4124  0FEC  2FEF               	goto	l2119
  4125  0FED                     u2440:
  4126  0FED                     l2117:
  4127  0FED  17AC               	bsf	___fldiv@b+2,7
  4128  0FEE  2FF3               	goto	l750
  4129  0FEF                     l2119:
  4130  0FEF  307F               	movlw	127
  4131  0FF0  00AE               	movwf	??___fldiv
  4132  0FF1  082E               	movf	??___fldiv,w
  4133  0FF2  05AC               	andwf	___fldiv@b+2,f
  4134  0FF3                     l750:
  4135  0FF3  083E               	movf	___fldiv@bexp,w
  4136  0FF4  00AE               	movwf	??___fldiv
  4137  0FF5  1003               	clrc
  4138  0FF6  0C2E               	rrf	??___fldiv,w
  4139  0FF7  00AF               	movwf	??___fldiv+1
  4140  0FF8  082F               	movf	??___fldiv+1,w
  4141  0FF9  00AD               	movwf	___fldiv@b+3
  4142  0FFA  0837               	movf	___fldiv@sign,w
  4143  0FFB  00AE               	movwf	??___fldiv
  4144  0FFC  082E               	movf	??___fldiv,w
  4145  0FFD  04AD               	iorwf	___fldiv@b+3,f
  4146  0FFE  2E97               	goto	l2027
  4147  0FFF                     l728:
  4148  0FFF  0008               	return
  4149  1000                     __end_of___fldiv:
  4150                           
  4151                           	psect	text14
  4152  048B                     __ptext14:	
  4153 ;; *************** function ___fladd *****************
  4154 ;; Defined at:
  4155 ;;		line 10 in file "C:\Program Files\Microchip\xc8\v2.31\pic\sources\c90\common\sprcadd.c"
  4156 ;; Parameters:    Size  Location     Type
  4157 ;;  b               4   32[BANK0 ] unsigned char 
  4158 ;;  a               4   36[BANK0 ] unsigned char 
  4159 ;; Auto vars:     Size  Location     Type
  4160 ;;  grs             1   51[BANK0 ] unsigned char 
  4161 ;;  bexp            1   50[BANK0 ] unsigned char 
  4162 ;;  aexp            1   49[BANK0 ] unsigned char 
  4163 ;;  signs           1   48[BANK0 ] unsigned char 
  4164 ;; Return value:  Size  Location     Type
  4165 ;;                  4   32[BANK0 ] unsigned char 
  4166 ;; Registers used:
  4167 ;;		wreg, status,2, status,0, btemp+1
  4168 ;; Tracked objects:
  4169 ;;		On entry : 0/0
  4170 ;;		On exit  : 0/0
  4171 ;;		Unchanged: 0/0
  4172 ;; Data sizes:     COMMON   BANK0   BANK1   BANK3   BANK2
  4173 ;;      Params:         0       8       0       0       0
  4174 ;;      Locals:         0       4       0       0       0
  4175 ;;      Temps:          0       8       0       0       0
  4176 ;;      Totals:         0      20       0       0       0
  4177 ;;Total ram usage:       20 bytes
  4178 ;; Hardware stack levels used:    1
  4179 ;; Hardware stack levels required when called:    2
  4180 ;; This function calls:
  4181 ;;		Nothing
  4182 ;; This function is called by:
  4183 ;;		_USART_Init
  4184 ;; This function uses a non-reentrant model
  4185 ;;
  4186                           
  4187                           
  4188                           ;psect for function ___fladd
  4189  048B                     ___fladd:
  4190  048B                     l1789:	
  4191                           ;incstack = 0
  4192                           ; Regs used in ___fladd: [wreg+status,2+status,0+btemp+1]
  4193                           
  4194  048B  1283               	bcf	3,5	;RP0=0, select bank0
  4195  048C  1303               	bcf	3,6	;RP1=0, select bank0
  4196  048D  0843               	movf	___fladd@b+3,w
  4197  048E  3980               	andlw	128
  4198  048F  00C8               	movwf	??___fladd
  4199  0490  0848               	movf	??___fladd,w
  4200  0491  00D0               	movwf	___fladd@signs
  4201  0492                     l1791:
  4202  0492  0843               	movf	___fladd@b+3,w
  4203  0493  00C8               	movwf	??___fladd
  4204  0494  0748               	addwf	??___fladd,w
  4205  0495  00C9               	movwf	??___fladd+1
  4206  0496  0849               	movf	??___fladd+1,w
  4207  0497  00D2               	movwf	___fladd@bexp
  4208  0498                     l1793:
  4209  0498  1FC2               	btfss	___fladd@b+2,7
  4210  0499  2C9B               	goto	u1701
  4211  049A  2C9C               	goto	u1700
  4212  049B                     u1701:
  4213  049B  2C9D               	goto	l1797
  4214  049C                     u1700:
  4215  049C                     l1795:
  4216  049C  1452               	bsf	___fladd@bexp,0
  4217  049D                     l1797:
  4218  049D  0852               	movf	___fladd@bexp,w
  4219  049E  1903               	btfsc	3,2
  4220  049F  2CA1               	goto	u1711
  4221  04A0  2CA2               	goto	u1710
  4222  04A1                     u1711:
  4223  04A1  2CB2               	goto	l1807
  4224  04A2                     u1710:
  4225  04A2                     l1799:
  4226  04A2  0A52               	incf	___fladd@bexp,w
  4227  04A3  1D03               	btfss	3,2
  4228  04A4  2CA6               	goto	u1721
  4229  04A5  2CA7               	goto	u1720
  4230  04A6                     u1721:
  4231  04A6  2CAF               	goto	l1803
  4232  04A7                     u1720:
  4233  04A7                     l1801:
  4234  04A7  3000               	movlw	0
  4235  04A8  00C3               	movwf	___fladd@b+3
  4236  04A9  3000               	movlw	0
  4237  04AA  00C2               	movwf	___fladd@b+2
  4238  04AB  3000               	movlw	0
  4239  04AC  00C1               	movwf	___fladd@b+1
  4240  04AD  3000               	movlw	0
  4241  04AE  00C0               	movwf	___fladd@b
  4242  04AF                     l1803:
  4243  04AF  17C2               	bsf	___fladd@b+2,7
  4244  04B0                     l1805:
  4245  04B0  01C3               	clrf	___fladd@b+3
  4246  04B1  2CBA               	goto	l1809
  4247  04B2                     l1807:
  4248  04B2  3000               	movlw	0
  4249  04B3  00C3               	movwf	___fladd@b+3
  4250  04B4  3000               	movlw	0
  4251  04B5  00C2               	movwf	___fladd@b+2
  4252  04B6  3000               	movlw	0
  4253  04B7  00C1               	movwf	___fladd@b+1
  4254  04B8  3000               	movlw	0
  4255  04B9  00C0               	movwf	___fladd@b
  4256  04BA                     l1809:
  4257  04BA  0847               	movf	___fladd@a+3,w
  4258  04BB  3980               	andlw	128
  4259  04BC  00C8               	movwf	??___fladd
  4260  04BD  0848               	movf	??___fladd,w
  4261  04BE  00D1               	movwf	___fladd@aexp
  4262  04BF                     l1811:
  4263  04BF  0851               	movf	___fladd@aexp,w
  4264  04C0  0650               	xorwf	___fladd@signs,w
  4265  04C1  1903               	skipnz
  4266  04C2  2CC4               	goto	u1731
  4267  04C3  2CC5               	goto	u1730
  4268  04C4                     u1731:
  4269  04C4  2CC6               	goto	l1815
  4270  04C5                     u1730:
  4271  04C5                     l1813:
  4272  04C5  1750               	bsf	___fladd@signs,6
  4273  04C6                     l1815:
  4274  04C6  0847               	movf	___fladd@a+3,w
  4275  04C7  00C8               	movwf	??___fladd
  4276  04C8  0748               	addwf	??___fladd,w
  4277  04C9  00C9               	movwf	??___fladd+1
  4278  04CA  0849               	movf	??___fladd+1,w
  4279  04CB  00D1               	movwf	___fladd@aexp
  4280  04CC                     l1817:
  4281  04CC  1FC6               	btfss	___fladd@a+2,7
  4282  04CD  2CCF               	goto	u1741
  4283  04CE  2CD0               	goto	u1740
  4284  04CF                     u1741:
  4285  04CF  2CD1               	goto	l1821
  4286  04D0                     u1740:
  4287  04D0                     l1819:
  4288  04D0  1451               	bsf	___fladd@aexp,0
  4289  04D1                     l1821:
  4290  04D1  0851               	movf	___fladd@aexp,w
  4291  04D2  1903               	btfsc	3,2
  4292  04D3  2CD5               	goto	u1751
  4293  04D4  2CD6               	goto	u1750
  4294  04D5                     u1751:
  4295  04D5  2CE6               	goto	l1831
  4296  04D6                     u1750:
  4297  04D6                     l1823:
  4298  04D6  0A51               	incf	___fladd@aexp,w
  4299  04D7  1D03               	btfss	3,2
  4300  04D8  2CDA               	goto	u1761
  4301  04D9  2CDB               	goto	u1760
  4302  04DA                     u1761:
  4303  04DA  2CE3               	goto	l1827
  4304  04DB                     u1760:
  4305  04DB                     l1825:
  4306  04DB  3000               	movlw	0
  4307  04DC  00C7               	movwf	___fladd@a+3
  4308  04DD  3000               	movlw	0
  4309  04DE  00C6               	movwf	___fladd@a+2
  4310  04DF  3000               	movlw	0
  4311  04E0  00C5               	movwf	___fladd@a+1
  4312  04E1  3000               	movlw	0
  4313  04E2  00C4               	movwf	___fladd@a
  4314  04E3                     l1827:
  4315  04E3  17C6               	bsf	___fladd@a+2,7
  4316  04E4                     l1829:
  4317  04E4  01C7               	clrf	___fladd@a+3
  4318  04E5  2CEE               	goto	l670
  4319  04E6                     l1831:
  4320  04E6  3000               	movlw	0
  4321  04E7  00C7               	movwf	___fladd@a+3
  4322  04E8  3000               	movlw	0
  4323  04E9  00C6               	movwf	___fladd@a+2
  4324  04EA  3000               	movlw	0
  4325  04EB  00C5               	movwf	___fladd@a+1
  4326  04EC  3000               	movlw	0
  4327  04ED  00C4               	movwf	___fladd@a
  4328  04EE                     l670:
  4329  04EE  0852               	movf	___fladd@bexp,w
  4330  04EF  0251               	subwf	___fladd@aexp,w
  4331  04F0  1803               	skipnc
  4332  04F1  2CF3               	goto	u1771
  4333  04F2  2CF4               	goto	u1770
  4334  04F3                     u1771:
  4335  04F3  2D38               	goto	l1867
  4336  04F4                     u1770:
  4337  04F4                     l1833:
  4338  04F4  1F50               	btfss	___fladd@signs,6
  4339  04F5  2CF7               	goto	u1781
  4340  04F6  2CF8               	goto	u1780
  4341  04F7                     u1781:
  4342  04F7  2CFC               	goto	l1837
  4343  04F8                     u1780:
  4344  04F8                     l1835:
  4345  04F8  3080               	movlw	128
  4346  04F9  00C8               	movwf	??___fladd
  4347  04FA  0848               	movf	??___fladd,w
  4348  04FB  06D0               	xorwf	___fladd@signs,f
  4349  04FC                     l1837:
  4350  04FC  0852               	movf	___fladd@bexp,w
  4351  04FD  00C8               	movwf	??___fladd
  4352  04FE  0848               	movf	??___fladd,w
  4353  04FF  00D3               	movwf	___fladd@grs
  4354  0500                     l1839:
  4355  0500  0851               	movf	___fladd@aexp,w
  4356  0501  00C8               	movwf	??___fladd
  4357  0502  0848               	movf	??___fladd,w
  4358  0503  00D2               	movwf	___fladd@bexp
  4359  0504                     l1841:
  4360  0504  0853               	movf	___fladd@grs,w
  4361  0505  00C8               	movwf	??___fladd
  4362  0506  0848               	movf	??___fladd,w
  4363  0507  00D1               	movwf	___fladd@aexp
  4364  0508                     l1843:
  4365  0508  0840               	movf	___fladd@b,w
  4366  0509  00C8               	movwf	??___fladd
  4367  050A  0848               	movf	??___fladd,w
  4368  050B  00D3               	movwf	___fladd@grs
  4369  050C                     l1845:
  4370  050C  0844               	movf	___fladd@a,w
  4371  050D  00C8               	movwf	??___fladd
  4372  050E  0848               	movf	??___fladd,w
  4373  050F  00C0               	movwf	___fladd@b
  4374  0510                     l1847:
  4375  0510  0853               	movf	___fladd@grs,w
  4376  0511  00C8               	movwf	??___fladd
  4377  0512  0848               	movf	??___fladd,w
  4378  0513  00C4               	movwf	___fladd@a
  4379  0514                     l1849:
  4380  0514  0841               	movf	___fladd@b+1,w
  4381  0515  00C8               	movwf	??___fladd
  4382  0516  0848               	movf	??___fladd,w
  4383  0517  00D3               	movwf	___fladd@grs
  4384  0518                     l1851:
  4385  0518  0845               	movf	___fladd@a+1,w
  4386  0519  00C8               	movwf	??___fladd
  4387  051A  0848               	movf	??___fladd,w
  4388  051B  00C1               	movwf	___fladd@b+1
  4389  051C                     l1853:
  4390  051C  0853               	movf	___fladd@grs,w
  4391  051D  00C8               	movwf	??___fladd
  4392  051E  0848               	movf	??___fladd,w
  4393  051F  00C5               	movwf	___fladd@a+1
  4394  0520                     l1855:
  4395  0520  0842               	movf	___fladd@b+2,w
  4396  0521  00C8               	movwf	??___fladd
  4397  0522  0848               	movf	??___fladd,w
  4398  0523  00D3               	movwf	___fladd@grs
  4399  0524                     l1857:
  4400  0524  0846               	movf	___fladd@a+2,w
  4401  0525  00C8               	movwf	??___fladd
  4402  0526  0848               	movf	??___fladd,w
  4403  0527  00C2               	movwf	___fladd@b+2
  4404  0528                     l1859:
  4405  0528  0853               	movf	___fladd@grs,w
  4406  0529  00C8               	movwf	??___fladd
  4407  052A  0848               	movf	??___fladd,w
  4408  052B  00C6               	movwf	___fladd@a+2
  4409  052C                     l1861:
  4410  052C  0843               	movf	___fladd@b+3,w
  4411  052D  00C8               	movwf	??___fladd
  4412  052E  0848               	movf	??___fladd,w
  4413  052F  00D3               	movwf	___fladd@grs
  4414  0530                     l1863:
  4415  0530  0847               	movf	___fladd@a+3,w
  4416  0531  00C8               	movwf	??___fladd
  4417  0532  0848               	movf	??___fladd,w
  4418  0533  00C3               	movwf	___fladd@b+3
  4419  0534                     l1865:
  4420  0534  0853               	movf	___fladd@grs,w
  4421  0535  00C8               	movwf	??___fladd
  4422  0536  0848               	movf	??___fladd,w
  4423  0537  00C7               	movwf	___fladd@a+3
  4424  0538                     l1867:
  4425  0538  01D3               	clrf	___fladd@grs
  4426  0539                     l1869:
  4427  0539  0851               	movf	___fladd@aexp,w
  4428  053A  00C8               	movwf	??___fladd
  4429  053B  01C9               	clrf	??___fladd+1
  4430  053C  0849               	movf	??___fladd+1,w
  4431  053D  00CB               	movwf	??___fladd+3
  4432  053E  0852               	movf	___fladd@bexp,w
  4433  053F  0248               	subwf	??___fladd,w
  4434  0540  00CA               	movwf	??___fladd+2
  4435  0541  1C03               	skipc
  4436  0542  03CB               	decf	??___fladd+3,f
  4437  0543  084B               	movf	??___fladd+3,w
  4438  0544  3A80               	xorlw	128
  4439  0545  00FF               	movwf	btemp+1
  4440  0546  3080               	movlw	128
  4441  0547  027F               	subwf	btemp+1,w
  4442  0548  1D03               	skipz
  4443  0549  2D4C               	goto	u1795
  4444  054A  301A               	movlw	26
  4445  054B  024A               	subwf	??___fladd+2,w
  4446  054C                     u1795:
  4447  054C  1C03               	skipc
  4448  054D  2D4F               	goto	u1791
  4449  054E  2D50               	goto	u1790
  4450  054F                     u1791:
  4451  054F  2D8D               	goto	l1885
  4452  0550                     u1790:
  4453  0550                     l1871:
  4454  0550  1283               	bcf	3,5	;RP0=0, select bank0
  4455  0551  1303               	bcf	3,6	;RP1=0, select bank0
  4456  0552  0843               	movf	___fladd@b+3,w
  4457  0553  0442               	iorwf	___fladd@b+2,w
  4458  0554  0441               	iorwf	___fladd@b+1,w
  4459  0555  0440               	iorwf	___fladd@b,w
  4460  0556  1D03               	skipz
  4461  0557  2D59               	goto	u1801
  4462  0558  2D5B               	goto	u1800
  4463  0559                     u1801:
  4464  0559  3001               	movlw	1
  4465  055A  2D5C               	goto	u1810
  4466  055B                     u1800:
  4467  055B  3000               	movlw	0
  4468  055C                     u1810:
  4469  055C  00C8               	movwf	??___fladd
  4470  055D  0848               	movf	??___fladd,w
  4471  055E  00D3               	movwf	___fladd@grs
  4472  055F  3000               	movlw	0
  4473  0560  00C3               	movwf	___fladd@b+3
  4474  0561  3000               	movlw	0
  4475  0562  00C2               	movwf	___fladd@b+2
  4476  0563  3000               	movlw	0
  4477  0564  00C1               	movwf	___fladd@b+1
  4478  0565  3000               	movlw	0
  4479  0566  00C0               	movwf	___fladd@b
  4480  0567  0851               	movf	___fladd@aexp,w
  4481  0568  00C8               	movwf	??___fladd
  4482  0569  0848               	movf	??___fladd,w
  4483  056A  00D2               	movwf	___fladd@bexp
  4484  056B  2D95               	goto	l674
  4485  056C                     l676:
  4486  056C  1C53               	btfss	___fladd@grs,0
  4487  056D  2D6F               	goto	u1821
  4488  056E  2D70               	goto	u1820
  4489  056F                     u1821:
  4490  056F  2D79               	goto	l1875
  4491  0570                     u1820:
  4492  0570                     l1873:
  4493  0570  0853               	movf	___fladd@grs,w
  4494  0571  00C8               	movwf	??___fladd
  4495  0572  1003               	clrc
  4496  0573  0C48               	rrf	??___fladd,w
  4497  0574  3801               	iorlw	1
  4498  0575  00C9               	movwf	??___fladd+1
  4499  0576  0849               	movf	??___fladd+1,w
  4500  0577  00D3               	movwf	___fladd@grs
  4501  0578  2D7B               	goto	l1877
  4502  0579                     l1875:
  4503  0579  1003               	clrc
  4504  057A  0CD3               	rrf	___fladd@grs,f
  4505  057B                     l1877:
  4506  057B  1C40               	btfss	___fladd@b,0
  4507  057C  2D7E               	goto	u1831
  4508  057D  2D7F               	goto	u1830
  4509  057E                     u1831:
  4510  057E  2D80               	goto	l1881
  4511  057F                     u1830:
  4512  057F                     l1879:
  4513  057F  17D3               	bsf	___fladd@grs,7
  4514  0580                     l1881:
  4515  0580  3001               	movlw	1
  4516  0581  00C8               	movwf	??___fladd
  4517  0582                     u1845:
  4518  0582  0D43               	rlf	___fladd@b+3,w
  4519  0583  0CC3               	rrf	___fladd@b+3,f
  4520  0584  0CC2               	rrf	___fladd@b+2,f
  4521  0585  0CC1               	rrf	___fladd@b+1,f
  4522  0586  0CC0               	rrf	___fladd@b,f
  4523  0587  0BC8               	decfsz	??___fladd& (0+127),f
  4524  0588  2D82               	goto	u1845
  4525  0589                     l1883:
  4526  0589  3001               	movlw	1
  4527  058A  00C8               	movwf	??___fladd
  4528  058B  0848               	movf	??___fladd,w
  4529  058C  07D2               	addwf	___fladd@bexp,f
  4530  058D                     l1885:
  4531  058D  1283               	bcf	3,5	;RP0=0, select bank0
  4532  058E  1303               	bcf	3,6	;RP1=0, select bank0
  4533  058F  0851               	movf	___fladd@aexp,w
  4534  0590  0252               	subwf	___fladd@bexp,w
  4535  0591  1C03               	skipc
  4536  0592  2D94               	goto	u1851
  4537  0593  2D95               	goto	u1850
  4538  0594                     u1851:
  4539  0594  2D6C               	goto	l676
  4540  0595                     u1850:
  4541  0595                     l674:
  4542  0595  1B50               	btfsc	___fladd@signs,6
  4543  0596  2D98               	goto	u1861
  4544  0597  2D99               	goto	u1860
  4545  0598                     u1861:
  4546  0598  2DE4               	goto	l1911
  4547  0599                     u1860:
  4548  0599                     l1887:
  4549  0599  0852               	movf	___fladd@bexp,w
  4550  059A  1D03               	btfss	3,2
  4551  059B  2D9D               	goto	u1871
  4552  059C  2D9E               	goto	u1870
  4553  059D                     u1871:
  4554  059D  2DA7               	goto	l1893
  4555  059E                     u1870:
  4556  059E                     l1889:
  4557  059E  3000               	movlw	0
  4558  059F  00C3               	movwf	?___fladd+3
  4559  05A0  3000               	movlw	0
  4560  05A1  00C2               	movwf	?___fladd+2
  4561  05A2  3000               	movlw	0
  4562  05A3  00C1               	movwf	?___fladd+1
  4563  05A4  3000               	movlw	0
  4564  05A5  00C0               	movwf	?___fladd
  4565  05A6  2F12               	goto	l683
  4566  05A7                     l1893:
  4567  05A7  0844               	movf	___fladd@a,w
  4568  05A8  07C0               	addwf	___fladd@b,f
  4569  05A9  0845               	movf	___fladd@a+1,w
  4570  05AA  1103               	clrz
  4571  05AB  1803               	skipnc
  4572  05AC  3E01               	addlw	1
  4573  05AD  1903               	skipnz
  4574  05AE  2DB0               	goto	u1881
  4575  05AF  07C1               	addwf	___fladd@b+1,f
  4576  05B0                     u1881:
  4577  05B0  0846               	movf	___fladd@a+2,w
  4578  05B1  1103               	clrz
  4579  05B2  1803               	skipnc
  4580  05B3  3E01               	addlw	1
  4581  05B4  1903               	skipnz
  4582  05B5  2DB7               	goto	u1882
  4583  05B6  07C2               	addwf	___fladd@b+2,f
  4584  05B7                     u1882:
  4585  05B7  0847               	movf	___fladd@a+3,w
  4586  05B8  1103               	clrz
  4587  05B9  1803               	skipnc
  4588  05BA  3E01               	addlw	1
  4589  05BB  1903               	skipnz
  4590  05BC  2DBE               	goto	u1883
  4591  05BD  07C3               	addwf	___fladd@b+3,f
  4592  05BE                     u1883:
  4593  05BE                     l1895:
  4594  05BE  1C43               	btfss	___fladd@b+3,0
  4595  05BF  2DC1               	goto	u1891
  4596  05C0  2DC2               	goto	u1890
  4597  05C1                     u1891:
  4598  05C1  2E98               	goto	l1945
  4599  05C2                     u1890:
  4600  05C2                     l1897:
  4601  05C2  1C53               	btfss	___fladd@grs,0
  4602  05C3  2DC5               	goto	u1901
  4603  05C4  2DC6               	goto	u1900
  4604  05C5                     u1901:
  4605  05C5  2DCF               	goto	l1901
  4606  05C6                     u1900:
  4607  05C6                     l1899:
  4608  05C6  0853               	movf	___fladd@grs,w
  4609  05C7  00C8               	movwf	??___fladd
  4610  05C8  1003               	clrc
  4611  05C9  0C48               	rrf	??___fladd,w
  4612  05CA  3801               	iorlw	1
  4613  05CB  00C9               	movwf	??___fladd+1
  4614  05CC  0849               	movf	??___fladd+1,w
  4615  05CD  00D3               	movwf	___fladd@grs
  4616  05CE  2DD1               	goto	l1903
  4617  05CF                     l1901:
  4618  05CF  1003               	clrc
  4619  05D0  0CD3               	rrf	___fladd@grs,f
  4620  05D1                     l1903:
  4621  05D1  1C40               	btfss	___fladd@b,0
  4622  05D2  2DD4               	goto	u1911
  4623  05D3  2DD5               	goto	u1910
  4624  05D4                     u1911:
  4625  05D4  2DD6               	goto	l1907
  4626  05D5                     u1910:
  4627  05D5                     l1905:
  4628  05D5  17D3               	bsf	___fladd@grs,7
  4629  05D6                     l1907:
  4630  05D6  3001               	movlw	1
  4631  05D7  00C8               	movwf	??___fladd
  4632  05D8                     u1925:
  4633  05D8  0D43               	rlf	___fladd@b+3,w
  4634  05D9  0CC3               	rrf	___fladd@b+3,f
  4635  05DA  0CC2               	rrf	___fladd@b+2,f
  4636  05DB  0CC1               	rrf	___fladd@b+1,f
  4637  05DC  0CC0               	rrf	___fladd@b,f
  4638  05DD  0BC8               	decfsz	??___fladd& (0+127),f
  4639  05DE  2DD8               	goto	u1925
  4640  05DF                     l1909:
  4641  05DF  3001               	movlw	1
  4642  05E0  00C8               	movwf	??___fladd
  4643  05E1  0848               	movf	??___fladd,w
  4644  05E2  07D2               	addwf	___fladd@bexp,f
  4645  05E3  2E98               	goto	l1945
  4646  05E4                     l1911:
  4647  05E4  0843               	movf	___fladd@b+3,w
  4648  05E5  3A80               	xorlw	128
  4649  05E6  00FF               	movwf	btemp+1
  4650  05E7  0847               	movf	___fladd@a+3,w
  4651  05E8  3A80               	xorlw	128
  4652  05E9  027F               	subwf	btemp+1,w
  4653  05EA  1D03               	skipz
  4654  05EB  2DF6               	goto	u1933
  4655  05EC  0846               	movf	___fladd@a+2,w
  4656  05ED  0242               	subwf	___fladd@b+2,w
  4657  05EE  1D03               	skipz
  4658  05EF  2DF6               	goto	u1933
  4659  05F0  0845               	movf	___fladd@a+1,w
  4660  05F1  0241               	subwf	___fladd@b+1,w
  4661  05F2  1D03               	skipz
  4662  05F3  2DF6               	goto	u1933
  4663  05F4  0844               	movf	___fladd@a,w
  4664  05F5  0240               	subwf	___fladd@b,w
  4665  05F6                     u1933:
  4666  05F6  1803               	skipnc
  4667  05F7  2DF9               	goto	u1931
  4668  05F8  2DFA               	goto	u1930
  4669  05F9                     u1931:
  4670  05F9  2E52               	goto	l1921
  4671  05FA                     u1930:
  4672  05FA                     l1913:
  4673  05FA  30FF               	movlw	255
  4674  05FB  00C8               	movwf	??___fladd
  4675  05FC  30FF               	movlw	255
  4676  05FD  00C9               	movwf	??___fladd+1
  4677  05FE  30FF               	movlw	255
  4678  05FF  00CA               	movwf	??___fladd+2
  4679  0600  30FF               	movlw	255
  4680  0601  00CB               	movwf	??___fladd+3
  4681  0602  0844               	movf	___fladd@a,w
  4682  0603  00CC               	movwf	??___fladd+4
  4683  0604  0845               	movf	___fladd@a+1,w
  4684  0605  00CD               	movwf	??___fladd+5
  4685  0606  0846               	movf	___fladd@a+2,w
  4686  0607  00CE               	movwf	??___fladd+6
  4687  0608  0847               	movf	___fladd@a+3,w
  4688  0609  00CF               	movwf	??___fladd+7
  4689  060A  0840               	movf	___fladd@b,w
  4690  060B  02CC               	subwf	??___fladd+4,f
  4691  060C  0841               	movf	___fladd@b+1,w
  4692  060D  1C03               	skipc
  4693  060E  0F41               	incfsz	___fladd@b+1,w
  4694  060F  2E11               	goto	u1941
  4695  0610  2E12               	goto	u1942
  4696  0611                     u1941:
  4697  0611  02CD               	subwf	??___fladd+5,f
  4698  0612                     u1942:
  4699  0612  0842               	movf	___fladd@b+2,w
  4700  0613  1C03               	skipc
  4701  0614  0F42               	incfsz	___fladd@b+2,w
  4702  0615  2E17               	goto	u1943
  4703  0616  2E18               	goto	u1944
  4704  0617                     u1943:
  4705  0617  02CE               	subwf	??___fladd+6,f
  4706  0618                     u1944:
  4707  0618  0843               	movf	___fladd@b+3,w
  4708  0619  1C03               	skipc
  4709  061A  0F43               	incfsz	___fladd@b+3,w
  4710  061B  2E1D               	goto	u1945
  4711  061C  2E1E               	goto	u1946
  4712  061D                     u1945:
  4713  061D  02CF               	subwf	??___fladd+7,f
  4714  061E                     u1946:
  4715  061E  084C               	movf	??___fladd+4,w
  4716  061F  07C8               	addwf	??___fladd,f
  4717  0620  084D               	movf	??___fladd+5,w
  4718  0621  1803               	skipnc
  4719  0622  0F4D               	incfsz	??___fladd+5,w
  4720  0623  2E25               	goto	u1950
  4721  0624  2E26               	goto	u1951
  4722  0625                     u1950:
  4723  0625  07C9               	addwf	??___fladd+1,f
  4724  0626                     u1951:
  4725  0626  084E               	movf	??___fladd+6,w
  4726  0627  1803               	skipnc
  4727  0628  0F4E               	incfsz	??___fladd+6,w
  4728  0629  2E2B               	goto	u1952
  4729  062A  2E2C               	goto	u1953
  4730  062B                     u1952:
  4731  062B  07CA               	addwf	??___fladd+2,f
  4732  062C                     u1953:
  4733  062C  084F               	movf	??___fladd+7,w
  4734  062D  1803               	skipnc
  4735  062E  0A4F               	incf	??___fladd+7,w
  4736  062F  07CB               	addwf	??___fladd+3,f
  4737  0630  084B               	movf	??___fladd+3,w
  4738  0631  00C3               	movwf	___fladd@b+3
  4739  0632  084A               	movf	??___fladd+2,w
  4740  0633  00C2               	movwf	___fladd@b+2
  4741  0634  0849               	movf	??___fladd+1,w
  4742  0635  00C1               	movwf	___fladd@b+1
  4743  0636  0848               	movf	??___fladd,w
  4744  0637  00C0               	movwf	___fladd@b
  4745  0638                     l1915:
  4746  0638  3080               	movlw	128
  4747  0639  00C8               	movwf	??___fladd
  4748  063A  0848               	movf	??___fladd,w
  4749  063B  06D0               	xorwf	___fladd@signs,f
  4750  063C  09D3               	comf	___fladd@grs,f
  4751  063D  0AD3               	incf	___fladd@grs,f
  4752  063E                     l1917:
  4753  063E  0853               	movf	___fladd@grs,w
  4754  063F  1D03               	btfss	3,2
  4755  0640  2E42               	goto	u1961
  4756  0641  2E43               	goto	u1960
  4757  0642                     u1961:
  4758  0642  2E60               	goto	l691
  4759  0643                     u1960:
  4760  0643                     l1919:
  4761  0643  3001               	movlw	1
  4762  0644  07C0               	addwf	___fladd@b,f
  4763  0645  3000               	movlw	0
  4764  0646  1803               	skipnc
  4765  0647  3001               	movlw	1
  4766  0648  07C1               	addwf	___fladd@b+1,f
  4767  0649  3000               	movlw	0
  4768  064A  1803               	skipnc
  4769  064B  3001               	movlw	1
  4770  064C  07C2               	addwf	___fladd@b+2,f
  4771  064D  3000               	movlw	0
  4772  064E  1803               	skipnc
  4773  064F  3001               	movlw	1
  4774  0650  07C3               	addwf	___fladd@b+3,f
  4775  0651  2E60               	goto	l691
  4776  0652                     l1921:
  4777  0652  0844               	movf	___fladd@a,w
  4778  0653  02C0               	subwf	___fladd@b,f
  4779  0654  0845               	movf	___fladd@a+1,w
  4780  0655  1C03               	skipc
  4781  0656  0F45               	incfsz	___fladd@a+1,w
  4782  0657  02C1               	subwf	___fladd@b+1,f
  4783  0658  0846               	movf	___fladd@a+2,w
  4784  0659  1C03               	skipc
  4785  065A  0F46               	incfsz	___fladd@a+2,w
  4786  065B  02C2               	subwf	___fladd@b+2,f
  4787  065C  0847               	movf	___fladd@a+3,w
  4788  065D  1C03               	skipc
  4789  065E  0F47               	incfsz	___fladd@a+3,w
  4790  065F  02C3               	subwf	___fladd@b+3,f
  4791  0660                     l691:
  4792  0660  0843               	movf	___fladd@b+3,w
  4793  0661  0442               	iorwf	___fladd@b+2,w
  4794  0662  0441               	iorwf	___fladd@b+1,w
  4795  0663  0440               	iorwf	___fladd@b,w
  4796  0664  1D03               	skipz
  4797  0665  2E67               	goto	u1971
  4798  0666  2E68               	goto	u1970
  4799  0667                     u1971:
  4800  0667  2E94               	goto	l1943
  4801  0668                     u1970:
  4802  0668                     l1923:
  4803  0668  0853               	movf	___fladd@grs,w
  4804  0669  1D03               	btfss	3,2
  4805  066A  2E6C               	goto	u1981
  4806  066B  2E6D               	goto	u1980
  4807  066C                     u1981:
  4808  066C  2E94               	goto	l1943
  4809  066D                     u1980:
  4810  066D                     l1925:
  4811  066D  3000               	movlw	0
  4812  066E  00C3               	movwf	?___fladd+3
  4813  066F  3000               	movlw	0
  4814  0670  00C2               	movwf	?___fladd+2
  4815  0671  3000               	movlw	0
  4816  0672  00C1               	movwf	?___fladd+1
  4817  0673  3000               	movlw	0
  4818  0674  00C0               	movwf	?___fladd
  4819  0675  2F12               	goto	l683
  4820  0676                     l1929:
  4821  0676  3001               	movlw	1
  4822  0677  00C8               	movwf	??___fladd
  4823  0678                     u1995:
  4824  0678  1003               	clrc
  4825  0679  0DC0               	rlf	___fladd@b,f
  4826  067A  0DC1               	rlf	___fladd@b+1,f
  4827  067B  0DC2               	rlf	___fladd@b+2,f
  4828  067C  0DC3               	rlf	___fladd@b+3,f
  4829  067D  0BC8               	decfsz	??___fladd,f
  4830  067E  2E78               	goto	u1995
  4831  067F                     l1931:
  4832  067F  1FD3               	btfss	___fladd@grs,7
  4833  0680  2E82               	goto	u2001
  4834  0681  2E83               	goto	u2000
  4835  0682                     u2001:
  4836  0682  2E84               	goto	l695
  4837  0683                     u2000:
  4838  0683                     l1933:
  4839  0683  1440               	bsf	___fladd@b,0
  4840  0684                     l695:
  4841  0684  1C53               	btfss	___fladd@grs,0
  4842  0685  2E87               	goto	u2011
  4843  0686  2E88               	goto	u2010
  4844  0687                     u2011:
  4845  0687  2E8B               	goto	l1937
  4846  0688                     u2010:
  4847  0688                     l1935:
  4848  0688  1403               	setc
  4849  0689  0DD3               	rlf	___fladd@grs,f
  4850  068A  2E8D               	goto	l1939
  4851  068B                     l1937:
  4852  068B  1003               	clrc
  4853  068C  0DD3               	rlf	___fladd@grs,f
  4854  068D                     l1939:
  4855  068D  0852               	movf	___fladd@bexp,w
  4856  068E  1903               	btfsc	3,2
  4857  068F  2E91               	goto	u2021
  4858  0690  2E92               	goto	u2020
  4859  0691                     u2021:
  4860  0691  2E94               	goto	l1943
  4861  0692                     u2020:
  4862  0692                     l1941:
  4863  0692  3001               	movlw	1
  4864  0693  02D2               	subwf	___fladd@bexp,f
  4865  0694                     l1943:
  4866  0694  1FC2               	btfss	___fladd@b+2,7
  4867  0695  2E97               	goto	u2031
  4868  0696  2E98               	goto	u2030
  4869  0697                     u2031:
  4870  0697  2E76               	goto	l1929
  4871  0698                     u2030:
  4872  0698                     l1945:
  4873  0698  01D1               	clrf	___fladd@aexp
  4874  0699                     l1947:
  4875  0699  1FD3               	btfss	___fladd@grs,7
  4876  069A  2E9C               	goto	u2041
  4877  069B  2E9D               	goto	u2040
  4878  069C                     u2041:
  4879  069C  2EAB               	goto	l1955
  4880  069D                     u2040:
  4881  069D                     l1949:
  4882  069D  0853               	movf	___fladd@grs,w
  4883  069E  397F               	andlw	127
  4884  069F  1903               	btfsc	3,2
  4885  06A0  2EA2               	goto	u2051
  4886  06A1  2EA3               	goto	u2050
  4887  06A2                     u2051:
  4888  06A2  2EA6               	goto	l701
  4889  06A3                     u2050:
  4890  06A3                     l1951:
  4891  06A3  01D1               	clrf	___fladd@aexp
  4892  06A4  0AD1               	incf	___fladd@aexp,f
  4893  06A5  2EAB               	goto	l1955
  4894  06A6                     l701:
  4895  06A6  1C40               	btfss	___fladd@b,0
  4896  06A7  2EA9               	goto	u2061
  4897  06A8  2EAA               	goto	u2060
  4898  06A9                     u2061:
  4899  06A9  2EAB               	goto	l1955
  4900  06AA                     u2060:
  4901  06AA  2EA3               	goto	l1951
  4902  06AB                     l1955:
  4903  06AB  0851               	movf	___fladd@aexp,w
  4904  06AC  1903               	btfsc	3,2
  4905  06AD  2EAF               	goto	u2071
  4906  06AE  2EB0               	goto	u2070
  4907  06AF                     u2071:
  4908  06AF  2EE4               	goto	l704
  4909  06B0                     u2070:
  4910  06B0                     l1957:
  4911  06B0  3001               	movlw	1
  4912  06B1  07C0               	addwf	___fladd@b,f
  4913  06B2  3000               	movlw	0
  4914  06B3  1803               	skipnc
  4915  06B4  3001               	movlw	1
  4916  06B5  07C1               	addwf	___fladd@b+1,f
  4917  06B6  3000               	movlw	0
  4918  06B7  1803               	skipnc
  4919  06B8  3001               	movlw	1
  4920  06B9  07C2               	addwf	___fladd@b+2,f
  4921  06BA  3000               	movlw	0
  4922  06BB  1803               	skipnc
  4923  06BC  3001               	movlw	1
  4924  06BD  07C3               	addwf	___fladd@b+3,f
  4925  06BE                     l1959:
  4926  06BE  1C43               	btfss	___fladd@b+3,0
  4927  06BF  2EC1               	goto	u2081
  4928  06C0  2EC2               	goto	u2080
  4929  06C1                     u2081:
  4930  06C1  2EE4               	goto	l704
  4931  06C2                     u2080:
  4932  06C2                     l1961:
  4933  06C2  0840               	movf	___fladd@b,w
  4934  06C3  00C8               	movwf	??___fladd
  4935  06C4  0841               	movf	___fladd@b+1,w
  4936  06C5  00C9               	movwf	??___fladd+1
  4937  06C6  0842               	movf	___fladd@b+2,w
  4938  06C7  00CA               	movwf	??___fladd+2
  4939  06C8  0843               	movf	___fladd@b+3,w
  4940  06C9  00CB               	movwf	??___fladd+3
  4941  06CA  3001               	movlw	1
  4942  06CB  00CC               	movwf	??___fladd+4
  4943  06CC                     u2095:
  4944  06CC  0D4B               	rlf	??___fladd+3,w
  4945  06CD  0CCB               	rrf	??___fladd+3,f
  4946  06CE  0CCA               	rrf	??___fladd+2,f
  4947  06CF  0CC9               	rrf	??___fladd+1,f
  4948  06D0  0CC8               	rrf	??___fladd,f
  4949  06D1                     u2090:
  4950  06D1  0BCC               	decfsz	??___fladd+4,f
  4951  06D2  2ECC               	goto	u2095
  4952  06D3  084B               	movf	??___fladd+3,w
  4953  06D4  00C3               	movwf	___fladd@b+3
  4954  06D5  084A               	movf	??___fladd+2,w
  4955  06D6  00C2               	movwf	___fladd@b+2
  4956  06D7  0849               	movf	??___fladd+1,w
  4957  06D8  00C1               	movwf	___fladd@b+1
  4958  06D9  0848               	movf	??___fladd,w
  4959  06DA  00C0               	movwf	___fladd@b
  4960  06DB  0A52               	incf	___fladd@bexp,w
  4961  06DC  1903               	btfsc	3,2
  4962  06DD  2EDF               	goto	u2101
  4963  06DE  2EE0               	goto	u2100
  4964  06DF                     u2101:
  4965  06DF  2EE4               	goto	l704
  4966  06E0                     u2100:
  4967  06E0                     l1963:
  4968  06E0  3001               	movlw	1
  4969  06E1  00C8               	movwf	??___fladd
  4970  06E2  0848               	movf	??___fladd,w
  4971  06E3  07D2               	addwf	___fladd@bexp,f
  4972  06E4                     l704:
  4973  06E4  0A52               	incf	___fladd@bexp,w
  4974  06E5  1903               	btfsc	3,2
  4975  06E6  2EE8               	goto	u2111
  4976  06E7  2EE9               	goto	u2110
  4977  06E8                     u2111:
  4978  06E8  2EEE               	goto	l1967
  4979  06E9                     u2110:
  4980  06E9                     l1965:
  4981  06E9  0852               	movf	___fladd@bexp,w
  4982  06EA  1D03               	btfss	3,2
  4983  06EB  2EED               	goto	u2121
  4984  06EC  2EEE               	goto	u2120
  4985  06ED                     u2121:
  4986  06ED  2EFC               	goto	l1973
  4987  06EE                     u2120:
  4988  06EE                     l1967:
  4989  06EE  3000               	movlw	0
  4990  06EF  00C3               	movwf	___fladd@b+3
  4991  06F0  3000               	movlw	0
  4992  06F1  00C2               	movwf	___fladd@b+2
  4993  06F2  3000               	movlw	0
  4994  06F3  00C1               	movwf	___fladd@b+1
  4995  06F4  3000               	movlw	0
  4996  06F5  00C0               	movwf	___fladd@b
  4997  06F6                     l1969:
  4998  06F6  0852               	movf	___fladd@bexp,w
  4999  06F7  1D03               	btfss	3,2
  5000  06F8  2EFA               	goto	u2131
  5001  06F9  2EFB               	goto	u2130
  5002  06FA                     u2131:
  5003  06FA  2EFC               	goto	l1973
  5004  06FB                     u2130:
  5005  06FB                     l1971:
  5006  06FB  01D0               	clrf	___fladd@signs
  5007  06FC                     l1973:
  5008  06FC  1C52               	btfss	___fladd@bexp,0
  5009  06FD  2EFF               	goto	u2141
  5010  06FE  2F00               	goto	u2140
  5011  06FF                     u2141:
  5012  06FF  2F02               	goto	l1977
  5013  0700                     u2140:
  5014  0700                     l1975:
  5015  0700  17C2               	bsf	___fladd@b+2,7
  5016  0701  2F06               	goto	l712
  5017  0702                     l1977:
  5018  0702  307F               	movlw	127
  5019  0703  00C8               	movwf	??___fladd
  5020  0704  0848               	movf	??___fladd,w
  5021  0705  05C2               	andwf	___fladd@b+2,f
  5022  0706                     l712:
  5023  0706  0852               	movf	___fladd@bexp,w
  5024  0707  00C8               	movwf	??___fladd
  5025  0708  1003               	clrc
  5026  0709  0C48               	rrf	??___fladd,w
  5027  070A  00C9               	movwf	??___fladd+1
  5028  070B  0849               	movf	??___fladd+1,w
  5029  070C  00C3               	movwf	___fladd@b+3
  5030  070D                     l1979:
  5031  070D  1FD0               	btfss	___fladd@signs,7
  5032  070E  2F10               	goto	u2151
  5033  070F  2F11               	goto	u2150
  5034  0710                     u2151:
  5035  0710  2F12               	goto	l713
  5036  0711                     u2150:
  5037  0711                     l1981:
  5038  0711  17C3               	bsf	___fladd@b+3,7
  5039  0712                     l713:
  5040  0712                     l683:
  5041  0712  0008               	return
  5042  0713                     __end_of___fladd:
  5043                           
  5044                           	psect	text15
  5045  0B49                     __ptext15:	
  5046 ;; *************** function _MPU_Start_Loc *****************
  5047 ;; Defined at:
  5048 ;;		line 288 in file "MAIN_I2C.c"
  5049 ;; Parameters:    Size  Location     Type
  5050 ;;		None
  5051 ;; Auto vars:     Size  Location     Type
  5052 ;;		None
  5053 ;; Return value:  Size  Location     Type
  5054 ;;                  1    wreg      void 
  5055 ;; Registers used:
  5056 ;;		wreg, status,2, status,0, pclath, cstack
  5057 ;; Tracked objects:
  5058 ;;		On entry : 0/0
  5059 ;;		On exit  : 0/0
  5060 ;;		Unchanged: 0/0
  5061 ;; Data sizes:     COMMON   BANK0   BANK1   BANK3   BANK2
  5062 ;;      Params:         0       0       0       0       0
  5063 ;;      Locals:         0       0       0       0       0
  5064 ;;      Temps:          0       0       0       0       0
  5065 ;;      Totals:         0       0       0       0       0
  5066 ;;Total ram usage:        0 bytes
  5067 ;; Hardware stack levels used:    1
  5068 ;; Hardware stack levels required when called:    5
  5069 ;; This function calls:
  5070 ;;		_I2C_Read
  5071 ;;		_I2C_Repeated_Start
  5072 ;;		_I2C_Start
  5073 ;;		_I2C_Write
  5074 ;; This function is called by:
  5075 ;;		_main
  5076 ;; This function uses a non-reentrant model
  5077 ;;
  5078                           
  5079                           
  5080                           ;psect for function _MPU_Start_Loc
  5081  0B49                     _MPU_Start_Loc:
  5082  0B49                     l2217:	
  5083                           ;incstack = 0
  5084                           ; Regs used in _MPU_Start_Loc: [wreg+status,2+status,0+pclath+cstack]
  5085                           
  5086                           
  5087                           ;MAIN_I2C.c: 291:         PORTEbits.RE0 = 0;
  5088  0B49  30D0               	movlw	208
  5089  0B4A  120A  158A  2330  120A  158A  	fcall	_I2C_Start
  5090                           
  5091                           ;MAIN_I2C.c: 292:         contador = 0;
  5092  0B4F  303B               	movlw	59
  5093  0B50  120A  158A  22ED  120A  158A  	fcall	_I2C_Write
  5094                           
  5095                           ;MAIN_I2C.c: 293:     }
  5096  0B55  30D1               	movlw	209
  5097  0B56  120A  158A  2317  120A  158A  	fcall	_I2C_Repeated_Start
  5098                           
  5099                           ;MAIN_I2C.c: 294:     else
  5100  0B5B  3000               	movlw	0
  5101  0B5C  120A  158A  23E5  120A  158A  	fcall	_I2C_Read
  5102  0B61                     l142:
  5103  0B61  0008               	return
  5104  0B62                     __end_of_MPU_Start_Loc:
  5105                           
  5106                           	psect	text16
  5107  0B30                     __ptext16:	
  5108 ;; *************** function _I2C_Start *****************
  5109 ;; Defined at:
  5110 ;;		line 29 in file "I2C_LIB.c"
  5111 ;; Parameters:    Size  Location     Type
  5112 ;;  slave_write_    1    wreg     unsigned char 
  5113 ;; Auto vars:     Size  Location     Type
  5114 ;;  slave_write_    1    3[COMMON] unsigned char 
  5115 ;; Return value:  Size  Location     Type
  5116 ;;                  1    wreg      unsigned char 
  5117 ;; Registers used:
  5118 ;;		wreg, status,2, status,0, pclath, cstack
  5119 ;; Tracked objects:
  5120 ;;		On entry : 0/0
  5121 ;;		On exit  : 0/0
  5122 ;;		Unchanged: 0/0
  5123 ;; Data sizes:     COMMON   BANK0   BANK1   BANK3   BANK2
  5124 ;;      Params:         0       0       0       0       0
  5125 ;;      Locals:         1       0       0       0       0
  5126 ;;      Temps:          0       0       0       0       0
  5127 ;;      Totals:         1       0       0       0       0
  5128 ;;Total ram usage:        1 bytes
  5129 ;; Hardware stack levels used:    1
  5130 ;; Hardware stack levels required when called:    4
  5131 ;; This function calls:
  5132 ;;		_I2C_Write
  5133 ;; This function is called by:
  5134 ;;		_MPU_Start_Loc
  5135 ;; This function uses a non-reentrant model
  5136 ;;
  5137                           
  5138                           
  5139                           ;psect for function _I2C_Start
  5140  0B30                     _I2C_Start:
  5141                           
  5142                           ;incstack = 0
  5143                           ; Regs used in _I2C_Start: [wreg+status,2+status,0+pclath+cstack]
  5144                           ;I2C_Start@slave_write_address stored from wreg
  5145  0B30  00F3               	movwf	I2C_Start@slave_write_address
  5146  0B31                     l1713:
  5147                           
  5148                           ;I2C_LIB.c: 29: char I2C_Start(char slave_write_address);I2C_LIB.c: 30: {;I2C_LIB.c: 31:
      +                               SSPCON2bits.SEN = 1;
  5149  0B31  1683               	bsf	3,5	;RP0=1, select bank1
  5150  0B32  1303               	bcf	3,6	;RP1=0, select bank1
  5151  0B33  1411               	bsf	17,0	;volatile
  5152  0B34                     l197:	
  5153                           ;I2C_LIB.c: 32:     while(SSPCON2bits.SEN);
  5154                           
  5155  0B34  1811               	btfsc	17,0	;volatile
  5156  0B35  2B37               	goto	u1511
  5157  0B36  2B38               	goto	u1510
  5158  0B37                     u1511:
  5159  0B37  2B34               	goto	l197
  5160  0B38                     u1510:
  5161  0B38                     l199:
  5162                           
  5163                           ;I2C_LIB.c: 33:     SSPIF=0;
  5164  0B38  1283               	bcf	3,5	;RP0=0, select bank0
  5165  0B39  1303               	bcf	3,6	;RP1=0, select bank0
  5166  0B3A  118C               	bcf	12,3	;volatile
  5167                           
  5168                           ;I2C_LIB.c: 34:     if(!SSPSTATbits.S)
  5169  0B3B  1683               	bsf	3,5	;RP0=1, select bank1
  5170  0B3C  1303               	bcf	3,6	;RP1=0, select bank1
  5171  0B3D  1994               	btfsc	20,3	;volatile
  5172  0B3E  2B40               	goto	u1521
  5173  0B3F  2B41               	goto	u1520
  5174  0B40                     u1521:
  5175  0B40  2B42               	goto	l1717
  5176  0B41                     u1520:
  5177  0B41  2B48               	goto	l201
  5178  0B42                     l1717:
  5179                           
  5180                           ;I2C_LIB.c: 36:     return (I2C_Write(slave_write_address));;	Return value of _I2C_Start
      +                           is never used
  5181  0B42  0873               	movf	I2C_Start@slave_write_address,w
  5182  0B43  120A  158A  22ED  120A  158A  	fcall	_I2C_Write
  5183  0B48                     l201:
  5184  0B48  0008               	return
  5185  0B49                     __end_of_I2C_Start:
  5186                           
  5187                           	psect	text17
  5188  0B17                     __ptext17:	
  5189 ;; *************** function _I2C_Repeated_Start *****************
  5190 ;; Defined at:
  5191 ;;		line 58 in file "I2C_LIB.c"
  5192 ;; Parameters:    Size  Location     Type
  5193 ;;  slave_read_a    1    wreg     unsigned char 
  5194 ;; Auto vars:     Size  Location     Type
  5195 ;;  slave_read_a    1    3[COMMON] unsigned char 
  5196 ;; Return value:  Size  Location     Type
  5197 ;;                  1    wreg      unsigned char 
  5198 ;; Registers used:
  5199 ;;		wreg, status,2, status,0, pclath, cstack
  5200 ;; Tracked objects:
  5201 ;;		On entry : 0/0
  5202 ;;		On exit  : 0/0
  5203 ;;		Unchanged: 0/0
  5204 ;; Data sizes:     COMMON   BANK0   BANK1   BANK3   BANK2
  5205 ;;      Params:         0       0       0       0       0
  5206 ;;      Locals:         1       0       0       0       0
  5207 ;;      Temps:          0       0       0       0       0
  5208 ;;      Totals:         1       0       0       0       0
  5209 ;;Total ram usage:        1 bytes
  5210 ;; Hardware stack levels used:    1
  5211 ;; Hardware stack levels required when called:    4
  5212 ;; This function calls:
  5213 ;;		_I2C_Write
  5214 ;; This function is called by:
  5215 ;;		_MPU_Start_Loc
  5216 ;; This function uses a non-reentrant model
  5217 ;;
  5218                           
  5219                           
  5220                           ;psect for function _I2C_Repeated_Start
  5221  0B17                     _I2C_Repeated_Start:
  5222                           
  5223                           ;incstack = 0
  5224                           ; Regs used in _I2C_Repeated_Start: [wreg+status,2+status,0+pclath+cstack]
  5225                           ;I2C_Repeated_Start@slave_read_address stored from wreg
  5226  0B17  00F3               	movwf	I2C_Repeated_Start@slave_read_address
  5227  0B18                     l1721:
  5228                           
  5229                           ;I2C_LIB.c: 58: char I2C_Repeated_Start(char slave_read_address);I2C_LIB.c: 59: {;I2C_LI
      +                          B.c: 60:     RSEN = 1;
  5230  0B18  1683               	bsf	3,5	;RP0=1, select bank1
  5231  0B19  1303               	bcf	3,6	;RP1=0, select bank1
  5232  0B1A  1491               	bsf	17,1	;volatile
  5233  0B1B                     l215:	
  5234                           ;I2C_LIB.c: 61:     while(SSPCON2bits.RSEN);
  5235                           
  5236  0B1B  1891               	btfsc	17,1	;volatile
  5237  0B1C  2B1E               	goto	u1531
  5238  0B1D  2B1F               	goto	u1530
  5239  0B1E                     u1531:
  5240  0B1E  2B1B               	goto	l215
  5241  0B1F                     u1530:
  5242  0B1F                     l217:
  5243                           
  5244                           ;I2C_LIB.c: 62:     SSPIF = 0;
  5245  0B1F  1283               	bcf	3,5	;RP0=0, select bank0
  5246  0B20  1303               	bcf	3,6	;RP1=0, select bank0
  5247  0B21  118C               	bcf	12,3	;volatile
  5248                           
  5249                           ;I2C_LIB.c: 63:     if(!SSPSTATbits.S)
  5250  0B22  1683               	bsf	3,5	;RP0=1, select bank1
  5251  0B23  1303               	bcf	3,6	;RP1=0, select bank1
  5252  0B24  1994               	btfsc	20,3	;volatile
  5253  0B25  2B27               	goto	u1541
  5254  0B26  2B28               	goto	u1540
  5255  0B27                     u1541:
  5256  0B27  2B29               	goto	l1725
  5257  0B28                     u1540:
  5258  0B28  2B2F               	goto	l219
  5259  0B29                     l1725:
  5260                           
  5261                           ;I2C_LIB.c: 65:     I2C_Write(slave_read_address);
  5262  0B29  0873               	movf	I2C_Repeated_Start@slave_read_address,w
  5263  0B2A  120A  158A  22ED  120A  158A  	fcall	_I2C_Write
  5264  0B2F                     l1727:
  5265  0B2F                     l219:	
  5266                           ;I2C_LIB.c: 66:     if (ACKSTAT)
  5267                           
  5268  0B2F  0008               	return
  5269  0B30                     __end_of_I2C_Repeated_Start:
  5270                           
  5271                           	psect	text18
  5272  0BE5                     __ptext18:	
  5273 ;; *************** function _I2C_Read *****************
  5274 ;; Defined at:
  5275 ;;		line 95 in file "I2C_LIB.c"
  5276 ;; Parameters:    Size  Location     Type
  5277 ;;  flag            1    wreg     unsigned char 
  5278 ;; Auto vars:     Size  Location     Type
  5279 ;;  flag            1    3[COMMON] unsigned char 
  5280 ;;  buffer          1    4[COMMON] unsigned char 
  5281 ;; Return value:  Size  Location     Type
  5282 ;;                  1    wreg      unsigned char 
  5283 ;; Registers used:
  5284 ;;		wreg, status,2, status,0, pclath, cstack
  5285 ;; Tracked objects:
  5286 ;;		On entry : 0/0
  5287 ;;		On exit  : 0/0
  5288 ;;		Unchanged: 0/0
  5289 ;; Data sizes:     COMMON   BANK0   BANK1   BANK3   BANK2
  5290 ;;      Params:         0       0       0       0       0
  5291 ;;      Locals:         2       0       0       0       0
  5292 ;;      Temps:          1       0       0       0       0
  5293 ;;      Totals:         3       0       0       0       0
  5294 ;;Total ram usage:        3 bytes
  5295 ;; Hardware stack levels used:    1
  5296 ;; Hardware stack levels required when called:    3
  5297 ;; This function calls:
  5298 ;;		_I2C_Ack
  5299 ;;		_I2C_Nack
  5300 ;;		_I2C_Ready
  5301 ;; This function is called by:
  5302 ;;		_main
  5303 ;;		_MPU_Start_Loc
  5304 ;; This function uses a non-reentrant model
  5305 ;;
  5306                           
  5307                           
  5308                           ;psect for function _I2C_Read
  5309  0BE5                     _I2C_Read:
  5310                           
  5311                           ;incstack = 0
  5312                           ; Regs used in _I2C_Read: [wreg+status,2+status,0+pclath+cstack]
  5313                           ;I2C_Read@flag stored from wreg
  5314  0BE5  00F3               	movwf	I2C_Read@flag
  5315  0BE6                     l1697:
  5316                           
  5317                           ;I2C_LIB.c: 95: char I2C_Read(char flag);I2C_LIB.c: 96: {;I2C_LIB.c: 97:     char buffer
      +                          ;;I2C_LIB.c: 98:     RCEN = 1;
  5318  0BE6  1683               	bsf	3,5	;RP0=1, select bank1
  5319  0BE7  1303               	bcf	3,6	;RP1=0, select bank1
  5320  0BE8  1591               	bsf	17,3	;volatile
  5321  0BE9                     l241:	
  5322                           ;I2C_LIB.c: 99:     while(!SSPSTATbits.BF);
  5323                           
  5324  0BE9  1C14               	btfss	20,0	;volatile
  5325  0BEA  2BEC               	goto	u1491
  5326  0BEB  2BED               	goto	u1490
  5327  0BEC                     u1491:
  5328  0BEC  2BE9               	goto	l241
  5329  0BED                     u1490:
  5330  0BED                     l1699:
  5331                           
  5332                           ;I2C_LIB.c: 100:     buffer = SSPBUF;
  5333  0BED  1283               	bcf	3,5	;RP0=0, select bank0
  5334  0BEE  1303               	bcf	3,6	;RP1=0, select bank0
  5335  0BEF  0813               	movf	19,w	;volatile
  5336  0BF0  00F2               	movwf	??_I2C_Read
  5337  0BF1  0872               	movf	??_I2C_Read,w
  5338  0BF2  00F4               	movwf	I2C_Read@buffer
  5339  0BF3                     l1701:
  5340                           
  5341                           ;I2C_LIB.c: 101:     if(flag==0)
  5342  0BF3  0873               	movf	I2C_Read@flag,w
  5343  0BF4  1D03               	btfss	3,2
  5344  0BF5  2BF7               	goto	u1501
  5345  0BF6  2BF8               	goto	u1500
  5346  0BF7                     u1501:
  5347  0BF7  2BFE               	goto	l1705
  5348  0BF8                     u1500:
  5349  0BF8                     l1703:
  5350                           
  5351                           ;I2C_LIB.c: 102:         I2C_Ack();
  5352  0BF8  120A  158A  2296  120A  158A  	fcall	_I2C_Ack
  5353  0BFD  2C03               	goto	l245
  5354  0BFE                     l1705:
  5355                           
  5356                           ;I2C_LIB.c: 104:         I2C_Nack();
  5357  0BFE  120A  158A  229F  120A  158A  	fcall	_I2C_Nack
  5358  0C03                     l245:
  5359                           
  5360                           ;I2C_LIB.c: 105:     I2C_Ready();
  5361  0C03  120A  158A  228E  120A  158A  	fcall	_I2C_Ready
  5362  0C08                     l1707:
  5363                           
  5364                           ;I2C_LIB.c: 106:     return(buffer);
  5365  0C08  0874               	movf	I2C_Read@buffer,w
  5366  0C09                     l246:
  5367  0C09  0008               	return
  5368  0C0A                     __end_of_I2C_Read:
  5369                           
  5370                           	psect	text19
  5371  0A9F                     __ptext19:	
  5372 ;; *************** function _I2C_Nack *****************
  5373 ;; Defined at:
  5374 ;;		line 89 in file "I2C_LIB.c"
  5375 ;; Parameters:    Size  Location     Type
  5376 ;;		None
  5377 ;; Auto vars:     Size  Location     Type
  5378 ;;		None
  5379 ;; Return value:  Size  Location     Type
  5380 ;;                  1    wreg      void 
  5381 ;; Registers used:
  5382 ;;		None
  5383 ;; Tracked objects:
  5384 ;;		On entry : 0/0
  5385 ;;		On exit  : 0/0
  5386 ;;		Unchanged: 0/0
  5387 ;; Data sizes:     COMMON   BANK0   BANK1   BANK3   BANK2
  5388 ;;      Params:         0       0       0       0       0
  5389 ;;      Locals:         0       0       0       0       0
  5390 ;;      Temps:          0       0       0       0       0
  5391 ;;      Totals:         0       0       0       0       0
  5392 ;;Total ram usage:        0 bytes
  5393 ;; Hardware stack levels used:    1
  5394 ;; Hardware stack levels required when called:    2
  5395 ;; This function calls:
  5396 ;;		Nothing
  5397 ;; This function is called by:
  5398 ;;		_I2C_Read
  5399 ;; This function uses a non-reentrant model
  5400 ;;
  5401                           
  5402                           
  5403                           ;psect for function _I2C_Nack
  5404  0A9F                     _I2C_Nack:
  5405  0A9F                     l1695:	
  5406                           ;incstack = 0
  5407                           ; Regs used in _I2C_Nack: []
  5408                           
  5409                           
  5410                           ;I2C_LIB.c: 91:     ACKDT = 1;
  5411  0A9F  1683               	bsf	3,5	;RP0=1, select bank1
  5412  0AA0  1303               	bcf	3,6	;RP1=0, select bank1
  5413  0AA1  1691               	bsf	17,5	;volatile
  5414                           
  5415                           ;I2C_LIB.c: 92:  ACKEN = 1;
  5416  0AA2  1611               	bsf	17,4	;volatile
  5417  0AA3                     l235:	
  5418                           ;I2C_LIB.c: 93:     while(ACKEN);
  5419                           
  5420  0AA3  1A11               	btfsc	17,4	;volatile
  5421  0AA4  2AA6               	goto	u1481
  5422  0AA5  2AA7               	goto	u1480
  5423  0AA6                     u1481:
  5424  0AA6  2AA3               	goto	l235
  5425  0AA7                     u1480:
  5426  0AA7                     l238:
  5427  0AA7  0008               	return
  5428  0AA8                     __end_of_I2C_Nack:
  5429                           
  5430                           	psect	text20
  5431  0A96                     __ptext20:	
  5432 ;; *************** function _I2C_Ack *****************
  5433 ;; Defined at:
  5434 ;;		line 82 in file "I2C_LIB.c"
  5435 ;; Parameters:    Size  Location     Type
  5436 ;;		None
  5437 ;; Auto vars:     Size  Location     Type
  5438 ;;		None
  5439 ;; Return value:  Size  Location     Type
  5440 ;;                  1    wreg      void 
  5441 ;; Registers used:
  5442 ;;		None
  5443 ;; Tracked objects:
  5444 ;;		On entry : 0/0
  5445 ;;		On exit  : 0/0
  5446 ;;		Unchanged: 0/0
  5447 ;; Data sizes:     COMMON   BANK0   BANK1   BANK3   BANK2
  5448 ;;      Params:         0       0       0       0       0
  5449 ;;      Locals:         0       0       0       0       0
  5450 ;;      Temps:          0       0       0       0       0
  5451 ;;      Totals:         0       0       0       0       0
  5452 ;;Total ram usage:        0 bytes
  5453 ;; Hardware stack levels used:    1
  5454 ;; Hardware stack levels required when called:    2
  5455 ;; This function calls:
  5456 ;;		Nothing
  5457 ;; This function is called by:
  5458 ;;		_I2C_Read
  5459 ;; This function uses a non-reentrant model
  5460 ;;
  5461                           
  5462                           
  5463                           ;psect for function _I2C_Ack
  5464  0A96                     _I2C_Ack:
  5465  0A96                     l1693:	
  5466                           ;incstack = 0
  5467                           ; Regs used in _I2C_Ack: []
  5468                           
  5469                           
  5470                           ;I2C_LIB.c: 84:     ACKDT = 0;
  5471  0A96  1683               	bsf	3,5	;RP0=1, select bank1
  5472  0A97  1303               	bcf	3,6	;RP1=0, select bank1
  5473  0A98  1291               	bcf	17,5	;volatile
  5474                           
  5475                           ;I2C_LIB.c: 85:  ACKEN = 1;
  5476  0A99  1611               	bsf	17,4	;volatile
  5477  0A9A                     l229:	
  5478                           ;I2C_LIB.c: 86:     while(ACKEN);
  5479                           
  5480  0A9A  1A11               	btfsc	17,4	;volatile
  5481  0A9B  2A9D               	goto	u1471
  5482  0A9C  2A9E               	goto	u1470
  5483  0A9D                     u1471:
  5484  0A9D  2A9A               	goto	l229
  5485  0A9E                     u1470:
  5486  0A9E                     l232:
  5487  0A9E  0008               	return
  5488  0A9F                     __end_of_I2C_Ack:
  5489                           
  5490                           	psect	text21
  5491  0DA6                     __ptext21:	
  5492 ;; *************** function _MPU6050_Init *****************
  5493 ;; Defined at:
  5494 ;;		line 297 in file "MAIN_I2C.c"
  5495 ;; Parameters:    Size  Location     Type
  5496 ;;		None
  5497 ;; Auto vars:     Size  Location     Type
  5498 ;;		None
  5499 ;; Return value:  Size  Location     Type
  5500 ;;                  1    wreg      void 
  5501 ;; Registers used:
  5502 ;;		wreg, status,2, status,0, pclath, cstack
  5503 ;; Tracked objects:
  5504 ;;		On entry : 0/0
  5505 ;;		On exit  : 0/0
  5506 ;;		Unchanged: 0/0
  5507 ;; Data sizes:     COMMON   BANK0   BANK1   BANK3   BANK2
  5508 ;;      Params:         0       0       0       0       0
  5509 ;;      Locals:         0       0       0       0       0
  5510 ;;      Temps:          0       0       0       0       0
  5511 ;;      Totals:         0       0       0       0       0
  5512 ;;Total ram usage:        0 bytes
  5513 ;; Hardware stack levels used:    1
  5514 ;; Hardware stack levels required when called:    5
  5515 ;; This function calls:
  5516 ;;		_I2C_Start_Wait
  5517 ;;		_I2C_Stop
  5518 ;;		_I2C_Write
  5519 ;;		_MSdelay
  5520 ;; This function is called by:
  5521 ;;		_main
  5522 ;; This function uses a non-reentrant model
  5523 ;;
  5524                           
  5525                           
  5526                           ;psect for function _MPU6050_Init
  5527  0DA6                     _MPU6050_Init:
  5528  0DA6                     l2195:	
  5529                           ;incstack = 0
  5530                           ; Regs used in _MPU6050_Init: [wreg+status,2+status,0+pclath+cstack]
  5531                           
  5532                           
  5533                           ;MAIN_I2C.c: 300: 
  5534  0DA6  3096               	movlw	150
  5535  0DA7  00F2               	movwf	MSdelay@val
  5536  0DA8  3000               	movlw	0
  5537  0DA9  00F3               	movwf	MSdelay@val+1
  5538  0DAA  120A  158A  23C0  120A  158A  	fcall	_MSdelay
  5539                           
  5540                           ;MAIN_I2C.c: 301: }
  5541  0DAF  30D0               	movlw	208
  5542  0DB0  120A  158A  239B  120A  158A  	fcall	_I2C_Start_Wait
  5543  0DB5  3019               	movlw	25
  5544  0DB6  120A  158A  22ED  120A  158A  	fcall	_I2C_Write
  5545  0DBB  3007               	movlw	7
  5546  0DBC  120A  158A  22ED  120A  158A  	fcall	_I2C_Write
  5547  0DC1  120A  158A  22CB  120A  158A  	fcall	_I2C_Stop
  5548  0DC6  30D0               	movlw	208
  5549  0DC7  120A  158A  239B  120A  158A  	fcall	_I2C_Start_Wait
  5550  0DCC  306B               	movlw	107
  5551  0DCD  120A  158A  22ED  120A  158A  	fcall	_I2C_Write
  5552  0DD2  3001               	movlw	1
  5553  0DD3  120A  158A  22ED  120A  158A  	fcall	_I2C_Write
  5554  0DD8  120A  158A  22CB  120A  158A  	fcall	_I2C_Stop
  5555  0DDD  30D0               	movlw	208
  5556  0DDE  120A  158A  239B  120A  158A  	fcall	_I2C_Start_Wait
  5557  0DE3  301A               	movlw	26
  5558  0DE4  120A  158A  22ED  120A  158A  	fcall	_I2C_Write
  5559  0DE9  3000               	movlw	0
  5560  0DEA  120A  158A  22ED  120A  158A  	fcall	_I2C_Write
  5561  0DEF  120A  158A  22CB  120A  158A  	fcall	_I2C_Stop
  5562  0DF4  30D0               	movlw	208
  5563  0DF5  120A  158A  239B  120A  158A  	fcall	_I2C_Start_Wait
  5564  0DFA  301B               	movlw	27
  5565  0DFB  120A  158A  22ED  120A  158A  	fcall	_I2C_Write
  5566  0E00  3018               	movlw	24
  5567  0E01  120A  158A  22ED  120A  158A  	fcall	_I2C_Write
  5568  0E06  120A  158A  22CB  120A  158A  	fcall	_I2C_Stop
  5569  0E0B  30D0               	movlw	208
  5570  0E0C  120A  158A  239B  120A  158A  	fcall	_I2C_Start_Wait
  5571  0E11  3038               	movlw	56
  5572  0E12  120A  158A  22ED  120A  158A  	fcall	_I2C_Write
  5573  0E17  3001               	movlw	1
  5574  0E18  120A  158A  22ED  120A  158A  	fcall	_I2C_Write
  5575  0E1D  120A  158A  22CB  120A  158A  	fcall	_I2C_Stop
  5576  0E22                     l145:
  5577  0E22  0008               	return
  5578  0E23                     __end_of_MPU6050_Init:
  5579                           
  5580                           	psect	text22
  5581  0BC0                     __ptext22:	
  5582 ;; *************** function _MSdelay *****************
  5583 ;; Defined at:
  5584 ;;		line 124 in file "I2C_LIB.c"
  5585 ;; Parameters:    Size  Location     Type
  5586 ;;  val             2    2[COMMON] unsigned int 
  5587 ;; Auto vars:     Size  Location     Type
  5588 ;;  j               2    6[COMMON] unsigned int 
  5589 ;;  i               2    4[COMMON] unsigned int 
  5590 ;; Return value:  Size  Location     Type
  5591 ;;                  1    wreg      void 
  5592 ;; Registers used:
  5593 ;;		wreg, status,2
  5594 ;; Tracked objects:
  5595 ;;		On entry : 0/0
  5596 ;;		On exit  : 0/0
  5597 ;;		Unchanged: 0/0
  5598 ;; Data sizes:     COMMON   BANK0   BANK1   BANK3   BANK2
  5599 ;;      Params:         2       0       0       0       0
  5600 ;;      Locals:         4       0       0       0       0
  5601 ;;      Temps:          0       0       0       0       0
  5602 ;;      Totals:         6       0       0       0       0
  5603 ;;Total ram usage:        6 bytes
  5604 ;; Hardware stack levels used:    1
  5605 ;; Hardware stack levels required when called:    2
  5606 ;; This function calls:
  5607 ;;		Nothing
  5608 ;; This function is called by:
  5609 ;;		_MPU6050_Init
  5610 ;; This function uses a non-reentrant model
  5611 ;;
  5612                           
  5613                           
  5614                           ;psect for function _MSdelay
  5615  0BC0                     _MSdelay:
  5616  0BC0                     l1733:	
  5617                           ;incstack = 0
  5618                           ; Regs used in _MSdelay: [wreg+status,2]
  5619                           
  5620                           
  5621                           ;I2C_LIB.c: 124: void MSdelay(unsigned int val);I2C_LIB.c: 125: {;I2C_LIB.c: 126:      u
      +                          nsigned int i,j;;I2C_LIB.c: 127:         for(i=0;i<=val;i++)
  5622  0BC0  01F4               	clrf	MSdelay@i
  5623  0BC1  01F5               	clrf	MSdelay@i+1
  5624  0BC2  2BDA               	goto	l262
  5625  0BC3                     l1735:
  5626                           
  5627                           ;I2C_LIB.c: 128:             for(j=0;j<165;j++);
  5628  0BC3  01F6               	clrf	MSdelay@j
  5629  0BC4  01F7               	clrf	MSdelay@j+1
  5630  0BC5                     l1741:
  5631  0BC5  3001               	movlw	1
  5632  0BC6  07F6               	addwf	MSdelay@j,f
  5633  0BC7  1803               	skipnc
  5634  0BC8  0AF7               	incf	MSdelay@j+1,f
  5635  0BC9  3000               	movlw	0
  5636  0BCA  07F7               	addwf	MSdelay@j+1,f
  5637  0BCB  3000               	movlw	0
  5638  0BCC  0277               	subwf	MSdelay@j+1,w
  5639  0BCD  30A5               	movlw	165
  5640  0BCE  1903               	skipnz
  5641  0BCF  0276               	subwf	MSdelay@j,w
  5642  0BD0  1C03               	skipc
  5643  0BD1  2BD3               	goto	u1551
  5644  0BD2  2BD4               	goto	u1550
  5645  0BD3                     u1551:
  5646  0BD3  2BC5               	goto	l1741
  5647  0BD4                     u1550:
  5648  0BD4                     l1743:
  5649  0BD4  3001               	movlw	1
  5650  0BD5  07F4               	addwf	MSdelay@i,f
  5651  0BD6  1803               	skipnc
  5652  0BD7  0AF5               	incf	MSdelay@i+1,f
  5653  0BD8  3000               	movlw	0
  5654  0BD9  07F5               	addwf	MSdelay@i+1,f
  5655  0BDA                     l262:
  5656  0BDA  0875               	movf	MSdelay@i+1,w
  5657  0BDB  0273               	subwf	MSdelay@val+1,w
  5658  0BDC  1D03               	skipz
  5659  0BDD  2BE0               	goto	u1565
  5660  0BDE  0874               	movf	MSdelay@i,w
  5661  0BDF  0272               	subwf	MSdelay@val,w
  5662  0BE0                     u1565:
  5663  0BE0  1803               	skipnc
  5664  0BE1  2BE3               	goto	u1561
  5665  0BE2  2BE4               	goto	u1560
  5666  0BE3                     u1561:
  5667  0BE3  2BC3               	goto	l1735
  5668  0BE4                     u1560:
  5669  0BE4                     l267:
  5670  0BE4  0008               	return
  5671  0BE5                     __end_of_MSdelay:
  5672                           
  5673                           	psect	text23
  5674  0B9B                     __ptext23:	
  5675 ;; *************** function _I2C_Start_Wait *****************
  5676 ;; Defined at:
  5677 ;;		line 39 in file "I2C_LIB.c"
  5678 ;; Parameters:    Size  Location     Type
  5679 ;;  slave_write_    1    wreg     unsigned char 
  5680 ;; Auto vars:     Size  Location     Type
  5681 ;;  slave_write_    1    3[COMMON] unsigned char 
  5682 ;; Return value:  Size  Location     Type
  5683 ;;                  1    wreg      void 
  5684 ;; Registers used:
  5685 ;;		wreg, status,2, status,0, pclath, cstack
  5686 ;; Tracked objects:
  5687 ;;		On entry : 0/0
  5688 ;;		On exit  : 0/0
  5689 ;;		Unchanged: 0/0
  5690 ;; Data sizes:     COMMON   BANK0   BANK1   BANK3   BANK2
  5691 ;;      Params:         0       0       0       0       0
  5692 ;;      Locals:         1       0       0       0       0
  5693 ;;      Temps:          0       0       0       0       0
  5694 ;;      Totals:         1       0       0       0       0
  5695 ;;Total ram usage:        1 bytes
  5696 ;; Hardware stack levels used:    1
  5697 ;; Hardware stack levels required when called:    4
  5698 ;; This function calls:
  5699 ;;		_I2C_Stop
  5700 ;;		_I2C_Write
  5701 ;; This function is called by:
  5702 ;;		_MPU6050_Init
  5703 ;; This function uses a non-reentrant model
  5704 ;;
  5705                           
  5706                           
  5707                           ;psect for function _I2C_Start_Wait
  5708  0B9B                     _I2C_Start_Wait:
  5709                           
  5710                           ;incstack = 0
  5711                           ; Regs used in _I2C_Start_Wait: [wreg+status,2+status,0+pclath+cstack]
  5712                           ;I2C_Start_Wait@slave_write_address stored from wreg
  5713  0B9B  00F3               	movwf	I2C_Start_Wait@slave_write_address
  5714  0B9C                     l204:	
  5715                           ;I2C_LIB.c: 39: void I2C_Start_Wait(char slave_write_address);I2C_LIB.c: 40: {;I2C_LIB.c
      +                          : 41:   while(1)
  5716                           
  5717                           
  5718                           ;I2C_LIB.c: 42:   {;I2C_LIB.c: 43:     SSPCON2bits.SEN = 1;
  5719  0B9C  1683               	bsf	3,5	;RP0=1, select bank1
  5720  0B9D  1303               	bcf	3,6	;RP1=0, select bank1
  5721  0B9E  1411               	bsf	17,0	;volatile
  5722  0B9F                     l205:	
  5723                           ;I2C_LIB.c: 44:     while(SSPCON2bits.SEN);
  5724                           
  5725  0B9F  1811               	btfsc	17,0	;volatile
  5726  0BA0  2BA2               	goto	u1571
  5727  0BA1  2BA3               	goto	u1570
  5728  0BA2                     u1571:
  5729  0BA2  2B9F               	goto	l205
  5730  0BA3                     u1570:
  5731  0BA3                     l207:
  5732                           
  5733                           ;I2C_LIB.c: 45:     SSPIF = 0;
  5734  0BA3  1283               	bcf	3,5	;RP0=0, select bank0
  5735  0BA4  1303               	bcf	3,6	;RP1=0, select bank0
  5736  0BA5  118C               	bcf	12,3	;volatile
  5737                           
  5738                           ;I2C_LIB.c: 46:     if(!SSPSTATbits.S)
  5739  0BA6  1683               	bsf	3,5	;RP0=1, select bank1
  5740  0BA7  1303               	bcf	3,6	;RP1=0, select bank1
  5741  0BA8  1994               	btfsc	20,3	;volatile
  5742  0BA9  2BAB               	goto	u1581
  5743  0BAA  2BAC               	goto	u1580
  5744  0BAB                     u1581:
  5745  0BAB  2BAD               	goto	l1747
  5746  0BAC                     u1580:
  5747  0BAC  2B9C               	goto	l204
  5748  0BAD                     l1747:
  5749                           
  5750                           ;I2C_LIB.c: 48:     I2C_Write(slave_write_address);
  5751  0BAD  0873               	movf	I2C_Start_Wait@slave_write_address,w
  5752  0BAE  120A  158A  22ED  120A  158A  	fcall	_I2C_Write
  5753  0BB3                     l1749:
  5754                           
  5755                           ;I2C_LIB.c: 49:     if(ACKSTAT)
  5756  0BB3  1683               	bsf	3,5	;RP0=1, select bank1
  5757  0BB4  1303               	bcf	3,6	;RP1=0, select bank1
  5758  0BB5  1F11               	btfss	17,6	;volatile
  5759  0BB6  2BB8               	goto	u1591
  5760  0BB7  2BB9               	goto	u1590
  5761  0BB8                     u1591:
  5762  0BB8  2BBF               	goto	l212
  5763  0BB9                     u1590:
  5764  0BB9                     l1751:
  5765                           
  5766                           ;I2C_LIB.c: 50:     {;I2C_LIB.c: 51:         I2C_Stop();
  5767  0BB9  120A  158A  22CB  120A  158A  	fcall	_I2C_Stop
  5768                           
  5769                           ;I2C_LIB.c: 52:         continue;
  5770  0BBE  2B9C               	goto	l204
  5771  0BBF                     l212:
  5772  0BBF  0008               	return
  5773  0BC0                     __end_of_I2C_Start_Wait:
  5774                           
  5775                           	psect	text24
  5776  0AED                     __ptext24:	
  5777 ;; *************** function _I2C_Write *****************
  5778 ;; Defined at:
  5779 ;;		line 72 in file "I2C_LIB.c"
  5780 ;; Parameters:    Size  Location     Type
  5781 ;;  data            1    wreg     unsigned char 
  5782 ;; Auto vars:     Size  Location     Type
  5783 ;;  data            1    2[COMMON] unsigned char 
  5784 ;; Return value:  Size  Location     Type
  5785 ;;                  1    wreg      unsigned char 
  5786 ;; Registers used:
  5787 ;;		wreg, status,2, status,0, pclath, cstack
  5788 ;; Tracked objects:
  5789 ;;		On entry : 0/0
  5790 ;;		On exit  : 0/0
  5791 ;;		Unchanged: 0/0
  5792 ;; Data sizes:     COMMON   BANK0   BANK1   BANK3   BANK2
  5793 ;;      Params:         0       0       0       0       0
  5794 ;;      Locals:         1       0       0       0       0
  5795 ;;      Temps:          0       0       0       0       0
  5796 ;;      Totals:         1       0       0       0       0
  5797 ;;Total ram usage:        1 bytes
  5798 ;; Hardware stack levels used:    1
  5799 ;; Hardware stack levels required when called:    3
  5800 ;; This function calls:
  5801 ;;		_I2C_Ready
  5802 ;; This function is called by:
  5803 ;;		_MPU_Start_Loc
  5804 ;;		_MPU6050_Init
  5805 ;;		_I2C_Start
  5806 ;;		_I2C_Start_Wait
  5807 ;;		_I2C_Repeated_Start
  5808 ;; This function uses a non-reentrant model
  5809 ;;
  5810                           
  5811                           
  5812                           ;psect for function _I2C_Write
  5813  0AED                     _I2C_Write:
  5814                           
  5815                           ;incstack = 0
  5816                           ; Regs used in _I2C_Write: [wreg+status,2+status,0+pclath+cstack]
  5817                           ;I2C_Write@data stored from wreg
  5818  0AED  00F2               	movwf	I2C_Write@data
  5819  0AEE                     l1677:
  5820                           
  5821                           ;I2C_LIB.c: 72: char I2C_Write(unsigned char data);I2C_LIB.c: 73: {;I2C_LIB.c: 74:      
      +                           SSPBUF = data;
  5822  0AEE  0872               	movf	I2C_Write@data,w
  5823  0AEF  1283               	bcf	3,5	;RP0=0, select bank0
  5824  0AF0  1303               	bcf	3,6	;RP1=0, select bank0
  5825  0AF1  0093               	movwf	19	;volatile
  5826  0AF2                     l1679:
  5827                           
  5828                           ;I2C_LIB.c: 75:       I2C_Ready();
  5829  0AF2  120A  158A  228E  120A  158A  	fcall	_I2C_Ready
  5830  0AF7                     l1681:
  5831                           
  5832                           ;I2C_LIB.c: 76:       if (ACKSTAT)
  5833  0AF7  1683               	bsf	3,5	;RP0=1, select bank1
  5834  0AF8  1303               	bcf	3,6	;RP1=0, select bank1
  5835  0AF9  1F11               	btfss	17,6	;volatile
  5836  0AFA  2AFC               	goto	u1461
  5837  0AFB  2AFD               	goto	u1460
  5838  0AFC                     u1461:
  5839  0AFC  2AFF               	goto	l1689
  5840  0AFD                     u1460:
  5841  0AFD                     l1683:
  5842                           
  5843                           ;I2C_LIB.c: 77:         return 1;
  5844  0AFD  3001               	movlw	1
  5845  0AFE  2B00               	goto	l225
  5846  0AFF                     l1689:
  5847                           
  5848                           ;I2C_LIB.c: 79:         return 2;
  5849  0AFF  3002               	movlw	2
  5850  0B00                     l225:
  5851  0B00  0008               	return
  5852  0B01                     __end_of_I2C_Write:
  5853                           
  5854                           	psect	text25
  5855  0A8E                     __ptext25:	
  5856 ;; *************** function _I2C_Ready *****************
  5857 ;; Defined at:
  5858 ;;		line 118 in file "I2C_LIB.c"
  5859 ;; Parameters:    Size  Location     Type
  5860 ;;		None
  5861 ;; Auto vars:     Size  Location     Type
  5862 ;;		None
  5863 ;; Return value:  Size  Location     Type
  5864 ;;                  1    wreg      void 
  5865 ;; Registers used:
  5866 ;;		None
  5867 ;; Tracked objects:
  5868 ;;		On entry : 0/0
  5869 ;;		On exit  : 0/0
  5870 ;;		Unchanged: 0/0
  5871 ;; Data sizes:     COMMON   BANK0   BANK1   BANK3   BANK2
  5872 ;;      Params:         0       0       0       0       0
  5873 ;;      Locals:         0       0       0       0       0
  5874 ;;      Temps:          0       0       0       0       0
  5875 ;;      Totals:         0       0       0       0       0
  5876 ;;Total ram usage:        0 bytes
  5877 ;; Hardware stack levels used:    1
  5878 ;; Hardware stack levels required when called:    2
  5879 ;; This function calls:
  5880 ;;		Nothing
  5881 ;; This function is called by:
  5882 ;;		_I2C_Write
  5883 ;;		_I2C_Read
  5884 ;; This function uses a non-reentrant model
  5885 ;;
  5886                           
  5887                           
  5888                           ;psect for function _I2C_Ready
  5889  0A8E                     _I2C_Ready:
  5890  0A8E                     l1673:	
  5891                           ;incstack = 0
  5892                           ; Regs used in _I2C_Ready: []
  5893                           
  5894  0A8E                     l256:	
  5895                           ;I2C_LIB.c: 120:     while(!SSPIF);
  5896                           
  5897  0A8E  1283               	bcf	3,5	;RP0=0, select bank0
  5898  0A8F  1303               	bcf	3,6	;RP1=0, select bank0
  5899  0A90  1D8C               	btfss	12,3	;volatile
  5900  0A91  2A93               	goto	u1441
  5901  0A92  2A94               	goto	u1440
  5902  0A93                     u1441:
  5903  0A93  2A8E               	goto	l256
  5904  0A94                     u1440:
  5905  0A94                     l258:
  5906                           
  5907                           ;I2C_LIB.c: 121:     SSPIF=0;
  5908  0A94  118C               	bcf	12,3	;volatile
  5909  0A95                     l259:
  5910  0A95  0008               	return
  5911  0A96                     __end_of_I2C_Ready:
  5912                           
  5913                           	psect	text26
  5914  0ACB                     __ptext26:	
  5915 ;; *************** function _I2C_Stop *****************
  5916 ;; Defined at:
  5917 ;;		line 109 in file "I2C_LIB.c"
  5918 ;; Parameters:    Size  Location     Type
  5919 ;;		None
  5920 ;; Auto vars:     Size  Location     Type
  5921 ;;		None
  5922 ;; Return value:  Size  Location     Type
  5923 ;;                  1    wreg      unsigned char 
  5924 ;; Registers used:
  5925 ;;		wreg
  5926 ;; Tracked objects:
  5927 ;;		On entry : 0/0
  5928 ;;		On exit  : 0/0
  5929 ;;		Unchanged: 0/0
  5930 ;; Data sizes:     COMMON   BANK0   BANK1   BANK3   BANK2
  5931 ;;      Params:         0       0       0       0       0
  5932 ;;      Locals:         0       0       0       0       0
  5933 ;;      Temps:          0       0       0       0       0
  5934 ;;      Totals:         0       0       0       0       0
  5935 ;;Total ram usage:        0 bytes
  5936 ;; Hardware stack levels used:    1
  5937 ;; Hardware stack levels required when called:    2
  5938 ;; This function calls:
  5939 ;;		Nothing
  5940 ;; This function is called by:
  5941 ;;		_main
  5942 ;;		_MPU6050_Init
  5943 ;;		_I2C_Start_Wait
  5944 ;; This function uses a non-reentrant model
  5945 ;;
  5946                           
  5947                           
  5948                           ;psect for function _I2C_Stop
  5949  0ACB                     _I2C_Stop:
  5950  0ACB                     l1675:	
  5951                           ;incstack = 0
  5952                           ; Regs used in _I2C_Stop: [wreg]
  5953                           
  5954                           
  5955                           ;I2C_LIB.c: 111:     PEN = 1;
  5956  0ACB  1683               	bsf	3,5	;RP0=1, select bank1
  5957  0ACC  1303               	bcf	3,6	;RP1=0, select bank1
  5958  0ACD  1511               	bsf	17,2	;volatile
  5959  0ACE                     l249:	
  5960                           ;I2C_LIB.c: 112:     while(PEN);
  5961                           
  5962  0ACE  1911               	btfsc	17,2	;volatile
  5963  0ACF  2AD1               	goto	u1451
  5964  0AD0  2AD2               	goto	u1450
  5965  0AD1                     u1451:
  5966  0AD1  2ACE               	goto	l249
  5967  0AD2                     u1450:
  5968  0AD2                     l251:
  5969                           
  5970                           ;I2C_LIB.c: 113:     SSPIF = 0;
  5971  0AD2  1283               	bcf	3,5	;RP0=0, select bank0
  5972  0AD3  1303               	bcf	3,6	;RP1=0, select bank0
  5973  0AD4  118C               	bcf	12,3	;volatile
  5974                           
  5975                           ;I2C_LIB.c: 114:     if(!SSPSTATbits.P);
  5976  0AD5  1683               	bsf	3,5	;RP0=1, select bank1
  5977  0AD6  1303               	bcf	3,6	;RP1=0, select bank1
  5978  0AD7  0814               	movf	20,w	;volatile
  5979  0AD8                     l253:
  5980  0AD8  0008               	return
  5981  0AD9                     __end_of_I2C_Stop:
  5982                           
  5983                           	psect	text27
  5984  0AD9                     __ptext27:	
  5985 ;; *************** function _I2C_Init *****************
  5986 ;; Defined at:
  5987 ;;		line 17 in file "I2C_LIB.c"
  5988 ;; Parameters:    Size  Location     Type
  5989 ;;		None
  5990 ;; Auto vars:     Size  Location     Type
  5991 ;;		None
  5992 ;; Return value:  Size  Location     Type
  5993 ;;                  1    wreg      void 
  5994 ;; Registers used:
  5995 ;;		wreg, status,2
  5996 ;; Tracked objects:
  5997 ;;		On entry : 0/0
  5998 ;;		On exit  : 0/0
  5999 ;;		Unchanged: 0/0
  6000 ;; Data sizes:     COMMON   BANK0   BANK1   BANK3   BANK2
  6001 ;;      Params:         0       0       0       0       0
  6002 ;;      Locals:         0       0       0       0       0
  6003 ;;      Temps:          0       0       0       0       0
  6004 ;;      Totals:         0       0       0       0       0
  6005 ;;Total ram usage:        0 bytes
  6006 ;; Hardware stack levels used:    1
  6007 ;; Hardware stack levels required when called:    2
  6008 ;; This function calls:
  6009 ;;		Nothing
  6010 ;; This function is called by:
  6011 ;;		_main
  6012 ;; This function uses a non-reentrant model
  6013 ;;
  6014                           
  6015                           
  6016                           ;psect for function _I2C_Init
  6017  0AD9                     _I2C_Init:
  6018  0AD9                     l2197:	
  6019                           ;incstack = 0
  6020                           ; Regs used in _I2C_Init: [wreg+status,2]
  6021                           
  6022                           
  6023                           ;I2C_LIB.c: 19:     TRISB0 = 1;
  6024  0AD9  1683               	bsf	3,5	;RP0=1, select bank1
  6025  0ADA  1303               	bcf	3,6	;RP1=0, select bank1
  6026  0ADB  1406               	bsf	6,0	;volatile
  6027                           
  6028                           ;I2C_LIB.c: 20:  TRISB1 = 1;
  6029  0ADC  1486               	bsf	6,1	;volatile
  6030  0ADD                     l2199:
  6031                           
  6032                           ;I2C_LIB.c: 21:  SSPSTAT = 80;
  6033  0ADD  3050               	movlw	80
  6034  0ADE  0094               	movwf	20	;volatile
  6035                           
  6036                           ;I2C_LIB.c: 22:     SSPCON = 0x28;
  6037  0ADF  3028               	movlw	40
  6038  0AE0  1283               	bcf	3,5	;RP0=0, select bank0
  6039  0AE1  1303               	bcf	3,6	;RP1=0, select bank0
  6040  0AE2  0094               	movwf	20	;volatile
  6041  0AE3                     l2201:
  6042                           
  6043                           ;I2C_LIB.c: 23:  SSPCON2 = 0;
  6044  0AE3  1683               	bsf	3,5	;RP0=1, select bank1
  6045  0AE4  1303               	bcf	3,6	;RP1=0, select bank1
  6046  0AE5  0191               	clrf	17	;volatile
  6047  0AE6                     l2203:
  6048                           
  6049                           ;I2C_LIB.c: 24:     SSPADD = ((8000000/(4*100000))-1);
  6050  0AE6  3013               	movlw	19
  6051  0AE7  0093               	movwf	19	;volatile
  6052  0AE8                     l2205:
  6053                           
  6054                           ;I2C_LIB.c: 25:     SSPIE = 1;
  6055  0AE8  158C               	bsf	12,3	;volatile
  6056  0AE9                     l2207:
  6057                           
  6058                           ;I2C_LIB.c: 26:     SSPIF = 0;
  6059  0AE9  1283               	bcf	3,5	;RP0=0, select bank0
  6060  0AEA  1303               	bcf	3,6	;RP1=0, select bank0
  6061  0AEB  118C               	bcf	12,3	;volatile
  6062  0AEC                     l194:
  6063  0AEC  0008               	return
  6064  0AED                     __end_of_I2C_Init:
  6065                           
  6066                           	psect	text28
  6067  0B7E                     __ptext28:	
  6068 ;; *************** function _ISR *****************
  6069 ;; Defined at:
  6070 ;;		line 76 in file "MAIN_I2C.c"
  6071 ;; Parameters:    Size  Location     Type
  6072 ;;		None
  6073 ;; Auto vars:     Size  Location     Type
  6074 ;;		None
  6075 ;; Return value:  Size  Location     Type
  6076 ;;                  1    wreg      void 
  6077 ;; Registers used:
  6078 ;;		wreg, status,2, status,0, pclath, cstack
  6079 ;; Tracked objects:
  6080 ;;		On entry : 0/0
  6081 ;;		On exit  : 0/0
  6082 ;;		Unchanged: 0/0
  6083 ;; Data sizes:     COMMON   BANK0   BANK1   BANK3   BANK2
  6084 ;;      Params:         0       0       0       0       0
  6085 ;;      Locals:         0       0       0       0       0
  6086 ;;      Temps:          2       0       0       0       0
  6087 ;;      Totals:         2       0       0       0       0
  6088 ;;Total ram usage:        2 bytes
  6089 ;; Hardware stack levels used:    1
  6090 ;; Hardware stack levels required when called:    1
  6091 ;; This function calls:
  6092 ;;		_Led
  6093 ;; This function is called by:
  6094 ;;		Interrupt level 1
  6095 ;; This function uses a non-reentrant model
  6096 ;;
  6097                           
  6098                           
  6099                           ;psect for function _ISR
  6100  0B7E                     _ISR:
  6101  0B7E                     i1l2303:
  6102                           
  6103                           ;MAIN_I2C.c: 78: 
  6104  0B7E  1D0B               	btfss	11,2	;volatile
  6105  0B7F  2B81               	goto	u281_21
  6106  0B80  2B82               	goto	u281_20
  6107  0B81                     u281_21:
  6108  0B81  2B94               	goto	i1l100
  6109  0B82                     u281_20:
  6110  0B82                     i1l2305:
  6111                           
  6112                           ;MAIN_I2C.c: 79:         Ax1 = Ax1 * 4;;MAIN_I2C.c: 80:         Ay1 = Ay1 * 4;
  6113  0B82  110B               	bcf	11,2	;volatile
  6114  0B83                     i1l2307:
  6115                           
  6116                           ;MAIN_I2C.c: 81:         Az1 = Az1 * 4;
  6117  0B83  3064               	movlw	100
  6118  0B84  1283               	bcf	3,5	;RP0=0, select bank0
  6119  0B85  1303               	bcf	3,6	;RP1=0, select bank0
  6120  0B86  0081               	movwf	1	;volatile
  6121  0B87                     i1l2309:
  6122                           
  6123                           ;MAIN_I2C.c: 82: 
  6124  0B87  0867               	movf	_contador,w
  6125  0B88  3E01               	addlw	1
  6126  0B89  00E7               	movwf	_contador
  6127  0B8A  0868               	movf	_contador+1,w
  6128  0B8B  1803               	skipnc
  6129  0B8C  3E01               	addlw	1
  6130  0B8D  3E00               	addlw	0
  6131  0B8E  00E8               	movwf	_contador+1
  6132  0B8F                     i1l2311:
  6133                           
  6134                           ;MAIN_I2C.c: 83: 
  6135  0B8F  120A  158A  2301  120A  158A  	fcall	_Led
  6136  0B94                     i1l100:
  6137  0B94  0871               	movf	??_ISR+1,w
  6138  0B95  008A               	movwf	10
  6139  0B96  0E70               	swapf	??_ISR,w
  6140  0B97  0083               	movwf	3
  6141  0B98  0EFE               	swapf	btemp,f
  6142  0B99  0E7E               	swapf	btemp,w
  6143  0B9A  0009               	retfie
  6144  0B9B                     __end_of_ISR:
  6145                           
  6146                           	psect	intentry
  6147  0004                     __pintentry:	
  6148                           ;incstack = 0
  6149                           ; Regs used in _ISR: [wreg+status,2+status,0+pclath+cstack]
  6150                           
  6151  0004                     interrupt_function:
  6152  007E                     saved_w	set	btemp
  6153  0004  00FE               	movwf	btemp
  6154  0005  0E03               	swapf	3,w
  6155  0006  00F0               	movwf	??_ISR
  6156  0007  080A               	movf	10,w
  6157  0008  00F1               	movwf	??_ISR+1
  6158  0009  120A  158A  2B7E   	ljmp	_ISR
  6159                           
  6160                           	psect	text29
  6161  0B01                     __ptext29:	
  6162 ;; *************** function _Led *****************
  6163 ;; Defined at:
  6164 ;;		line 328 in file "MAIN_I2C.c"
  6165 ;; Parameters:    Size  Location     Type
  6166 ;;		None
  6167 ;; Auto vars:     Size  Location     Type
  6168 ;;		None
  6169 ;; Return value:  Size  Location     Type
  6170 ;;                  1    wreg      void 
  6171 ;; Registers used:
  6172 ;;		wreg, status,2
  6173 ;; Tracked objects:
  6174 ;;		On entry : 0/0
  6175 ;;		On exit  : 0/0
  6176 ;;		Unchanged: 0/0
  6177 ;; Data sizes:     COMMON   BANK0   BANK1   BANK3   BANK2
  6178 ;;      Params:         0       0       0       0       0
  6179 ;;      Locals:         0       0       0       0       0
  6180 ;;      Temps:          0       0       0       0       0
  6181 ;;      Totals:         0       0       0       0       0
  6182 ;;Total ram usage:        0 bytes
  6183 ;; Hardware stack levels used:    1
  6184 ;; This function calls:
  6185 ;;		Nothing
  6186 ;; This function is called by:
  6187 ;;		_ISR
  6188 ;; This function uses a non-reentrant model
  6189 ;;
  6190                           
  6191                           
  6192                           ;psect for function _Led
  6193  0B01                     _Led:
  6194  0B01                     i1l2169:	
  6195                           ;incstack = 0
  6196                           ; Regs used in _Led: [wreg+status,2]
  6197                           
  6198  0B01  3003               	movlw	3
  6199  0B02  1283               	bcf	3,5	;RP0=0, select bank0
  6200  0B03  1303               	bcf	3,6	;RP1=0, select bank0
  6201  0B04  0268               	subwf	_contador+1,w
  6202  0B05  30E9               	movlw	233
  6203  0B06  1903               	skipnz
  6204  0B07  0267               	subwf	_contador,w
  6205  0B08  1C03               	skipc
  6206  0B09  2B0B               	goto	u259_21
  6207  0B0A  2B0C               	goto	u259_20
  6208  0B0B                     u259_21:
  6209  0B0B  2B16               	goto	i1l151
  6210  0B0C                     u259_20:
  6211  0B0C                     i1l2171:
  6212  0B0C  1C09               	btfss	9,0	;volatile
  6213  0B0D  2B0F               	goto	u260_21
  6214  0B0E  2B10               	goto	u260_20
  6215  0B0F                     u260_21:
  6216  0B0F  2B14               	goto	i1l149
  6217  0B10                     u260_20:
  6218  0B10                     i1l2173:
  6219  0B10  1009               	bcf	9,0	;volatile
  6220  0B11                     i1l2175:
  6221  0B11  01E7               	clrf	_contador
  6222  0B12  01E8               	clrf	_contador+1
  6223  0B13  2B16               	goto	i1l151
  6224  0B14                     i1l149:
  6225  0B14  1409               	bsf	9,0	;volatile
  6226  0B15  2B11               	goto	i1l2175
  6227  0B16                     i1l151:
  6228  0B16  0008               	return
  6229  0B17                     __end_of_Led:
  6230  007E                     btemp	set	126	;btemp
  6231  007E                     wtemp0	set	126
  6232                           
  6233                           	psect	config
  6234                           
  6235                           ;Config register CONFIG1 @ 0x2007
  6236                           ;	Oscillator Selection bits
  6237                           ;	FOSC = INTRC_NOCLKOUT, INTOSCIO oscillator: I/O function on RA6/OSC2/CLKOUT pin, I/O f
      +                          unction on RA7/OSC1/CLKIN
  6238                           ;	Watchdog Timer Enable bit
  6239                           ;	WDTE = OFF, WDT disabled and can be enabled by SWDTEN bit of the WDTCON register
  6240                           ;	Power-up Timer Enable bit
  6241                           ;	PWRTE = OFF, PWRT disabled
  6242                           ;	RE3/MCLR pin function select bit
  6243                           ;	MCLRE = OFF, RE3/MCLR pin function is digital input, MCLR internally tied to VDD
  6244                           ;	Code Protection bit
  6245                           ;	CP = OFF, Program memory code protection is disabled
  6246                           ;	Data Code Protection bit
  6247                           ;	CPD = OFF, Data memory code protection is disabled
  6248                           ;	Brown Out Reset Selection bits
  6249                           ;	BOREN = OFF, BOR disabled
  6250                           ;	Internal External Switchover bit
  6251                           ;	IESO = OFF, Internal/External Switchover mode is disabled
  6252                           ;	Fail-Safe Clock Monitor Enabled bit
  6253                           ;	FCMEN = OFF, Fail-Safe Clock Monitor is disabled
  6254                           ;	Low Voltage Programming Enable bit
  6255                           ;	LVP = OFF, RB3 pin has digital I/O, HV on MCLR must be used for programming
  6256                           ;	In-Circuit Debugger Mode bit
  6257                           ;	DEBUG = 0x1, unprogrammed default
  6258  2007                     	org	8199
  6259  2007  20D4               	dw	8404
  6260                           
  6261                           ;Config register CONFIG2 @ 0x2008
  6262                           ;	Brown-out Reset Selection bit
  6263                           ;	BOR4V = BOR40V, Brown-out Reset set to 4.0V
  6264                           ;	Flash Program Memory Self Write Enable bits
  6265                           ;	WRT = OFF, Write protection off
  6266  2008                     	org	8200
  6267  2008  3FFF               	dw	16383

Data Sizes:
    Strings     0
    Constant    0
    Data        0
    BSS         4
    Persistent  0
    Stack       0

Auto Spaces:
    Space          Size  Autos    Used
    COMMON           14     10      12
    BANK0            80     71      73
    BANK1            80     24      24
    BANK3            96      0       0
    BANK2            96      0       0

Pointer List with Targets:

    None.

Critical Paths under _main in COMMON

    _USART_Init->___xxtofl
    ___fltol->___xxtofl
    ___fldiv->___xxtofl
    ___fladd->___xxtofl
    _MPU_Start_Loc->_I2C_Read
    _I2C_Start->_I2C_Write
    _I2C_Repeated_Start->_I2C_Write
    _MPU6050_Init->_MSdelay
    _I2C_Start_Wait->_I2C_Write

Critical Paths under _ISR in COMMON

    None.

Critical Paths under _main in BANK0

    _main->_USART_Init
    _USART_Init->___fltol
    ___fltol->___fladd
    ___fldiv->___xxtofl
    ___fladd->___fldiv

Critical Paths under _ISR in BANK0

    None.

Critical Paths under _main in BANK1

    None.

Critical Paths under _ISR in BANK1

    None.

Critical Paths under _main in BANK3

    None.

Critical Paths under _ISR in BANK3

    None.

Critical Paths under _main in BANK2

    None.

Critical Paths under _ISR in BANK2

    None.

Call Graph Tables:

 ---------------------------------------------------------------------------------
 (Depth) Function   	        Calls       Base Space   Used Autos Params    Refs
 ---------------------------------------------------------------------------------
 (0) _main                                                28    28      0   10517
                                             67 BANK0      4     4      0
                                              0 BANK1     24    24      0
                           _I2C_Init
                           _I2C_Read
                           _I2C_Stop
                       _MPU6050_Init
                      _MPU_Start_Loc
                         _USART_Init
                       _USART_config
                            ___awdiv
                            ___awmod
                      _escribir_char
                    _interrup_config
                         _osc_config
                              _setup
                        _tmr0_config
 ---------------------------------------------------------------------------------
 (1) _tmr0_config                                          0     0      0       0
 ---------------------------------------------------------------------------------
 (1) _setup                                                0     0      0       0
 ---------------------------------------------------------------------------------
 (1) _osc_config                                           0     0      0       0
 ---------------------------------------------------------------------------------
 (1) _interrup_config                                      0     0      0       0
 ---------------------------------------------------------------------------------
 (1) _escribir_char                                        1     1      0      22
                                              2 COMMON     1     1      0
 ---------------------------------------------------------------------------------
 (1) ___awmod                                              7     3      4    1664
                                              2 COMMON     7     3      4
 ---------------------------------------------------------------------------------
 (1) ___awdiv                                              9     5      4    2605
                                              2 COMMON     5     1      4
                                              0 BANK0      4     4      0
 ---------------------------------------------------------------------------------
 (1) _USART_config                                         0     0      0       0
                   _USART_lib_config
 ---------------------------------------------------------------------------------
 (2) _USART_lib_config                                     0     0      0       0
 ---------------------------------------------------------------------------------
 (1) _USART_Init                                           4     0      4    4481
                                             63 BANK0      4     0      4
                            ___fladd
                            ___fldiv
                            ___fltol
                           ___xxtofl
 ---------------------------------------------------------------------------------
 (2) ___xxtofl                                            14    10      4     398
                                              2 COMMON     8     4      4
                                              0 BANK0      6     6      0
 ---------------------------------------------------------------------------------
 (2) ___fltol                                             11     7      4     427
                                             52 BANK0     11     7      4
                            ___fladd (ARG)
                            ___fldiv (ARG)
                           ___xxtofl (ARG)
 ---------------------------------------------------------------------------------
 (2) ___fldiv                                             26    18      8    1273
                                              6 BANK0     26    18      8
                           ___xxtofl (ARG)
 ---------------------------------------------------------------------------------
 (2) ___fladd                                             20    12      8    2262
                                             32 BANK0     20    12      8
                            ___fldiv (ARG)
                           ___xxtofl (ARG)
 ---------------------------------------------------------------------------------
 (1) _MPU_Start_Loc                                        0     0      0     155
                           _I2C_Read
                 _I2C_Repeated_Start
                          _I2C_Start
                          _I2C_Write
 ---------------------------------------------------------------------------------
 (2) _I2C_Start                                            1     1      0      44
                                              3 COMMON     1     1      0
                          _I2C_Write
 ---------------------------------------------------------------------------------
 (2) _I2C_Repeated_Start                                   1     1      0      44
                                              3 COMMON     1     1      0
                          _I2C_Write
 ---------------------------------------------------------------------------------
 (2) _I2C_Read                                             3     3      0      45
                                              2 COMMON     3     3      0
                            _I2C_Ack
                           _I2C_Nack
                          _I2C_Ready
 ---------------------------------------------------------------------------------
 (3) _I2C_Nack                                             0     0      0       0
 ---------------------------------------------------------------------------------
 (3) _I2C_Ack                                              0     0      0       0
 ---------------------------------------------------------------------------------
 (1) _MPU6050_Init                                         0     0      0     234
                     _I2C_Start_Wait
                           _I2C_Stop
                          _I2C_Write
                            _MSdelay
 ---------------------------------------------------------------------------------
 (2) _MSdelay                                              6     4      2     168
                                              2 COMMON     6     4      2
 ---------------------------------------------------------------------------------
 (2) _I2C_Start_Wait                                       1     1      0      44
                                              3 COMMON     1     1      0
                           _I2C_Stop
                          _I2C_Write
 ---------------------------------------------------------------------------------
 (2) _I2C_Write                                            1     1      0      22
                                              2 COMMON     1     1      0
                          _I2C_Ready
 ---------------------------------------------------------------------------------
 (3) _I2C_Ready                                            0     0      0       0
 ---------------------------------------------------------------------------------
 (2) _I2C_Stop                                             0     0      0       0
 ---------------------------------------------------------------------------------
 (1) _I2C_Init                                             0     0      0       0
 ---------------------------------------------------------------------------------
 Estimated maximum stack depth 3
 ---------------------------------------------------------------------------------
 (Depth) Function   	        Calls       Base Space   Used Autos Params    Refs
 ---------------------------------------------------------------------------------
 (5) _ISR                                                  2     2      0       0
                                              0 COMMON     2     2      0
                                _Led
 ---------------------------------------------------------------------------------
 (6) _Led                                                  0     0      0       0
 ---------------------------------------------------------------------------------
 Estimated maximum stack depth 6
 ---------------------------------------------------------------------------------

 Call Graph Graphs:

 _main (ROOT)
   _I2C_Init
   _I2C_Read
     _I2C_Ack
     _I2C_Nack
     _I2C_Ready
   _I2C_Stop
   _MPU6050_Init
     _I2C_Start_Wait
       _I2C_Stop
       _I2C_Write
         _I2C_Ready
     _I2C_Stop
     _I2C_Write
       _I2C_Ready
     _MSdelay
   _MPU_Start_Loc
     _I2C_Read
       _I2C_Ack
       _I2C_Nack
       _I2C_Ready
     _I2C_Repeated_Start
       _I2C_Write
         _I2C_Ready
     _I2C_Start
       _I2C_Write
         _I2C_Ready
     _I2C_Write
       _I2C_Ready
   _USART_Init
     ___fladd
       ___fldiv (ARG)
         ___xxtofl (ARG)
       ___xxtofl (ARG)
     ___fldiv
       ___xxtofl (ARG)
     ___fltol
       ___fladd (ARG)
         ___fldiv (ARG)
           ___xxtofl (ARG)
         ___xxtofl (ARG)
       ___fldiv (ARG)
         ___xxtofl (ARG)
       ___xxtofl (ARG)
     ___xxtofl
   _USART_config
     _USART_lib_config
   ___awdiv
   ___awmod
   _escribir_char
   _interrup_config
   _osc_config
   _setup
   _tmr0_config

 _ISR (ROOT)
   _Led

 Address spaces:
Name               Size   Autos  Total    Cost      Usage
BITCOMMON            E      0       0       0        0.0%
EEDATA             100      0       0       0        0.0%
NULL                 0      0       0       0        0.0%
CODE                 0      0       0       0        0.0%
COMMON               E      A       C       1       85.7%
BITSFR0              0      0       0       1        0.0%
SFR0                 0      0       0       1        0.0%
BITSFR1              0      0       0       2        0.0%
SFR1                 0      0       0       2        0.0%
STACK                0      0       0       2        0.0%
ABS                  0      0      6D       3        0.0%
BITBANK0            50      0       0       4        0.0%
BITSFR3              0      0       0       4        0.0%
SFR3                 0      0       0       4        0.0%
BANK0               50     47      49       5       91.2%
BITSFR2              0      0       0       5        0.0%
SFR2                 0      0       0       5        0.0%
BITBANK1            50      0       0       6        0.0%
BANK1               50     18      18       7       30.0%
BITBANK3            60      0       0       8        0.0%
BANK3               60      0       0       9        0.0%
BITBANK2            60      0       0      10        0.0%
BANK2               60      0       0      11        0.0%
DATA                 0      0      6D      12        0.0%


Microchip Technology PIC Macro Assembler V2.31 build 20201012212115 
Symbol Table                                                                                   Sun Mar 07 22:24:50 2021

                        ___fldiv@aexp 003F                          ___fldiv@bexp 003E  
                  __size_of_I2C_Ready 0008                          ___fldiv@sign 0037  
                  __size_of_I2C_Start 0019                           _SSPSTATbits 0094  
                  __size_of_I2C_Write 0014                          ___awdiv@sign 0021  
              __size_of_escribir_char 000A                                   l111 07F4  
                                 l120 0ACA                                   l201 0B48  
                                 l114 0ABD                                   l123 0A8D  
                                 l212 0BBF                                   l204 0B9C  
                                 l205 0B9F                                   l117 07FE  
                                 l142 0B61                                   l126 0AAD  
                                 l207 0BA3                                   l215 0B1B  
                                 l232 0A9E                                   l225 0B00  
                                 l145 0E22                                   l241 0BE9  
                                 l217 0B1F                                   l129 0AB1  
                                 l251 0AD2                                   l235 0AA3  
                                 l219 0B2F                                   l253 0AD8  
                                 l229 0A9A                                   l245 0C03  
                                 l262 0BDA                                   l238 0AA7  
                                 l246 0C09                                   l256 0A8E  
                                 l249 0ACE                                   l194 0AEC  
                                 l258 0A94                                   l530 0D29  
                                 l259 0A95                                   l267 0BE4  
                                 l291 0CC0                                   l197 0B34  
                                 l701 06A6                                   l199 0B38  
                                 l543 0C62                                   l712 0706  
                                 l704 06E4                                   l288 0B7D  
                                 l713 0712                                   l570 0D90  
                                 l810 0737                                   l563 0DA5  
                                 l812 07CE                                   l573 0DA5  
                                 l670 04EE                                   l750 0FF3  
                                 l742 0F71                                   l726 0E7F  
                                 l823 0798                                   l728 0FFF  
                                 l824 07A4                                   l816 077C  
                                 l674 0595                                   l691 0660  
                                 l683 0712                                   l676 056C  
                                 l748 0FE3                                   l695 0684  
             __end_of_interrup_config 0ABE                                   _PEN 048A  
                                 _ISR 0B7E                                   _Led 0B01  
                    _USART_lib_config 0B62                       __end_of_I2C_Ack 0A9F  
                                 _str 007A                          ___awmod@sign 0078  
                     ??_MPU_Start_Loc 0075                           main@decimal 00B1  
                                ?_ISR 0070                                  ?_Led 0070  
                        ___fltol@exp1 005E                                  l2001 0E4A  
                                l2011 0E62                                  l2003 0E52  
                                l2101 0FA6                                  l2013 0E67  
                                l2021 0E77                                  l2005 0E57  
                                l2111 0FDA                                  l2103 0FAC  
                                l2023 0E87                                  l2031 0EA0  
                                l2015 0E6C                                  l2007 0E5D  
                                l2201 0AE3                                  l2113 0FE2  
                                l2105 0FB9                                  l2041 0EC8  
                                l2033 0EA5                                  l2025 0E93  
                                l2017 0E74                                  l2009 0E61  
                                l2203 0AE6                                  l2115 0FE9  
                                l2107 0FC7                                  l2051 0EF1  
                                l2043 0ED0                                  l2027 0E97  
                                l2019 0E75                                  l2131 072F  
                                l2205 0AE8                                  l2117 0FED  
                                l2109 0FD6                                  l2061 0F12  
                                l2053 0EF5                                  l2045 0ED8  
                                l2037 0EAE                                  l2141 075A  
                                l2133 073F                                  l2125 0716  
                                l2207 0AE9                                  l2119 0FEF  
                                l2071 0F34                                  l2063 0F20  
                                l2055 0EF6                                  l2047 0EDA  
                                l2039 0EC0                                  l2151 078E  
                                l2143 0761                                  l2127 071B  
                                l2217 0B49                                  l2073 0F3D  
                                l2081 0F51                                  l2049 0EDF  
                                l2057 0EFF                                  l2065 0F24  
                                l2161 07C1                                  l2153 0792  
                                l2145 0765                                  l2137 0748  
                                l2129 071F                                  l2083 0F55  
                                l2075 0F41                                  l2067 0F2A  
                                l2059 0F11                                  l2163 07C5  
                                l2155 079C                                  l2147 0773  
                                l2139 074D                                  l2219 0AA9  
                                l1701 0BF3                                  l2093 0F76  
                                l2085 0F56                                  l2077 0F42  
                                l2069 0F32                                  l2165 07C6  
                                l2157 07A6                                  l2149 0783  
                                l2501 0CC4                                  l2181 07E7  
                                l1703 0BF8                                  l2095 0F7B  
                                l2087 0F5A                                  l2079 0F4B  
                                l2159 07BC                                  l1711 0B62  
                                l2511 0CD8                                  l2503 0CC8  
                                l2271 0C14                                  l2183 07F5  
                                l2191 0AC6                                  l1705 0BFE  
                                l1721 0B18                                  l1713 0B31  
                                l1801 04A7                                  l2097 0F89  
                                l2089 0F6E                                  l2193 0A88  
                                l2521 0CEE                                  l2513 0CDC  
                                l2505 0CCD                                  l2281 0C28  
                                l2273 0C16                                  l2265 0C0A  
                                l2185 0AB2                                  l2601 0293  
                                l2195 0DA6                                  l1707 0C08  
                                l1811 04BF                                  l1803 04AF  
                                l2099 0F8D                                  l2531 0D0E  
                                l2523 0CF2                                  l2515 0CDE  
                                l2507 0CCF                                  l2291 0C47  
                                l2283 0C2F                                  l2275 0C1A  
                                l2267 0C0B                                  l2187 0ABA  
                                l2179 07CF                                  l2611 0303  
                                l2603 0299                                  l2197 0AD9  
                                l1741 0BC5                                  l1733 0BC0  
                                l1725 0B29                                  l1717 0B42  
                                l1901 05CF                                  l1821 04D1  
                                l1813 04C5                                  l1805 04B0  
                                l2461 0D40                                  l2533 0D15  
                                l2525 0CF6                                  l2517 0CE4  
                                l2509 0CD3                                  l2293 0C4E  
                                l2285 0C33                                  l2277 0C1F  
                                l2269 0C0F                                  l2189 0ABE  
                                l2621 034B                                  l2613 031D  
                                l2605 02B5                                  l2199 0ADD  
                                l1751 0BB9                                  l1743 0BD4  
                                l1735 0BC3                                  l1727 0B2F  
                                l1903 05D1                                  l1911 05E4  
                                l1823 04D6                                  l1831 04E6  
                                l1815 04C6                                  l1807 04B2  
                                l2471 0D64                                  l2463 0D55  
                                l2455 0D2A                                  l2527 0D07  
                                l2519 0CE7                                  l2535 0D1B  
                                l2287 0C37                                  l2279 0C25  
                                l2295 0C54                                  l2631 036F  
                                l2623 0351                                  l2615 0337  
                                l2607 02CF                                  l2551 004B  
                                l2543 0019                                  l1673 0A8E  
                                l1681 0AF7                                  l1913 05FA  
                                l1921 0652                                  l1905 05D5  
                                l1841 0504                                  l1833 04F4  
                                l1825 04DB                                  l1817 04CC  
                                l1809 04BA                                  l2465 0D56  
                                l2457 0D37                                  l2537 0D20  
                                l2529 0D0D                                  l2297 0C59  
                                l2289 0C41                                  l2641 03A9  
                                l2633 0378                                  l2625 0357  
                                l2617 033F                                  l2609 02E9  
                                l2561 0174                                  l2553 012E  
                                l2545 0028                                  l1675 0ACB  
                                l1683 0AFD                                  l1747 0BAD  
                                l1931 067F                                  l1923 0668  
                                l1915 0638                                  l1907 05D6  
                                l1851 0518                                  l1843 0508  
                                l1835 04F8                                  l1827 04E3  
                                l1819 04D0                                  l2467 0D5E  
                                l2491 0C63                                  l2539 0D25  
                                l2299 0C5E                                  l2651 042B  
                                l2643 03C3                                  l2635 0381  
                                l2627 0360                                  l2619 0345  
                                l2571 01DB                                  l2563 0185  
                                l2555 0133                                  l2547 002D  
                                l1677 0AEE                                  l1749 0BB3  
                                l1693 0A96                                  l1941 0692  
                                l1933 0683                                  l1925 066D  
                                l1917 063E                                  l1909 05DF  
                                l1861 052C                                  l1853 051C  
                                l1845 050C                                  l1837 04FC  
                                l1829 04E4                                  l2485 0D85  
                                l2477 0D6C                                  l2469 0D60  
                                l2493 0C67                                  l2661 044B  
                                l2653 0433                                  l2645 03DD  
                                l2637 0387                                  l2629 0369  
                                l2581 024B                                  l2573 01F5  
                                l2565 0196                                  l2557 014A  
                                l2549 003C                                  l1679 0AF2  
                                l1695 0A9F                                  l1951 06A3  
                                l1935 0688                                  l1943 0694  
                                l1919 0643                                  l1871 0550  
                                l1863 0530                                  l1855 0520  
                                l1847 0510                                  l1839 0500  
                                l1791 0492                                  l2487 0D95  
                                l2479 0D7E                                  l2495 0CBA  
                                l2671 0475                                  l2663 0454  
                                l2655 0439                                  l2647 03F7  
                                l2639 038D                                  l2591 026C  
                                l2583 0251                                  l2575 020F  
                                l2567 01A7                                  l2559 015F  
                                l1689 0AFF                                  l1697 0BE6  
                                l1961 06C2                                  l1937 068B  
                                l1929 0676                                  l1945 0698  
                                l1881 0580                                  l1873 0570  
                                l1865 0534                                  l1857 0524  
                                l1849 0514                                  l1793 0498  
                                l2489 0D9A                                  l2497 0CBC  
                                l2673 047B                                  l2665 045D  
                                l2657 043F                                  l2649 0411  
                                l2593 0275                                  l2585 0257  
                                l2577 0229                                  l2569 01C1  
                                l1699 0BED                                  l1971 06FB  
                                l1963 06E0                                  l1955 06AB  
                                l1947 0699                                  l1939 068D  
                                l1883 0589                                  l1875 0579  
                                l1859 0528                                  l1867 0538  
                                l1795 049C                                  l2499 0CC1  
                                l2675 0481                                  l2667 0463  
                                l2659 0445                                  l2595 027B  
                                l2587 025D                                  l2579 0243  
                                l1981 0711                                  l1973 06FC  
                                l1965 06E9                                  l1957 06B0  
                                l1949 069D                                  l1893 05A7  
                                l1877 057B                                  l1885 058D  
                                l1869 0539                                  l1797 049D  
                                l1789 048B                                  l2669 046C  
                                l2597 0284                                  l2589 0263  
                                l1975 0700                                  l1967 06EE  
                                l1959 06BE                                  l1895 05BE  
                                l1887 0599                                  l1879 057F  
                                l1799 04A2                                  l1991 0E35  
                                l1983 0E23                                  l2599 028D  
                                l1977 0702                                  l1969 06F6  
                                l1897 05C2                                  l1889 059E  
                                l1993 0E3A                                  l1985 0E2A  
                                l1979 070D                                  l1899 05C6  
                                l1995 0E3F                                  l1987 0E30  
                                l1997 0E47                                  l1989 0E34  
                                l1999 0E48                                  _CREN 00C4  
                                u2000 0683                                  u2001 0682  
                                u2010 0688                                  u2011 0687  
                                u2100 06E0                                  u2020 0692  
                                u2101 06DF                                  u2021 0691  
                                u2110 06E9                                  u2030 0698  
                                u2111 06E8                                  u2031 0697  
                                u2120 06EE                                  u2040 069D  
                                u2200 0E67                                  u3000 0CF6  
                                u2121 06ED                                  u2041 069C  
                                u2201 0E66                                  u3001 0CF5  
                                u2130 06FB                                  u2050 06A3  
                                u2210 0E6C                                  u2131 06FA  
                                u2051 06A2                                  u2211 0E6B  
                                u1500 0BF8                                  u2140 0700  
                                u2060 06AA                                  u2300 0F2A  
                                u2220 0E87                                  u3020 0D07  
                                _IOCB 0096                                  u1501 0BF7  
                                u2141 06FF                                  u2061 06A9  
                                u2301 0F29                                  u2221 0E86  
                                u3021 0D06                                  u1510 0B38  
                                u2150 0711                                  u2070 06B0  
                                u2310 0F32                                  u2230 0EA5  
                                u1511 0B37                                  u2151 0710  
                                u2071 06AF                                  u2311 0F31  
                                u2231 0EA4                                  u3015 0CF7  
                                u1440 0A94                                  u1520 0B41  
                                u2080 06C2                                  u2400 0F8D  
                                u2240 0EDF                                  u2160 0E34  
                                u3040 0D1B                                  u1441 0A93  
                                u1521 0B40                                  u2081 06C1  
                                u2401 0F8C                                  u2241 0EDE  
                                u2161 0E33                                  u3041 0D1A  
                                u3025 0D03                                  u1450 0AD2  
                                u1530 0B1F                                  u2090 06D1  
                                u2410 0F9C                                  u2330 0F41  
                                u2170 0E3A                                  u3050 0D20  
                                u1451 0AD1                                  u1531 0B1E  
                                u2331 0F40                                  u2171 0E39  
                                u3051 0D1F                                  u3035 0D0F  
                                u1460 0AFD                                  u1540 0B28  
                                u1700 049C                                  u2420 0FB9  
                                u2180 0E3F                                  u1461 0AFC  
                                u1541 0B27                                  u1701 049B  
                                u2421 0FB8                                  u2325 0F36  
                                u2181 0E3E                                  u1550 0BD4  
                                u1470 0A9E                                  u1710 04A2  
                                u2430 0FD6                                  u2350 0F55  
                                u2270 0EF5                                  u2190 0E61  
                                u2510 0782                                  u1551 0BD3  
                                u1471 0A9D                                  u2095 06CC  
                                u1711 04A1                                  u2431 0FD5  
                                u2415 0F97                                  u2351 0F54  
                                u2271 0EF4                                  u2255 0EE1  
                                u2191 0E60                                  u2511 0781  
                                u1560 0BE4                                  u1480 0AA7  
                                u1800 055B                                  u1720 04A7  
                                u2440 0FED                                  u2360 0F5A  
                                u1561 0BE3                                  u1481 0AA6  
                                u1801 0559                                  u1721 04A6  
                                u2441 0FEC                                  u2425 0FB5  
                                u2361 0F59                                  u2345 0F44  
                                u2265 0EEA                                  u2505 0774  
                                u3065 0179                                  u1570 0BA3  
                                u1490 0BED                                  u1810 055C  
                                u1730 04C5                                  u2370 0F6E  
                                u2290 0F11                                  u2530 0792  
                                u2450 071B                                  u2610 0AB1  
                                u1571 0BA2                                  u1491 0BEC  
                                u1731 04C4                                  u2435 0FD2  
                                u2371 0F6D                                  u2291 0F10  
                                u2531 0791                                  u2451 071A  
                                u2611 0AB0                                  u3075 018A  
                                u1580 0BAC                                  u1900 05C6  
                                u1820 0570                                  u1740 04D0  
                                u2380 0F75                                  u2540 0798  
                                u2460 071F                                  u1581 0BAB  
                                u1565 0BE0                                  u1901 05C5  
                                u1821 056F                                  u1741 04CF  
                                u2381 0F74                                  u2285 0EF8  
                                u2541 0797                                  u2525 0787  
                                u2461 071E                                  u3085 019B  
                                u1590 0BB9                                  u1910 05D5  
                                u1830 057F                                  u1750 04D6  
                                u2390 0F7B                                  u2550 079C  
                                u2470 073F                                  u1591 0BB8  
                                u1911 05D4                                  u1831 057E  
                                u1751 04D5                                  u2391 0F7A  
                                u2295 0F0D                                  u2551 079B  
                                u2471 073E                                  u1760 04DB  
                                u2560 07B1                                  u2800 0C59  
                                u2720 0C0F                                  u1761 04DA  
                                u2801 0C58                                  u2721 0C0E  
                                u1930 05FA                                  u1850 0595  
                                u1770 04F4                                  u2570 07C1  
                                u2490 0760                                  u2730 0C1A  
                                u1931 05F9                                  u1851 0594  
                                u1771 04F3                                  u2571 07C0  
                                u2491 075F                                  u2731 0C19  
                                u1860 0599                                  u1780 04F8  
                                u2580 07C5                                  u2740 0C25  
                                u1941 0611                                  u1933 05F6  
                                u1925 05D8                                  u1861 0598  
                                u1845 0582                                  u1781 04F7  
                                u2581 07C4                                  u2565 07AC  
                                u2485 0752                                  u2741 0C24  
                                u1950 0625                                  u1942 0612  
                                u1870 059E                                  u1790 0550  
                                u2910 0D7D                                  u1951 0626  
                                u1943 0617                                  u1871 059D  
                                u1791 054F                                  u2911 0D7C  
                                u1960 0643                                  u1952 062B  
                                u1944 0618                                  u2920 0D84  
                                u2760 0C37                                  u1961 0642  
                                u1953 062C                                  u1945 061D  
                                u1881 05B0                                  u2921 0D83  
                                u2905 0D6D                                  u2761 0C36  
                                u1970 0668                                  u1946 061E  
                                u1890 05C2                                  u1882 05B7  
                                u2770 0C41                                  u1971 0667  
                                u1891 05C1                                  u1883 05BE  
                                u1795 054C                                  u2771 0C40  
                                u2755 0C29                                  u1980 066D  
                                u2940 0D95                                  u2860 0D37  
                                u1981 066C                                  u2941 0D94  
                                u2861 0D36                                  u2950 0D9A  
                                u2870 0D4E                                  u2790 0C54  
                                u2951 0D99                                  u2935 0D87  
                                u2791 0C53                                  u2775 0C3D  
                                u2880 0D64                                  u2960 0CC8  
                                u2881 0D63                                  u2961 0CC7  
                                u2785 0C48                                  u2890 0D6B  
                                u2970 0CD3                                  u1995 0678  
                                u2891 0D6A                                  u2875 0D49  
                                u2971 0CD2                                  u2980 0CE4  
                                _RCEN 048B                                  u2981 0CE3  
                                u2995 0CE8                                  _TMR0 0001  
                                _RSEN 0489                                  _main 0019  
                    __end_of_I2C_Nack 0AA8                      __end_of_I2C_Init 0AED  
                    __end_of_I2C_Read 0C0A                                  btemp 007E  
                    __end_of_I2C_Stop 0AD9                                  start 000C  
                     __end_of_MSdelay 0BE5                       ___fldiv@new_exp 0038  
                               ??_ISR 0070                                 ??_Led 0070  
                       ___fltol@sign1 005D                       __end_of___fladd 0713  
                               ?_main 0070                                 _ACKEN 048C  
                               _ACKDT 048D                       __end_of___fldiv 1000  
                     __end_of___awdiv 0D2A                       __end_of___awmod 0C63  
                     __end_of___fltol 0DA6                                 _ANSEL 0188  
                     ___awdiv@divisor 0072                                 i1l100 0B94  
                               i1l151 0B16                                 i1l149 0B14  
                     ___awdiv@counter 0020                                 _RCREG 001A  
                               _RCSTA 0018                                 _SPBRG 0099  
                               _PORTA 0005                                 _PORTB 0006  
                               _PORTC 0007                                 _PORTD 0008  
                               _PORTE 0009                                 _TRISA 0085  
                               _TRISB 0086                                 _TRISC 0087  
                               _TRISD 0088                                 _SSPIE 0463  
                               _TRISE 0089                                 _SSPIF 0063  
                               _TXREG 0019                                 _TXSTA 0098  
                       ?_MPU6050_Init 0070                          main@residuo0 00B6  
                        main@residuo1 00B7                          main@residuo2 00B4  
                               _valor 007B                     __end_of_I2C_Ready 0A96  
                               _setup 07CF                     __end_of_I2C_Start 0B49  
                   __end_of_I2C_Write 0B01                         _escribir_char 0AA8  
                               pclath 000A                                 status 0003  
                               wtemp0 007E                           ?_USART_Init 005F  
                     __initialization 000F                          __end_of_main 048B  
                           ??_I2C_Ack 0072                                ??_main 0063  
                    ?_interrup_config 0070                          ?_tmr0_config 0070  
                      ??_MPU6050_Init 0078                      ___awdiv@dividend 0074  
                      ?_escribir_char 0070                                ?_setup 0070  
                              _ANSELH 0189                                i1l2311 0B8F  
                              i1l2303 0B7E                                i1l2305 0B82  
                              i1l2171 0B0C                                i1l2307 0B83  
                              i1l2173 0B10                                i1l2309 0B87  
                              i1l2175 0B11                                i1l2169 0B01  
                           ??_MSdelay 0074                                u260_20 0B10  
                              u260_21 0B0F                                u281_20 0B82  
                              u281_21 0B81                                u259_20 0B0C  
                              u259_21 0B0B                                _SSPADD 0093  
                              _TRISB0 0430                                _TRISB1 0431  
                              _TRISC6 043E                                _TRISC7 043F  
                              _SSPCON 0014                                _SSPBUF 0013  
                    __end_of___xxtofl 07CF                             ??___fladd 0048  
                           ??___fldiv 002E                             ??___awdiv 0076  
                           ??___awmod 0076                             ??___fltol 0058  
                    ___awdiv@quotient 0022                       ___awmod@divisor 0072  
                     ___awmod@counter 0077                    _I2C_Repeated_Start 0B17  
                              main@Ax 00A8                                main@Ay 00AA  
                              main@Az 00AC                                main@Gx 00A2  
                              main@Gy 00A4                                main@Gz 00A6  
                           ?_I2C_Nack 0070                             ?_I2C_Init 0070  
                           ?_I2C_Read 0070                             ?_I2C_Stop 0070  
                              saved_w 007E                   ?_I2C_Repeated_Start 0070  
                 __size_of_USART_Init 005E                          ___xxtofl@arg 0022  
                        ___xxtofl@exp 0021                          ___xxtofl@val 0072  
             __end_of__initialization 0015              __end_of_USART_lib_config 0B7E  
                          ___fltol@f1 0054                  ??_I2C_Repeated_Start 0073  
                      __pcstackCOMMON 0070                         __end_of_setup 07F5  
                          ??_I2C_Nack 0072                            ??_I2C_Init 0072  
                      _OPTION_REGbits 0081                            ??_I2C_Read 0072  
                          ??_I2C_Stop 0072                       ??_escribir_char 0072  
                             ??_setup 0072               __size_of_I2C_Start_Wait 0025  
                          __pbssBANK0 0067                            __pmaintext 0019  
                        I2C_Read@flag 0073                        I2C_Read@buffer 0074  
                __end_of_MPU6050_Init 0E23                            __pintentry 0004  
                             _I2C_Ack 0A96                               _ACKSTAT 048E  
                           ?___xxtofl 0072                  __size_of_tmr0_config 000D  
                             _SSPCON2 0091                 __end_of_MPU_Start_Loc 0B62  
                             _SSPSTAT 0094                               _MSdelay 0BC0  
                           _I2C_Ready 0A8E                             _I2C_Start 0B30  
                           _I2C_Write 0AED                          ??_USART_Init 007A  
                             ___fladd 048B                               ___fldiv 0E23  
                             ___awdiv 0CC1                               ___awmod 0C0A  
                             ___fltol 0D2A                               __ptext1 0ABE  
                             __ptext2 07CF                               __ptext3 07F5  
                             __ptext4 0AB2                               __ptext5 0AA8  
                             __ptext6 0C0A                               __ptext7 0CC1  
                             __ptext8 0A88                               __ptext9 0B62  
   I2C_Start_Wait@slave_write_address 0073                          __size_of_ISR 001D  
                        __size_of_Led 0016                            ??___xxtofl 0076  
                    ___awmod@dividend 0074                               main@Ax1 00AE  
                             main@Ay1 00AF                               main@Az1 00B0  
                  __end_of_USART_Init 0CC1                  end_of_initialization 0015  
                          _osc_config 07F5                            ?_I2C_Ready 0070  
                          ?_I2C_Start 0070                            ?_I2C_Write 0070  
                           _RCSTAbits 0018                             _PORTEbits 0009  
                         ___fladd@grs 0053                         ___xxtofl@sign 0020  
                           _TRISCbits 0087                     __size_of_I2C_Nack 0009  
                   __size_of_I2C_Init 0014                     __size_of_I2C_Read 0025  
                         ___fldiv@grs 003A                           ___fldiv@rem 0033  
                   __size_of_I2C_Stop 000E                        _I2C_Start_Wait 0B9B  
            __size_of_interrup_config 000C                   USART_Init@baud_rate 005F  
                          main@decena 00B5                             _TXSTAbits 0098  
                          main@entero 00B2                 __size_of_MPU6050_Init 007D  
                          main@unidad 00B3                     ?_USART_lib_config 0070  
                       ?_USART_config 0070                    ??_USART_lib_config 0072  
                 start_initialization 000F                           __end_of_ISR 0B9B  
                         __end_of_Led 0B17                __end_of_I2C_Start_Wait 0BC0  
                        _MPU6050_Init 0DA6  I2C_Repeated_Start@slave_read_address 0073  
                         ?_osc_config 0070                           ??_I2C_Ready 0072  
                         ??_I2C_Start 0073                           ??_I2C_Write 0072  
                      ??_USART_config 0072           __size_of_I2C_Repeated_Start 0019  
                            ?_I2C_Ack 0070                             ___fladd@a 0044  
                           ___fladd@b 0040                             ___fldiv@a 0026  
                           ___fldiv@b 002A                           __pbssCOMMON 007A  
                           ___latbits 0002                         __pcstackBANK0 0020  
                       __pcstackBANK1 00A0                       ?_I2C_Start_Wait 0070  
                   __size_of___xxtofl 00BC                 __end_of_escribir_char 0AB2  
                            ?_MSdelay 0072                     ??_interrup_config 0072  
                            ?___fladd 0040                              ?___fldiv 0026  
                            ?___awdiv 0072                              ?___awmod 0072  
                            ?___fltol 0054                   __size_of_osc_config 000A  
                            _I2C_Nack 0A9F                              _I2C_Init 0AD9  
                       ??_tmr0_config 0072                              _I2C_Read 0BE5  
                            _I2C_Stop 0ACB                        __size_of_setup 0026  
                            MSdelay@i 0074                              MSdelay@j 0076  
                   interrupt_function 0004                              _PIE1bits 008C  
                            _PIR1bits 000C                __size_of_MPU_Start_Loc 0019  
                    __size_of_I2C_Ack 0009                  __end_of_USART_config 0A8E  
                 __end_of_tmr0_config 0ACB          I2C_Start@slave_write_address 0073  
                    __size_of_MSdelay 0025                         I2C_Write@data 0072  
                    __size_of___fladd 0288                      __size_of___fldiv 01DD  
                    __size_of___awdiv 0069                      __size_of___awmod 0059  
                    __size_of___fltol 007C             __size_of_USART_lib_config 001C  
                            ___xxtofl 0713                              __ptext10 0C63  
                            __ptext11 0713                              __ptext20 0A96  
                            __ptext12 0D2A                              __ptext21 0DA6  
                            __ptext13 0E23                              __ptext22 0BC0  
                            __ptext14 048B                              __ptext23 0B9B  
                            __ptext15 0B49                              __ptext24 0AED  
                            __ptext16 0B30                              __ptext25 0A8E  
                            __ptext17 0B17                              __ptext26 0ACB  
                            __ptext18 0BE5                              __ptext27 0AD9  
                            __ptext19 0A9F                              __ptext28 0B7E  
                            __ptext29 0B01                    escribir_char@valor 0072  
                            _contador 0067                         _MPU_Start_Loc 0B49  
                        ??_osc_config 0072                         __size_of_main 0472  
                          MSdelay@val 0072                      ??_I2C_Start_Wait 0073  
                          _INTCONbits 000B                    __end_of_osc_config 07FF  
                         _tmr0_config 0ABE                       _interrup_config 0AB2  
                      ?_MPU_Start_Loc 0070                              intlevel1 0000  
          __end_of_I2C_Repeated_Start 0B30                            _OSCCONbits 008F  
               __size_of_USART_config 0006                           _SSPCON2bits 0091  
                       ___fladd@signs 0050                          ___fladd@aexp 0051  
                        ___fladd@bexp 0052                            _USART_Init 0C63  
                        _USART_config 0A88  
