

Microchip MPLAB XC8 Assembler V2.31 build 20201012212115 
                                                                                               Thu Feb 04 22:38:43 2021

Microchip MPLAB XC8 C Compiler v2.31 (Free license) build 20201012212115 Og1 
     1                           	processor	16F887
     2                           	pagewidth 120
     3                           	opt	flic
     4                           	psect	cinit,global,class=CODE,merge=1,delta=2
     5                           	psect	bssCOMMON,global,class=COMMON,space=1,delta=1,noexec
     6                           	psect	bssBANK0,global,class=BANK0,space=1,delta=1,noexec
     7                           	psect	clrtext,global,class=CODE,delta=2
     8                           	psect	cstackCOMMON,global,class=COMMON,space=1,delta=1,noexec
     9                           	psect	cstackBANK0,global,class=BANK0,space=1,delta=1,noexec
    10                           	psect	maintext,global,class=CODE,split=1,delta=2
    11                           	psect	text1,local,class=CODE,merge=1,delta=2
    12                           	psect	text2,local,class=CODE,merge=1,delta=2
    13                           	psect	text3,local,class=CODE,merge=1,delta=2
    14                           	psect	text4,local,class=CODE,merge=1,delta=2
    15                           	psect	text5,local,class=CODE,merge=1,delta=2
    16                           	psect	text6,local,class=CODE,merge=1,delta=2
    17                           	psect	text7,local,class=CODE,merge=1,delta=2
    18                           	psect	intentry,global,class=CODE,delta=2
    19                           	psect	text8,local,class=CODE,merge=1,delta=2
    20                           	psect	text9,local,class=CODE,merge=1,delta=2
    21                           	psect	text10,local,class=CODE,merge=1,delta=2
    22                           	psect	text11,local,class=CODE,merge=1,delta=2
    23                           	psect	text12,local,class=CODE,merge=1,delta=2,group=1
    24                           	psect	text13,local,class=CODE,merge=1,delta=2
    25                           	psect	config,global,abs,ovrld,class=CONFIG,space=4,delta=2,noexec
    26                           	dabs	1,0x7E,2
    27  0000                     
    28                           ; Version 2.20
    29                           ; Generated 12/02/2020 GMT
    30                           ; 
    31                           ; Copyright © 2020, Microchip Technology Inc. and its subsidiaries ("Microchip")
    32                           ; All rights reserved.
    33                           ; 
    34                           ; This software is developed by Microchip Technology Inc. and its subsidiaries ("Microch
      +                          ip").
    35                           ; 
    36                           ; Redistribution and use in source and binary forms, with or without modification, are
    37                           ; permitted provided that the following conditions are met:
    38                           ; 
    39                           ;     1. Redistributions of source code must retain the above copyright notice, this lis
      +                          t of
    40                           ;        conditions and the following disclaimer.
    41                           ; 
    42                           ;     2. Redistributions in binary form must reproduce the above copyright notice, this 
      +                          list
    43                           ;        of conditions and the following disclaimer in the documentation and/or other
    44                           ;        materials provided with the distribution.
    45                           ; 
    46                           ;     3. Microchip's name may not be used to endorse or promote products derived from th
      +                          is
    47                           ;        software without specific prior written permission.
    48                           ; 
    49                           ; THIS SOFTWARE IS PROVIDED BY MICROCHIP "AS IS" AND ANY EXPRESS OR IMPLIED WARRANTIES,
    50                           ; INCLUDING, BUT NOT LIMITED TO, THE IMPLIED WARRANTIES OF MERCHANTABILITY AND FITNESS F
      +                          OR
    51                           ; PURPOSE ARE DISCLAIMED.  IN NO EVENT SHALL MICROCHIP BE LIABLE FOR ANY DIRECT, INDIREC
      +                          T,
    52                           ; INCIDENTAL, SPECIAL, EXEMPLARY, OR CONSEQUENTIAL DAMAGES (INCLUDING BUT NOT LIMITED TO
    53                           ; PROCUREMENT OF SUBSTITUTE GOODS OR SERVICES; LOSS OF USE, DATA OR PROFITS; OR BUSINESS
    54                           ; INTERRUPTION) HOWSOEVER CAUSED AND ON ANY THEORY OF LIABILITY, WHETHER IN CONTRACT, ST
      +                          RICT
    55                           ; LIABILITY, OR TORT (INCLUDING NEGLIGENCE OR OTHERWISE) ARISING IN ANY WAY OUT OF THE U
      +                          SE OF
    56                           ; THIS SOFTWARE, EVEN IF ADVISED OF THE POSSIBILITY OF SUCH DAMAGE.
    57                           ; 
    58                           ; 
    59                           ; Code-generator required, PIC16F887 Definitions
    60                           ; 
    61                           ; SFR Addresses
    62  0000                     	;# 
    63  0001                     	;# 
    64  0002                     	;# 
    65  0003                     	;# 
    66  0004                     	;# 
    67  0005                     	;# 
    68  0006                     	;# 
    69  0007                     	;# 
    70  0008                     	;# 
    71  0009                     	;# 
    72  000A                     	;# 
    73  000B                     	;# 
    74  000C                     	;# 
    75  000D                     	;# 
    76  000E                     	;# 
    77  000E                     	;# 
    78  000F                     	;# 
    79  0010                     	;# 
    80  0011                     	;# 
    81  0012                     	;# 
    82  0013                     	;# 
    83  0014                     	;# 
    84  0015                     	;# 
    85  0015                     	;# 
    86  0016                     	;# 
    87  0017                     	;# 
    88  0018                     	;# 
    89  0019                     	;# 
    90  001A                     	;# 
    91  001B                     	;# 
    92  001B                     	;# 
    93  001C                     	;# 
    94  001D                     	;# 
    95  001E                     	;# 
    96  001F                     	;# 
    97  0081                     	;# 
    98  0085                     	;# 
    99  0086                     	;# 
   100  0087                     	;# 
   101  0088                     	;# 
   102  0089                     	;# 
   103  008C                     	;# 
   104  008D                     	;# 
   105  008E                     	;# 
   106  008F                     	;# 
   107  0090                     	;# 
   108  0091                     	;# 
   109  0092                     	;# 
   110  0093                     	;# 
   111  0093                     	;# 
   112  0093                     	;# 
   113  0094                     	;# 
   114  0095                     	;# 
   115  0096                     	;# 
   116  0097                     	;# 
   117  0098                     	;# 
   118  0099                     	;# 
   119  009A                     	;# 
   120  009B                     	;# 
   121  009C                     	;# 
   122  009D                     	;# 
   123  009E                     	;# 
   124  009F                     	;# 
   125  0105                     	;# 
   126  0107                     	;# 
   127  0108                     	;# 
   128  0109                     	;# 
   129  010C                     	;# 
   130  010C                     	;# 
   131  010D                     	;# 
   132  010E                     	;# 
   133  010F                     	;# 
   134  0185                     	;# 
   135  0187                     	;# 
   136  0188                     	;# 
   137  0189                     	;# 
   138  018C                     	;# 
   139  018D                     	;# 
   140  0000                     	;# 
   141  0001                     	;# 
   142  0002                     	;# 
   143  0003                     	;# 
   144  0004                     	;# 
   145  0005                     	;# 
   146  0006                     	;# 
   147  0007                     	;# 
   148  0008                     	;# 
   149  0009                     	;# 
   150  000A                     	;# 
   151  000B                     	;# 
   152  000C                     	;# 
   153  000D                     	;# 
   154  000E                     	;# 
   155  000E                     	;# 
   156  000F                     	;# 
   157  0010                     	;# 
   158  0011                     	;# 
   159  0012                     	;# 
   160  0013                     	;# 
   161  0014                     	;# 
   162  0015                     	;# 
   163  0015                     	;# 
   164  0016                     	;# 
   165  0017                     	;# 
   166  0018                     	;# 
   167  0019                     	;# 
   168  001A                     	;# 
   169  001B                     	;# 
   170  001B                     	;# 
   171  001C                     	;# 
   172  001D                     	;# 
   173  001E                     	;# 
   174  001F                     	;# 
   175  0081                     	;# 
   176  0085                     	;# 
   177  0086                     	;# 
   178  0087                     	;# 
   179  0088                     	;# 
   180  0089                     	;# 
   181  008C                     	;# 
   182  008D                     	;# 
   183  008E                     	;# 
   184  008F                     	;# 
   185  0090                     	;# 
   186  0091                     	;# 
   187  0092                     	;# 
   188  0093                     	;# 
   189  0093                     	;# 
   190  0093                     	;# 
   191  0094                     	;# 
   192  0095                     	;# 
   193  0096                     	;# 
   194  0097                     	;# 
   195  0098                     	;# 
   196  0099                     	;# 
   197  009A                     	;# 
   198  009B                     	;# 
   199  009C                     	;# 
   200  009D                     	;# 
   201  009E                     	;# 
   202  009F                     	;# 
   203  0105                     	;# 
   204  0107                     	;# 
   205  0108                     	;# 
   206  0109                     	;# 
   207  010C                     	;# 
   208  010C                     	;# 
   209  010D                     	;# 
   210  010E                     	;# 
   211  010F                     	;# 
   212  0185                     	;# 
   213  0187                     	;# 
   214  0188                     	;# 
   215  0189                     	;# 
   216  018C                     	;# 
   217  018D                     	;# 
   218  0000                     	;# 
   219  0001                     	;# 
   220  0002                     	;# 
   221  0003                     	;# 
   222  0004                     	;# 
   223  0005                     	;# 
   224  0006                     	;# 
   225  0007                     	;# 
   226  0008                     	;# 
   227  0009                     	;# 
   228  000A                     	;# 
   229  000B                     	;# 
   230  000C                     	;# 
   231  000D                     	;# 
   232  000E                     	;# 
   233  000E                     	;# 
   234  000F                     	;# 
   235  0010                     	;# 
   236  0011                     	;# 
   237  0012                     	;# 
   238  0013                     	;# 
   239  0014                     	;# 
   240  0015                     	;# 
   241  0015                     	;# 
   242  0016                     	;# 
   243  0017                     	;# 
   244  0018                     	;# 
   245  0019                     	;# 
   246  001A                     	;# 
   247  001B                     	;# 
   248  001B                     	;# 
   249  001C                     	;# 
   250  001D                     	;# 
   251  001E                     	;# 
   252  001F                     	;# 
   253  0081                     	;# 
   254  0085                     	;# 
   255  0086                     	;# 
   256  0087                     	;# 
   257  0088                     	;# 
   258  0089                     	;# 
   259  008C                     	;# 
   260  008D                     	;# 
   261  008E                     	;# 
   262  008F                     	;# 
   263  0090                     	;# 
   264  0091                     	;# 
   265  0092                     	;# 
   266  0093                     	;# 
   267  0093                     	;# 
   268  0093                     	;# 
   269  0094                     	;# 
   270  0095                     	;# 
   271  0096                     	;# 
   272  0097                     	;# 
   273  0098                     	;# 
   274  0099                     	;# 
   275  009A                     	;# 
   276  009B                     	;# 
   277  009C                     	;# 
   278  009D                     	;# 
   279  009E                     	;# 
   280  009F                     	;# 
   281  0105                     	;# 
   282  0107                     	;# 
   283  0108                     	;# 
   284  0109                     	;# 
   285  010C                     	;# 
   286  010C                     	;# 
   287  010D                     	;# 
   288  010E                     	;# 
   289  010F                     	;# 
   290  0185                     	;# 
   291  0187                     	;# 
   292  0188                     	;# 
   293  0189                     	;# 
   294  018C                     	;# 
   295  018D                     	;# 
   296  0006                     _PORTBbits	set	6
   297  0009                     _PORTEbits	set	9
   298  0009                     _PORTE	set	9
   299  0008                     _PORTD	set	8
   300  0007                     _PORTC	set	7
   301  0005                     _PORTA	set	5
   302  001F                     _ADCON0bits	set	31
   303  0006                     _PORTB	set	6
   304  0001                     _TMR0	set	1
   305  000B                     _INTCONbits	set	11
   306  009F                     _ADCON1bits	set	159
   307  0081                     _OPTION_REGbits	set	129
   308  008F                     _OSCCONbits	set	143
   309  0096                     _IOCB	set	150
   310  0089                     _TRISE	set	137
   311  0088                     _TRISD	set	136
   312  0087                     _TRISC	set	135
   313  0086                     _TRISB	set	134
   314  0085                     _TRISA	set	133
   315  009E                     _ADRESL	set	158
   316  0189                     _ANSELH	set	393
   317  0188                     _ANSEL	set	392
   318                           
   319                           	psect	cinit
   320  0015                     start_initialization:	
   321                           ; #config settings
   322                           
   323  0015                     __initialization:
   324                           
   325                           ; Clear objects allocated to COMMON
   326  0015  01FC               	clrf	__pbssCOMMON& (0+127)
   327                           
   328                           ; Clear objects allocated to BANK0
   329  0016  1383               	bcf	3,7	;select IRP bank0
   330  0017  3020               	movlw	low __pbssBANK0
   331  0018  0084               	movwf	4
   332  0019  3036               	movlw	low (__pbssBANK0+22)
   333  001A  120A  118A  2389  120A  118A  	fcall	clear_ram0
   334  001F                     end_of_initialization:	
   335                           ;End of C runtime variable initialization code
   336                           
   337  001F                     __end_of__initialization:
   338  001F  0183               	clrf	3
   339  0020  120A  118A  2AC8   	ljmp	_main	;jump to C main() function
   340                           
   341                           	psect	bssCOMMON
   342  007C                     __pbssCOMMON:
   343  007C                     _show:
   344  007C                     	ds	1
   345                           
   346                           	psect	bssBANK0
   347  0020                     __pbssBANK0:
   348  0020                     _i:
   349  0020                     	ds	2
   350  0022                     _presionado2:
   351  0022                     	ds	2
   352  0024                     _released_ok2:
   353  0024                     	ds	2
   354  0026                     _pressed_ok2:
   355  0026                     	ds	2
   356  0028                     _contador2:
   357  0028                     	ds	2
   358  002A                     _presionado:
   359  002A                     	ds	2
   360  002C                     _released_ok:
   361  002C                     	ds	2
   362  002E                     _pressed_ok:
   363  002E                     	ds	2
   364  0030                     _contador:
   365  0030                     	ds	2
   366  0032                     _decena:
   367  0032                     	ds	1
   368  0033                     _unidad:
   369  0033                     	ds	1
   370  0034                     _timer_contador:
   371  0034                     	ds	1
   372  0035                     _adc_value:
   373  0035                     	ds	1
   374                           
   375                           	psect	clrtext
   376  0389                     clear_ram0:	
   377                           ;	Called with FSR containing the base address, and
   378                           ;	W with the last address+1
   379                           
   380  0389  0064               	clrwdt	;clear the watchdog before getting into this loop
   381  038A                     clrloop0:
   382  038A  0180               	clrf	0	;clear RAM location pointed to by FSR
   383  038B  0A84               	incf	4,f	;increment pointer
   384  038C  0604               	xorwf	4,w	;XOR with final address
   385  038D  1903               	btfsc	3,2	;have we reached the end yet?
   386  038E  3400               	retlw	0	;all done for this memory range, return
   387  038F  0604               	xorwf	4,w	;XOR again to restore value
   388  0390  2B8A               	goto	clrloop0	;do the next byte
   389                           
   390                           	psect	cstackCOMMON
   391  0070                     __pcstackCOMMON:
   392  0070                     ?_multiplexar:
   393  0070                     ??_multiplexar:	
   394                           ; 1 bytes @ 0x0
   395                           
   396  0070                     ?_division:	
   397                           ; 1 bytes @ 0x0
   398                           
   399  0070                     ?_hexadecimal:	
   400                           ; 1 bytes @ 0x0
   401                           
   402  0070                     ?_incrementar:	
   403                           ; 1 bytes @ 0x0
   404                           
   405  0070                     ??_incrementar:	
   406                           ; 1 bytes @ 0x0
   407                           
   408  0070                     ?_decrementar:	
   409                           ; 1 bytes @ 0x0
   410                           
   411  0070                     ??_decrementar:	
   412                           ; 1 bytes @ 0x0
   413                           
   414  0070                     ?_setup:	
   415                           ; 1 bytes @ 0x0
   416                           
   417  0070                     ?_osc_config:	
   418                           ; 1 bytes @ 0x0
   419                           
   420  0070                     ?_interrup_config:	
   421                           ; 1 bytes @ 0x0
   422                           
   423  0070                     ?_tmr0_config:	
   424                           ; 1 bytes @ 0x0
   425                           
   426  0070                     ?_adc_config:	
   427                           ; 1 bytes @ 0x0
   428                           
   429  0070                     ?_initADC:	
   430                           ; 1 bytes @ 0x0
   431                           
   432  0070                     ?_ISR:	
   433                           ; 1 bytes @ 0x0
   434                           
   435  0070                     ?_main:	
   436                           ; 1 bytes @ 0x0
   437                           
   438  0070                     ?___awdiv:	
   439                           ; 1 bytes @ 0x0
   440                           
   441  0070                     hexadecimal@show:	
   442                           ; 2 bytes @ 0x0
   443                           
   444  0070                     incrementar@e:	
   445                           ; 2 bytes @ 0x0
   446                           
   447  0070                     decrementar@e:	
   448                           ; 2 bytes @ 0x0
   449                           
   450  0070                     ___awdiv@divisor:	
   451                           ; 2 bytes @ 0x0
   452                           
   453                           
   454                           ; 2 bytes @ 0x0
   455  0070                     	ds	2
   456  0072                     ??_hexadecimal:
   457  0072                     incrementar@e_332:	
   458                           ; 1 bytes @ 0x2
   459                           
   460  0072                     decrementar@e_335:	
   461                           ; 2 bytes @ 0x2
   462                           
   463  0072                     ___awdiv@dividend:	
   464                           ; 2 bytes @ 0x2
   465                           
   466                           
   467                           ; 2 bytes @ 0x2
   468  0072                     	ds	2
   469  0074                     ??___awdiv:
   470                           
   471                           ; 1 bytes @ 0x4
   472  0074                     	ds	1
   473  0075                     ___awdiv@counter:
   474                           
   475                           ; 1 bytes @ 0x5
   476  0075                     	ds	1
   477  0076                     ___awdiv@sign:
   478                           
   479                           ; 1 bytes @ 0x6
   480  0076                     	ds	1
   481  0077                     ___awdiv@quotient:
   482                           
   483                           ; 2 bytes @ 0x7
   484  0077                     	ds	2
   485  0079                     ??_division:
   486                           
   487                           ; 1 bytes @ 0x9
   488  0079                     	ds	3
   489                           
   490                           	psect	cstackBANK0
   491  0036                     __pcstackBANK0:
   492  0036                     ??_ISR:
   493                           
   494                           ; 1 bytes @ 0x0
   495  0036                     	ds	6
   496  003C                     ??_setup:
   497  003C                     ??_osc_config:	
   498                           ; 1 bytes @ 0x6
   499                           
   500  003C                     ??_interrup_config:	
   501                           ; 1 bytes @ 0x6
   502                           
   503  003C                     ??_tmr0_config:	
   504                           ; 1 bytes @ 0x6
   505                           
   506  003C                     ??_initADC:	
   507                           ; 1 bytes @ 0x6
   508                           
   509                           
   510                           ; 1 bytes @ 0x6
   511  003C                     	ds	2
   512  003E                     initADC@CHS:
   513                           
   514                           ; 1 bytes @ 0x8
   515  003E                     	ds	1
   516  003F                     ??_adc_config:
   517  003F                     ??_main:	
   518                           ; 1 bytes @ 0x9
   519                           
   520                           
   521                           ; 1 bytes @ 0x9
   522  003F                     	ds	2
   523                           
   524                           	psect	maintext
   525  02C8                     __pmaintext:	
   526 ;;
   527 ;;Main: autosize = 0, tempsize = 2, incstack = 0, save=0
   528 ;;
   529 ;; *************** function _main *****************
   530 ;; Defined at:
   531 ;;		line 109 in file "Interrup_Libreria.c"
   532 ;; Parameters:    Size  Location     Type
   533 ;;		None
   534 ;; Auto vars:     Size  Location     Type
   535 ;;		None
   536 ;; Return value:  Size  Location     Type
   537 ;;                  1    wreg      void 
   538 ;; Registers used:
   539 ;;		wreg, fsr0l, fsr0h, status,2, status,0, pclath, cstack
   540 ;; Tracked objects:
   541 ;;		On entry : B00/0
   542 ;;		On exit  : 0/0
   543 ;;		Unchanged: 0/0
   544 ;; Data sizes:     COMMON   BANK0   BANK1   BANK3   BANK2
   545 ;;      Params:         0       0       0       0       0
   546 ;;      Locals:         0       0       0       0       0
   547 ;;      Temps:          0       2       0       0       0
   548 ;;      Totals:         0       2       0       0       0
   549 ;;Total ram usage:        2 bytes
   550 ;; Hardware stack levels required when called:    5
   551 ;; This function calls:
   552 ;;		_adc_config
   553 ;;		_interrup_config
   554 ;;		_osc_config
   555 ;;		_setup
   556 ;;		_tmr0_config
   557 ;; This function is called by:
   558 ;;		Startup code after reset
   559 ;; This function uses a non-reentrant model
   560 ;;
   561                           
   562                           
   563                           ;psect for function _main
   564  02C8                     _main:
   565  02C8                     l1379:	
   566                           ;incstack = 0
   567                           ; Regs used in _main: [wreg-fsr0h+status,2+status,0+pclath+cstack]
   568                           
   569                           
   570                           ;Interrup_Libreria.c: 111:     PORTA = 0;
   571  02C8  120A  118A  2331  120A  118A  	fcall	_setup
   572  02CD                     l1381:
   573                           
   574                           ;Interrup_Libreria.c: 112:     ANSELH = 0;
   575  02CD  120A  118A  237F  120A  118A  	fcall	_osc_config
   576  02D2                     l1383:
   577                           
   578                           ;Interrup_Libreria.c: 113:     TRISB = 0b00000011;
   579  02D2  120A  118A  2366  120A  118A  	fcall	_interrup_config
   580  02D7                     l1385:
   581                           
   582                           ;Interrup_Libreria.c: 114:     PORTB = 0;
   583  02D7  120A  118A  2359  120A  118A  	fcall	_tmr0_config
   584  02DC                     l1387:
   585                           
   586                           ;Interrup_Libreria.c: 115:     TRISC = 0;
   587  02DC  120A  118A  2391  120A  118A  	fcall	_adc_config
   588  02E1                     l1389:
   589                           
   590                           ;Interrup_Libreria.c: 124: {;Interrup_Libreria.c: 125: 
   591  02E1  1283               	bcf	3,5	;RP0=0, select bank0
   592  02E2  1303               	bcf	3,6	;RP1=0, select bank0
   593  02E3  149F               	bsf	31,1	;volatile
   594  02E4                     l1391:
   595                           
   596                           ;Interrup_Libreria.c: 126:     INTCONbits.GIE = 1;
   597  02E4  301A               	movlw	26
   598  02E5  1283               	bcf	3,5	;RP0=0, select bank0
   599  02E6  1303               	bcf	3,6	;RP1=0, select bank0
   600  02E7  00C0               	movwf	??_main+1
   601  02E8  30F7               	movlw	247
   602  02E9  00BF               	movwf	??_main
   603  02EA                     u547:
   604  02EA  0BBF               	decfsz	??_main,f
   605  02EB  2AEA               	goto	u547
   606  02EC  0BC0               	decfsz	??_main+1,f
   607  02ED  2AEA               	goto	u547
   608  02EE  2AEF               	nop2
   609  02EF                     l1393:
   610                           
   611                           ;Interrup_Libreria.c: 127:     INTCONbits.PEIE = 0;
   612  02EF  1283               	bcf	3,5	;RP0=0, select bank0
   613  02F0  1303               	bcf	3,6	;RP1=0, select bank0
   614  02F1  189F               	btfsc	31,1	;volatile
   615  02F2  2AF4               	goto	u531
   616  02F3  2AF5               	goto	u530
   617  02F4                     u531:
   618  02F4  2AE1               	goto	l1389
   619  02F5                     u530:
   620  02F5                     l1395:
   621                           
   622                           ;Interrup_Libreria.c: 128:     INTCONbits.T0IE = 1;;Interrup_Libreria.c: 129:     INTCON
      +                          bits.INTE = 0;
   623  02F5  149F               	bsf	31,1	;volatile
   624  02F6                     l1397:
   625                           
   626                           ;Interrup_Libreria.c: 131:     INTCONbits.T0IF = 0;
   627  02F6  1683               	bsf	3,5	;RP0=1, select bank1
   628  02F7  1303               	bcf	3,6	;RP1=0, select bank1
   629  02F8  081E               	movf	30,w	;volatile
   630  02F9  1283               	bcf	3,5	;RP0=0, select bank0
   631  02FA  1303               	bcf	3,6	;RP1=0, select bank0
   632  02FB  00BF               	movwf	??_main
   633  02FC  083F               	movf	??_main,w
   634  02FD  00B5               	movwf	_adc_value
   635  02FE  2AE1               	goto	l1389
   636  02FF  120A  118A  2812   	ljmp	start
   637  0302                     __end_of_main:
   638                           
   639                           	psect	text1
   640  0359                     __ptext1:	
   641 ;; *************** function _tmr0_config *****************
   642 ;; Defined at:
   643 ;;		line 186 in file "Interrup_Libreria.c"
   644 ;; Parameters:    Size  Location     Type
   645 ;;		None
   646 ;; Auto vars:     Size  Location     Type
   647 ;;		None
   648 ;; Return value:  Size  Location     Type
   649 ;;                  1    wreg      void 
   650 ;; Registers used:
   651 ;;		wreg
   652 ;; Tracked objects:
   653 ;;		On entry : 0/0
   654 ;;		On exit  : 0/0
   655 ;;		Unchanged: 0/0
   656 ;; Data sizes:     COMMON   BANK0   BANK1   BANK3   BANK2
   657 ;;      Params:         0       0       0       0       0
   658 ;;      Locals:         0       0       0       0       0
   659 ;;      Temps:          0       0       0       0       0
   660 ;;      Totals:         0       0       0       0       0
   661 ;;Total ram usage:        0 bytes
   662 ;; Hardware stack levels used:    1
   663 ;; Hardware stack levels required when called:    3
   664 ;; This function calls:
   665 ;;		Nothing
   666 ;; This function is called by:
   667 ;;		_main
   668 ;; This function uses a non-reentrant model
   669 ;;
   670                           
   671                           
   672                           ;psect for function _tmr0_config
   673  0359                     _tmr0_config:
   674  0359                     l1353:	
   675                           ;incstack = 0
   676                           ; Regs used in _tmr0_config: [wreg]
   677                           
   678                           
   679                           ;Interrup_Libreria.c: 189:     decena = ADRESL/16;
   680  0359  1683               	bsf	3,5	;RP0=1, select bank1
   681  035A  1303               	bcf	3,6	;RP1=0, select bank1
   682  035B  1781               	bsf	1,7	;volatile
   683                           
   684                           ;Interrup_Libreria.c: 190:     unidad = ADRESL%16;
   685  035C  1281               	bcf	1,5	;volatile
   686                           
   687                           ;Interrup_Libreria.c: 191: 
   688  035D  1181               	bcf	1,3	;volatile
   689                           
   690                           ;Interrup_Libreria.c: 192:     if (PORTEbits.RE0 == 0)
   691  035E  1101               	bcf	1,2	;volatile
   692                           
   693                           ;Interrup_Libreria.c: 193:     {
   694  035F  1481               	bsf	1,1	;volatile
   695                           
   696                           ;Interrup_Libreria.c: 194:         show = decena;
   697  0360  1001               	bcf	1,0	;volatile
   698  0361                     l1355:
   699                           
   700                           ;Interrup_Libreria.c: 195:     }
   701  0361  3096               	movlw	150
   702  0362  1283               	bcf	3,5	;RP0=0, select bank0
   703  0363  1303               	bcf	3,6	;RP1=0, select bank0
   704  0364  0081               	movwf	1	;volatile
   705  0365                     l122:
   706  0365  0008               	return
   707  0366                     __end_of_tmr0_config:
   708                           
   709                           	psect	text2
   710  0331                     __ptext2:	
   711 ;; *************** function _setup *****************
   712 ;; Defined at:
   713 ;;		line 142 in file "Interrup_Libreria.c"
   714 ;; Parameters:    Size  Location     Type
   715 ;;		None
   716 ;; Auto vars:     Size  Location     Type
   717 ;;		None
   718 ;; Return value:  Size  Location     Type
   719 ;;                  1    wreg      void 
   720 ;; Registers used:
   721 ;;		wreg, status,2
   722 ;; Tracked objects:
   723 ;;		On entry : 0/0
   724 ;;		On exit  : 0/0
   725 ;;		Unchanged: 0/0
   726 ;; Data sizes:     COMMON   BANK0   BANK1   BANK3   BANK2
   727 ;;      Params:         0       0       0       0       0
   728 ;;      Locals:         0       0       0       0       0
   729 ;;      Temps:          0       0       0       0       0
   730 ;;      Totals:         0       0       0       0       0
   731 ;;Total ram usage:        0 bytes
   732 ;; Hardware stack levels used:    1
   733 ;; Hardware stack levels required when called:    3
   734 ;; This function calls:
   735 ;;		Nothing
   736 ;; This function is called by:
   737 ;;		_main
   738 ;; This function uses a non-reentrant model
   739 ;;
   740                           
   741                           
   742                           ;psect for function _setup
   743  0331                     _setup:
   744  0331                     l1327:	
   745                           ;incstack = 0
   746                           ; Regs used in _setup: [wreg+status,2]
   747                           
   748                           
   749                           ;Interrup_Libreria.c: 145:     OSCCONbits.LTS = 1;
   750  0331  3001               	movlw	1
   751  0332  1683               	bsf	3,5	;RP0=1, select bank3
   752  0333  1703               	bsf	3,6	;RP1=1, select bank3
   753  0334  0088               	movwf	8	;volatile
   754                           
   755                           ;Interrup_Libreria.c: 146:     OSCCONbits.SCS = 0;
   756  0335  3001               	movlw	1
   757  0336  1683               	bsf	3,5	;RP0=1, select bank1
   758  0337  1303               	bcf	3,6	;RP1=0, select bank1
   759  0338  0085               	movwf	5	;volatile
   760  0339                     l1329:
   761                           
   762                           ;Interrup_Libreria.c: 147: 
   763  0339  1283               	bcf	3,5	;RP0=0, select bank0
   764  033A  1303               	bcf	3,6	;RP1=0, select bank0
   765  033B  0185               	clrf	5	;volatile
   766  033C                     l1331:
   767                           
   768                           ;Interrup_Libreria.c: 148: }
   769  033C  1683               	bsf	3,5	;RP0=1, select bank3
   770  033D  1703               	bsf	3,6	;RP1=1, select bank3
   771  033E  0189               	clrf	9	;volatile
   772                           
   773                           ;Interrup_Libreria.c: 149: 
   774  033F  3003               	movlw	3
   775  0340  1683               	bsf	3,5	;RP0=1, select bank1
   776  0341  1303               	bcf	3,6	;RP1=0, select bank1
   777  0342  0086               	movwf	6	;volatile
   778  0343                     l1333:
   779                           
   780                           ;Interrup_Libreria.c: 150: void tmr0_config (void)
   781  0343  1283               	bcf	3,5	;RP0=0, select bank0
   782  0344  1303               	bcf	3,6	;RP1=0, select bank0
   783  0345  0186               	clrf	6	;volatile
   784  0346                     l1335:
   785                           
   786                           ;Interrup_Libreria.c: 151: {
   787  0346  1683               	bsf	3,5	;RP0=1, select bank1
   788  0347  1303               	bcf	3,6	;RP1=0, select bank1
   789  0348  0187               	clrf	7	;volatile
   790  0349                     l1337:
   791                           
   792                           ;Interrup_Libreria.c: 152: 
   793  0349  1283               	bcf	3,5	;RP0=0, select bank0
   794  034A  1303               	bcf	3,6	;RP1=0, select bank0
   795  034B  0187               	clrf	7	;volatile
   796  034C                     l1339:
   797                           
   798                           ;Interrup_Libreria.c: 153:     OPTION_REGbits.nRBPU = 1;
   799  034C  1683               	bsf	3,5	;RP0=1, select bank1
   800  034D  1303               	bcf	3,6	;RP1=0, select bank1
   801  034E  0188               	clrf	8	;volatile
   802  034F                     l1341:
   803                           
   804                           ;Interrup_Libreria.c: 154:     OPTION_REGbits.T0CS = 0;
   805  034F  1283               	bcf	3,5	;RP0=0, select bank0
   806  0350  1303               	bcf	3,6	;RP1=0, select bank0
   807  0351  0188               	clrf	8	;volatile
   808  0352                     l1343:
   809                           
   810                           ;Interrup_Libreria.c: 155:     OPTION_REGbits.PSA = 0;
   811  0352  1683               	bsf	3,5	;RP0=1, select bank1
   812  0353  1303               	bcf	3,6	;RP1=0, select bank1
   813  0354  0189               	clrf	9	;volatile
   814  0355                     l1345:
   815                           
   816                           ;Interrup_Libreria.c: 156:     OPTION_REGbits.PS2 = 0;
   817  0355  1283               	bcf	3,5	;RP0=0, select bank0
   818  0356  1303               	bcf	3,6	;RP1=0, select bank0
   819  0357  0189               	clrf	9	;volatile
   820  0358                     l113:
   821  0358  0008               	return
   822  0359                     __end_of_setup:
   823                           
   824                           	psect	text3
   825  037F                     __ptext3:	
   826 ;; *************** function _osc_config *****************
   827 ;; Defined at:
   828 ;;		line 173 in file "Interrup_Libreria.c"
   829 ;; Parameters:    Size  Location     Type
   830 ;;		None
   831 ;; Auto vars:     Size  Location     Type
   832 ;;		None
   833 ;; Return value:  Size  Location     Type
   834 ;;                  1    wreg      void 
   835 ;; Registers used:
   836 ;;		None
   837 ;; Tracked objects:
   838 ;;		On entry : 0/0
   839 ;;		On exit  : 0/0
   840 ;;		Unchanged: 0/0
   841 ;; Data sizes:     COMMON   BANK0   BANK1   BANK3   BANK2
   842 ;;      Params:         0       0       0       0       0
   843 ;;      Locals:         0       0       0       0       0
   844 ;;      Temps:          0       0       0       0       0
   845 ;;      Totals:         0       0       0       0       0
   846 ;;Total ram usage:        0 bytes
   847 ;; Hardware stack levels used:    1
   848 ;; Hardware stack levels required when called:    3
   849 ;; This function calls:
   850 ;;		Nothing
   851 ;; This function is called by:
   852 ;;		_main
   853 ;; This function uses a non-reentrant model
   854 ;;
   855                           
   856                           
   857                           ;psect for function _osc_config
   858  037F                     _osc_config:
   859  037F                     l1347:	
   860                           ;incstack = 0
   861                           ; Regs used in _osc_config: []
   862                           
   863                           
   864                           ;Interrup_Libreria.c: 176:         PORTEbits.RE1 = 0;
   865  037F  1683               	bsf	3,5	;RP0=1, select bank1
   866  0380  1303               	bcf	3,6	;RP1=0, select bank1
   867  0381  170F               	bsf	15,6	;volatile
   868                           
   869                           ;Interrup_Libreria.c: 177:     }
   870  0382  168F               	bsf	15,5	;volatile
   871                           
   872                           ;Interrup_Libreria.c: 178:     else
   873  0383  130F               	bcf	15,6	;volatile
   874                           
   875                           ;Interrup_Libreria.c: 179:     {
   876  0384  118F               	bcf	15,3	;volatile
   877                           
   878                           ;Interrup_Libreria.c: 180:         PORTEbits.RE0 = 0;
   879  0385  110F               	bcf	15,2	;volatile
   880                           
   881                           ;Interrup_Libreria.c: 181:         PORTEbits.RE1 = 1;
   882  0386  148F               	bsf	15,1	;volatile
   883                           
   884                           ;Interrup_Libreria.c: 182:     }
   885  0387  100F               	bcf	15,0	;volatile
   886  0388                     l119:
   887  0388  0008               	return
   888  0389                     __end_of_osc_config:
   889                           
   890                           	psect	text4
   891  0366                     __ptext4:	
   892 ;; *************** function _interrup_config *****************
   893 ;; Defined at:
   894 ;;		line 159 in file "Interrup_Libreria.c"
   895 ;; Parameters:    Size  Location     Type
   896 ;;		None
   897 ;; Auto vars:     Size  Location     Type
   898 ;;		None
   899 ;; Return value:  Size  Location     Type
   900 ;;                  1    wreg      void 
   901 ;; Registers used:
   902 ;;		wreg
   903 ;; Tracked objects:
   904 ;;		On entry : 0/0
   905 ;;		On exit  : 0/0
   906 ;;		Unchanged: 0/0
   907 ;; Data sizes:     COMMON   BANK0   BANK1   BANK3   BANK2
   908 ;;      Params:         0       0       0       0       0
   909 ;;      Locals:         0       0       0       0       0
   910 ;;      Temps:          0       0       0       0       0
   911 ;;      Totals:         0       0       0       0       0
   912 ;;Total ram usage:        0 bytes
   913 ;; Hardware stack levels used:    1
   914 ;; Hardware stack levels required when called:    3
   915 ;; This function calls:
   916 ;;		Nothing
   917 ;; This function is called by:
   918 ;;		_main
   919 ;; This function uses a non-reentrant model
   920 ;;
   921                           
   922                           
   923                           ;psect for function _interrup_config
   924  0366                     _interrup_config:
   925  0366                     l1349:	
   926                           ;incstack = 0
   927                           ; Regs used in _interrup_config: [wreg]
   928                           
   929                           
   930                           ;Interrup_Libreria.c: 162: void adc_config (void)
   931  0366  178B               	bsf	11,7	;volatile
   932                           
   933                           ;Interrup_Libreria.c: 163: {
   934  0367  130B               	bcf	11,6	;volatile
   935                           
   936                           ;Interrup_Libreria.c: 164:     initADC (0);
   937  0368  168B               	bsf	11,5	;volatile
   938                           
   939                           ;Interrup_Libreria.c: 165: }
   940  0369  120B               	bcf	11,4	;volatile
   941                           
   942                           ;Interrup_Libreria.c: 166: 
   943  036A  158B               	bsf	11,3	;volatile
   944                           
   945                           ;Interrup_Libreria.c: 167: 
   946  036B  110B               	bcf	11,2	;volatile
   947                           
   948                           ;Interrup_Libreria.c: 168: 
   949  036C  108B               	bcf	11,1	;volatile
   950                           
   951                           ;Interrup_Libreria.c: 169: 
   952  036D  100B               	bcf	11,0	;volatile
   953  036E                     l1351:
   954                           
   955                           ;Interrup_Libreria.c: 170: 
   956  036E  3003               	movlw	3
   957  036F  1683               	bsf	3,5	;RP0=1, select bank1
   958  0370  1303               	bcf	3,6	;RP1=0, select bank1
   959  0371  0096               	movwf	22	;volatile
   960  0372                     l116:
   961  0372  0008               	return
   962  0373                     __end_of_interrup_config:
   963                           
   964                           	psect	text5
   965  0391                     __ptext5:	
   966 ;; *************** function _adc_config *****************
   967 ;; Defined at:
   968 ;;		line 198 in file "Interrup_Libreria.c"
   969 ;; Parameters:    Size  Location     Type
   970 ;;		None
   971 ;; Auto vars:     Size  Location     Type
   972 ;;		None
   973 ;; Return value:  Size  Location     Type
   974 ;;                  1    wreg      void 
   975 ;; Registers used:
   976 ;;		wreg, fsr0l, fsr0h, status,2, status,0, pclath, cstack
   977 ;; Tracked objects:
   978 ;;		On entry : 0/0
   979 ;;		On exit  : 0/0
   980 ;;		Unchanged: 0/0
   981 ;; Data sizes:     COMMON   BANK0   BANK1   BANK3   BANK2
   982 ;;      Params:         0       0       0       0       0
   983 ;;      Locals:         0       0       0       0       0
   984 ;;      Temps:          0       0       0       0       0
   985 ;;      Totals:         0       0       0       0       0
   986 ;;Total ram usage:        0 bytes
   987 ;; Hardware stack levels used:    1
   988 ;; Hardware stack levels required when called:    4
   989 ;; This function calls:
   990 ;;		_initADC
   991 ;; This function is called by:
   992 ;;		_main
   993 ;; This function uses a non-reentrant model
   994 ;;
   995                           
   996                           
   997                           ;psect for function _adc_config
   998  0391                     _adc_config:
   999  0391                     l1357:	
  1000                           ;incstack = 0
  1001                           ; Regs used in _adc_config: [wreg-fsr0h+status,2+status,0+pclath+cstack]
  1002                           
  1003                           
  1004                           ;Interrup_Libreria.c: 200: 
  1005  0391  3000               	movlw	0
  1006  0392  120A  118A  2023  120A  118A  	fcall	_initADC
  1007  0397                     l125:
  1008  0397  0008               	return
  1009  0398                     __end_of_adc_config:
  1010                           
  1011                           	psect	text6
  1012  0023                     __ptext6:	
  1013 ;; *************** function _initADC *****************
  1014 ;; Defined at:
  1015 ;;		line 3 in file "ADC_lib.c"
  1016 ;; Parameters:    Size  Location     Type
  1017 ;;  CHS             1    wreg     unsigned char 
  1018 ;; Auto vars:     Size  Location     Type
  1019 ;;  CHS             1    8[BANK0 ] unsigned char 
  1020 ;; Return value:  Size  Location     Type
  1021 ;;                  1    wreg      void 
  1022 ;; Registers used:
  1023 ;;		wreg, fsr0l, fsr0h, status,2, status,0
  1024 ;; Tracked objects:
  1025 ;;		On entry : 0/0
  1026 ;;		On exit  : 0/0
  1027 ;;		Unchanged: 0/0
  1028 ;; Data sizes:     COMMON   BANK0   BANK1   BANK3   BANK2
  1029 ;;      Params:         0       0       0       0       0
  1030 ;;      Locals:         0       1       0       0       0
  1031 ;;      Temps:          0       2       0       0       0
  1032 ;;      Totals:         0       3       0       0       0
  1033 ;;Total ram usage:        3 bytes
  1034 ;; Hardware stack levels used:    1
  1035 ;; Hardware stack levels required when called:    3
  1036 ;; This function calls:
  1037 ;;		Nothing
  1038 ;; This function is called by:
  1039 ;;		_adc_config
  1040 ;; This function uses a non-reentrant model
  1041 ;;
  1042                           
  1043                           
  1044                           ;psect for function _initADC
  1045  0023                     _initADC:
  1046                           
  1047                           ;incstack = 0
  1048                           ; Regs used in _initADC: [wreg-fsr0h+status,2+status,0]
  1049                           ;initADC@CHS stored from wreg
  1050  0023  1283               	bcf	3,5	;RP0=0, select bank0
  1051  0024  1303               	bcf	3,6	;RP1=0, select bank0
  1052  0025  00BE               	movwf	initADC@CHS
  1053  0026                     l1125:
  1054                           
  1055                           ;ADC_lib.c: 3: void initADC (uint8_t CHS);ADC_lib.c: 4: {;ADC_lib.c: 5:     switch (CHS)
  1056  0026  2872               	goto	l1129
  1057  0027                     l189:	
  1058                           ;ADC_lib.c: 6:     {;ADC_lib.c: 7:         case 0:
  1059                           
  1060                           
  1061                           ;ADC_lib.c: 8:             ADCON0bits.CHS3 = 0;
  1062  0027  129F               	bcf	31,5	;volatile
  1063                           
  1064                           ;ADC_lib.c: 9:             ADCON0bits.CHS2 = 0;
  1065  0028  121F               	bcf	31,4	;volatile
  1066                           
  1067                           ;ADC_lib.c: 10:             ADCON0bits.CHS1 = 0;
  1068  0029  119F               	bcf	31,3	;volatile
  1069                           
  1070                           ;ADC_lib.c: 11:             ADCON0bits.CHS0 = 0;
  1071  002A  111F               	bcf	31,2	;volatile
  1072                           
  1073                           ;ADC_lib.c: 12:             break;
  1074  002B  28A6               	goto	l190
  1075  002C                     l191:	
  1076                           ;ADC_lib.c: 13:         case 1:
  1077                           
  1078                           
  1079                           ;ADC_lib.c: 14:             ADCON0bits.CHS3 = 0;
  1080  002C  129F               	bcf	31,5	;volatile
  1081                           
  1082                           ;ADC_lib.c: 15:             ADCON0bits.CHS2 = 0;
  1083  002D  121F               	bcf	31,4	;volatile
  1084                           
  1085                           ;ADC_lib.c: 16:             ADCON0bits.CHS1 = 0;
  1086  002E  119F               	bcf	31,3	;volatile
  1087                           
  1088                           ;ADC_lib.c: 17:             ADCON0bits.CHS0 = 1;
  1089  002F  151F               	bsf	31,2	;volatile
  1090                           
  1091                           ;ADC_lib.c: 18:             break;
  1092  0030  28A6               	goto	l190
  1093  0031                     l192:	
  1094                           ;ADC_lib.c: 20:         case 2:
  1095                           
  1096                           
  1097                           ;ADC_lib.c: 21:             ADCON0bits.CHS3 = 0;
  1098  0031  129F               	bcf	31,5	;volatile
  1099                           
  1100                           ;ADC_lib.c: 22:             ADCON0bits.CHS2 = 0;
  1101  0032  121F               	bcf	31,4	;volatile
  1102                           
  1103                           ;ADC_lib.c: 23:             ADCON0bits.CHS1 = 1;
  1104  0033  159F               	bsf	31,3	;volatile
  1105                           
  1106                           ;ADC_lib.c: 24:             ADCON0bits.CHS0 = 0;
  1107  0034  111F               	bcf	31,2	;volatile
  1108                           
  1109                           ;ADC_lib.c: 25:             break;
  1110  0035  28A6               	goto	l190
  1111  0036                     l193:	
  1112                           ;ADC_lib.c: 27:         case 3:
  1113                           
  1114                           
  1115                           ;ADC_lib.c: 28:             ADCON0bits.CHS3 = 0;
  1116  0036  129F               	bcf	31,5	;volatile
  1117                           
  1118                           ;ADC_lib.c: 29:             ADCON0bits.CHS2 = 0;
  1119  0037  121F               	bcf	31,4	;volatile
  1120                           
  1121                           ;ADC_lib.c: 30:             ADCON0bits.CHS1 = 1;
  1122  0038  159F               	bsf	31,3	;volatile
  1123                           
  1124                           ;ADC_lib.c: 31:             ADCON0bits.CHS0 = 1;
  1125  0039  151F               	bsf	31,2	;volatile
  1126                           
  1127                           ;ADC_lib.c: 32:             break;
  1128  003A  28A6               	goto	l190
  1129  003B                     l194:	
  1130                           ;ADC_lib.c: 34:         case 4:
  1131                           
  1132                           
  1133                           ;ADC_lib.c: 35:             ADCON0bits.CHS3 = 0;
  1134  003B  129F               	bcf	31,5	;volatile
  1135                           
  1136                           ;ADC_lib.c: 36:             ADCON0bits.CHS2 = 1;
  1137  003C  161F               	bsf	31,4	;volatile
  1138                           
  1139                           ;ADC_lib.c: 37:             ADCON0bits.CHS1 = 0;
  1140  003D  119F               	bcf	31,3	;volatile
  1141                           
  1142                           ;ADC_lib.c: 38:             ADCON0bits.CHS0 = 0;
  1143  003E  111F               	bcf	31,2	;volatile
  1144                           
  1145                           ;ADC_lib.c: 39:             break;
  1146  003F  28A6               	goto	l190
  1147  0040                     l195:	
  1148                           ;ADC_lib.c: 41:         case 5:
  1149                           
  1150                           
  1151                           ;ADC_lib.c: 42:             ADCON0bits.CHS3 = 0;
  1152  0040  129F               	bcf	31,5	;volatile
  1153                           
  1154                           ;ADC_lib.c: 43:             ADCON0bits.CHS2 = 1;
  1155  0041  161F               	bsf	31,4	;volatile
  1156                           
  1157                           ;ADC_lib.c: 44:             ADCON0bits.CHS1 = 0;
  1158  0042  119F               	bcf	31,3	;volatile
  1159                           
  1160                           ;ADC_lib.c: 45:             ADCON0bits.CHS0 = 1;
  1161  0043  151F               	bsf	31,2	;volatile
  1162                           
  1163                           ;ADC_lib.c: 46:             break;
  1164  0044  28A6               	goto	l190
  1165  0045                     l196:	
  1166                           ;ADC_lib.c: 48:         case 6:
  1167                           
  1168                           
  1169                           ;ADC_lib.c: 49:             ADCON0bits.CHS3 = 0;
  1170  0045  129F               	bcf	31,5	;volatile
  1171                           
  1172                           ;ADC_lib.c: 50:             ADCON0bits.CHS2 = 1;
  1173  0046  161F               	bsf	31,4	;volatile
  1174                           
  1175                           ;ADC_lib.c: 51:             ADCON0bits.CHS1 = 1;
  1176  0047  159F               	bsf	31,3	;volatile
  1177                           
  1178                           ;ADC_lib.c: 52:             ADCON0bits.CHS0 = 0;
  1179  0048  111F               	bcf	31,2	;volatile
  1180                           
  1181                           ;ADC_lib.c: 53:             break;
  1182  0049  28A6               	goto	l190
  1183  004A                     l197:	
  1184                           ;ADC_lib.c: 55:         case 7:
  1185                           
  1186                           
  1187                           ;ADC_lib.c: 56:             ADCON0bits.CHS3 = 0;
  1188  004A  129F               	bcf	31,5	;volatile
  1189                           
  1190                           ;ADC_lib.c: 57:             ADCON0bits.CHS2 = 1;
  1191  004B  161F               	bsf	31,4	;volatile
  1192                           
  1193                           ;ADC_lib.c: 58:             ADCON0bits.CHS1 = 1;
  1194  004C  159F               	bsf	31,3	;volatile
  1195                           
  1196                           ;ADC_lib.c: 59:             ADCON0bits.CHS0 = 1;
  1197  004D  151F               	bsf	31,2	;volatile
  1198                           
  1199                           ;ADC_lib.c: 60:             break;
  1200  004E  28A6               	goto	l190
  1201  004F                     l198:	
  1202                           ;ADC_lib.c: 62:         case 8:
  1203                           
  1204                           
  1205                           ;ADC_lib.c: 63:             ADCON0bits.CHS3 = 1;
  1206  004F  169F               	bsf	31,5	;volatile
  1207                           
  1208                           ;ADC_lib.c: 64:             ADCON0bits.CHS2 = 0;
  1209  0050  121F               	bcf	31,4	;volatile
  1210                           
  1211                           ;ADC_lib.c: 65:             ADCON0bits.CHS1 = 0;
  1212  0051  119F               	bcf	31,3	;volatile
  1213                           
  1214                           ;ADC_lib.c: 66:             ADCON0bits.CHS0 = 0;
  1215  0052  111F               	bcf	31,2	;volatile
  1216                           
  1217                           ;ADC_lib.c: 67:             break;
  1218  0053  28A6               	goto	l190
  1219  0054                     l199:	
  1220                           ;ADC_lib.c: 69:         case 9:
  1221                           
  1222                           
  1223                           ;ADC_lib.c: 70:             ADCON0bits.CHS3 = 1;
  1224  0054  169F               	bsf	31,5	;volatile
  1225                           
  1226                           ;ADC_lib.c: 71:             ADCON0bits.CHS2 = 0;
  1227  0055  121F               	bcf	31,4	;volatile
  1228                           
  1229                           ;ADC_lib.c: 72:             ADCON0bits.CHS1 = 0;
  1230  0056  119F               	bcf	31,3	;volatile
  1231                           
  1232                           ;ADC_lib.c: 73:             ADCON0bits.CHS0 = 1;
  1233  0057  151F               	bsf	31,2	;volatile
  1234                           
  1235                           ;ADC_lib.c: 74:             break;
  1236  0058  28A6               	goto	l190
  1237  0059                     l200:	
  1238                           ;ADC_lib.c: 76:         case 10:
  1239                           
  1240                           
  1241                           ;ADC_lib.c: 77:             ADCON0bits.CHS3 = 1;
  1242  0059  169F               	bsf	31,5	;volatile
  1243                           
  1244                           ;ADC_lib.c: 78:             ADCON0bits.CHS2 = 0;
  1245  005A  121F               	bcf	31,4	;volatile
  1246                           
  1247                           ;ADC_lib.c: 79:             ADCON0bits.CHS1 = 1;
  1248  005B  159F               	bsf	31,3	;volatile
  1249                           
  1250                           ;ADC_lib.c: 80:             ADCON0bits.CHS0 = 0;
  1251  005C  111F               	bcf	31,2	;volatile
  1252                           
  1253                           ;ADC_lib.c: 81:             break;
  1254  005D  28A6               	goto	l190
  1255  005E                     l201:	
  1256                           ;ADC_lib.c: 83:         case 11:
  1257                           
  1258                           
  1259                           ;ADC_lib.c: 84:             ADCON0bits.CHS3 = 1;
  1260  005E  169F               	bsf	31,5	;volatile
  1261                           
  1262                           ;ADC_lib.c: 85:             ADCON0bits.CHS2 = 0;
  1263  005F  121F               	bcf	31,4	;volatile
  1264                           
  1265                           ;ADC_lib.c: 86:             ADCON0bits.CHS1 = 1;
  1266  0060  159F               	bsf	31,3	;volatile
  1267                           
  1268                           ;ADC_lib.c: 87:             ADCON0bits.CHS0 = 1;
  1269  0061  151F               	bsf	31,2	;volatile
  1270                           
  1271                           ;ADC_lib.c: 88:             break;
  1272  0062  28A6               	goto	l190
  1273  0063                     l202:	
  1274                           ;ADC_lib.c: 90:         case 12:
  1275                           
  1276                           
  1277                           ;ADC_lib.c: 91:             ADCON0bits.CHS3 = 1;
  1278  0063  169F               	bsf	31,5	;volatile
  1279                           
  1280                           ;ADC_lib.c: 92:             ADCON0bits.CHS2 = 1;
  1281  0064  161F               	bsf	31,4	;volatile
  1282                           
  1283                           ;ADC_lib.c: 93:             ADCON0bits.CHS1 = 0;
  1284  0065  119F               	bcf	31,3	;volatile
  1285                           
  1286                           ;ADC_lib.c: 94:             ADCON0bits.CHS0 = 0;
  1287  0066  111F               	bcf	31,2	;volatile
  1288                           
  1289                           ;ADC_lib.c: 95:             break;
  1290  0067  28A6               	goto	l190
  1291  0068                     l203:	
  1292                           ;ADC_lib.c: 97:         case 13:
  1293                           
  1294                           
  1295                           ;ADC_lib.c: 98:             ADCON0bits.CHS3 = 1;
  1296  0068  169F               	bsf	31,5	;volatile
  1297                           
  1298                           ;ADC_lib.c: 99:             ADCON0bits.CHS2 = 1;
  1299  0069  161F               	bsf	31,4	;volatile
  1300                           
  1301                           ;ADC_lib.c: 100:             ADCON0bits.CHS1 = 0;
  1302  006A  119F               	bcf	31,3	;volatile
  1303                           
  1304                           ;ADC_lib.c: 101:             ADCON0bits.CHS0 = 1;
  1305  006B  151F               	bsf	31,2	;volatile
  1306                           
  1307                           ;ADC_lib.c: 102:             break;
  1308  006C  28A6               	goto	l190
  1309  006D                     l204:	
  1310                           ;ADC_lib.c: 104:         default:
  1311                           
  1312                           
  1313                           ;ADC_lib.c: 105:             ADCON0bits.CHS3 = 1;
  1314  006D  169F               	bsf	31,5	;volatile
  1315                           
  1316                           ;ADC_lib.c: 106:             ADCON0bits.CHS2 = 1;
  1317  006E  161F               	bsf	31,4	;volatile
  1318                           
  1319                           ;ADC_lib.c: 107:             ADCON0bits.CHS1 = 1;
  1320  006F  159F               	bsf	31,3	;volatile
  1321                           
  1322                           ;ADC_lib.c: 108:             ADCON0bits.CHS0 = 0;
  1323  0070  111F               	bcf	31,2	;volatile
  1324                           
  1325                           ;ADC_lib.c: 109:             break;
  1326  0071  28A6               	goto	l190
  1327  0072                     l1129:
  1328  0072  083E               	movf	initADC@CHS,w
  1329  0073  00BC               	movwf	??_initADC
  1330  0074  01BD               	clrf	??_initADC+1
  1331                           
  1332                           ; Switch on 2 bytes has been partitioned into a top level switch of size 1, and 1 sub-sw
      +                          itches
  1333                           ; Switch size 1, requested type "simple"
  1334                           ; Number of cases is 1, Range of values is 0 to 0
  1335                           ; switch strategies available:
  1336                           ; Name         Instructions Cycles
  1337                           ; simple_byte            4     3 (average)
  1338                           ; direct_byte           11     8 (fixed)
  1339                           ; jumptable            260     6 (fixed)
  1340                           ;	Chosen strategy is simple_byte
  1341  0075  083D               	movf	??_initADC+1,w
  1342  0076  3A00               	xorlw	0	; case 0
  1343  0077  1903               	skipnz
  1344  0078  287A               	goto	l1449
  1345  0079  286D               	goto	l204
  1346  007A                     l1449:
  1347                           
  1348                           ; Switch size 1, requested type "simple"
  1349                           ; Number of cases is 14, Range of values is 0 to 13
  1350                           ; switch strategies available:
  1351                           ; Name         Instructions Cycles
  1352                           ; simple_byte           43    22 (average)
  1353                           ; direct_byte           50     8 (fixed)
  1354                           ; jumptable            260     6 (fixed)
  1355                           ;	Chosen strategy is simple_byte
  1356  007A  083C               	movf	??_initADC,w
  1357  007B  3A00               	xorlw	0	; case 0
  1358  007C  1903               	skipnz
  1359  007D  2827               	goto	l189
  1360  007E  3A01               	xorlw	1	; case 1
  1361  007F  1903               	skipnz
  1362  0080  282C               	goto	l191
  1363  0081  3A03               	xorlw	3	; case 2
  1364  0082  1903               	skipnz
  1365  0083  2831               	goto	l192
  1366  0084  3A01               	xorlw	1	; case 3
  1367  0085  1903               	skipnz
  1368  0086  2836               	goto	l193
  1369  0087  3A07               	xorlw	7	; case 4
  1370  0088  1903               	skipnz
  1371  0089  283B               	goto	l194
  1372  008A  3A01               	xorlw	1	; case 5
  1373  008B  1903               	skipnz
  1374  008C  2840               	goto	l195
  1375  008D  3A03               	xorlw	3	; case 6
  1376  008E  1903               	skipnz
  1377  008F  2845               	goto	l196
  1378  0090  3A01               	xorlw	1	; case 7
  1379  0091  1903               	skipnz
  1380  0092  284A               	goto	l197
  1381  0093  3A0F               	xorlw	15	; case 8
  1382  0094  1903               	skipnz
  1383  0095  284F               	goto	l198
  1384  0096  3A01               	xorlw	1	; case 9
  1385  0097  1903               	skipnz
  1386  0098  2854               	goto	l199
  1387  0099  3A03               	xorlw	3	; case 10
  1388  009A  1903               	skipnz
  1389  009B  2859               	goto	l200
  1390  009C  3A01               	xorlw	1	; case 11
  1391  009D  1903               	skipnz
  1392  009E  285E               	goto	l201
  1393  009F  3A07               	xorlw	7	; case 12
  1394  00A0  1903               	skipnz
  1395  00A1  2863               	goto	l202
  1396  00A2  3A01               	xorlw	1	; case 13
  1397  00A3  1903               	skipnz
  1398  00A4  2868               	goto	l203
  1399  00A5  286D               	goto	l204
  1400  00A6                     l190:
  1401                           
  1402                           ;ADC_lib.c: 111:     ADCON0bits.ADCS1 = 0;
  1403  00A6  139F               	bcf	31,7	;volatile
  1404                           
  1405                           ;ADC_lib.c: 112:     ADCON0bits.ADCS0 = 0;
  1406  00A7  131F               	bcf	31,6	;volatile
  1407                           
  1408                           ;ADC_lib.c: 113:     ADCON0bits.GO_DONE= 0;
  1409  00A8  109F               	bcf	31,1	;volatile
  1410                           
  1411                           ;ADC_lib.c: 114:     ADCON0bits.ADON = 1;
  1412  00A9  141F               	bsf	31,0	;volatile
  1413                           
  1414                           ;ADC_lib.c: 116:     ADCON1bits.ADFM = 1;
  1415  00AA  1683               	bsf	3,5	;RP0=1, select bank1
  1416  00AB  1303               	bcf	3,6	;RP1=0, select bank1
  1417  00AC  179F               	bsf	31,7	;volatile
  1418                           
  1419                           ;ADC_lib.c: 117:     ADCON1bits.VCFG1 = 0;
  1420  00AD  129F               	bcf	31,5	;volatile
  1421                           
  1422                           ;ADC_lib.c: 118:     ADCON1bits.VCFG0 = 0;
  1423  00AE  121F               	bcf	31,4	;volatile
  1424  00AF                     l205:
  1425  00AF  0008               	return
  1426  00B0                     __end_of_initADC:
  1427                           
  1428                           	psect	text7
  1429  028A                     __ptext7:	
  1430 ;; *************** function _ISR *****************
  1431 ;; Defined at:
  1432 ;;		line 79 in file "Interrup_Libreria.c"
  1433 ;; Parameters:    Size  Location     Type
  1434 ;;		None
  1435 ;; Auto vars:     Size  Location     Type
  1436 ;;  a               1    0        unsigned char 
  1437 ;; Return value:  Size  Location     Type
  1438 ;;                  1    wreg      void 
  1439 ;; Registers used:
  1440 ;;		wreg, fsr0l, fsr0h, status,2, status,0, btemp+1, pclath, cstack
  1441 ;; Tracked objects:
  1442 ;;		On entry : 0/0
  1443 ;;		On exit  : 0/0
  1444 ;;		Unchanged: 0/0
  1445 ;; Data sizes:     COMMON   BANK0   BANK1   BANK3   BANK2
  1446 ;;      Params:         0       0       0       0       0
  1447 ;;      Locals:         1       0       0       0       0
  1448 ;;      Temps:          0       6       0       0       0
  1449 ;;      Totals:         1       6       0       0       0
  1450 ;;Total ram usage:        7 bytes
  1451 ;; Hardware stack levels used:    1
  1452 ;; Hardware stack levels required when called:    2
  1453 ;; This function calls:
  1454 ;;		_decrementar
  1455 ;;		_division
  1456 ;;		_hexadecimal
  1457 ;;		_incrementar
  1458 ;;		_multiplexar
  1459 ;; This function is called by:
  1460 ;;		Interrupt level 1
  1461 ;; This function uses a non-reentrant model
  1462 ;;
  1463                           
  1464                           
  1465                           ;psect for function _ISR
  1466  028A                     _ISR:
  1467  028A                     i1l1359:
  1468                           
  1469                           ;Interrup_Libreria.c: 84: 
  1470  028A  1D0B               	btfss	11,2	;volatile
  1471  028B  2A8D               	goto	u51_21
  1472  028C  2A8E               	goto	u51_20
  1473  028D                     u51_21:
  1474  028D  2AA9               	goto	i1l1369
  1475  028E                     u51_20:
  1476  028E                     i1l1361:
  1477                           
  1478                           ;Interrup_Libreria.c: 85: ;Interrup_Libreria.c: 86: 
  1479  028E  110B               	bcf	11,2	;volatile
  1480  028F                     i1l1363:
  1481                           
  1482                           ;Interrup_Libreria.c: 87:      while (1)
  1483  028F  3096               	movlw	150
  1484  0290  0081               	movwf	1	;volatile
  1485  0291                     i1l1365:
  1486                           
  1487                           ;Interrup_Libreria.c: 88:     {
  1488  0291  120A  118A  2373  120A  118A  	fcall	_multiplexar
  1489                           
  1490                           ;Interrup_Libreria.c: 89:         ADCON0bits.GO_DONE = 1;
  1491  0296  120A  118A  2302  120A  118A  	fcall	_division
  1492  029B                     i1l1367:
  1493                           
  1494                           ;Interrup_Libreria.c: 90:         _delay((unsigned long)((10)*(8000000/4000.0)));
  1495  029B  087C               	movf	_show,w
  1496  029C  1283               	bcf	3,5	;RP0=0, select bank0
  1497  029D  1303               	bcf	3,6	;RP1=0, select bank0
  1498  029E  00B6               	movwf	??_ISR
  1499  029F  01B7               	clrf	??_ISR+1
  1500  02A0  0836               	movf	??_ISR,w
  1501  02A1  00F0               	movwf	hexadecimal@show
  1502  02A2  0837               	movf	??_ISR+1,w
  1503  02A3  00F1               	movwf	hexadecimal@show+1
  1504  02A4  120A  118A  20B0  120A  118A  	fcall	_hexadecimal
  1505  02A9                     i1l1369:
  1506                           
  1507                           ;Interrup_Libreria.c: 93:             ADCON0bits.GO_DONE = 1;
  1508  02A9  1C0B               	btfss	11,0	;volatile
  1509  02AA  2AAC               	goto	u52_21
  1510  02AB  2AAD               	goto	u52_20
  1511  02AC                     u52_21:
  1512  02AC  2ABB               	goto	i1l101
  1513  02AD                     u52_20:
  1514  02AD                     i1l1371:
  1515  02AD  1283               	bcf	3,5	;RP0=0, select bank0
  1516  02AE  1303               	bcf	3,6	;RP1=0, select bank0
  1517  02AF  0806               	movf	6,w	;volatile
  1518  02B0                     i1l1373:
  1519                           
  1520                           ;Interrup_Libreria.c: 97:     }
  1521  02B0  120A  118A  213D  120A  118A  	fcall	_incrementar
  1522  02B5                     i1l1375:
  1523                           
  1524                           ;Interrup_Libreria.c: 98: }
  1525  02B5  120A  118A  21B0  120A  118A  	fcall	_decrementar
  1526  02BA                     i1l1377:
  1527                           
  1528                           ;Interrup_Libreria.c: 99: 
  1529  02BA  100B               	bcf	11,0	;volatile
  1530  02BB                     i1l101:
  1531  02BB  1283               	bcf	3,5	;RP0=0, select bank0
  1532  02BC  1303               	bcf	3,6	;RP1=0, select bank0
  1533  02BD  083B               	movf	??_ISR+5,w
  1534  02BE  00FF               	movwf	btemp+1
  1535  02BF  083A               	movf	??_ISR+4,w
  1536  02C0  008A               	movwf	10
  1537  02C1  0839               	movf	??_ISR+3,w
  1538  02C2  0084               	movwf	4
  1539  02C3  0E38               	swapf	??_ISR+2,w
  1540  02C4  0083               	movwf	3
  1541  02C5  0EFE               	swapf	btemp,f
  1542  02C6  0E7E               	swapf	btemp,w
  1543  02C7  0009               	retfie
  1544  02C8                     __end_of_ISR:
  1545                           
  1546                           	psect	intentry
  1547  0004                     __pintentry:	
  1548                           ;incstack = 0
  1549                           ; Regs used in _ISR: [wreg-fsr0h+status,2+status,0+btemp+1+pclath+cstack]
  1550                           
  1551  0004                     interrupt_function:
  1552  007E                     saved_w	set	btemp
  1553  0004  00FE               	movwf	btemp
  1554  0005  0E03               	swapf	3,w
  1555  0006  1283               	bcf	3,5	;RP0=0, select bank0
  1556  0007  1303               	bcf	3,6	;RP1=0, select bank0
  1557  0008  00B8               	movwf	??_ISR+2
  1558  0009  0804               	movf	4,w
  1559  000A  00B9               	movwf	??_ISR+3
  1560  000B  080A               	movf	10,w
  1561  000C  00BA               	movwf	??_ISR+4
  1562  000D  087F               	movf	btemp+1,w
  1563  000E  00BB               	movwf	??_ISR+5
  1564  000F  120A  118A  2A8A   	ljmp	_ISR
  1565                           
  1566                           	psect	text8
  1567  0373                     __ptext8:	
  1568 ;; *************** function _multiplexar *****************
  1569 ;; Defined at:
  1570 ;;		line 207 in file "Interrup_Libreria.c"
  1571 ;; Parameters:    Size  Location     Type
  1572 ;;		None
  1573 ;; Auto vars:     Size  Location     Type
  1574 ;;		None
  1575 ;; Return value:  Size  Location     Type
  1576 ;;                  1    wreg      void 
  1577 ;; Registers used:
  1578 ;;		None
  1579 ;; Tracked objects:
  1580 ;;		On entry : 0/0
  1581 ;;		On exit  : 0/0
  1582 ;;		Unchanged: 0/0
  1583 ;; Data sizes:     COMMON   BANK0   BANK1   BANK3   BANK2
  1584 ;;      Params:         0       0       0       0       0
  1585 ;;      Locals:         0       0       0       0       0
  1586 ;;      Temps:          0       0       0       0       0
  1587 ;;      Totals:         0       0       0       0       0
  1588 ;;Total ram usage:        0 bytes
  1589 ;; Hardware stack levels used:    1
  1590 ;; This function calls:
  1591 ;;		Nothing
  1592 ;; This function is called by:
  1593 ;;		_ISR
  1594 ;; This function uses a non-reentrant model
  1595 ;;
  1596                           
  1597                           
  1598                           ;psect for function _multiplexar
  1599  0373                     _multiplexar:
  1600  0373                     i1l853:	
  1601                           ;incstack = 0
  1602                           ; Regs used in _multiplexar: []
  1603                           
  1604                           
  1605                           ;Interrup_Libreria.c: 209:             break;
  1606  0373  1283               	bcf	3,5	;RP0=0, select bank0
  1607  0374  1303               	bcf	3,6	;RP1=0, select bank0
  1608  0375  1809               	btfsc	9,0	;volatile
  1609  0376  2B78               	goto	u11_21
  1610  0377  2B79               	goto	u11_20
  1611  0378                     u11_21:
  1612  0378  2B7C               	goto	i1l128
  1613  0379                     u11_20:
  1614  0379                     i1l855:
  1615                           
  1616                           ;Interrup_Libreria.c: 210:         case 1:;Interrup_Libreria.c: 211:             PORTC =
      +                           0b00000110;
  1617  0379  1409               	bsf	9,0	;volatile
  1618                           
  1619                           ;Interrup_Libreria.c: 212:             break;
  1620  037A  1089               	bcf	9,1	;volatile
  1621                           
  1622                           ;Interrup_Libreria.c: 213:         case 2:
  1623  037B  2B7E               	goto	i1l130
  1624  037C                     i1l128:	
  1625                           ;Interrup_Libreria.c: 214:             PORTC = 0b01011011;
  1626                           
  1627                           
  1628                           ;Interrup_Libreria.c: 215:             break;;Interrup_Libreria.c: 216:         case 3:
  1629  037C  1009               	bcf	9,0	;volatile
  1630                           
  1631                           ;Interrup_Libreria.c: 217:             PORTC = 0b01001111;
  1632  037D  1489               	bsf	9,1	;volatile
  1633  037E                     i1l130:
  1634  037E  0008               	return
  1635  037F                     __end_of_multiplexar:
  1636                           
  1637                           	psect	text9
  1638  013D                     __ptext9:	
  1639 ;; *************** function _incrementar *****************
  1640 ;; Defined at:
  1641 ;;		line 297 in file "Interrup_Libreria.c"
  1642 ;; Parameters:    Size  Location     Type
  1643 ;;		None
  1644 ;; Auto vars:     Size  Location     Type
  1645 ;;  e               2    2[COMMON] int 
  1646 ;;  e               2    0[COMMON] int 
  1647 ;; Return value:  Size  Location     Type
  1648 ;;                  1    wreg      void 
  1649 ;; Registers used:
  1650 ;;		wreg, status,2, status,0, btemp+1
  1651 ;; Tracked objects:
  1652 ;;		On entry : 0/0
  1653 ;;		On exit  : 0/0
  1654 ;;		Unchanged: 0/0
  1655 ;; Data sizes:     COMMON   BANK0   BANK1   BANK3   BANK2
  1656 ;;      Params:         0       0       0       0       0
  1657 ;;      Locals:         4       0       0       0       0
  1658 ;;      Temps:          0       0       0       0       0
  1659 ;;      Totals:         4       0       0       0       0
  1660 ;;Total ram usage:        4 bytes
  1661 ;; Hardware stack levels used:    1
  1662 ;; This function calls:
  1663 ;;		Nothing
  1664 ;; This function is called by:
  1665 ;;		_ISR
  1666 ;; This function uses a non-reentrant model
  1667 ;;
  1668                           
  1669                           
  1670                           ;psect for function _incrementar
  1671  013D                     _incrementar:
  1672  013D                     i1l1235:	
  1673                           ;incstack = 0
  1674                           ; Regs used in _incrementar: [wreg+status,2+status,0+btemp+1]
  1675                           
  1676                           
  1677                           ;Interrup_Libreria.c: 304: 
  1678  013D  1283               	bcf	3,5	;RP0=0, select bank0
  1679  013E  1303               	bcf	3,6	;RP1=0, select bank0
  1680  013F  1C06               	btfss	6,0	;volatile
  1681  0140  2942               	goto	u39_21
  1682  0141  2943               	goto	u39_20
  1683  0142                     u39_21:
  1684  0142  297F               	goto	i1l1261
  1685  0143                     u39_20:
  1686  0143                     i1l1237:
  1687                           
  1688                           ;Interrup_Libreria.c: 305:     if (PORTBbits.RB1 == 1);Interrup_Libreria.c: 306:     {
  1689  0143  01F0               	clrf	incrementar@e
  1690  0144  01F1               	clrf	incrementar@e+1
  1691  0145                     i1l1243:
  1692                           
  1693                           ;Interrup_Libreria.c: 307:         for (int e = 0; e < 101; e++){
  1694  0145  1283               	bcf	3,5	;RP0=0, select bank0
  1695  0146  1303               	bcf	3,6	;RP1=0, select bank0
  1696  0147  082E               	movf	_pressed_ok,w
  1697  0148  3E01               	addlw	1
  1698  0149  00AE               	movwf	_pressed_ok
  1699  014A  082F               	movf	_pressed_ok+1,w
  1700  014B  1803               	skipnc
  1701  014C  3E01               	addlw	1
  1702  014D  3E00               	addlw	0
  1703  014E  00AF               	movwf	_pressed_ok+1
  1704  014F                     i1l1245:
  1705  014F  3001               	movlw	1
  1706  0150  07F0               	addwf	incrementar@e,f
  1707  0151  1803               	skipnc
  1708  0152  0AF1               	incf	incrementar@e+1,f
  1709  0153  3000               	movlw	0
  1710  0154  07F1               	addwf	incrementar@e+1,f
  1711  0155                     i1l1247:
  1712  0155  0871               	movf	incrementar@e+1,w
  1713  0156  3A80               	xorlw	128
  1714  0157  00FF               	movwf	btemp+1
  1715  0158  3080               	movlw	128
  1716  0159  027F               	subwf	btemp+1,w
  1717  015A  1D03               	skipz
  1718  015B  295E               	goto	u40_25
  1719  015C  3065               	movlw	101
  1720  015D  0270               	subwf	incrementar@e,w
  1721  015E                     u40_25:
  1722  015E  1C03               	skipc
  1723  015F  2961               	goto	u40_21
  1724  0160  2962               	goto	u40_20
  1725  0161                     u40_21:
  1726  0161  2945               	goto	i1l1243
  1727  0162                     u40_20:
  1728  0162                     i1l1249:
  1729                           
  1730                           ;Interrup_Libreria.c: 308:         pressed_ok2 = pressed_ok2 + 1; }
  1731  0162  1283               	bcf	3,5	;RP0=0, select bank0
  1732  0163  1303               	bcf	3,6	;RP1=0, select bank0
  1733  0164  01AC               	clrf	_released_ok
  1734  0165  01AD               	clrf	_released_ok+1
  1735  0166                     i1l1251:
  1736                           
  1737                           ;Interrup_Libreria.c: 309:         released_ok2 = 0;
  1738  0166  3000               	movlw	0
  1739  0167  022F               	subwf	_pressed_ok+1,w
  1740  0168  3065               	movlw	101
  1741  0169  1903               	skipnz
  1742  016A  022E               	subwf	_pressed_ok,w
  1743  016B  1C03               	skipc
  1744  016C  296E               	goto	u41_21
  1745  016D  296F               	goto	u41_20
  1746  016E                     u41_21:
  1747  016E  297C               	goto	i1l1259
  1748  016F                     u41_20:
  1749  016F                     i1l1253:
  1750                           
  1751                           ;Interrup_Libreria.c: 310:         if (pressed_ok2 > 100);Interrup_Libreria.c: 311:     
      +                              {
  1752  016F  082A               	movf	_presionado,w
  1753  0170  042B               	iorwf	_presionado+1,w
  1754  0171  1D03               	btfss	3,2
  1755  0172  2974               	goto	u42_21
  1756  0173  2975               	goto	u42_20
  1757  0174                     u42_21:
  1758  0174  297C               	goto	i1l1259
  1759  0175                     u42_20:
  1760  0175                     i1l1255:
  1761                           
  1762                           ;Interrup_Libreria.c: 312:             if (presionado2 == 0);Interrup_Libreria.c: 313:  
      +                                     {
  1763  0175  0808               	movf	8,w	;volatile
  1764  0176  3E01               	addlw	1
  1765  0177  0088               	movwf	8	;volatile
  1766  0178                     i1l1257:
  1767                           
  1768                           ;Interrup_Libreria.c: 314:                 PORTD = PORTD - 1;
  1769  0178  3001               	movlw	1
  1770  0179  00AA               	movwf	_presionado
  1771  017A  3000               	movlw	0
  1772  017B  00AB               	movwf	_presionado+1
  1773  017C                     i1l1259:
  1774                           
  1775                           ;Interrup_Libreria.c: 317:         }
  1776  017C  01AE               	clrf	_pressed_ok
  1777  017D  01AF               	clrf	_pressed_ok+1
  1778                           
  1779                           ;Interrup_Libreria.c: 318:         pressed_ok2 = 0;
  1780  017E  29AF               	goto	i1l169
  1781  017F                     i1l1261:
  1782                           
  1783                           ;Interrup_Libreria.c: 320:     else;Interrup_Libreria.c: 321:     {
  1784  017F  01F2               	clrf	incrementar@e_332
  1785  0180  01F3               	clrf	incrementar@e_332+1
  1786  0181                     i1l1267:
  1787                           
  1788                           ;Interrup_Libreria.c: 322:         for (int e = 0; e < 101; e++){
  1789  0181  1283               	bcf	3,5	;RP0=0, select bank0
  1790  0182  1303               	bcf	3,6	;RP1=0, select bank0
  1791  0183  082C               	movf	_released_ok,w
  1792  0184  3E01               	addlw	1
  1793  0185  00AC               	movwf	_released_ok
  1794  0186  082D               	movf	_released_ok+1,w
  1795  0187  1803               	skipnc
  1796  0188  3E01               	addlw	1
  1797  0189  3E00               	addlw	0
  1798  018A  00AD               	movwf	_released_ok+1
  1799  018B                     i1l1269:
  1800  018B  3001               	movlw	1
  1801  018C  07F2               	addwf	incrementar@e_332,f
  1802  018D  1803               	skipnc
  1803  018E  0AF3               	incf	incrementar@e_332+1,f
  1804  018F  3000               	movlw	0
  1805  0190  07F3               	addwf	incrementar@e_332+1,f
  1806  0191                     i1l1271:
  1807  0191  0873               	movf	incrementar@e_332+1,w
  1808  0192  3A80               	xorlw	128
  1809  0193  00FF               	movwf	btemp+1
  1810  0194  3080               	movlw	128
  1811  0195  027F               	subwf	btemp+1,w
  1812  0196  1D03               	skipz
  1813  0197  299A               	goto	u43_25
  1814  0198  3065               	movlw	101
  1815  0199  0272               	subwf	incrementar@e_332,w
  1816  019A                     u43_25:
  1817  019A  1C03               	skipc
  1818  019B  299D               	goto	u43_21
  1819  019C  299E               	goto	u43_20
  1820  019D                     u43_21:
  1821  019D  2981               	goto	i1l1267
  1822  019E                     u43_20:
  1823  019E                     i1l1273:
  1824                           
  1825                           ;Interrup_Libreria.c: 324: 
  1826  019E  1283               	bcf	3,5	;RP0=0, select bank0
  1827  019F  1303               	bcf	3,6	;RP1=0, select bank0
  1828  01A0  01AE               	clrf	_pressed_ok
  1829  01A1  01AF               	clrf	_pressed_ok+1
  1830  01A2                     i1l1275:
  1831                           
  1832                           ;Interrup_Libreria.c: 325:         pressed_ok2 = 0;
  1833  01A2  3000               	movlw	0
  1834  01A3  022D               	subwf	_released_ok+1,w
  1835  01A4  3065               	movlw	101
  1836  01A5  1903               	skipnz
  1837  01A6  022C               	subwf	_released_ok,w
  1838  01A7  1C03               	skipc
  1839  01A8  29AA               	goto	u44_21
  1840  01A9  29AB               	goto	u44_20
  1841  01AA                     u44_21:
  1842  01AA  29AF               	goto	i1l169
  1843  01AB                     u44_20:
  1844  01AB                     i1l1277:
  1845                           
  1846                           ;Interrup_Libreria.c: 326:         if (released_ok2 > 100);Interrup_Libreria.c: 327:    
      +                               {
  1847  01AB  01AA               	clrf	_presionado
  1848  01AC  01AB               	clrf	_presionado+1
  1849                           
  1850                           ;Interrup_Libreria.c: 328:             presionado2 = 0;
  1851  01AD  01AC               	clrf	_released_ok
  1852  01AE  01AD               	clrf	_released_ok+1
  1853  01AF                     i1l169:
  1854  01AF  0008               	return
  1855  01B0                     __end_of_incrementar:
  1856                           
  1857                           	psect	text10
  1858  00B0                     __ptext10:	
  1859 ;; *************** function _hexadecimal *****************
  1860 ;; Defined at:
  1861 ;;		line 239 in file "Interrup_Libreria.c"
  1862 ;; Parameters:    Size  Location     Type
  1863 ;;  show            2    0[COMMON] int 
  1864 ;; Auto vars:     Size  Location     Type
  1865 ;;		None
  1866 ;; Return value:  Size  Location     Type
  1867 ;;                  1    wreg      void 
  1868 ;; Registers used:
  1869 ;;		wreg, fsr0l, fsr0h, status,2, status,0
  1870 ;; Tracked objects:
  1871 ;;		On entry : 0/0
  1872 ;;		On exit  : 0/0
  1873 ;;		Unchanged: 0/0
  1874 ;; Data sizes:     COMMON   BANK0   BANK1   BANK3   BANK2
  1875 ;;      Params:         2       0       0       0       0
  1876 ;;      Locals:         0       0       0       0       0
  1877 ;;      Temps:          0       0       0       0       0
  1878 ;;      Totals:         2       0       0       0       0
  1879 ;;Total ram usage:        2 bytes
  1880 ;; Hardware stack levels used:    1
  1881 ;; This function calls:
  1882 ;;		Nothing
  1883 ;; This function is called by:
  1884 ;;		_ISR
  1885 ;; This function uses a non-reentrant model
  1886 ;;
  1887                           
  1888                           
  1889                           ;psect for function _hexadecimal
  1890  00B0                     _hexadecimal:
  1891  00B0                     i1l1191:	
  1892                           ;incstack = 0
  1893                           ; Regs used in _hexadecimal: [wreg-fsr0h+status,2+status,0]
  1894                           
  1895                           
  1896                           ;Interrup_Libreria.c: 239:             break;;Interrup_Libreria.c: 240:         case 11:
      +                          ;Interrup_Libreria.c: 241:             PORTC = 0b01111100;
  1897  00B0  2905               	goto	i1l1229
  1898  00B1                     i1l1193:
  1899                           
  1900                           ;Interrup_Libreria.c: 244:             PORTC = 0b00111001;
  1901  00B1  303F               	movlw	63
  1902  00B2  1283               	bcf	3,5	;RP0=0, select bank0
  1903  00B3  1303               	bcf	3,6	;RP1=0, select bank0
  1904  00B4  0087               	movwf	7	;volatile
  1905                           
  1906                           ;Interrup_Libreria.c: 245:             break;
  1907  00B5  293C               	goto	i1l157
  1908  00B6                     i1l1195:
  1909                           
  1910                           ;Interrup_Libreria.c: 247:             PORTC = 0b01011110;
  1911  00B6  3006               	movlw	6
  1912  00B7  1283               	bcf	3,5	;RP0=0, select bank0
  1913  00B8  1303               	bcf	3,6	;RP1=0, select bank0
  1914  00B9  0087               	movwf	7	;volatile
  1915                           
  1916                           ;Interrup_Libreria.c: 248:             break;
  1917  00BA  293C               	goto	i1l157
  1918  00BB                     i1l1197:
  1919                           
  1920                           ;Interrup_Libreria.c: 250:             PORTC = 0b01111001;
  1921  00BB  305B               	movlw	91
  1922  00BC  1283               	bcf	3,5	;RP0=0, select bank0
  1923  00BD  1303               	bcf	3,6	;RP1=0, select bank0
  1924  00BE  0087               	movwf	7	;volatile
  1925                           
  1926                           ;Interrup_Libreria.c: 251:             break;
  1927  00BF  293C               	goto	i1l157
  1928  00C0                     i1l1199:
  1929                           
  1930                           ;Interrup_Libreria.c: 253:             PORTC = 0b01110001;
  1931  00C0  304F               	movlw	79
  1932  00C1  1283               	bcf	3,5	;RP0=0, select bank0
  1933  00C2  1303               	bcf	3,6	;RP1=0, select bank0
  1934  00C3  0087               	movwf	7	;volatile
  1935                           
  1936                           ;Interrup_Libreria.c: 254:             break;
  1937  00C4  293C               	goto	i1l157
  1938  00C5                     i1l1201:
  1939                           
  1940                           ;Interrup_Libreria.c: 256:             PORTC = 0b00000000;
  1941  00C5  3066               	movlw	102
  1942  00C6  1283               	bcf	3,5	;RP0=0, select bank0
  1943  00C7  1303               	bcf	3,6	;RP1=0, select bank0
  1944  00C8  0087               	movwf	7	;volatile
  1945                           
  1946                           ;Interrup_Libreria.c: 257:             break;
  1947  00C9  293C               	goto	i1l157
  1948  00CA                     i1l1203:
  1949                           
  1950                           ;Interrup_Libreria.c: 259: }
  1951  00CA  306D               	movlw	109
  1952  00CB  1283               	bcf	3,5	;RP0=0, select bank0
  1953  00CC  1303               	bcf	3,6	;RP1=0, select bank0
  1954  00CD  0087               	movwf	7	;volatile
  1955                           
  1956                           ;Interrup_Libreria.c: 260: 
  1957  00CE  293C               	goto	i1l157
  1958  00CF                     i1l1205:
  1959                           
  1960                           ;Interrup_Libreria.c: 262: {
  1961  00CF  307D               	movlw	125
  1962  00D0  1283               	bcf	3,5	;RP0=0, select bank0
  1963  00D1  1303               	bcf	3,6	;RP1=0, select bank0
  1964  00D2  0087               	movwf	7	;volatile
  1965                           
  1966                           ;Interrup_Libreria.c: 263: 
  1967  00D3  293C               	goto	i1l157
  1968  00D4                     i1l1207:
  1969                           
  1970                           ;Interrup_Libreria.c: 265: 
  1971  00D4  3007               	movlw	7
  1972  00D5  1283               	bcf	3,5	;RP0=0, select bank0
  1973  00D6  1303               	bcf	3,6	;RP1=0, select bank0
  1974  00D7  0087               	movwf	7	;volatile
  1975                           
  1976                           ;Interrup_Libreria.c: 266: 
  1977  00D8  293C               	goto	i1l157
  1978  00D9                     i1l1209:
  1979                           
  1980                           ;Interrup_Libreria.c: 268:     if (PORTBbits.RB0 == 1)
  1981  00D9  307F               	movlw	127
  1982  00DA  1283               	bcf	3,5	;RP0=0, select bank0
  1983  00DB  1303               	bcf	3,6	;RP1=0, select bank0
  1984  00DC  0087               	movwf	7	;volatile
  1985                           
  1986                           ;Interrup_Libreria.c: 269:     {
  1987  00DD  293C               	goto	i1l157
  1988  00DE                     i1l1211:
  1989                           
  1990                           ;Interrup_Libreria.c: 271:         pressed_ok = pressed_ok + 1; }
  1991  00DE  306F               	movlw	111
  1992  00DF  1283               	bcf	3,5	;RP0=0, select bank0
  1993  00E0  1303               	bcf	3,6	;RP1=0, select bank0
  1994  00E1  0087               	movwf	7	;volatile
  1995                           
  1996                           ;Interrup_Libreria.c: 272:         released_ok = 0;
  1997  00E2  293C               	goto	i1l157
  1998  00E3                     i1l1213:
  1999                           
  2000                           ;Interrup_Libreria.c: 274:         {
  2001  00E3  3077               	movlw	119
  2002  00E4  1283               	bcf	3,5	;RP0=0, select bank0
  2003  00E5  1303               	bcf	3,6	;RP1=0, select bank0
  2004  00E6  0087               	movwf	7	;volatile
  2005                           
  2006                           ;Interrup_Libreria.c: 275:             if (presionado == 0)
  2007  00E7  293C               	goto	i1l157
  2008  00E8                     i1l1215:
  2009                           
  2010                           ;Interrup_Libreria.c: 277:                 PORTD = PORTD + 1;
  2011  00E8  307C               	movlw	124
  2012  00E9  1283               	bcf	3,5	;RP0=0, select bank0
  2013  00EA  1303               	bcf	3,6	;RP1=0, select bank0
  2014  00EB  0087               	movwf	7	;volatile
  2015                           
  2016                           ;Interrup_Libreria.c: 278:                 presionado = 1;
  2017  00EC  293C               	goto	i1l157
  2018  00ED                     i1l1217:
  2019                           
  2020                           ;Interrup_Libreria.c: 280:         }
  2021  00ED  3039               	movlw	57
  2022  00EE  1283               	bcf	3,5	;RP0=0, select bank0
  2023  00EF  1303               	bcf	3,6	;RP1=0, select bank0
  2024  00F0  0087               	movwf	7	;volatile
  2025                           
  2026                           ;Interrup_Libreria.c: 281:         pressed_ok = 0;
  2027  00F1  293C               	goto	i1l157
  2028  00F2                     i1l1219:
  2029                           
  2030                           ;Interrup_Libreria.c: 283:     else
  2031  00F2  305E               	movlw	94
  2032  00F3  1283               	bcf	3,5	;RP0=0, select bank0
  2033  00F4  1303               	bcf	3,6	;RP1=0, select bank0
  2034  00F5  0087               	movwf	7	;volatile
  2035                           
  2036                           ;Interrup_Libreria.c: 284:     {
  2037  00F6  293C               	goto	i1l157
  2038  00F7                     i1l1221:
  2039                           
  2040                           ;Interrup_Libreria.c: 286:         released_ok = released_ok + 1;}
  2041  00F7  3079               	movlw	121
  2042  00F8  1283               	bcf	3,5	;RP0=0, select bank0
  2043  00F9  1303               	bcf	3,6	;RP1=0, select bank0
  2044  00FA  0087               	movwf	7	;volatile
  2045                           
  2046                           ;Interrup_Libreria.c: 287: 
  2047  00FB  293C               	goto	i1l157
  2048  00FC                     i1l1223:
  2049                           
  2050                           ;Interrup_Libreria.c: 289:         if (released_ok > 100)
  2051  00FC  3071               	movlw	113
  2052  00FD  1283               	bcf	3,5	;RP0=0, select bank0
  2053  00FE  1303               	bcf	3,6	;RP1=0, select bank0
  2054  00FF  0087               	movwf	7	;volatile
  2055                           
  2056                           ;Interrup_Libreria.c: 290:         {
  2057  0100  293C               	goto	i1l157
  2058  0101                     i1l1225:
  2059                           
  2060                           ;Interrup_Libreria.c: 292:             released_ok = 0;
  2061  0101  1283               	bcf	3,5	;RP0=0, select bank0
  2062  0102  1303               	bcf	3,6	;RP1=0, select bank0
  2063  0103  0187               	clrf	7	;volatile
  2064                           
  2065                           ;Interrup_Libreria.c: 293:         }
  2066  0104  293C               	goto	i1l157
  2067  0105                     i1l1229:
  2068                           
  2069                           ; Switch on 2 bytes has been partitioned into a top level switch of size 1, and 1 sub-sw
      +                          itches
  2070                           ; Switch size 1, requested type "simple"
  2071                           ; Number of cases is 1, Range of values is 0 to 0
  2072                           ; switch strategies available:
  2073                           ; Name         Instructions Cycles
  2074                           ; simple_byte            4     3 (average)
  2075                           ; direct_byte           11     8 (fixed)
  2076                           ; jumptable            260     6 (fixed)
  2077                           ;	Chosen strategy is simple_byte
  2078  0105  0871               	movf	hexadecimal@show+1,w
  2079  0106  3A00               	xorlw	0	; case 0
  2080  0107  1903               	skipnz
  2081  0108  290A               	goto	i1l1451
  2082  0109  2901               	goto	i1l1225
  2083  010A                     i1l1451:
  2084                           
  2085                           ; Switch size 1, requested type "simple"
  2086                           ; Number of cases is 16, Range of values is 0 to 15
  2087                           ; switch strategies available:
  2088                           ; Name         Instructions Cycles
  2089                           ; simple_byte           49    25 (average)
  2090                           ; direct_byte           56     8 (fixed)
  2091                           ; jumptable            260     6 (fixed)
  2092                           ;	Chosen strategy is simple_byte
  2093  010A  0870               	movf	hexadecimal@show,w
  2094  010B  3A00               	xorlw	0	; case 0
  2095  010C  1903               	skipnz
  2096  010D  28B1               	goto	i1l1193
  2097  010E  3A01               	xorlw	1	; case 1
  2098  010F  1903               	skipnz
  2099  0110  28B6               	goto	i1l1195
  2100  0111  3A03               	xorlw	3	; case 2
  2101  0112  1903               	skipnz
  2102  0113  28BB               	goto	i1l1197
  2103  0114  3A01               	xorlw	1	; case 3
  2104  0115  1903               	skipnz
  2105  0116  28C0               	goto	i1l1199
  2106  0117  3A07               	xorlw	7	; case 4
  2107  0118  1903               	skipnz
  2108  0119  28C5               	goto	i1l1201
  2109  011A  3A01               	xorlw	1	; case 5
  2110  011B  1903               	skipnz
  2111  011C  28CA               	goto	i1l1203
  2112  011D  3A03               	xorlw	3	; case 6
  2113  011E  1903               	skipnz
  2114  011F  28CF               	goto	i1l1205
  2115  0120  3A01               	xorlw	1	; case 7
  2116  0121  1903               	skipnz
  2117  0122  28D4               	goto	i1l1207
  2118  0123  3A0F               	xorlw	15	; case 8
  2119  0124  1903               	skipnz
  2120  0125  28D9               	goto	i1l1209
  2121  0126  3A01               	xorlw	1	; case 9
  2122  0127  1903               	skipnz
  2123  0128  28DE               	goto	i1l1211
  2124  0129  3A03               	xorlw	3	; case 10
  2125  012A  1903               	skipnz
  2126  012B  28E3               	goto	i1l1213
  2127  012C  3A01               	xorlw	1	; case 11
  2128  012D  1903               	skipnz
  2129  012E  28E8               	goto	i1l1215
  2130  012F  3A07               	xorlw	7	; case 12
  2131  0130  1903               	skipnz
  2132  0131  28ED               	goto	i1l1217
  2133  0132  3A01               	xorlw	1	; case 13
  2134  0133  1903               	skipnz
  2135  0134  28F2               	goto	i1l1219
  2136  0135  3A03               	xorlw	3	; case 14
  2137  0136  1903               	skipnz
  2138  0137  28F7               	goto	i1l1221
  2139  0138  3A01               	xorlw	1	; case 15
  2140  0139  1903               	skipnz
  2141  013A  28FC               	goto	i1l1223
  2142  013B  2901               	goto	i1l1225
  2143  013C                     i1l157:
  2144  013C  0008               	return
  2145  013D                     __end_of_hexadecimal:
  2146                           
  2147                           	psect	text11
  2148  0302                     __ptext11:	
  2149 ;; *************** function _division *****************
  2150 ;; Defined at:
  2151 ;;		line 221 in file "Interrup_Libreria.c"
  2152 ;; Parameters:    Size  Location     Type
  2153 ;;		None
  2154 ;; Auto vars:     Size  Location     Type
  2155 ;;		None
  2156 ;; Return value:  Size  Location     Type
  2157 ;;                  1    wreg      void 
  2158 ;; Registers used:
  2159 ;;		wreg, status,2, status,0, pclath, cstack
  2160 ;; Tracked objects:
  2161 ;;		On entry : 0/0
  2162 ;;		On exit  : 0/0
  2163 ;;		Unchanged: 0/0
  2164 ;; Data sizes:     COMMON   BANK0   BANK1   BANK3   BANK2
  2165 ;;      Params:         0       0       0       0       0
  2166 ;;      Locals:         0       0       0       0       0
  2167 ;;      Temps:          3       0       0       0       0
  2168 ;;      Totals:         3       0       0       0       0
  2169 ;;Total ram usage:        3 bytes
  2170 ;; Hardware stack levels used:    1
  2171 ;; Hardware stack levels required when called:    1
  2172 ;; This function calls:
  2173 ;;		___awdiv
  2174 ;; This function is called by:
  2175 ;;		_ISR
  2176 ;; This function uses a non-reentrant model
  2177 ;;
  2178                           
  2179                           
  2180                           ;psect for function _division
  2181  0302                     _division:
  2182  0302                     i1l1181:	
  2183                           ;incstack = 0
  2184                           ; Regs used in _division: [wreg+status,2+status,0+pclath+cstack]
  2185                           
  2186                           
  2187                           ;Interrup_Libreria.c: 225:         case 6:
  2188  0302  3010               	movlw	16
  2189  0303  00F0               	movwf	___awdiv@divisor
  2190  0304  3000               	movlw	0
  2191  0305  00F1               	movwf	___awdiv@divisor+1
  2192  0306  1683               	bsf	3,5	;RP0=1, select bank1
  2193  0307  1303               	bcf	3,6	;RP1=0, select bank1
  2194  0308  081E               	movf	30,w	;volatile
  2195  0309  00F9               	movwf	??_division
  2196  030A  01FA               	clrf	??_division+1
  2197  030B  0879               	movf	??_division,w
  2198  030C  00F2               	movwf	___awdiv@dividend
  2199  030D  087A               	movf	??_division+1,w
  2200  030E  00F3               	movwf	___awdiv@dividend+1
  2201  030F  120A  118A  2223  120A  118A  	fcall	___awdiv
  2202  0314  0870               	movf	?___awdiv,w
  2203  0315  00FB               	movwf	??_division+2
  2204  0316  087B               	movf	??_division+2,w
  2205  0317  1283               	bcf	3,5	;RP0=0, select bank0
  2206  0318  1303               	bcf	3,6	;RP1=0, select bank0
  2207  0319  00B2               	movwf	_decena
  2208  031A                     i1l1183:
  2209                           
  2210                           ;Interrup_Libreria.c: 226:             PORTC = 0b01111101;
  2211  031A  1683               	bsf	3,5	;RP0=1, select bank1
  2212  031B  1303               	bcf	3,6	;RP1=0, select bank1
  2213  031C  081E               	movf	30,w	;volatile
  2214  031D  390F               	andlw	15
  2215  031E  00F9               	movwf	??_division
  2216  031F  0879               	movf	??_division,w
  2217  0320  1283               	bcf	3,5	;RP0=0, select bank0
  2218  0321  1303               	bcf	3,6	;RP1=0, select bank0
  2219  0322  00B3               	movwf	_unidad
  2220  0323                     i1l1185:
  2221                           
  2222                           ;Interrup_Libreria.c: 228:         case 7:
  2223  0323  1809               	btfsc	9,0	;volatile
  2224  0324  2B26               	goto	u38_21
  2225  0325  2B27               	goto	u38_20
  2226  0326                     u38_21:
  2227  0326  2B2C               	goto	i1l1189
  2228  0327                     u38_20:
  2229  0327                     i1l1187:
  2230                           
  2231                           ;Interrup_Libreria.c: 229:             PORTC = 0b00000111;;Interrup_Libreria.c: 230:    
      +                                   break;
  2232  0327  0832               	movf	_decena,w
  2233  0328  00F9               	movwf	??_division
  2234  0329  0879               	movf	??_division,w
  2235  032A  00FC               	movwf	_show
  2236                           
  2237                           ;Interrup_Libreria.c: 231:         case 8:
  2238  032B  2B30               	goto	i1l135
  2239  032C                     i1l1189:
  2240                           
  2241                           ;Interrup_Libreria.c: 233:             break;;Interrup_Libreria.c: 234:         case 9:
  2242  032C  0833               	movf	_unidad,w
  2243  032D  00F9               	movwf	??_division
  2244  032E  0879               	movf	??_division,w
  2245  032F  00FC               	movwf	_show
  2246  0330                     i1l135:
  2247  0330  0008               	return
  2248  0331                     __end_of_division:
  2249                           
  2250                           	psect	text12
  2251  0223                     __ptext12:	
  2252 ;; *************** function ___awdiv *****************
  2253 ;; Defined at:
  2254 ;;		line 5 in file "C:\Program Files\Microchip\xc8\v2.31\pic\sources\c90\common\awdiv.c"
  2255 ;; Parameters:    Size  Location     Type
  2256 ;;  divisor         2    0[COMMON] int 
  2257 ;;  dividend        2    2[COMMON] int 
  2258 ;; Auto vars:     Size  Location     Type
  2259 ;;  quotient        2    7[COMMON] int 
  2260 ;;  sign            1    6[COMMON] unsigned char 
  2261 ;;  counter         1    5[COMMON] unsigned char 
  2262 ;; Return value:  Size  Location     Type
  2263 ;;                  2    0[COMMON] int 
  2264 ;; Registers used:
  2265 ;;		wreg, status,2, status,0
  2266 ;; Tracked objects:
  2267 ;;		On entry : 0/0
  2268 ;;		On exit  : 0/0
  2269 ;;		Unchanged: 0/0
  2270 ;; Data sizes:     COMMON   BANK0   BANK1   BANK3   BANK2
  2271 ;;      Params:         4       0       0       0       0
  2272 ;;      Locals:         4       0       0       0       0
  2273 ;;      Temps:          1       0       0       0       0
  2274 ;;      Totals:         9       0       0       0       0
  2275 ;;Total ram usage:        9 bytes
  2276 ;; Hardware stack levels used:    1
  2277 ;; This function calls:
  2278 ;;		Nothing
  2279 ;; This function is called by:
  2280 ;;		_division
  2281 ;; This function uses a non-reentrant model
  2282 ;;
  2283                           
  2284                           
  2285                           ;psect for function ___awdiv
  2286  0223                     ___awdiv:
  2287  0223                     i1l1137:	
  2288                           ;incstack = 0
  2289                           ; Regs used in ___awdiv: [wreg+status,2+status,0]
  2290                           
  2291  0223  01F6               	clrf	___awdiv@sign
  2292  0224                     i1l1139:
  2293  0224  1FF1               	btfss	___awdiv@divisor+1,7
  2294  0225  2A27               	goto	u28_21
  2295  0226  2A28               	goto	u28_20
  2296  0227                     u28_21:
  2297  0227  2A2F               	goto	i1l1145
  2298  0228                     u28_20:
  2299  0228                     i1l1141:
  2300  0228  09F0               	comf	___awdiv@divisor,f
  2301  0229  09F1               	comf	___awdiv@divisor+1,f
  2302  022A  0AF0               	incf	___awdiv@divisor,f
  2303  022B  1903               	skipnz
  2304  022C  0AF1               	incf	___awdiv@divisor+1,f
  2305  022D                     i1l1143:
  2306  022D  01F6               	clrf	___awdiv@sign
  2307  022E  0AF6               	incf	___awdiv@sign,f
  2308  022F                     i1l1145:
  2309  022F  1FF3               	btfss	___awdiv@dividend+1,7
  2310  0230  2A32               	goto	u29_21
  2311  0231  2A33               	goto	u29_20
  2312  0232                     u29_21:
  2313  0232  2A3C               	goto	i1l1151
  2314  0233                     u29_20:
  2315  0233                     i1l1147:
  2316  0233  09F2               	comf	___awdiv@dividend,f
  2317  0234  09F3               	comf	___awdiv@dividend+1,f
  2318  0235  0AF2               	incf	___awdiv@dividend,f
  2319  0236  1903               	skipnz
  2320  0237  0AF3               	incf	___awdiv@dividend+1,f
  2321  0238                     i1l1149:
  2322  0238  3001               	movlw	1
  2323  0239  00F4               	movwf	??___awdiv
  2324  023A  0874               	movf	??___awdiv,w
  2325  023B  06F6               	xorwf	___awdiv@sign,f
  2326  023C                     i1l1151:
  2327  023C  01F7               	clrf	___awdiv@quotient
  2328  023D  01F8               	clrf	___awdiv@quotient+1
  2329  023E                     i1l1153:
  2330  023E  0870               	movf	___awdiv@divisor,w
  2331  023F  0471               	iorwf	___awdiv@divisor+1,w
  2332  0240  1903               	btfsc	3,2
  2333  0241  2A43               	goto	u30_21
  2334  0242  2A44               	goto	u30_20
  2335  0243                     u30_21:
  2336  0243  2A7B               	goto	i1l1173
  2337  0244                     u30_20:
  2338  0244                     i1l1155:
  2339  0244  01F5               	clrf	___awdiv@counter
  2340  0245  0AF5               	incf	___awdiv@counter,f
  2341  0246  2A52               	goto	i1l1161
  2342  0247                     i1l1157:
  2343  0247  3001               	movlw	1
  2344  0248                     u31_25:
  2345  0248  1003               	clrc
  2346  0249  0DF0               	rlf	___awdiv@divisor,f
  2347  024A  0DF1               	rlf	___awdiv@divisor+1,f
  2348  024B  3EFF               	addlw	-1
  2349  024C  1D03               	skipz
  2350  024D  2A48               	goto	u31_25
  2351  024E                     i1l1159:
  2352  024E  3001               	movlw	1
  2353  024F  00F4               	movwf	??___awdiv
  2354  0250  0874               	movf	??___awdiv,w
  2355  0251  07F5               	addwf	___awdiv@counter,f
  2356  0252                     i1l1161:
  2357  0252  1FF1               	btfss	___awdiv@divisor+1,7
  2358  0253  2A55               	goto	u32_21
  2359  0254  2A56               	goto	u32_20
  2360  0255                     u32_21:
  2361  0255  2A47               	goto	i1l1157
  2362  0256                     u32_20:
  2363  0256                     i1l1163:
  2364  0256  3001               	movlw	1
  2365  0257                     u33_25:
  2366  0257  1003               	clrc
  2367  0258  0DF7               	rlf	___awdiv@quotient,f
  2368  0259  0DF8               	rlf	___awdiv@quotient+1,f
  2369  025A  3EFF               	addlw	-1
  2370  025B  1D03               	skipz
  2371  025C  2A57               	goto	u33_25
  2372  025D  0871               	movf	___awdiv@divisor+1,w
  2373  025E  0273               	subwf	___awdiv@dividend+1,w
  2374  025F  1D03               	skipz
  2375  0260  2A63               	goto	u34_25
  2376  0261  0870               	movf	___awdiv@divisor,w
  2377  0262  0272               	subwf	___awdiv@dividend,w
  2378  0263                     u34_25:
  2379  0263  1C03               	skipc
  2380  0264  2A66               	goto	u34_21
  2381  0265  2A67               	goto	u34_20
  2382  0266                     u34_21:
  2383  0266  2A6E               	goto	i1l1169
  2384  0267                     u34_20:
  2385  0267                     i1l1165:
  2386  0267  0870               	movf	___awdiv@divisor,w
  2387  0268  02F2               	subwf	___awdiv@dividend,f
  2388  0269  0871               	movf	___awdiv@divisor+1,w
  2389  026A  1C03               	skipc
  2390  026B  03F3               	decf	___awdiv@dividend+1,f
  2391  026C  02F3               	subwf	___awdiv@dividend+1,f
  2392  026D                     i1l1167:
  2393  026D  1477               	bsf	___awdiv@quotient,0
  2394  026E                     i1l1169:
  2395  026E  3001               	movlw	1
  2396  026F                     u35_25:
  2397  026F  1003               	clrc
  2398  0270  0CF1               	rrf	___awdiv@divisor+1,f
  2399  0271  0CF0               	rrf	___awdiv@divisor,f
  2400  0272  3EFF               	addlw	-1
  2401  0273  1D03               	skipz
  2402  0274  2A6F               	goto	u35_25
  2403  0275                     i1l1171:
  2404  0275  3001               	movlw	1
  2405  0276  02F5               	subwf	___awdiv@counter,f
  2406  0277  1D03               	btfss	3,2
  2407  0278  2A7A               	goto	u36_21
  2408  0279  2A7B               	goto	u36_20
  2409  027A                     u36_21:
  2410  027A  2A56               	goto	i1l1163
  2411  027B                     u36_20:
  2412  027B                     i1l1173:
  2413  027B  0876               	movf	___awdiv@sign,w
  2414  027C  1903               	btfsc	3,2
  2415  027D  2A7F               	goto	u37_21
  2416  027E  2A80               	goto	u37_20
  2417  027F                     u37_21:
  2418  027F  2A85               	goto	i1l1177
  2419  0280                     u37_20:
  2420  0280                     i1l1175:
  2421  0280  09F7               	comf	___awdiv@quotient,f
  2422  0281  09F8               	comf	___awdiv@quotient+1,f
  2423  0282  0AF7               	incf	___awdiv@quotient,f
  2424  0283  1903               	skipnz
  2425  0284  0AF8               	incf	___awdiv@quotient+1,f
  2426  0285                     i1l1177:
  2427  0285  0878               	movf	___awdiv@quotient+1,w
  2428  0286  00F1               	movwf	?___awdiv+1
  2429  0287  0877               	movf	___awdiv@quotient,w
  2430  0288  00F0               	movwf	?___awdiv
  2431  0289                     i1l444:
  2432  0289  0008               	return
  2433  028A                     __end_of___awdiv:
  2434                           
  2435                           	psect	text13
  2436  01B0                     __ptext13:	
  2437 ;; *************** function _decrementar *****************
  2438 ;; Defined at:
  2439 ;;		line 334 in file "Interrup_Libreria.c"
  2440 ;; Parameters:    Size  Location     Type
  2441 ;;		None
  2442 ;; Auto vars:     Size  Location     Type
  2443 ;;  e               2    2[COMMON] int 
  2444 ;;  e               2    0[COMMON] int 
  2445 ;; Return value:  Size  Location     Type
  2446 ;;                  1    wreg      void 
  2447 ;; Registers used:
  2448 ;;		wreg, status,2, status,0, btemp+1
  2449 ;; Tracked objects:
  2450 ;;		On entry : 0/0
  2451 ;;		On exit  : 0/0
  2452 ;;		Unchanged: 0/0
  2453 ;; Data sizes:     COMMON   BANK0   BANK1   BANK3   BANK2
  2454 ;;      Params:         0       0       0       0       0
  2455 ;;      Locals:         4       0       0       0       0
  2456 ;;      Temps:          0       0       0       0       0
  2457 ;;      Totals:         4       0       0       0       0
  2458 ;;Total ram usage:        4 bytes
  2459 ;; Hardware stack levels used:    1
  2460 ;; This function calls:
  2461 ;;		Nothing
  2462 ;; This function is called by:
  2463 ;;		_ISR
  2464 ;; This function uses a non-reentrant model
  2465 ;;
  2466                           
  2467                           
  2468                           ;psect for function _decrementar
  2469  01B0                     _decrementar:
  2470  01B0                     i1l1281:	
  2471                           ;incstack = 0
  2472                           ; Regs used in _decrementar: [wreg+status,2+status,0+btemp+1]
  2473                           
  2474  01B0  1283               	bcf	3,5	;RP0=0, select bank0
  2475  01B1  1303               	bcf	3,6	;RP1=0, select bank0
  2476  01B2  1C86               	btfss	6,1	;volatile
  2477  01B3  29B5               	goto	u45_21
  2478  01B4  29B6               	goto	u45_20
  2479  01B5                     u45_21:
  2480  01B5  29F2               	goto	i1l1307
  2481  01B6                     u45_20:
  2482  01B6                     i1l1283:
  2483  01B6  01F0               	clrf	decrementar@e
  2484  01B7  01F1               	clrf	decrementar@e+1
  2485  01B8                     i1l1289:
  2486  01B8  1283               	bcf	3,5	;RP0=0, select bank0
  2487  01B9  1303               	bcf	3,6	;RP1=0, select bank0
  2488  01BA  0826               	movf	_pressed_ok2,w
  2489  01BB  3E01               	addlw	1
  2490  01BC  00A6               	movwf	_pressed_ok2
  2491  01BD  0827               	movf	_pressed_ok2+1,w
  2492  01BE  1803               	skipnc
  2493  01BF  3E01               	addlw	1
  2494  01C0  3E00               	addlw	0
  2495  01C1  00A7               	movwf	_pressed_ok2+1
  2496  01C2                     i1l1291:
  2497  01C2  3001               	movlw	1
  2498  01C3  07F0               	addwf	decrementar@e,f
  2499  01C4  1803               	skipnc
  2500  01C5  0AF1               	incf	decrementar@e+1,f
  2501  01C6  3000               	movlw	0
  2502  01C7  07F1               	addwf	decrementar@e+1,f
  2503  01C8                     i1l1293:
  2504  01C8  0871               	movf	decrementar@e+1,w
  2505  01C9  3A80               	xorlw	128
  2506  01CA  00FF               	movwf	btemp+1
  2507  01CB  3080               	movlw	128
  2508  01CC  027F               	subwf	btemp+1,w
  2509  01CD  1D03               	skipz
  2510  01CE  29D1               	goto	u46_25
  2511  01CF  3065               	movlw	101
  2512  01D0  0270               	subwf	decrementar@e,w
  2513  01D1                     u46_25:
  2514  01D1  1C03               	skipc
  2515  01D2  29D4               	goto	u46_21
  2516  01D3  29D5               	goto	u46_20
  2517  01D4                     u46_21:
  2518  01D4  29B8               	goto	i1l1289
  2519  01D5                     u46_20:
  2520  01D5                     i1l1295:
  2521  01D5  1283               	bcf	3,5	;RP0=0, select bank0
  2522  01D6  1303               	bcf	3,6	;RP1=0, select bank0
  2523  01D7  01A4               	clrf	_released_ok2
  2524  01D8  01A5               	clrf	_released_ok2+1
  2525  01D9                     i1l1297:
  2526  01D9  3000               	movlw	0
  2527  01DA  0227               	subwf	_pressed_ok2+1,w
  2528  01DB  3065               	movlw	101
  2529  01DC  1903               	skipnz
  2530  01DD  0226               	subwf	_pressed_ok2,w
  2531  01DE  1C03               	skipc
  2532  01DF  29E1               	goto	u47_21
  2533  01E0  29E2               	goto	u47_20
  2534  01E1                     u47_21:
  2535  01E1  29EF               	goto	i1l1305
  2536  01E2                     u47_20:
  2537  01E2                     i1l1299:
  2538  01E2  0822               	movf	_presionado2,w
  2539  01E3  0423               	iorwf	_presionado2+1,w
  2540  01E4  1D03               	btfss	3,2
  2541  01E5  29E7               	goto	u48_21
  2542  01E6  29E8               	goto	u48_20
  2543  01E7                     u48_21:
  2544  01E7  29EF               	goto	i1l1305
  2545  01E8                     u48_20:
  2546  01E8                     i1l1301:
  2547  01E8  0808               	movf	8,w	;volatile
  2548  01E9  3EFF               	addlw	255
  2549  01EA  0088               	movwf	8	;volatile
  2550  01EB                     i1l1303:
  2551  01EB  3001               	movlw	1
  2552  01EC  00A2               	movwf	_presionado2
  2553  01ED  3000               	movlw	0
  2554  01EE  00A3               	movwf	_presionado2+1
  2555  01EF                     i1l1305:
  2556  01EF  01A6               	clrf	_pressed_ok2
  2557  01F0  01A7               	clrf	_pressed_ok2+1
  2558  01F1  2A22               	goto	i1l181
  2559  01F2                     i1l1307:
  2560  01F2  01F2               	clrf	decrementar@e_335
  2561  01F3  01F3               	clrf	decrementar@e_335+1
  2562  01F4                     i1l1313:
  2563  01F4  1283               	bcf	3,5	;RP0=0, select bank0
  2564  01F5  1303               	bcf	3,6	;RP1=0, select bank0
  2565  01F6  0824               	movf	_released_ok2,w
  2566  01F7  3E01               	addlw	1
  2567  01F8  00A4               	movwf	_released_ok2
  2568  01F9  0825               	movf	_released_ok2+1,w
  2569  01FA  1803               	skipnc
  2570  01FB  3E01               	addlw	1
  2571  01FC  3E00               	addlw	0
  2572  01FD  00A5               	movwf	_released_ok2+1
  2573  01FE                     i1l1315:
  2574  01FE  3001               	movlw	1
  2575  01FF  07F2               	addwf	decrementar@e_335,f
  2576  0200  1803               	skipnc
  2577  0201  0AF3               	incf	decrementar@e_335+1,f
  2578  0202  3000               	movlw	0
  2579  0203  07F3               	addwf	decrementar@e_335+1,f
  2580  0204                     i1l1317:
  2581  0204  0873               	movf	decrementar@e_335+1,w
  2582  0205  3A80               	xorlw	128
  2583  0206  00FF               	movwf	btemp+1
  2584  0207  3080               	movlw	128
  2585  0208  027F               	subwf	btemp+1,w
  2586  0209  1D03               	skipz
  2587  020A  2A0D               	goto	u49_25
  2588  020B  3065               	movlw	101
  2589  020C  0272               	subwf	decrementar@e_335,w
  2590  020D                     u49_25:
  2591  020D  1C03               	skipc
  2592  020E  2A10               	goto	u49_21
  2593  020F  2A11               	goto	u49_20
  2594  0210                     u49_21:
  2595  0210  29F4               	goto	i1l1313
  2596  0211                     u49_20:
  2597  0211                     i1l1319:
  2598  0211  1283               	bcf	3,5	;RP0=0, select bank0
  2599  0212  1303               	bcf	3,6	;RP1=0, select bank0
  2600  0213  01A6               	clrf	_pressed_ok2
  2601  0214  01A7               	clrf	_pressed_ok2+1
  2602  0215                     i1l1321:
  2603  0215  3000               	movlw	0
  2604  0216  0225               	subwf	_released_ok2+1,w
  2605  0217  3065               	movlw	101
  2606  0218  1903               	skipnz
  2607  0219  0224               	subwf	_released_ok2,w
  2608  021A  1C03               	skipc
  2609  021B  2A1D               	goto	u50_21
  2610  021C  2A1E               	goto	u50_20
  2611  021D                     u50_21:
  2612  021D  2A22               	goto	i1l181
  2613  021E                     u50_20:
  2614  021E                     i1l1323:
  2615  021E  01A2               	clrf	_presionado2
  2616  021F  01A3               	clrf	_presionado2+1
  2617  0220  01AC               	clrf	_released_ok
  2618  0221  01AD               	clrf	_released_ok+1
  2619  0222                     i1l181:
  2620  0222  0008               	return
  2621  0223                     __end_of_decrementar:
  2622  007E                     btemp	set	126	;btemp
  2623  007E                     wtemp0	set	126
  2624                           
  2625                           	psect	config
  2626                           
  2627                           ;Config register CONFIG1 @ 0x2007
  2628                           ;	Oscillator Selection bits
  2629                           ;	FOSC = INTRC_NOCLKOUT, INTOSCIO oscillator: I/O function on RA6/OSC2/CLKOUT pin, I/O f
      +                          unction on RA7/OSC1/CLKIN
  2630                           ;	Watchdog Timer Enable bit
  2631                           ;	WDTE = OFF, WDT disabled and can be enabled by SWDTEN bit of the WDTCON register
  2632                           ;	Power-up Timer Enable bit
  2633                           ;	PWRTE = OFF, PWRT disabled
  2634                           ;	RE3/MCLR pin function select bit
  2635                           ;	MCLRE = OFF, RE3/MCLR pin function is digital input, MCLR internally tied to VDD
  2636                           ;	Code Protection bit
  2637                           ;	CP = OFF, Program memory code protection is disabled
  2638                           ;	Data Code Protection bit
  2639                           ;	CPD = OFF, Data memory code protection is disabled
  2640                           ;	Brown Out Reset Selection bits
  2641                           ;	BOREN = OFF, BOR disabled
  2642                           ;	Internal External Switchover bit
  2643                           ;	IESO = OFF, Internal/External Switchover mode is disabled
  2644                           ;	Fail-Safe Clock Monitor Enabled bit
  2645                           ;	FCMEN = OFF, Fail-Safe Clock Monitor is disabled
  2646                           ;	Low Voltage Programming Enable bit
  2647                           ;	LVP = OFF, RB3 pin has digital I/O, HV on MCLR must be used for programming
  2648                           ;	In-Circuit Debugger Mode bit
  2649                           ;	DEBUG = 0x1, unprogrammed default
  2650  2007                     	org	8199
  2651  2007  20D4               	dw	8404
  2652                           
  2653                           ;Config register CONFIG2 @ 0x2008
  2654                           ;	Brown-out Reset Selection bit
  2655                           ;	BOR4V = BOR40V, Brown-out Reset set to 4.0V
  2656                           ;	Flash Program Memory Self Write Enable bits
  2657                           ;	WRT = OFF, Write protection off
  2658  2008                     	org	8200
  2659  2008  3FFF               	dw	16383

Data Sizes:
    Strings     0
    Constant    0
    Data        0
    BSS         23
    Persistent  0
    Stack       0

Auto Spaces:
    Space          Size  Autos    Used
    COMMON           14     13      14
    BANK0            80     11      33
    BANK1            80      0       0
    BANK3            96      0       0
    BANK2            96      0       0

Pointer List with Targets:

    None.

Critical Paths under _main in COMMON

    None.

Critical Paths under _ISR in COMMON

    _ISR->_division
    _division->___awdiv

Critical Paths under _main in BANK0

    _adc_config->_initADC

Critical Paths under _ISR in BANK0

    None.

Critical Paths under _main in BANK1

    None.

Critical Paths under _ISR in BANK1

    None.

Critical Paths under _main in BANK3

    None.

Critical Paths under _ISR in BANK3

    None.

Critical Paths under _main in BANK2

    None.

Critical Paths under _ISR in BANK2

    None.

Call Graph Tables:

 ---------------------------------------------------------------------------------
 (Depth) Function   	        Calls       Base Space   Used Autos Params    Refs
 ---------------------------------------------------------------------------------
 (0) _main                                                 2     2      0      22
                                              9 BANK0      2     2      0
                         _adc_config
                    _interrup_config
                         _osc_config
                              _setup
                        _tmr0_config
 ---------------------------------------------------------------------------------
 (1) _tmr0_config                                          0     0      0       0
 ---------------------------------------------------------------------------------
 (1) _setup                                                0     0      0       0
 ---------------------------------------------------------------------------------
 (1) _osc_config                                           0     0      0       0
 ---------------------------------------------------------------------------------
 (1) _interrup_config                                      0     0      0       0
 ---------------------------------------------------------------------------------
 (1) _adc_config                                           0     0      0      22
                            _initADC
 ---------------------------------------------------------------------------------
 (2) _initADC                                              3     3      0      22
                                              6 BANK0      3     3      0
 ---------------------------------------------------------------------------------
 Estimated maximum stack depth 2
 ---------------------------------------------------------------------------------
 (Depth) Function   	        Calls       Base Space   Used Autos Params    Refs
 ---------------------------------------------------------------------------------
 (3) _ISR                                                  7     7      0     735
                                             12 COMMON     1     1      0
                                              0 BANK0      6     6      0
                        _decrementar
                           _division
                        _hexadecimal
                        _incrementar
                        _multiplexar
 ---------------------------------------------------------------------------------
 (4) _multiplexar                                          0     0      0       0
 ---------------------------------------------------------------------------------
 (4) _incrementar                                          4     4      0      92
                                              0 COMMON     4     4      0
 ---------------------------------------------------------------------------------
 (4) _hexadecimal                                          2     0      2      98
                                              0 COMMON     2     0      2
 ---------------------------------------------------------------------------------
 (4) _division                                             3     3      0     452
                                              9 COMMON     3     3      0
                            ___awdiv
 ---------------------------------------------------------------------------------
 (5) ___awdiv                                              9     5      4     452
                                              0 COMMON     9     5      4
 ---------------------------------------------------------------------------------
 (4) _decrementar                                          4     4      0      92
                                              0 COMMON     4     4      0
 ---------------------------------------------------------------------------------
 Estimated maximum stack depth 5
 ---------------------------------------------------------------------------------

 Call Graph Graphs:

 _main (ROOT)
   _adc_config
     _initADC
   _interrup_config
   _osc_config
   _setup
   _tmr0_config

 _ISR (ROOT)
   _decrementar
   _division
     ___awdiv
   _hexadecimal
   _incrementar
   _multiplexar

 Address spaces:
Name               Size   Autos  Total    Cost      Usage
BITCOMMON            E      0       0       0        0.0%
EEDATA             100      0       0       0        0.0%
NULL                 0      0       0       0        0.0%
CODE                 0      0       0       0        0.0%
COMMON               E      D       E       1      100.0%
BITSFR0              0      0       0       1        0.0%
SFR0                 0      0       0       1        0.0%
BITSFR1              0      0       0       2        0.0%
SFR1                 0      0       0       2        0.0%
STACK                0      0       0       2        0.0%
ABS                  0      0      2F       3        0.0%
BITBANK0            50      0       0       4        0.0%
BITSFR3              0      0       0       4        0.0%
SFR3                 0      0       0       4        0.0%
BANK0               50      B      21       5       41.2%
BITSFR2              0      0       0       5        0.0%
SFR2                 0      0       0       5        0.0%
BITBANK1            50      0       0       6        0.0%
BANK1               50      0       0       7        0.0%
BITBANK3            60      0       0       8        0.0%
BANK3               60      0       0       9        0.0%
BITBANK2            60      0       0      10        0.0%
BANK2               60      0       0      11        0.0%
DATA                 0      0      2F      12        0.0%


Microchip Technology PIC Macro Assembler V2.31 build 20201012212115 
Symbol Table                                                                                   Thu Feb 04 22:38:43 2021

                       _i 0020              ___awdiv@sign 0076                        fsr 0004  
                     l200 0059                       l201 005E                       l113 0358  
                     l202 0063                       l122 0365                       l203 0068  
                     l204 006D                       l116 0372                       l205 00AF  
                     l125 0397                       l119 0388                       l190 00A6  
                     l191 002C                       l192 0031                       l193 0036  
                     l194 003B                       l195 0040                       l196 0045  
                     l197 004A                       l189 0027                       l198 004F  
                     l199 0054   __end_of_interrup_config 0373                       u530 02F5  
                     u531 02F4                       _ISR 028A                       u547 02EA  
            ?_hexadecimal 0070                       fsr0 0004                       indf 0000  
                    ?_ISR 0070                      l1125 0026                      l1129 0072  
                    l1331 033C                      l1341 034F                      l1333 0343  
                    l1351 036E                      l1343 0352                      l1335 0346  
                    l1327 0331                      l1345 0355                      l1337 0349  
                    l1329 0339                      l1353 0359                      l1347 037F  
                    l1339 034C                      l1355 0361                      l1357 0391  
                    l1349 0366                      l1381 02CD                      l1391 02E4  
                    l1383 02D2                      l1449 007A                      l1393 02EF  
                    l1385 02D7                      l1395 02F5                      l1387 02DC  
                    l1379 02C8                      l1397 02F6                      l1389 02E1  
                    _IOCB 0096                      _TMR0 0001                      _main 02C8  
                    _show 007C                      btemp 007E                      start 0012  
            ?_incrementar 0070                     ??_ISR 0036                     ?_main 0070  
         __end_of___awdiv 028A                     _ANSEL 0188           ___awdiv@divisor 0070  
                   i1l101 02BB                     i1l130 037E                     i1l135 0330  
                   i1l128 037C                     i1l181 0222                     i1l157 013C  
                   i1l169 01AF                     i1l444 0289                     i1l853 0373  
                   i1l855 0379           ___awdiv@counter 0075                     u11_20 0379  
                   u11_21 0378                     u30_20 0244                     u30_21 0243  
                   u31_25 0248                     u32_20 0256                     u40_20 0162  
                   u32_21 0255                     u40_21 0161                     u40_25 015E  
                   u41_20 016F                     u41_21 016E                     u33_25 0257  
                   u50_20 021E                     u34_20 0267                     u42_20 0175  
                   u50_21 021D                     u34_21 0266                     u42_21 0174  
                   u34_25 0263                     u43_20 019E                     u51_20 028E  
                   u43_21 019D                     u51_21 028D                     _PORTA 0005  
                   _PORTB 0006                     _PORTC 0007                     _PORTD 0008  
                   u35_25 026F                     u43_25 019A                     _PORTE 0009  
                   u36_20 027B                     u28_20 0228                     u44_20 01AB  
                   u52_20 02AD                     u36_21 027A                     u28_21 0227  
                   u44_21 01AA                     u52_21 02AC                     u45_20 01B6  
                   u37_20 0280                     u29_20 0233                     u45_21 01B5  
                   u37_21 027F                     u29_21 0232                     u46_20 01D5  
                   u38_20 0327                     u46_21 01D4                     u38_21 0326  
                   u46_25 01D1                     u47_20 01E2                     u39_20 0143  
                   u47_21 01E1                     u39_21 0142                     u48_20 01E8  
                   u48_21 01E7                     u49_20 0211                     u49_21 0210  
                   _TRISA 0085                     _TRISB 0086                     u49_25 020D  
                   _TRISC 0087                     _TRISD 0088                     _TRISE 0089  
         __end_of_initADC 00B0                     _setup 0331                     pclath 000A  
                   status 0003      __size_of_decrementar 0073                     wtemp0 007E  
         __initialization 0015              __end_of_main 0302                    ??_main 003F  
        ?_interrup_config 0070              ?_tmr0_config 0070                    _ADRESL 009E  
        ___awdiv@dividend 0072                    ?_setup 0070                    _ANSELH 0189  
                  i1l1201 00C5                    i1l1211 00DE                    i1l1203 00CA  
                  i1l1301 01E8                    i1l1141 0228                    i1l1221 00F7  
                  i1l1213 00E3                    i1l1205 00CF                    i1l1303 01EB  
                  i1l1151 023C                    i1l1143 022D                    i1l1223 00FC  
                  i1l1215 00E8                    i1l1207 00D4                    i1l1321 0215  
                  i1l1313 01F4                    i1l1305 01EF                    i1l1161 0252  
                  i1l1153 023E                    i1l1145 022F                    i1l1137 0223  
                  i1l1225 0101                    i1l1217 00ED                    i1l1209 00D9  
                  i1l1323 021E                    i1l1315 01FE                    i1l1307 01F2  
                  i1l1171 0275                    i1l1163 0256                    i1l1155 0244  
                  i1l1147 0233                    i1l1139 0224                    i1l1219 00F2  
                  i1l1251 0166                    i1l1243 0145                    i1l1235 013D  
                  i1l1317 0204                    i1l1165 0267                    i1l1157 0247  
                  i1l1173 027B                    i1l1149 0238                    i1l1181 0302  
                  i1l1229 0105                    i1l1253 016F                    i1l1245 014F  
                  i1l1237 0143                    i1l1261 017F                    i1l1319 0211  
                  i1l1175 0280                    i1l1167 026D                    i1l1159 024E  
                  i1l1183 031A                    i1l1191 00B0                    i1l1271 0191  
                  i1l1255 0175                    i1l1247 0155                    i1l1281 01B0  
                  i1l1177 0285                    i1l1169 026E                    i1l1185 0323  
                  i1l1193 00B1                    i1l1273 019E                    i1l1257 0178  
                  i1l1249 0162                    i1l1361 028E                    i1l1291 01C2  
                  i1l1283 01B6                    i1l1187 0327                    i1l1451 010A  
                  i1l1195 00B6                    i1l1275 01A2                    i1l1267 0181  
                  i1l1259 017C                    i1l1371 02AD                    i1l1363 028F  
                  i1l1293 01C8                    i1l1189 032C                    i1l1197 00BB  
                  i1l1277 01AB                    i1l1269 018B                    i1l1373 02B0  
                  i1l1365 0291                    i1l1295 01D5                    i1l1199 00C0  
                  i1l1375 02B5                    i1l1367 029B                    i1l1359 028A  
                  i1l1297 01D9                    i1l1289 01B8                    i1l1377 02BA  
                  i1l1369 02A9                    i1l1299 01E2          __end_of_division 0331  
               ??___awdiv 0074                    _decena 0032          ___awdiv@quotient 0077  
                  _unidad 0033                 ??_initADC 003C                    saved_w 007E  
    __size_of_hexadecimal 008D              ?_multiplexar 0070   __end_of__initialization 001F  
          __pcstackCOMMON 0070                _adc_config 0391             __end_of_setup 0359  
    __size_of_incrementar 0073            _OPTION_REGbits 0081                   ??_setup 003C  
              __pbssBANK0 0020           hexadecimal@show 0070                __pmaintext 02C8  
              __pintentry 0004              incrementar@e 0070          decrementar@e_335 0072  
    __size_of_tmr0_config 000D                 ?_division 0070               ?_adc_config 0070  
                 ___awdiv 0223                   __ptext1 0359                   __ptext2 0331  
                 __ptext3 037F                   __ptext4 0366                   __ptext5 0391  
                 __ptext6 0023                   __ptext7 028A                   __ptext8 0373  
                 __ptext9 013D                   _initADC 0023              __size_of_ISR 003E  
                 clrloop0 038A             ??_decrementar 0070      end_of_initialization 001F  
              ??_division 0079                _osc_config 037F      __size_of_multiplexar 000C  
               _PORTBbits 0006                 _PORTEbits 0009                _presionado 002A  
              _pressed_ok 002E       __size_of_adc_config 0007  __size_of_interrup_config 000D  
     __end_of_decrementar 0223                initADC@CHS 003E             ??_hexadecimal 0072  
     start_initialization 0015               __end_of_ISR 02C8               ?_osc_config 0070  
           ??_incrementar 0070               __pbssCOMMON 007C                 ___latbits 0002  
           __pcstackBANK0 0036                 _adc_value 0035       __end_of_hexadecimal 013D  
             _decrementar 01B0         __size_of_division 002F          incrementar@e_332 0072  
       ??_interrup_config 003C              ??_adc_config 003F                  ?___awdiv 0070  
     __end_of_incrementar 01B0                 _contador2 0028                  ?_initADC 0070  
     __size_of_osc_config 000A             ??_tmr0_config 003C            __size_of_setup 0028  
            decrementar@e 0070        __end_of_adc_config 0398         interrupt_function 0004  
               clear_ram0 0389                _ADCON0bits 001F                _ADCON1bits 009F  
          _timer_contador 0034               _hexadecimal 00B0              _released_ok2 0024  
           ??_multiplexar 0070       __end_of_tmr0_config 0366               _incrementar 013D  
        __size_of___awdiv 0067          __size_of_initADC 008D                  __ptext10 00B0  
                __ptext11 0302                  __ptext12 0223                  __ptext13 01B0  
                _division 0302                  _contador 0030              ??_osc_config 003C  
           __size_of_main 003A       __end_of_multiplexar 037F               _released_ok 002C  
              _INTCONbits 000B        __end_of_osc_config 0389               _tmr0_config 0359  
         _interrup_config 0366              ?_decrementar 0070                  intlevel1 0000  
              _OSCCONbits 008F               _presionado2 0022               _pressed_ok2 0026  
             _multiplexar 0373  
